///////////////////////////////////////////////////////////////////////////////
//
// IAR C/C++ Compiler V9.30.1.3056 for 8051               03/Nov/2017  19:05:51
// Copyright 2004-2015 IAR Systems AB.
// Standalone license - IAR Embedded Workbench for 8051
//
//    Core               =  plain
//    Code model         =  banked
//    Data model         =  large
//    Calling convention =  xdata reentrant
//    Constant location  =  data_rom
//    Dptr setup         =  1,16
//                          
//    Source file        =  
//        C:\Texas Instruments\Z-Stack 3.0.0\Components\stack\bdb\bdb.c
//    Command line       =  
//        -f "C:\Texas Instruments\Z-Stack
//        3.0.0\Projects\zstack\HomeAutomation\GenericApp\CC2530DB\..\..\..\Tools\CC2530DB\f8wEndev.cfg"
//        (-DCPU32MHZ -DROOT=__near_func -DMAC_CFG_TX_DATA_MAX=3
//        -DMAC_CFG_TX_MAX=6 -DMAC_CFG_RX_MAX=3) -f "C:\Texas
//        Instruments\Z-Stack
//        3.0.0\Projects\zstack\HomeAutomation\GenericApp\CC2530DB\..\..\..\Tools\CC2530DB\f8wConfig.cfg"
//        (-DZIGBEEPRO -DSECURE=1 -DZG_SECURE_DYNAMIC=0 -DREFLECTOR
//        -DDEFAULT_CHANLIST=0x00000800 -DZDAPP_CONFIG_PAN_ID=0xFFFF
//        -DNWK_START_DELAY=100 -DEXTENDED_JOINING_RANDOM_MASK=0x007F
//        -DBEACON_REQUEST_DELAY=100 -DBEACON_REQ_DELAY_MASK=0x00FF
//        -DLINK_STATUS_JITTER_MASK=0x007F -DROUTE_EXPIRY_TIME=30
//        -DAPSC_ACK_WAIT_DURATION_POLLED=3000 -DNWK_INDIRECT_MSG_TIMEOUT=7
//        -DMAX_RREQ_ENTRIES=8 -DAPSC_MAX_FRAME_RETRIES=3
//        -DNWK_MAX_DATA_RETRIES=2 -DMAX_POLL_FAILURE_RETRIES=2 -DMAX_BCAST=9
//        -DAPS_MAX_GROUPS=16 -DMAX_RTG_ENTRIES=40 -DNWK_MAX_BINDING_ENTRIES=4
//        -DMAX_BINDING_CLUSTER_IDS=4 -DDEFAULT_KEY={0}
//        -DMAC_MAX_FRAME_SIZE=116 -DZDNWKMGR_MIN_TRANSMISSIONS=20
//        "-DCONST=const __code" -DGENERIC=__generic -DRFD_RCVC_ALWAYS_ON=FALSE
//        -DPOLL_RATE=1000 -DQUEUED_POLL_RATE=100 -DRESPONSE_POLL_RATE=100
//        -DREJOIN_POLL_RATE=440 -DREJOIN_BACKOFF=900000 -DREJOIN_SCAN=900000
//        -DENABLE_LED4_DISABLE_S1) -f "C:\Texas Instruments\Z-Stack
//        3.0.0\Projects\zstack\HomeAutomation\GenericApp\CC2530DB\..\..\..\Tools\CC2530DB\f8wZCL.cfg"
//        "C:\Texas Instruments\Z-Stack 3.0.0\Components\stack\bdb\bdb.c" -D
//        SECURE=1 -D TC_LINKKEY_JOIN -D NV_INIT -D NV_RESTORE -D xPOWER_SAVING
//        -D NWK_AUTO_POLL -D xZTOOL_P1 -D xMT_TASK -D xMT_APP_FUNC -D
//        xMT_SYS_FUNC -D xMT_ZDO_FUNC -D xMT_ZDO_MGMT -D xMT_APP_CNF_FUNC -D
//        LEGACY_LCD_DEBUG -D LCD_SUPPORTED=DEBUG -D MULTICAST_ENABLED=FALSE -D
//        ZCL_READ -D ZCL_WRITE -D ZCL_BASIC -D ZCL_IDENTIFY -D ZCL_SCENES -D
//        ZCL_GROUPS -lC "C:\Texas Instruments\Z-Stack
//        3.0.0\Projects\zstack\HomeAutomation\GenericApp\CC2530DB\EndDeviceEB\List"
//        -lA "C:\Texas Instruments\Z-Stack
//        3.0.0\Projects\zstack\HomeAutomation\GenericApp\CC2530DB\EndDeviceEB\List"
//        --diag_suppress Pe001,Pa010 -o "C:\Texas Instruments\Z-Stack
//        3.0.0\Projects\zstack\HomeAutomation\GenericApp\CC2530DB\EndDeviceEB\Obj"
//        -e --debug --core=plain --dptr=16,1 --data_model=large
//        --code_model=banked --calling_convention=xdata_reentrant
//        --place_constants=data_rom --nr_virtual_regs 16 -I "C:\Texas
//        Instruments\Z-Stack
//        3.0.0\Projects\zstack\HomeAutomation\GenericApp\CC2530DB\" -I
//        "C:\Texas Instruments\Z-Stack
//        3.0.0\Projects\zstack\HomeAutomation\GenericApp\CC2530DB\..\Source\"
//        -I "C:\Texas Instruments\Z-Stack
//        3.0.0\Projects\zstack\HomeAutomation\GenericApp\CC2530DB\..\..\Source\"
//        -I "C:\Texas Instruments\Z-Stack
//        3.0.0\Projects\zstack\HomeAutomation\GenericApp\CC2530DB\..\..\..\ZMain\TI2530DB\"
//        -I "C:\Texas Instruments\Z-Stack
//        3.0.0\Projects\zstack\HomeAutomation\GenericApp\CC2530DB\..\..\..\..\..\Components\hal\include\"
//        -I "C:\Texas Instruments\Z-Stack
//        3.0.0\Projects\zstack\HomeAutomation\GenericApp\CC2530DB\..\..\..\..\..\Components\hal\target\CC2530EB\"
//        -I "C:\Texas Instruments\Z-Stack
//        3.0.0\Projects\zstack\HomeAutomation\GenericApp\CC2530DB\..\..\..\..\..\Components\mac\include\"
//        -I "C:\Texas Instruments\Z-Stack
//        3.0.0\Projects\zstack\HomeAutomation\GenericApp\CC2530DB\..\..\..\..\..\Components\mac\high_level\"
//        -I "C:\Texas Instruments\Z-Stack
//        3.0.0\Projects\zstack\HomeAutomation\GenericApp\CC2530DB\..\..\..\..\..\Components\mac\low_level\srf04\"
//        -I "C:\Texas Instruments\Z-Stack
//        3.0.0\Projects\zstack\HomeAutomation\GenericApp\CC2530DB\..\..\..\..\..\Components\mac\low_level\srf04\single_chip\"
//        -I "C:\Texas Instruments\Z-Stack
//        3.0.0\Projects\zstack\HomeAutomation\GenericApp\CC2530DB\..\..\..\..\..\Components\mt\"
//        -I "C:\Texas Instruments\Z-Stack
//        3.0.0\Projects\zstack\HomeAutomation\GenericApp\CC2530DB\..\..\..\..\..\Components\osal\include\"
//        -I "C:\Texas Instruments\Z-Stack
//        3.0.0\Projects\zstack\HomeAutomation\GenericApp\CC2530DB\..\..\..\..\..\Components\services\saddr\"
//        -I "C:\Texas Instruments\Z-Stack
//        3.0.0\Projects\zstack\HomeAutomation\GenericApp\CC2530DB\..\..\..\..\..\Components\services\sdata\"
//        -I "C:\Texas Instruments\Z-Stack
//        3.0.0\Projects\zstack\HomeAutomation\GenericApp\CC2530DB\..\..\..\..\..\Components\stack\af\"
//        -I "C:\Texas Instruments\Z-Stack
//        3.0.0\Projects\zstack\HomeAutomation\GenericApp\CC2530DB\..\..\..\..\..\Components\stack\bdb\"
//        -I "C:\Texas Instruments\Z-Stack
//        3.0.0\Projects\zstack\HomeAutomation\GenericApp\CC2530DB\..\..\..\..\..\Components\stack\gp\"
//        -I "C:\Texas Instruments\Z-Stack
//        3.0.0\Projects\zstack\HomeAutomation\GenericApp\CC2530DB\..\..\..\..\..\Components\stack\nwk\"
//        -I "C:\Texas Instruments\Z-Stack
//        3.0.0\Projects\zstack\HomeAutomation\GenericApp\CC2530DB\..\..\..\..\..\Components\stack\sapi\"
//        -I "C:\Texas Instruments\Z-Stack
//        3.0.0\Projects\zstack\HomeAutomation\GenericApp\CC2530DB\..\..\..\..\..\Components\stack\sec\"
//        -I "C:\Texas Instruments\Z-Stack
//        3.0.0\Projects\zstack\HomeAutomation\GenericApp\CC2530DB\..\..\..\..\..\Components\stack\sys\"
//        -I "C:\Texas Instruments\Z-Stack
//        3.0.0\Projects\zstack\HomeAutomation\GenericApp\CC2530DB\..\..\..\..\..\Components\stack\zcl\"
//        -I "C:\Texas Instruments\Z-Stack
//        3.0.0\Projects\zstack\HomeAutomation\GenericApp\CC2530DB\..\..\..\..\..\Components\stack\zdo\"
//        -I "C:\Texas Instruments\Z-Stack
//        3.0.0\Projects\zstack\HomeAutomation\GenericApp\CC2530DB\..\..\..\..\..\Components\zmac\"
//        -I "C:\Texas Instruments\Z-Stack
//        3.0.0\Projects\zstack\HomeAutomation\GenericApp\CC2530DB\..\..\..\..\..\Components\zmac\f8w\"
//        -Ohz --require_prototypes
//    List file          =  
//        C:\Texas Instruments\Z-Stack
//        3.0.0\Projects\zstack\HomeAutomation\GenericApp\CC2530DB\EndDeviceEB\List\bdb.s51
//
///////////////////////////////////////////////////////////////////////////////

        NAME bdb

        RTMODEL "__SystemLibrary", "CLib"
        RTMODEL "__calling_convention", "xdata_reentrant"
        RTMODEL "__code_model", "banked"
        RTMODEL "__core", "plain"
        RTMODEL "__data_model", "large"
        RTMODEL "__dptr_size", "16"
        RTMODEL "__extended_stack", "disabled"
        RTMODEL "__location_for_constants", "data"
        RTMODEL "__number_of_dptrs", "1"
        RTMODEL "__rt_version", "1"

        RSEG DOVERLAY:DATA:NOROOT(0)
        RSEG IOVERLAY:IDATA:NOROOT(0)
        RSEG ISTACK:IDATA:NOROOT(0)
        RSEG PSTACK:XDATA:NOROOT(0)
        RSEG XSTACK:XDATA:NOROOT(0)

        EXTERN ?V0
        EXTERN ?V1
        EXTERN ?V2
        EXTERN ?V3
        EXTERN ?V4
        EXTERN ?V5
        EXTERN ?V6
        EXTERN ?V7
        EXTERN ?V8
        EXTERN ?V9
        EXTERN ?V10
        EXTERN ?V11
        EXTERN ?ALLOC_XSTACK8
        EXTERN ?BANKED_ENTER_XDATA
        EXTERN ?BANKED_LEAVE_XDATA
        EXTERN ?BDISPATCH
        EXTERN ?BRET
        EXTERN ?CALL_IND
        EXTERN ?DEALLOC_XSTACK8
        EXTERN ?L_MOV_TO_X
        EXTERN ?L_MOV_X
        EXTERN ?PUSH_XSTACK8_X_FOUR
        EXTERN ?PUSH_XSTACK8_X_TWO
        EXTERN ?PUSH_XSTACK_I_ONE
        EXTERN ?PUSH_XSTACK_I_THREE
        EXTERN ?PUSH_XSTACK_I_TWO
        EXTERN ?S_SHL
        EXTERN ?UL_GT
        EXTERN ?XLOAD_R0123
        EXTERN ?XLOAD_R2345
        EXTERN ?XSP
        EXTERN ?XSTACK_DISP0_8
        EXTERN ?XSTACK_DISP100_8
        EXTERN ?XSTACK_DISP101_8
        EXTERN ?XSTACK_DISP102_8
        EXTERN ?XSTORE_R0123
        EXTERN __INIT_XDATA_I
        EXTERN __INIT_XDATA_Z

        PUBLIC `??bdb_AddRespondentNode::?relay`
        FUNCTION `??bdb_AddRespondentNode::?relay`,0203H
        PUBLIC `??bdb_CBKETCLinkKeyExchangeAttempt::?relay`
        FUNCTION `??bdb_CBKETCLinkKeyExchangeAttempt::?relay`,0203H
        PUBLIC `??bdb_ClearNetworkParams::?relay`
        FUNCTION `??bdb_ClearNetworkParams::?relay`,0203H
        PUBLIC `??bdb_CreateRespondentList::?relay`
        FUNCTION `??bdb_CreateRespondentList::?relay`,0203H
        PUBLIC `??bdb_GenerateInstallCodeCRC::?relay`
        FUNCTION `??bdb_GenerateInstallCodeCRC::?relay`,0203H
        PUBLIC `??bdb_Init::?relay`
        FUNCTION `??bdb_Init::?relay`,0203H
        PUBLIC `??bdb_NetworkRestoredResumeState::?relay`
        FUNCTION `??bdb_NetworkRestoredResumeState::?relay`,0203H
        PUBLIC `??bdb_NotifyCommissioningModeStart::?relay`
        FUNCTION `??bdb_NotifyCommissioningModeStart::?relay`,0203H
        FUNCTION `??bdb_ProcessOSALMsg::?relay`,0203H
        PUBLIC `??bdb_RegisterCBKETCLinkKeyExchangeCB::?relay`
        FUNCTION `??bdb_RegisterCBKETCLinkKeyExchangeCB::?relay`,0203H
        PUBLIC `??bdb_RegisterCommissioningStatusCB::?relay`
        FUNCTION `??bdb_RegisterCommissioningStatusCB::?relay`,0203H
        PUBLIC `??bdb_RegisterForFilterNwkDescCB::?relay`
        FUNCTION `??bdb_RegisterForFilterNwkDescCB::?relay`,0203H
        PUBLIC `??bdb_RegisterSimpleDescriptor::?relay`
        FUNCTION `??bdb_RegisterSimpleDescriptor::?relay`,0203H
        PUBLIC `??bdb_SendMsg::?relay`
        FUNCTION `??bdb_SendMsg::?relay`,0203H
        PUBLIC `??bdb_StartCommissioning::?relay`
        FUNCTION `??bdb_StartCommissioning::?relay`,0203H
        PUBLIC `??bdb_ZclIdentifyCmdInd::?relay`
        FUNCTION `??bdb_ZclIdentifyCmdInd::?relay`,0203H
        PUBLIC `??bdb_ZedAttemptRecoverNwk::?relay`
        FUNCTION `??bdb_ZedAttemptRecoverNwk::?relay`,0203H
        PUBLIC `??bdb_addInstallCode::?relay`
        FUNCTION `??bdb_addInstallCode::?relay`,0203H
        PUBLIC `??bdb_calculateCCITT_CRC::?relay`
        FUNCTION `??bdb_calculateCCITT_CRC::?relay`,0203H
        PUBLIC `??bdb_crcBitByBitFast::?relay`
        FUNCTION `??bdb_crcBitByBitFast::?relay`,0203H
        PUBLIC `??bdb_crcInit::?relay`
        FUNCTION `??bdb_crcInit::?relay`,0203H
        PUBLIC `??bdb_crcReflect::?relay`
        FUNCTION `??bdb_crcReflect::?relay`,0203H
        PUBLIC `??bdb_event_loop::?relay`
        FUNCTION `??bdb_event_loop::?relay`,0203H
        PUBLIC `??bdb_filterNwkDisc::?relay`
        FUNCTION `??bdb_filterNwkDisc::?relay`,0203H
        PUBLIC `??bdb_getZCLFrameCounter::?relay`
        FUNCTION `??bdb_getZCLFrameCounter::?relay`,0203H
        PUBLIC `??bdb_isDeviceNonFactoryNew::?relay`
        FUNCTION `??bdb_isDeviceNonFactoryNew::?relay`,0203H
        PUBLIC `??bdb_joinProcess::?relay`
        FUNCTION `??bdb_joinProcess::?relay`,0203H
        PUBLIC `??bdb_nwkAssocAttemt::?relay`
        FUNCTION `??bdb_nwkAssocAttemt::?relay`,0203H
        PUBLIC `??bdb_nwkDescFree::?relay`
        FUNCTION `??bdb_nwkDescFree::?relay`,0203H
        PUBLIC `??bdb_nwkDiscoveryAttempt::?relay`
        FUNCTION `??bdb_nwkDiscoveryAttempt::?relay`,0203H
        PUBLIC `??bdb_nwkFormationAttempt::?relay`
        FUNCTION `??bdb_nwkFormationAttempt::?relay`,0203H
        FUNCTION `??bdb_nwkJoiningFormation::?relay`,0203H
        FUNCTION `??bdb_nwkSteeringDeviceOnNwk::?relay`,0203H
        PUBLIC `??bdb_parentLost::?relay`
        FUNCTION `??bdb_parentLost::?relay`,0203H
        PUBLIC `??bdb_rejoinNwk::?relay`
        FUNCTION `??bdb_rejoinNwk::?relay`,0203H
        PUBLIC `??bdb_reportCommissioningState::?relay`
        FUNCTION `??bdb_reportCommissioningState::?relay`,0203H
        PUBLIC `??bdb_resetLocalAction::?relay`
        FUNCTION `??bdb_resetLocalAction::?relay`,0203H
        PUBLIC `??bdb_setActiveCentralizedLinkKey::?relay`
        FUNCTION `??bdb_setActiveCentralizedLinkKey::?relay`,0203H
        PUBLIC `??bdb_setChannel::?relay`
        FUNCTION `??bdb_setChannel::?relay`,0203H
        PUBLIC `??bdb_setChannelAttribute::?relay`
        FUNCTION `??bdb_setChannelAttribute::?relay`,0203H
        PUBLIC `??bdb_setCommissioningGroupID::?relay`
        FUNCTION `??bdb_setCommissioningGroupID::?relay`,0203H
        PUBLIC `??bdb_setFN::?relay`
        FUNCTION `??bdb_setFN::?relay`,0203H
        PUBLIC `??bdb_setNodeIsOnANetwork::?relay`
        FUNCTION `??bdb_setNodeIsOnANetwork::?relay`,0203H
        PUBLIC `??bdb_setNodeJoinLinkKeyType::?relay`
        FUNCTION `??bdb_setNodeJoinLinkKeyType::?relay`,0203H
        FUNCTION `??bdb_startResumeCommissioningProcess::?relay`,0203H
        PUBLIC `??bdb_tcLinkKeyExchangeAttempt::?relay`
        FUNCTION `??bdb_tcLinkKeyExchangeAttempt::?relay`,0203H
        PUBLIC `??bdb_touchlinkSendFNReset::?relay`
        FUNCTION `??bdb_touchlinkSendFNReset::?relay`,0203H
        FUNCTION `??bdb_tryNwkAssoc::?relay`,0203H
        PUBLIC `??bdb_zclRespondentListClean::?relay`
        FUNCTION `??bdb_zclRespondentListClean::?relay`,0203H
        PUBWEAK __Constant_0
        PUBWEAK __Constant_10
        PUBWEAK __Constant_1388
        PUBWEAK __Constant_32
        PUBWEAK __Constant_3a98
        PUBWEAK __Constant_3e8
        PUBWEAK __Constant_bb8
        PUBWEAK __Constant_c8
        PUBLIC bdbAttributes
        PUBLIC bdbCommissioningProcedureState
        PUBLIC bdb_AddRespondentNode
        FUNCTION bdb_AddRespondentNode,0a1203H
        ARGFRAME XSTACK, 0, STACK
        LOCFRAME XSTACK, 10, STACK
        PUBLIC bdb_CBKETCLinkKeyExchangeAttempt
        FUNCTION bdb_CBKETCLinkKeyExchangeAttempt,021203H
        ARGFRAME XSTACK, 0, STACK
        LOCFRAME XSTACK, 9, STACK
        PUBLIC bdb_ClearNetworkParams
        FUNCTION bdb_ClearNetworkParams,0203H
        ARGFRAME XSTACK, 0, STACK
        PUBLIC bdb_CreateRespondentList
        FUNCTION bdb_CreateRespondentList,0a1203H
        ARGFRAME XSTACK, 10, STACK
        ARGFRAME IOVERLAY, 0, STATIC
        ARGFRAME DOVERLAY, 0, STATIC
        LOCFRAME XSTACK, 10, STACK
        PUBLIC bdb_CurrEpDescriptorList
        PUBLIC bdb_FB_InitiatorCurrentCyclesNumber
        PUBLIC bdb_GenerateInstallCodeCRC
        FUNCTION bdb_GenerateInstallCodeCRC,021203H
        ARGFRAME XSTACK, 30, STACK
        ARGFRAME IOVERLAY, 0, STATIC
        ARGFRAME DOVERLAY, 0, STATIC
        LOCFRAME ISTACK, 2, STACK
        LOCFRAME XSTACK, 6, STACK
        PUBLIC bdb_HeadEpDescriptorList
        PUBLIC bdb_Init
        FUNCTION bdb_Init,0203H
        ARGFRAME XSTACK, 0, STACK
        LOCFRAME ISTACK, 2, STACK
        PUBLIC bdb_NetworkRestoredResumeState
        FUNCTION bdb_NetworkRestoredResumeState,021203H
        ARGFRAME XSTACK, 14, STACK
        ARGFRAME IOVERLAY, 0, STATIC
        ARGFRAME DOVERLAY, 0, STATIC
        LOCFRAME ISTACK, 2, STACK
        LOCFRAME XSTACK, 4, STACK
        PUBLIC bdb_NotifyCommissioningModeStart
        FUNCTION bdb_NotifyCommissioningModeStart,0a1203H
        ARGFRAME XSTACK, 21, STACK
        ARGFRAME IOVERLAY, 0, STATIC
        ARGFRAME DOVERLAY, 0, STATIC
        LOCFRAME ISTACK, 1, STACK
        LOCFRAME XSTACK, 15, STACK
        FUNCTION bdb_ProcessOSALMsg,0a1203H
        ARGFRAME XSTACK, 29, STACK
        ARGFRAME IOVERLAY, 0, STATIC
        ARGFRAME DOVERLAY, 0, STATIC
        LOCFRAME XSTACK, 40, STACK
        PUBLIC bdb_RegisterCBKETCLinkKeyExchangeCB
        FUNCTION bdb_RegisterCBKETCLinkKeyExchangeCB,0203H
        ARGFRAME XSTACK, 0, STACK
        LOCFRAME ISTACK, 2, STACK
        PUBLIC bdb_RegisterCommissioningStatusCB
        FUNCTION bdb_RegisterCommissioningStatusCB,0203H
        ARGFRAME XSTACK, 0, STACK
        LOCFRAME ISTACK, 2, STACK
        PUBLIC bdb_RegisterForFilterNwkDescCB
        FUNCTION bdb_RegisterForFilterNwkDescCB,0203H
        ARGFRAME XSTACK, 0, STACK
        LOCFRAME ISTACK, 2, STACK
        PUBLIC bdb_RegisterSimpleDescriptor
        FUNCTION bdb_RegisterSimpleDescriptor,0a1203H
        ARGFRAME XSTACK, 0, STACK
        LOCFRAME ISTACK, 1, STACK
        LOCFRAME XSTACK, 10, STACK
        PUBLIC bdb_SendMsg
        FUNCTION bdb_SendMsg,0a1203H
        ARGFRAME XSTACK, 23, STACK
        ARGFRAME IOVERLAY, 0, STATIC
        ARGFRAME DOVERLAY, 0, STATIC
        LOCFRAME ISTACK, 1, STACK
        LOCFRAME XSTACK, 20, STACK
        PUBLIC bdb_StartCommissioning
        FUNCTION bdb_StartCommissioning,0a1203H
        ARGFRAME XSTACK, 0, STACK
        LOCFRAME XSTACK, 36, STACK
        PUBLIC bdb_TaskID
        PUBLIC bdb_ZclIdentifyCmdInd
        FUNCTION bdb_ZclIdentifyCmdInd,0a1203H
        ARGFRAME XSTACK, 0, STACK
        LOCFRAME XSTACK, 24, STACK
        PUBLIC bdb_ZclTransactionSequenceNumber
        PUBLIC bdb_ZedAttemptRecoverNwk
        FUNCTION bdb_ZedAttemptRecoverNwk,021203H
        ARGFRAME XSTACK, 0, STACK
        LOCFRAME ISTACK, 2, STACK
        PUBLIC bdb_addInstallCode
        FUNCTION bdb_addInstallCode,0a1203H
        ARGFRAME XSTACK, 18, STACK
        ARGFRAME IOVERLAY, 0, STATIC
        ARGFRAME DOVERLAY, 0, STATIC
        LOCFRAME XSTACK, 34, STACK
        PUBLIC bdb_calculateCCITT_CRC
        FUNCTION bdb_calculateCCITT_CRC,0a1203H
        ARGFRAME XSTACK, 6, STACK
        ARGFRAME IOVERLAY, 0, STATIC
        ARGFRAME DOVERLAY, 0, STATIC
        LOCFRAME XSTACK, 22, STACK
        PUBLIC bdb_crcBitByBitFast
        FUNCTION bdb_crcBitByBitFast,0a1203H
        ARGFRAME XSTACK, 22, STACK
        ARGFRAME IOVERLAY, 0, STATIC
        ARGFRAME DOVERLAY, 0, STATIC
        LOCFRAME XSTACK, 20, STACK
        PUBLIC bdb_crcInit
        FUNCTION bdb_crcInit,0203H
        ARGFRAME XSTACK, 18, STACK
        ARGFRAME IOVERLAY, 0, STATIC
        ARGFRAME DOVERLAY, 0, STATIC
        LOCFRAME XSTACK, 9, STACK
        PUBLIC bdb_crcReflect
        FUNCTION bdb_crcReflect,080203H
        ARGFRAME XSTACK, 20, STACK
        ARGFRAME IOVERLAY, 0, STATIC
        ARGFRAME DOVERLAY, 0, STATIC
        LOCFRAME XSTACK, 12, STACK
        PUBLIC bdb_event_loop
        FUNCTION bdb_event_loop,0a1203H
        ARGFRAME XSTACK, 0, STACK
        LOCFRAME ISTACK, 1, STACK
        LOCFRAME XSTACK, 33, STACK
        PUBLIC bdb_filterNwkDisc
        FUNCTION bdb_filterNwkDisc,0a1203H
        ARGFRAME XSTACK, 36, STACK
        ARGFRAME IOVERLAY, 0, STATIC
        ARGFRAME DOVERLAY, 0, STATIC
        LOCFRAME XSTACK, 11, STACK
        PUBLIC bdb_getZCLFrameCounter
        FUNCTION bdb_getZCLFrameCounter,0203H
        ARGFRAME XSTACK, 0, STACK
        LOCFRAME ISTACK, 2, STACK
        PUBLIC bdb_initialization
        PUBLIC bdb_isDeviceNonFactoryNew
        FUNCTION bdb_isDeviceNonFactoryNew,0203H
        ARGFRAME XSTACK, 0, STACK
        LOCFRAME ISTACK, 2, STACK
        PUBLIC bdb_joinProcess
        FUNCTION bdb_joinProcess,0a1203H
        ARGFRAME XSTACK, 11, STACK
        ARGFRAME IOVERLAY, 0, STATIC
        ARGFRAME DOVERLAY, 0, STATIC
        LOCFRAME XSTACK, 14, STACK
        PUBLIC bdb_nwkAssocAttemt
        FUNCTION bdb_nwkAssocAttemt,0a1203H
        ARGFRAME XSTACK, 29, STACK
        ARGFRAME IOVERLAY, 0, STATIC
        ARGFRAME DOVERLAY, 0, STATIC
        LOCFRAME XSTACK, 13, STACK
        PUBLIC bdb_nwkDescFree
        FUNCTION bdb_nwkDescFree,021203H
        ARGFRAME XSTACK, 14, STACK
        ARGFRAME IOVERLAY, 0, STATIC
        ARGFRAME DOVERLAY, 0, STATIC
        LOCFRAME ISTACK, 2, STACK
        PUBLIC bdb_nwkDiscoveryAttempt
        FUNCTION bdb_nwkDiscoveryAttempt,0a1203H
        ARGFRAME XSTACK, 36, STACK
        ARGFRAME IOVERLAY, 0, STATIC
        ARGFRAME DOVERLAY, 0, STATIC
        LOCFRAME XSTACK, 13, STACK
        PUBLIC bdb_nwkFormationAttempt
        FUNCTION bdb_nwkFormationAttempt,021203H
        ARGFRAME XSTACK, 0, STACK
        LOCFRAME XSTACK, 9, STACK
        FUNCTION bdb_nwkJoiningFormation,0a1203H
        ARGFRAME XSTACK, 21, STACK
        ARGFRAME IOVERLAY, 0, STATIC
        ARGFRAME DOVERLAY, 0, STATIC
        LOCFRAME XSTACK, 12, STACK
        FUNCTION bdb_nwkSteeringDeviceOnNwk,021203H
        ARGFRAME XSTACK, 32, STACK
        ARGFRAME IOVERLAY, 0, STATIC
        ARGFRAME DOVERLAY, 0, STATIC
        LOCFRAME ISTACK, 2, STACK
        LOCFRAME XSTACK, 9, STACK
        PUBLIC bdb_parentLost
        FUNCTION bdb_parentLost,021203H
        ARGFRAME XSTACK, 0, STACK
        LOCFRAME ISTACK, 2, STACK
        PUBLIC bdb_rejoinNwk
        FUNCTION bdb_rejoinNwk,021203H
        ARGFRAME XSTACK, 0, STACK
        LOCFRAME XSTACK, 10, STACK
        PUBLIC bdb_reportCommissioningState
        FUNCTION bdb_reportCommissioningState,0a1203H
        ARGFRAME XSTACK, 36, STACK
        ARGFRAME IOVERLAY, 0, STATIC
        ARGFRAME DOVERLAY, 0, STATIC
        LOCFRAME ISTACK, 1, STACK
        LOCFRAME XSTACK, 18, STACK
        PUBLIC bdb_resetLocalAction
        FUNCTION bdb_resetLocalAction,021203H
        ARGFRAME XSTACK, 0, STACK
        LOCFRAME ISTACK, 2, STACK
        LOCFRAME XSTACK, 5, STACK
        PUBLIC bdb_setActiveCentralizedLinkKey
        FUNCTION bdb_setActiveCentralizedLinkKey,0a1203H
        ARGFRAME XSTACK, 0, STACK
        LOCFRAME XSTACK, 18, STACK
        PUBLIC bdb_setChannel
        FUNCTION bdb_setChannel,0a1203H
        ARGFRAME XSTACK, 12, STACK
        ARGFRAME IOVERLAY, 0, STATIC
        ARGFRAME DOVERLAY, 0, STATIC
        LOCFRAME XSTACK, 16, STACK
        PUBLIC bdb_setChannelAttribute
        FUNCTION bdb_setChannelAttribute,080203H
        ARGFRAME XSTACK, 0, STACK
        LOCFRAME XSTACK, 12, STACK
        PUBLIC bdb_setCommissioningGroupID
        FUNCTION bdb_setCommissioningGroupID,0203H
        ARGFRAME XSTACK, 0, STACK
        LOCFRAME ISTACK, 2, STACK
        PUBLIC bdb_setFN
        FUNCTION bdb_setFN,021203H
        ARGFRAME XSTACK, 14, STACK
        ARGFRAME IOVERLAY, 0, STATIC
        ARGFRAME DOVERLAY, 0, STATIC
        LOCFRAME ISTACK, 2, STACK
        PUBLIC bdb_setNodeIsOnANetwork
        FUNCTION bdb_setNodeIsOnANetwork,0a1203H
        ARGFRAME XSTACK, 32, STACK
        ARGFRAME IOVERLAY, 0, STATIC
        ARGFRAME DOVERLAY, 0, STATIC
        LOCFRAME XSTACK, 14, STACK
        PUBLIC bdb_setNodeJoinLinkKeyType
        FUNCTION bdb_setNodeJoinLinkKeyType,0203H
        ARGFRAME XSTACK, 36, STACK
        ARGFRAME IOVERLAY, 0, STATIC
        ARGFRAME DOVERLAY, 0, STATIC
        LOCFRAME ISTACK, 2, STACK
        FUNCTION bdb_startResumeCommissioningProcess,0a1203H
        ARGFRAME XSTACK, 29, STACK
        ARGFRAME IOVERLAY, 0, STATIC
        ARGFRAME DOVERLAY, 0, STATIC
        LOCFRAME XSTACK, 25, STACK
        PUBLIC bdb_tcLinkKeyExchangeAttempt
        FUNCTION bdb_tcLinkKeyExchangeAttempt,0a1203H
        ARGFRAME XSTACK, 29, STACK
        ARGFRAME IOVERLAY, 0, STATIC
        ARGFRAME DOVERLAY, 0, STATIC
        LOCFRAME XSTACK, 15, STACK
        PUBLIC bdb_touchlinkSendFNReset
        FUNCTION bdb_touchlinkSendFNReset,0203H
        ARGFRAME XSTACK, 0, STACK
        FUNCTION bdb_tryNwkAssoc,0a1203H
        ARGFRAME XSTACK, 36, STACK
        ARGFRAME IOVERLAY, 0, STATIC
        ARGFRAME DOVERLAY, 0, STATIC
        LOCFRAME XSTACK, 13, STACK
        PUBLIC bdb_zclRespondentListClean
        FUNCTION bdb_zclRespondentListClean,0a1203H
        ARGFRAME XSTACK, 14, STACK
        ARGFRAME IOVERLAY, 0, STATIC
        ARGFRAME DOVERLAY, 0, STATIC
        LOCFRAME XSTACK, 12, STACK
        PUBLIC pRespondentCurr
        PUBLIC pRespondentHead
        PUBLIC pRespondentNext
        PUBLIC touchLinkTargetEnabled
        PUBLIC vDoPrimaryScan
        PUBLIC zgBdbInstallCodeCRC
        
          CFI Names cfiNames0
          CFI StackFrame CFA_SP SP IDATA
          CFI StackFrame CFA_PSP16 PSP16 XDATA
          CFI StackFrame CFA_XSP16 XSP16 XDATA
          CFI StaticOverlayFrame CFA_IOVERLAY IOVERLAY
          CFI StaticOverlayFrame CFA_DOVERLAY DOVERLAY
          CFI Resource `PSW.CY`:1, `B.BR0`:1, `B.BR1`:1, `B.BR2`:1, `B.BR3`:1
          CFI Resource `B.BR4`:1, `B.BR5`:1, `B.BR6`:1, `B.BR7`:1, `VB.BR8`:1
          CFI Resource `VB.BR9`:1, `VB.BR10`:1, `VB.BR11`:1, `VB.BR12`:1
          CFI Resource `VB.BR13`:1, `VB.BR14`:1, `VB.BR15`:1, VB:8, B:8, A:8
          CFI Resource PSW:8, DPL0:8, DPH0:8, R0:8, R1:8, R2:8, R3:8, R4:8, R5:8
          CFI Resource R6:8, R7:8, V0:8, V1:8, V2:8, V3:8, V4:8, V5:8, V6:8, V7:8
          CFI Resource V8:8, V9:8, V10:8, V11:8, V12:8, V13:8, V14:8, V15:8, SP:8
          CFI Resource PSPH:8, PSPL:8, PSP16:16, XSPH:8, XSPL:8, XSP16:16
          CFI VirtualResource ?RET:24
          CFI Resource ?BRET_EXT:8
          CFI VirtualResource ?RET_HIGH:8, ?RET_LOW:8
          CFI ResourceParts PSP16 PSPH, PSPL
          CFI ResourceParts XSP16 XSPH, XSPL
          CFI ResourceParts ?RET ?BRET_EXT, ?RET_HIGH, ?RET_LOW
          CFI EndNames cfiNames0
        
          CFI Common cfiCommon0 Using cfiNames0
          CFI CodeAlign 1
          CFI DataAlign -1
          CFI ReturnAddress ?RET CODE
          CFI CFA_DOVERLAY Used
          CFI CFA_IOVERLAY Used
          CFI CFA_SP SP+-3
          CFI CFA_PSP16 PSP16+0
          CFI CFA_XSP16 XSP16+0
          CFI `PSW.CY` SameValue
          CFI `B.BR0` SameValue
          CFI `B.BR1` SameValue
          CFI `B.BR2` SameValue
          CFI `B.BR3` SameValue
          CFI `B.BR4` SameValue
          CFI `B.BR5` SameValue
          CFI `B.BR6` SameValue
          CFI `B.BR7` SameValue
          CFI `VB.BR8` SameValue
          CFI `VB.BR9` SameValue
          CFI `VB.BR10` SameValue
          CFI `VB.BR11` SameValue
          CFI `VB.BR12` SameValue
          CFI `VB.BR13` SameValue
          CFI `VB.BR14` SameValue
          CFI `VB.BR15` SameValue
          CFI VB SameValue
          CFI B Undefined
          CFI A Undefined
          CFI PSW SameValue
          CFI DPL0 SameValue
          CFI DPH0 SameValue
          CFI R0 Undefined
          CFI R1 Undefined
          CFI R2 Undefined
          CFI R3 Undefined
          CFI R4 Undefined
          CFI R5 Undefined
          CFI R6 SameValue
          CFI R7 SameValue
          CFI V0 SameValue
          CFI V1 SameValue
          CFI V2 SameValue
          CFI V3 SameValue
          CFI V4 SameValue
          CFI V5 SameValue
          CFI V6 SameValue
          CFI V7 SameValue
          CFI V8 SameValue
          CFI V9 SameValue
          CFI V10 SameValue
          CFI V11 SameValue
          CFI V12 SameValue
          CFI V13 SameValue
          CFI V14 SameValue
          CFI V15 SameValue
          CFI PSPH Undefined
          CFI PSPL Undefined
          CFI XSPH Undefined
          CFI XSPL Undefined
          CFI ?RET Concat
          CFI ?BRET_EXT Frame(CFA_SP, 3)
          CFI ?RET_HIGH Frame(CFA_SP, 2)
          CFI ?RET_LOW Frame(CFA_SP, 1)
          CFI EndCommon cfiCommon0
        
        
          CFI Common cfiCommon1 Using cfiNames0
          CFI CodeAlign 1
          CFI DataAlign -1
          CFI ReturnAddress ?RET CODE
          CFI CFA_DOVERLAY Used
          CFI CFA_IOVERLAY Used
          CFI CFA_SP SP+-2
          CFI CFA_PSP16 PSP16+0
          CFI CFA_XSP16 XSP16+0
          CFI `PSW.CY` SameValue
          CFI `B.BR0` SameValue
          CFI `B.BR1` SameValue
          CFI `B.BR2` SameValue
          CFI `B.BR3` SameValue
          CFI `B.BR4` SameValue
          CFI `B.BR5` SameValue
          CFI `B.BR6` SameValue
          CFI `B.BR7` SameValue
          CFI `VB.BR8` SameValue
          CFI `VB.BR9` SameValue
          CFI `VB.BR10` SameValue
          CFI `VB.BR11` SameValue
          CFI `VB.BR12` SameValue
          CFI `VB.BR13` SameValue
          CFI `VB.BR14` SameValue
          CFI `VB.BR15` SameValue
          CFI VB SameValue
          CFI B SameValue
          CFI A SameValue
          CFI PSW SameValue
          CFI DPL0 SameValue
          CFI DPH0 SameValue
          CFI R0 SameValue
          CFI R1 SameValue
          CFI R2 SameValue
          CFI R3 SameValue
          CFI R4 SameValue
          CFI R5 SameValue
          CFI R6 SameValue
          CFI R7 SameValue
          CFI V0 SameValue
          CFI V1 SameValue
          CFI V2 SameValue
          CFI V3 SameValue
          CFI V4 SameValue
          CFI V5 SameValue
          CFI V6 SameValue
          CFI V7 SameValue
          CFI V8 SameValue
          CFI V9 SameValue
          CFI V10 SameValue
          CFI V11 SameValue
          CFI V12 SameValue
          CFI V13 SameValue
          CFI V14 SameValue
          CFI V15 SameValue
          CFI PSPH Undefined
          CFI PSPL Undefined
          CFI XSPH Undefined
          CFI XSPL Undefined
          CFI ?RET Concat
          CFI ?BRET_EXT SameValue
          CFI ?RET_HIGH Frame(CFA_SP, 2)
          CFI ?RET_LOW Frame(CFA_SP, 1)
          CFI EndCommon cfiCommon1
        
APSME_AddTCLinkKey  SYMBOL "APSME_AddTCLinkKey"
`??APSME_AddTCLinkKey::?relay` SYMBOL "?relay", APSME_AddTCLinkKey
APSME_GetRequest    SYMBOL "APSME_GetRequest"
`??APSME_GetRequest::?relay` SYMBOL "?relay", APSME_GetRequest
APSME_IsDistributedSecurity SYMBOL "APSME_IsDistributedSecurity"
`??APSME_IsDistributedSecurity::?relay` SYMBOL "?relay", APSME_IsDistributedSecurity
APSME_RequestKeyReq SYMBOL "APSME_RequestKeyReq"
`??APSME_RequestKeyReq::?relay` SYMBOL "?relay", APSME_RequestKeyReq
APSME_VerifyKeyReq  SYMBOL "APSME_VerifyKeyReq"
`??APSME_VerifyKeyReq::?relay` SYMBOL "?relay", APSME_VerifyKeyReq
NLME_GetShortAddr   SYMBOL "NLME_GetShortAddr"
`??NLME_GetShortAddr::?relay` SYMBOL "?relay", NLME_GetShortAddr
NLME_JoinRequest    SYMBOL "NLME_JoinRequest"
`??NLME_JoinRequest::?relay` SYMBOL "?relay", NLME_JoinRequest
NLME_LeaveReq       SYMBOL "NLME_LeaveReq"
`??NLME_LeaveReq::?relay` SYMBOL "?relay", NLME_LeaveReq
NLME_NwkDiscTerm    SYMBOL "NLME_NwkDiscTerm"
`??NLME_NwkDiscTerm::?relay` SYMBOL "?relay", NLME_NwkDiscTerm
NLME_OrphanStateSet SYMBOL "NLME_OrphanStateSet"
`??NLME_OrphanStateSet::?relay` SYMBOL "?relay", NLME_OrphanStateSet
NLME_ReJoinRequest  SYMBOL "NLME_ReJoinRequest"
`??NLME_ReJoinRequest::?relay` SYMBOL "?relay", NLME_ReJoinRequest
NLME_ReJoinRequestUnsecure SYMBOL "NLME_ReJoinRequestUnsecure"
`??NLME_ReJoinRequestUnsecure::?relay` SYMBOL "?relay", NLME_ReJoinRequestUnsecure
NLME_ResetRequest   SYMBOL "NLME_ResetRequest"
`??NLME_ResetRequest::?relay` SYMBOL "?relay", NLME_ResetRequest
NLME_SetPollRate    SYMBOL "NLME_SetPollRate"
`??NLME_SetPollRate::?relay` SYMBOL "?relay", NLME_SetPollRate
NLME_SetQueuedPollRate SYMBOL "NLME_SetQueuedPollRate"
`??NLME_SetQueuedPollRate::?relay` SYMBOL "?relay", NLME_SetQueuedPollRate
NLME_SetResponseRate SYMBOL "NLME_SetResponseRate"
`??NLME_SetResponseRate::?relay` SYMBOL "?relay", NLME_SetResponseRate
ZDApp_ChangeState   SYMBOL "ZDApp_ChangeState"
`??ZDApp_ChangeState::?relay` SYMBOL "?relay", ZDApp_ChangeState
ZDApp_NetworkInit   SYMBOL "ZDApp_NetworkInit"
`??ZDApp_NetworkInit::?relay` SYMBOL "?relay", ZDApp_NetworkInit
ZDApp_NodeProfileSync SYMBOL "ZDApp_NodeProfileSync"
`??ZDApp_NodeProfileSync::?relay` SYMBOL "?relay", ZDApp_NodeProfileSync
ZDApp_ResetTimerStart SYMBOL "ZDApp_ResetTimerStart"
`??ZDApp_ResetTimerStart::?relay` SYMBOL "?relay", ZDApp_ResetTimerStart
ZDApp_RestoreNwkKey SYMBOL "ZDApp_RestoreNwkKey"
`??ZDApp_RestoreNwkKey::?relay` SYMBOL "?relay", ZDApp_RestoreNwkKey
ZDApp_RestoreNwkSecMaterial SYMBOL "ZDApp_RestoreNwkSecMaterial"
`??ZDApp_RestoreNwkSecMaterial::?relay` SYMBOL "?relay", ZDApp_RestoreNwkSecMaterial
ZDOInitDeviceEx     SYMBOL "ZDOInitDeviceEx"
`??ZDOInitDeviceEx::?relay` SYMBOL "?relay", ZDOInitDeviceEx
ZDP_MgmtPermitJoinReq SYMBOL "ZDP_MgmtPermitJoinReq"
`??ZDP_MgmtPermitJoinReq::?relay` SYMBOL "?relay", ZDP_MgmtPermitJoinReq
ZDP_NWKAddrOfInterestReq SYMBOL "ZDP_NWKAddrOfInterestReq"
`??ZDP_NWKAddrOfInterestReq::?relay` SYMBOL "?relay", ZDP_NWKAddrOfInterestReq
ZMacSetReq          SYMBOL "ZMacSetReq"
`??ZMacSetReq::?relay` SYMBOL "?relay", ZMacSetReq
afRegister          SYMBOL "afRegister"
`??afRegister::?relay` SYMBOL "?relay", afRegister
bdb_BindIfMatch     SYMBOL "bdb_BindIfMatch"
`??bdb_BindIfMatch::?relay` SYMBOL "?relay", bdb_BindIfMatch
bdb_SendIdentifyQuery SYMBOL "bdb_SendIdentifyQuery"
`??bdb_SendIdentifyQuery::?relay` SYMBOL "?relay", bdb_SendIdentifyQuery
bdb_SendSimpleDescReq SYMBOL "bdb_SendSimpleDescReq"
`??bdb_SendSimpleDescReq::?relay` SYMBOL "?relay", bdb_SendSimpleDescReq
bdb_exitFindingBindingWStatus SYMBOL "bdb_exitFindingBindingWStatus"
`??bdb_exitFindingBindingWStatus::?relay` SYMBOL "?relay", bdb_exitFindingBindingWStatus
bdb_getRespondentRetry SYMBOL "bdb_getRespondentRetry"
`??bdb_getRespondentRetry::?relay` SYMBOL "?relay", bdb_getRespondentRetry
bdb_setEpDescListToActiveEndpoint SYMBOL "bdb_setEpDescListToActiveEndpoint"
`??bdb_setEpDescListToActiveEndpoint::?relay` SYMBOL "?relay", bdb_setEpDescListToActiveEndpoint
nwkNeighborInitTable SYMBOL "nwkNeighborInitTable"
`??nwkNeighborInitTable::?relay` SYMBOL "?relay", nwkNeighborInitTable
nwk_ExtPANIDValid   SYMBOL "nwk_ExtPANIDValid"
`??nwk_ExtPANIDValid::?relay` SYMBOL "?relay", nwk_ExtPANIDValid
nwk_desc_list_free  SYMBOL "nwk_desc_list_free"
`??nwk_desc_list_free::?relay` SYMBOL "?relay", nwk_desc_list_free
nwk_desc_list_release SYMBOL "nwk_desc_list_release"
`??nwk_desc_list_release::?relay` SYMBOL "?relay", nwk_desc_list_release
nwk_getNwkDescList  SYMBOL "nwk_getNwkDescList"
`??nwk_getNwkDescList::?relay` SYMBOL "?relay", nwk_getNwkDescList
nwk_setStateIdle    SYMBOL "nwk_setStateIdle"
`??nwk_setStateIdle::?relay` SYMBOL "?relay", nwk_setStateIdle
osal_build_uint16   SYMBOL "osal_build_uint16"
`??osal_build_uint16::?relay` SYMBOL "?relay", osal_build_uint16
osal_get_timeoutEx  SYMBOL "osal_get_timeoutEx"
`??osal_get_timeoutEx::?relay` SYMBOL "?relay", osal_get_timeoutEx
osal_isbufset       SYMBOL "osal_isbufset"
`??osal_isbufset::?relay` SYMBOL "?relay", osal_isbufset
osal_mem_alloc      SYMBOL "osal_mem_alloc"
`??osal_mem_alloc::?relay` SYMBOL "?relay", osal_mem_alloc
osal_mem_free       SYMBOL "osal_mem_free"
`??osal_mem_free::?relay` SYMBOL "?relay", osal_mem_free
osal_memcpy         SYMBOL "osal_memcpy"
`??osal_memcpy::?relay` SYMBOL "?relay", osal_memcpy
osal_memset         SYMBOL "osal_memset"
`??osal_memset::?relay` SYMBOL "?relay", osal_memset
osal_msg_allocate   SYMBOL "osal_msg_allocate"
`??osal_msg_allocate::?relay` SYMBOL "?relay", osal_msg_allocate
osal_msg_deallocate SYMBOL "osal_msg_deallocate"
`??osal_msg_deallocate::?relay` SYMBOL "?relay", osal_msg_deallocate
osal_msg_receive    SYMBOL "osal_msg_receive"
`??osal_msg_receive::?relay` SYMBOL "?relay", osal_msg_receive
osal_msg_send       SYMBOL "osal_msg_send"
`??osal_msg_send::?relay` SYMBOL "?relay", osal_msg_send
osal_nv_read        SYMBOL "osal_nv_read"
`??osal_nv_read::?relay` SYMBOL "?relay", osal_nv_read
osal_nv_write       SYMBOL "osal_nv_write"
`??osal_nv_write::?relay` SYMBOL "?relay", osal_nv_write
osal_set_event      SYMBOL "osal_set_event"
`??osal_set_event::?relay` SYMBOL "?relay", osal_set_event
osal_start_timerEx  SYMBOL "osal_start_timerEx"
`??osal_start_timerEx::?relay` SYMBOL "?relay", osal_start_timerEx
osal_stop_timerEx   SYMBOL "osal_stop_timerEx"
`??osal_stop_timerEx::?relay` SYMBOL "?relay", osal_stop_timerEx
sAddrExtCmp         SYMBOL "sAddrExtCmp"
`??sAddrExtCmp::?relay` SYMBOL "?relay", sAddrExtCmp
sspMMOHash          SYMBOL "sspMMOHash"
`??sspMMOHash::?relay` SYMBOL "?relay", sspMMOHash
zclFindAttrRec      SYMBOL "zclFindAttrRec"
`??zclFindAttrRec::?relay` SYMBOL "?relay", zclFindAttrRec
zgWriteStartupOptions SYMBOL "zgWriteStartupOptions"
`??zgWriteStartupOptions::?relay` SYMBOL "?relay", zgWriteStartupOptions
bdb_AddRespondentNode SYMBOL "bdb_AddRespondentNode"
`??bdb_AddRespondentNode::?relay` SYMBOL "?relay", bdb_AddRespondentNode
bdb_CBKETCLinkKeyExchangeAttempt SYMBOL "bdb_CBKETCLinkKeyExchangeAttempt"
`??bdb_CBKETCLinkKeyExchangeAttempt::?relay` SYMBOL "?relay", bdb_CBKETCLinkKeyExchangeAttempt
bdb_ClearNetworkParams SYMBOL "bdb_ClearNetworkParams"
`??bdb_ClearNetworkParams::?relay` SYMBOL "?relay", bdb_ClearNetworkParams
bdb_CreateRespondentList SYMBOL "bdb_CreateRespondentList"
`??bdb_CreateRespondentList::?relay` SYMBOL "?relay", bdb_CreateRespondentList
bdb_GenerateInstallCodeCRC SYMBOL "bdb_GenerateInstallCodeCRC"
`??bdb_GenerateInstallCodeCRC::?relay` SYMBOL "?relay", bdb_GenerateInstallCodeCRC
bdb_Init            SYMBOL "bdb_Init"
`??bdb_Init::?relay` SYMBOL "?relay", bdb_Init
bdb_NetworkRestoredResumeState SYMBOL "bdb_NetworkRestoredResumeState"
`??bdb_NetworkRestoredResumeState::?relay` SYMBOL "?relay", bdb_NetworkRestoredResumeState
bdb_NotifyCommissioningModeStart SYMBOL "bdb_NotifyCommissioningModeStart"
`??bdb_NotifyCommissioningModeStart::?relay` SYMBOL "?relay", bdb_NotifyCommissioningModeStart
bdb_RegisterCBKETCLinkKeyExchangeCB SYMBOL "bdb_RegisterCBKETCLinkKeyExchangeCB"
`??bdb_RegisterCBKETCLinkKeyExchangeCB::?relay` SYMBOL "?relay", bdb_RegisterCBKETCLinkKeyExchangeCB
bdb_RegisterCommissioningStatusCB SYMBOL "bdb_RegisterCommissioningStatusCB"
`??bdb_RegisterCommissioningStatusCB::?relay` SYMBOL "?relay", bdb_RegisterCommissioningStatusCB
bdb_RegisterForFilterNwkDescCB SYMBOL "bdb_RegisterForFilterNwkDescCB"
`??bdb_RegisterForFilterNwkDescCB::?relay` SYMBOL "?relay", bdb_RegisterForFilterNwkDescCB
bdb_RegisterSimpleDescriptor SYMBOL "bdb_RegisterSimpleDescriptor"
`??bdb_RegisterSimpleDescriptor::?relay` SYMBOL "?relay", bdb_RegisterSimpleDescriptor
bdb_SendMsg         SYMBOL "bdb_SendMsg"
`??bdb_SendMsg::?relay` SYMBOL "?relay", bdb_SendMsg
bdb_StartCommissioning SYMBOL "bdb_StartCommissioning"
`??bdb_StartCommissioning::?relay` SYMBOL "?relay", bdb_StartCommissioning
bdb_ZclIdentifyCmdInd SYMBOL "bdb_ZclIdentifyCmdInd"
`??bdb_ZclIdentifyCmdInd::?relay` SYMBOL "?relay", bdb_ZclIdentifyCmdInd
bdb_ZedAttemptRecoverNwk SYMBOL "bdb_ZedAttemptRecoverNwk"
`??bdb_ZedAttemptRecoverNwk::?relay` SYMBOL "?relay", bdb_ZedAttemptRecoverNwk
bdb_addInstallCode  SYMBOL "bdb_addInstallCode"
`??bdb_addInstallCode::?relay` SYMBOL "?relay", bdb_addInstallCode
bdb_calculateCCITT_CRC SYMBOL "bdb_calculateCCITT_CRC"
`??bdb_calculateCCITT_CRC::?relay` SYMBOL "?relay", bdb_calculateCCITT_CRC
bdb_crcBitByBitFast SYMBOL "bdb_crcBitByBitFast"
`??bdb_crcBitByBitFast::?relay` SYMBOL "?relay", bdb_crcBitByBitFast
bdb_crcInit         SYMBOL "bdb_crcInit"
`??bdb_crcInit::?relay` SYMBOL "?relay", bdb_crcInit
bdb_crcReflect      SYMBOL "bdb_crcReflect"
`??bdb_crcReflect::?relay` SYMBOL "?relay", bdb_crcReflect
bdb_event_loop      SYMBOL "bdb_event_loop"
`??bdb_event_loop::?relay` SYMBOL "?relay", bdb_event_loop
bdb_filterNwkDisc   SYMBOL "bdb_filterNwkDisc"
`??bdb_filterNwkDisc::?relay` SYMBOL "?relay", bdb_filterNwkDisc
bdb_getZCLFrameCounter SYMBOL "bdb_getZCLFrameCounter"
`??bdb_getZCLFrameCounter::?relay` SYMBOL "?relay", bdb_getZCLFrameCounter
bdb_isDeviceNonFactoryNew SYMBOL "bdb_isDeviceNonFactoryNew"
`??bdb_isDeviceNonFactoryNew::?relay` SYMBOL "?relay", bdb_isDeviceNonFactoryNew
bdb_joinProcess     SYMBOL "bdb_joinProcess"
`??bdb_joinProcess::?relay` SYMBOL "?relay", bdb_joinProcess
bdb_nwkAssocAttemt  SYMBOL "bdb_nwkAssocAttemt"
`??bdb_nwkAssocAttemt::?relay` SYMBOL "?relay", bdb_nwkAssocAttemt
bdb_nwkDescFree     SYMBOL "bdb_nwkDescFree"
`??bdb_nwkDescFree::?relay` SYMBOL "?relay", bdb_nwkDescFree
bdb_nwkDiscoveryAttempt SYMBOL "bdb_nwkDiscoveryAttempt"
`??bdb_nwkDiscoveryAttempt::?relay` SYMBOL "?relay", bdb_nwkDiscoveryAttempt
bdb_nwkFormationAttempt SYMBOL "bdb_nwkFormationAttempt"
`??bdb_nwkFormationAttempt::?relay` SYMBOL "?relay", bdb_nwkFormationAttempt
bdb_parentLost      SYMBOL "bdb_parentLost"
`??bdb_parentLost::?relay` SYMBOL "?relay", bdb_parentLost
bdb_rejoinNwk       SYMBOL "bdb_rejoinNwk"
`??bdb_rejoinNwk::?relay` SYMBOL "?relay", bdb_rejoinNwk
bdb_reportCommissioningState SYMBOL "bdb_reportCommissioningState"
`??bdb_reportCommissioningState::?relay` SYMBOL "?relay", bdb_reportCommissioningState
bdb_resetLocalAction SYMBOL "bdb_resetLocalAction"
`??bdb_resetLocalAction::?relay` SYMBOL "?relay", bdb_resetLocalAction
bdb_setActiveCentralizedLinkKey SYMBOL "bdb_setActiveCentralizedLinkKey"
`??bdb_setActiveCentralizedLinkKey::?relay` SYMBOL "?relay", bdb_setActiveCentralizedLinkKey
bdb_setChannel      SYMBOL "bdb_setChannel"
`??bdb_setChannel::?relay` SYMBOL "?relay", bdb_setChannel
bdb_setChannelAttribute SYMBOL "bdb_setChannelAttribute"
`??bdb_setChannelAttribute::?relay` SYMBOL "?relay", bdb_setChannelAttribute
bdb_setCommissioningGroupID SYMBOL "bdb_setCommissioningGroupID"
`??bdb_setCommissioningGroupID::?relay` SYMBOL "?relay", bdb_setCommissioningGroupID
bdb_setFN           SYMBOL "bdb_setFN"
`??bdb_setFN::?relay` SYMBOL "?relay", bdb_setFN
bdb_setNodeIsOnANetwork SYMBOL "bdb_setNodeIsOnANetwork"
`??bdb_setNodeIsOnANetwork::?relay` SYMBOL "?relay", bdb_setNodeIsOnANetwork
bdb_setNodeJoinLinkKeyType SYMBOL "bdb_setNodeJoinLinkKeyType"
`??bdb_setNodeJoinLinkKeyType::?relay` SYMBOL "?relay", bdb_setNodeJoinLinkKeyType
bdb_tcLinkKeyExchangeAttempt SYMBOL "bdb_tcLinkKeyExchangeAttempt"
`??bdb_tcLinkKeyExchangeAttempt::?relay` SYMBOL "?relay", bdb_tcLinkKeyExchangeAttempt
bdb_touchlinkSendFNReset SYMBOL "bdb_touchlinkSendFNReset"
`??bdb_touchlinkSendFNReset::?relay` SYMBOL "?relay", bdb_touchlinkSendFNReset
bdb_zclRespondentListClean SYMBOL "bdb_zclRespondentListClean"
`??bdb_zclRespondentListClean::?relay` SYMBOL "?relay", bdb_zclRespondentListClean

        EXTERN `??APSME_AddTCLinkKey::?relay`
        FUNCTION `??APSME_AddTCLinkKey::?relay`,00H
        EXTERN `??APSME_GetRequest::?relay`
        FUNCTION `??APSME_GetRequest::?relay`,00H
        EXTERN `??APSME_IsDistributedSecurity::?relay`
        FUNCTION `??APSME_IsDistributedSecurity::?relay`,00H
        EXTERN `??APSME_RequestKeyReq::?relay`
        FUNCTION `??APSME_RequestKeyReq::?relay`,00H
        EXTERN `??APSME_VerifyKeyReq::?relay`
        FUNCTION `??APSME_VerifyKeyReq::?relay`,00H
        EXTERN `??NLME_GetShortAddr::?relay`
        FUNCTION `??NLME_GetShortAddr::?relay`,00H
        EXTERN `??NLME_JoinRequest::?relay`
        FUNCTION `??NLME_JoinRequest::?relay`,00H
        EXTERN `??NLME_LeaveReq::?relay`
        FUNCTION `??NLME_LeaveReq::?relay`,00H
        EXTERN `??NLME_NwkDiscTerm::?relay`
        FUNCTION `??NLME_NwkDiscTerm::?relay`,00H
        EXTERN `??NLME_OrphanStateSet::?relay`
        FUNCTION `??NLME_OrphanStateSet::?relay`,00H
        EXTERN `??NLME_ReJoinRequest::?relay`
        FUNCTION `??NLME_ReJoinRequest::?relay`,00H
        EXTERN `??NLME_ReJoinRequestUnsecure::?relay`
        FUNCTION `??NLME_ReJoinRequestUnsecure::?relay`,00H
        EXTERN `??NLME_ResetRequest::?relay`
        FUNCTION `??NLME_ResetRequest::?relay`,00H
        EXTERN `??NLME_SetPollRate::?relay`
        FUNCTION `??NLME_SetPollRate::?relay`,00H
        EXTERN `??NLME_SetQueuedPollRate::?relay`
        FUNCTION `??NLME_SetQueuedPollRate::?relay`,00H
        EXTERN `??NLME_SetResponseRate::?relay`
        FUNCTION `??NLME_SetResponseRate::?relay`,00H
        EXTERN `??ZDApp_ChangeState::?relay`
        FUNCTION `??ZDApp_ChangeState::?relay`,00H
        EXTERN `??ZDApp_NetworkInit::?relay`
        FUNCTION `??ZDApp_NetworkInit::?relay`,00H
        EXTERN `??ZDApp_NodeProfileSync::?relay`
        FUNCTION `??ZDApp_NodeProfileSync::?relay`,00H
        EXTERN `??ZDApp_ResetTimerStart::?relay`
        FUNCTION `??ZDApp_ResetTimerStart::?relay`,00H
        EXTERN `??ZDApp_RestoreNwkKey::?relay`
        FUNCTION `??ZDApp_RestoreNwkKey::?relay`,00H
        EXTERN `??ZDApp_RestoreNwkSecMaterial::?relay`
        FUNCTION `??ZDApp_RestoreNwkSecMaterial::?relay`,00H
        EXTERN `??ZDOInitDeviceEx::?relay`
        FUNCTION `??ZDOInitDeviceEx::?relay`,00H
        EXTERN `??ZDP_MgmtPermitJoinReq::?relay`
        FUNCTION `??ZDP_MgmtPermitJoinReq::?relay`,00H
        EXTERN `??ZDP_NWKAddrOfInterestReq::?relay`
        FUNCTION `??ZDP_NWKAddrOfInterestReq::?relay`,00H
        EXTERN `??ZMacSetReq::?relay`
        FUNCTION `??ZMacSetReq::?relay`,00H
        EXTERN `??afRegister::?relay`
        FUNCTION `??afRegister::?relay`,00H
        EXTERN `??bdb_BindIfMatch::?relay`
        FUNCTION `??bdb_BindIfMatch::?relay`,00H
        EXTERN `??bdb_SendIdentifyQuery::?relay`
        FUNCTION `??bdb_SendIdentifyQuery::?relay`,00H
        EXTERN `??bdb_SendSimpleDescReq::?relay`
        FUNCTION `??bdb_SendSimpleDescReq::?relay`,00H
        EXTERN `??bdb_exitFindingBindingWStatus::?relay`
        FUNCTION `??bdb_exitFindingBindingWStatus::?relay`,00H
        EXTERN `??bdb_getRespondentRetry::?relay`
        FUNCTION `??bdb_getRespondentRetry::?relay`,00H
        EXTERN `??bdb_setEpDescListToActiveEndpoint::?relay`
        FUNCTION `??bdb_setEpDescListToActiveEndpoint::?relay`,00H
        EXTERN `??nwkNeighborInitTable::?relay`
        FUNCTION `??nwkNeighborInitTable::?relay`,00H
        EXTERN `??nwk_ExtPANIDValid::?relay`
        FUNCTION `??nwk_ExtPANIDValid::?relay`,00H
        EXTERN `??nwk_desc_list_free::?relay`
        FUNCTION `??nwk_desc_list_free::?relay`,00H
        EXTERN `??nwk_desc_list_release::?relay`
        FUNCTION `??nwk_desc_list_release::?relay`,00H
        EXTERN `??nwk_getNwkDescList::?relay`
        FUNCTION `??nwk_getNwkDescList::?relay`,00H
        EXTERN `??nwk_setStateIdle::?relay`
        FUNCTION `??nwk_setStateIdle::?relay`,00H
        EXTERN `??osal_build_uint16::?relay`
        FUNCTION `??osal_build_uint16::?relay`,00H
        EXTERN `??osal_get_timeoutEx::?relay`
        FUNCTION `??osal_get_timeoutEx::?relay`,00H
        EXTERN `??osal_isbufset::?relay`
        FUNCTION `??osal_isbufset::?relay`,00H
        EXTERN `??osal_mem_alloc::?relay`
        FUNCTION `??osal_mem_alloc::?relay`,00H
        EXTERN `??osal_mem_free::?relay`
        FUNCTION `??osal_mem_free::?relay`,00H
        EXTERN `??osal_memcpy::?relay`
        FUNCTION `??osal_memcpy::?relay`,00H
        EXTERN `??osal_memset::?relay`
        FUNCTION `??osal_memset::?relay`,00H
        EXTERN `??osal_msg_allocate::?relay`
        FUNCTION `??osal_msg_allocate::?relay`,00H
        EXTERN `??osal_msg_deallocate::?relay`
        FUNCTION `??osal_msg_deallocate::?relay`,00H
        EXTERN `??osal_msg_receive::?relay`
        FUNCTION `??osal_msg_receive::?relay`,00H
        EXTERN `??osal_msg_send::?relay`
        FUNCTION `??osal_msg_send::?relay`,00H
        EXTERN `??osal_nv_read::?relay`
        FUNCTION `??osal_nv_read::?relay`,00H
        EXTERN `??osal_nv_write::?relay`
        FUNCTION `??osal_nv_write::?relay`,00H
        EXTERN `??osal_set_event::?relay`
        FUNCTION `??osal_set_event::?relay`,00H
        EXTERN `??osal_start_timerEx::?relay`
        FUNCTION `??osal_start_timerEx::?relay`,00H
        EXTERN `??osal_stop_timerEx::?relay`
        FUNCTION `??osal_stop_timerEx::?relay`,00H
        EXTERN `??sAddrExtCmp::?relay`
        FUNCTION `??sAddrExtCmp::?relay`,00H
        EXTERN `??sspMMOHash::?relay`
        FUNCTION `??sspMMOHash::?relay`,00H
        EXTERN `??zclFindAttrRec::?relay`
        FUNCTION `??zclFindAttrRec::?relay`,00H
        EXTERN `??zgWriteStartupOptions::?relay`
        FUNCTION `??zgWriteStartupOptions::?relay`,00H
        EXTERN AIB_apsTrustCenterAddress
        EXTERN APSME_AddTCLinkKey
        FUNCTION APSME_AddTCLinkKey,0202H
        ARGFRAME ISTACK, 0, STACK
        ARGFRAME PSTACK, 0, STACK
        ARGFRAME XSTACK, 30, STACK
        ARGFRAME IOVERLAY, 0, STATIC
        ARGFRAME DOVERLAY, 0, STATIC
        EXTERN APSME_GetRequest
        FUNCTION APSME_GetRequest,0202H
        ARGFRAME ISTACK, 0, STACK
        ARGFRAME PSTACK, 0, STACK
        ARGFRAME XSTACK, 36, STACK
        ARGFRAME IOVERLAY, 0, STATIC
        ARGFRAME DOVERLAY, 0, STATIC
        EXTERN APSME_IsDistributedSecurity
        FUNCTION APSME_IsDistributedSecurity,0202H
        ARGFRAME ISTACK, 0, STACK
        ARGFRAME PSTACK, 0, STACK
        ARGFRAME XSTACK, 36, STACK
        ARGFRAME IOVERLAY, 0, STATIC
        ARGFRAME DOVERLAY, 0, STATIC
        EXTERN APSME_RequestKeyReq
        FUNCTION APSME_RequestKeyReq,0202H
        ARGFRAME ISTACK, 0, STACK
        ARGFRAME PSTACK, 0, STACK
        ARGFRAME XSTACK, 36, STACK
        ARGFRAME IOVERLAY, 0, STATIC
        ARGFRAME DOVERLAY, 0, STATIC
        EXTERN APSME_VerifyKeyReq
        FUNCTION APSME_VerifyKeyReq,0202H
        ARGFRAME ISTACK, 0, STACK
        ARGFRAME PSTACK, 0, STACK
        ARGFRAME XSTACK, 36, STACK
        ARGFRAME IOVERLAY, 0, STATIC
        ARGFRAME DOVERLAY, 0, STATIC
        EXTERN NLME_GetShortAddr
        FUNCTION NLME_GetShortAddr,0202H
        ARGFRAME ISTACK, 0, STACK
        ARGFRAME PSTACK, 0, STACK
        ARGFRAME XSTACK, 36, STACK
        ARGFRAME IOVERLAY, 0, STATIC
        ARGFRAME DOVERLAY, 0, STATIC
        EXTERN NLME_JoinRequest
        FUNCTION NLME_JoinRequest,0202H
        ARGFRAME ISTACK, 0, STACK
        ARGFRAME PSTACK, 0, STACK
        ARGFRAME XSTACK, 14, STACK
        ARGFRAME IOVERLAY, 0, STATIC
        ARGFRAME DOVERLAY, 0, STATIC
        EXTERN NLME_LeaveReq
        FUNCTION NLME_LeaveReq,0202H
        ARGFRAME ISTACK, 2, STACK
        ARGFRAME PSTACK, 0, STACK
        ARGFRAME XSTACK, 29, STACK
        ARGFRAME IOVERLAY, 0, STATIC
        ARGFRAME DOVERLAY, 0, STATIC
        EXTERN NLME_NwkDiscTerm
        FUNCTION NLME_NwkDiscTerm,0202H
        ARGFRAME ISTACK, 0, STACK
        ARGFRAME PSTACK, 0, STACK
        ARGFRAME XSTACK, 36, STACK
        ARGFRAME IOVERLAY, 0, STATIC
        ARGFRAME DOVERLAY, 0, STATIC
        EXTERN NLME_OrphanStateSet
        FUNCTION NLME_OrphanStateSet,0202H
        ARGFRAME ISTACK, 2, STACK
        ARGFRAME PSTACK, 0, STACK
        ARGFRAME XSTACK, 0, STACK
        ARGFRAME IOVERLAY, 0, STATIC
        ARGFRAME DOVERLAY, 0, STATIC
        EXTERN NLME_ReJoinRequest
        FUNCTION NLME_ReJoinRequest,0202H
        ARGFRAME ISTACK, 0, STACK
        ARGFRAME PSTACK, 0, STACK
        ARGFRAME XSTACK, 10, STACK
        ARGFRAME IOVERLAY, 0, STATIC
        ARGFRAME DOVERLAY, 0, STATIC
        EXTERN NLME_ReJoinRequestUnsecure
        FUNCTION NLME_ReJoinRequestUnsecure,0202H
        ARGFRAME ISTACK, 0, STACK
        ARGFRAME PSTACK, 0, STACK
        ARGFRAME XSTACK, 10, STACK
        ARGFRAME IOVERLAY, 0, STATIC
        ARGFRAME DOVERLAY, 0, STATIC
        EXTERN NLME_ResetRequest
        FUNCTION NLME_ResetRequest,0202H
        ARGFRAME ISTACK, 0, STACK
        ARGFRAME PSTACK, 0, STACK
        ARGFRAME XSTACK, 14, STACK
        ARGFRAME IOVERLAY, 0, STATIC
        ARGFRAME DOVERLAY, 0, STATIC
        EXTERN NLME_SetPollRate
        FUNCTION NLME_SetPollRate,0202H
        ARGFRAME ISTACK, 0, STACK
        ARGFRAME PSTACK, 0, STACK
        ARGFRAME XSTACK, 14, STACK
        ARGFRAME IOVERLAY, 0, STATIC
        ARGFRAME DOVERLAY, 0, STATIC
        EXTERN NLME_SetQueuedPollRate
        FUNCTION NLME_SetQueuedPollRate,0202H
        ARGFRAME ISTACK, 0, STACK
        ARGFRAME PSTACK, 0, STACK
        ARGFRAME XSTACK, 10, STACK
        ARGFRAME IOVERLAY, 0, STATIC
        ARGFRAME DOVERLAY, 0, STATIC
        EXTERN NLME_SetResponseRate
        FUNCTION NLME_SetResponseRate,0202H
        ARGFRAME ISTACK, 0, STACK
        ARGFRAME PSTACK, 0, STACK
        ARGFRAME XSTACK, 10, STACK
        ARGFRAME IOVERLAY, 0, STATIC
        ARGFRAME DOVERLAY, 0, STATIC
        EXTERN TCLinkKeyFrmCntr
        EXTERN ZDApp_ChangeState
        FUNCTION ZDApp_ChangeState,0202H
        ARGFRAME ISTACK, 2, STACK
        ARGFRAME PSTACK, 0, STACK
        ARGFRAME XSTACK, 14, STACK
        ARGFRAME IOVERLAY, 0, STATIC
        ARGFRAME DOVERLAY, 0, STATIC
        EXTERN ZDApp_NetworkInit
        FUNCTION ZDApp_NetworkInit,0202H
        ARGFRAME ISTACK, 0, STACK
        ARGFRAME PSTACK, 0, STACK
        ARGFRAME XSTACK, 11, STACK
        ARGFRAME IOVERLAY, 0, STATIC
        ARGFRAME DOVERLAY, 0, STATIC
        EXTERN ZDApp_NodeProfileSync
        FUNCTION ZDApp_NodeProfileSync,0202H
        ARGFRAME ISTACK, 0, STACK
        ARGFRAME PSTACK, 0, STACK
        ARGFRAME XSTACK, 10, STACK
        ARGFRAME IOVERLAY, 0, STATIC
        ARGFRAME DOVERLAY, 0, STATIC
        EXTERN ZDApp_ResetTimerStart
        FUNCTION ZDApp_ResetTimerStart,0202H
        ARGFRAME ISTACK, 2, STACK
        ARGFRAME PSTACK, 0, STACK
        ARGFRAME XSTACK, 5, STACK
        ARGFRAME IOVERLAY, 0, STATIC
        ARGFRAME DOVERLAY, 0, STATIC
        EXTERN ZDApp_RestoreNwkKey
        FUNCTION ZDApp_RestoreNwkKey,0202H
        ARGFRAME ISTACK, 0, STACK
        ARGFRAME PSTACK, 0, STACK
        ARGFRAME XSTACK, 10, STACK
        ARGFRAME IOVERLAY, 0, STATIC
        ARGFRAME DOVERLAY, 0, STATIC
        EXTERN ZDApp_RestoreNwkSecMaterial
        FUNCTION ZDApp_RestoreNwkSecMaterial,0202H
        ARGFRAME ISTACK, 0, STACK
        ARGFRAME PSTACK, 0, STACK
        ARGFRAME XSTACK, 14, STACK
        ARGFRAME IOVERLAY, 0, STATIC
        ARGFRAME DOVERLAY, 0, STATIC
        EXTERN ZDApp_SavedPollRate
        EXTERN ZDOInitDeviceEx
        FUNCTION ZDOInitDeviceEx,0202H
        ARGFRAME ISTACK, 2, STACK
        ARGFRAME PSTACK, 0, STACK
        ARGFRAME XSTACK, 32, STACK
        ARGFRAME IOVERLAY, 0, STATIC
        ARGFRAME DOVERLAY, 0, STATIC
        EXTERN ZDO_Config_Node_Descriptor
        EXTERN ZDO_UseExtendedPANID
        EXTERN ZDP_MgmtPermitJoinReq
        FUNCTION ZDP_MgmtPermitJoinReq,0202H
        ARGFRAME ISTACK, 2, STACK
        ARGFRAME PSTACK, 0, STACK
        ARGFRAME XSTACK, 9, STACK
        ARGFRAME IOVERLAY, 0, STATIC
        ARGFRAME DOVERLAY, 0, STATIC
        EXTERN ZDP_NWKAddrOfInterestReq
        FUNCTION ZDP_NWKAddrOfInterestReq,0202H
        ARGFRAME ISTACK, 0, STACK
        ARGFRAME PSTACK, 0, STACK
        ARGFRAME XSTACK, 37, STACK
        ARGFRAME IOVERLAY, 0, STATIC
        ARGFRAME DOVERLAY, 0, STATIC
        EXTERN ZMacSetReq
        FUNCTION ZMacSetReq,0202H
        ARGFRAME ISTACK, 0, STACK
        ARGFRAME PSTACK, 0, STACK
        ARGFRAME XSTACK, 36, STACK
        ARGFRAME IOVERLAY, 0, STATIC
        ARGFRAME DOVERLAY, 0, STATIC
        EXTERN _NIB
        EXTERN afRegister
        FUNCTION afRegister,0202H
        ARGFRAME ISTACK, 0, STACK
        ARGFRAME PSTACK, 0, STACK
        ARGFRAME XSTACK, 10, STACK
        ARGFRAME IOVERLAY, 0, STATIC
        ARGFRAME DOVERLAY, 0, STATIC
        EXTERN bdbIndentifyActiveEndpoint
        EXTERN bdb_BindIfMatch
        FUNCTION bdb_BindIfMatch,0202H
        ARGFRAME ISTACK, 0, STACK
        ARGFRAME PSTACK, 0, STACK
        ARGFRAME XSTACK, 36, STACK
        ARGFRAME IOVERLAY, 0, STATIC
        ARGFRAME DOVERLAY, 0, STATIC
        EXTERN bdb_SendIdentifyQuery
        FUNCTION bdb_SendIdentifyQuery,0202H
        ARGFRAME ISTACK, 0, STACK
        ARGFRAME PSTACK, 0, STACK
        ARGFRAME XSTACK, 29, STACK
        ARGFRAME IOVERLAY, 0, STATIC
        ARGFRAME DOVERLAY, 0, STATIC
        EXTERN bdb_SendSimpleDescReq
        FUNCTION bdb_SendSimpleDescReq,0202H
        ARGFRAME ISTACK, 0, STACK
        ARGFRAME PSTACK, 0, STACK
        ARGFRAME XSTACK, 29, STACK
        ARGFRAME IOVERLAY, 0, STATIC
        ARGFRAME DOVERLAY, 0, STATIC
        EXTERN bdb_exitFindingBindingWStatus
        FUNCTION bdb_exitFindingBindingWStatus,0202H
        ARGFRAME ISTACK, 0, STACK
        ARGFRAME PSTACK, 0, STACK
        ARGFRAME XSTACK, 29, STACK
        ARGFRAME IOVERLAY, 0, STATIC
        ARGFRAME DOVERLAY, 0, STATIC
        EXTERN bdb_getRespondentRetry
        FUNCTION bdb_getRespondentRetry,0202H
        ARGFRAME ISTACK, 0, STACK
        ARGFRAME PSTACK, 0, STACK
        ARGFRAME XSTACK, 29, STACK
        ARGFRAME IOVERLAY, 0, STATIC
        ARGFRAME DOVERLAY, 0, STATIC
        EXTERN bdb_setEpDescListToActiveEndpoint
        FUNCTION bdb_setEpDescListToActiveEndpoint,0202H
        ARGFRAME ISTACK, 0, STACK
        ARGFRAME PSTACK, 0, STACK
        ARGFRAME XSTACK, 29, STACK
        ARGFRAME IOVERLAY, 0, STATIC
        ARGFRAME DOVERLAY, 0, STATIC
        EXTERN defaultTCLinkKey
        EXTERN devStartMode
        EXTERN nwkNeighborInitTable
        FUNCTION nwkNeighborInitTable,0202H
        ARGFRAME ISTACK, 0, STACK
        ARGFRAME PSTACK, 0, STACK
        ARGFRAME XSTACK, 36, STACK
        ARGFRAME IOVERLAY, 0, STATIC
        ARGFRAME DOVERLAY, 0, STATIC
        EXTERN nwk_ExtPANIDValid
        FUNCTION nwk_ExtPANIDValid,0202H
        ARGFRAME ISTACK, 0, STACK
        ARGFRAME PSTACK, 0, STACK
        ARGFRAME XSTACK, 11, STACK
        ARGFRAME IOVERLAY, 0, STATIC
        ARGFRAME DOVERLAY, 0, STATIC
        EXTERN nwk_desc_list_free
        FUNCTION nwk_desc_list_free,0202H
        ARGFRAME ISTACK, 2, STACK
        ARGFRAME PSTACK, 0, STACK
        ARGFRAME XSTACK, 0, STACK
        ARGFRAME IOVERLAY, 0, STATIC
        ARGFRAME DOVERLAY, 0, STATIC
        EXTERN nwk_desc_list_release
        FUNCTION nwk_desc_list_release,0202H
        ARGFRAME ISTACK, 0, STACK
        ARGFRAME PSTACK, 0, STACK
        ARGFRAME XSTACK, 11, STACK
        ARGFRAME IOVERLAY, 0, STATIC
        ARGFRAME DOVERLAY, 0, STATIC
        EXTERN nwk_getNwkDescList
        FUNCTION nwk_getNwkDescList,0202H
        ARGFRAME ISTACK, 0, STACK
        ARGFRAME PSTACK, 0, STACK
        ARGFRAME XSTACK, 11, STACK
        ARGFRAME IOVERLAY, 0, STATIC
        ARGFRAME DOVERLAY, 0, STATIC
        EXTERN nwk_setStateIdle
        FUNCTION nwk_setStateIdle,0202H
        ARGFRAME ISTACK, 0, STACK
        ARGFRAME PSTACK, 0, STACK
        ARGFRAME XSTACK, 14, STACK
        ARGFRAME IOVERLAY, 0, STATIC
        ARGFRAME DOVERLAY, 0, STATIC
        EXTERN osal_build_uint16
        FUNCTION osal_build_uint16,0202H
        ARGFRAME ISTACK, 0, STACK
        ARGFRAME PSTACK, 0, STACK
        ARGFRAME XSTACK, 30, STACK
        ARGFRAME IOVERLAY, 0, STATIC
        ARGFRAME DOVERLAY, 0, STATIC
        EXTERN osal_get_timeoutEx
        FUNCTION osal_get_timeoutEx,0202H
        ARGFRAME ISTACK, 0, STACK
        ARGFRAME PSTACK, 0, STACK
        ARGFRAME XSTACK, 32, STACK
        ARGFRAME IOVERLAY, 0, STATIC
        ARGFRAME DOVERLAY, 0, STATIC
        EXTERN osal_isbufset
        FUNCTION osal_isbufset,0202H
        ARGFRAME ISTACK, 0, STACK
        ARGFRAME PSTACK, 0, STACK
        ARGFRAME XSTACK, 32, STACK
        ARGFRAME IOVERLAY, 0, STATIC
        ARGFRAME DOVERLAY, 0, STATIC
        EXTERN osal_mem_alloc
        FUNCTION osal_mem_alloc,0202H
        ARGFRAME ISTACK, 0, STACK
        ARGFRAME PSTACK, 0, STACK
        ARGFRAME XSTACK, 10, STACK
        ARGFRAME IOVERLAY, 0, STATIC
        ARGFRAME DOVERLAY, 0, STATIC
        EXTERN osal_mem_free
        FUNCTION osal_mem_free,0202H
        ARGFRAME ISTACK, 2, STACK
        ARGFRAME PSTACK, 0, STACK
        ARGFRAME XSTACK, 12, STACK
        ARGFRAME IOVERLAY, 0, STATIC
        ARGFRAME DOVERLAY, 0, STATIC
        EXTERN osal_memcpy
        FUNCTION osal_memcpy,0202H
        ARGFRAME ISTACK, 0, STACK
        ARGFRAME PSTACK, 0, STACK
        ARGFRAME XSTACK, 20, STACK
        ARGFRAME IOVERLAY, 0, STATIC
        ARGFRAME DOVERLAY, 0, STATIC
        EXTERN osal_memset
        FUNCTION osal_memset,0202H
        ARGFRAME ISTACK, 2, STACK
        ARGFRAME PSTACK, 0, STACK
        ARGFRAME XSTACK, 32, STACK
        ARGFRAME IOVERLAY, 0, STATIC
        ARGFRAME DOVERLAY, 0, STATIC
        EXTERN osal_msg_allocate
        FUNCTION osal_msg_allocate,0202H
        ARGFRAME ISTACK, 0, STACK
        ARGFRAME PSTACK, 0, STACK
        ARGFRAME XSTACK, 17, STACK
        ARGFRAME IOVERLAY, 0, STATIC
        ARGFRAME DOVERLAY, 0, STATIC
        EXTERN osal_msg_deallocate
        FUNCTION osal_msg_deallocate,0202H
        ARGFRAME ISTACK, 0, STACK
        ARGFRAME PSTACK, 0, STACK
        ARGFRAME XSTACK, 29, STACK
        ARGFRAME IOVERLAY, 0, STATIC
        ARGFRAME DOVERLAY, 0, STATIC
        EXTERN osal_msg_receive
        FUNCTION osal_msg_receive,0202H
        ARGFRAME ISTACK, 0, STACK
        ARGFRAME PSTACK, 0, STACK
        ARGFRAME XSTACK, 29, STACK
        ARGFRAME IOVERLAY, 0, STATIC
        ARGFRAME DOVERLAY, 0, STATIC
        EXTERN osal_msg_send
        FUNCTION osal_msg_send,0202H
        ARGFRAME ISTACK, 0, STACK
        ARGFRAME PSTACK, 0, STACK
        ARGFRAME XSTACK, 17, STACK
        ARGFRAME IOVERLAY, 0, STATIC
        ARGFRAME DOVERLAY, 0, STATIC
        EXTERN osal_nv_read
        FUNCTION osal_nv_read,0202H
        ARGFRAME ISTACK, 0, STACK
        ARGFRAME PSTACK, 0, STACK
        ARGFRAME XSTACK, 36, STACK
        ARGFRAME IOVERLAY, 0, STATIC
        ARGFRAME DOVERLAY, 0, STATIC
        EXTERN osal_nv_write
        FUNCTION osal_nv_write,0202H
        ARGFRAME ISTACK, 0, STACK
        ARGFRAME PSTACK, 0, STACK
        ARGFRAME XSTACK, 36, STACK
        ARGFRAME IOVERLAY, 0, STATIC
        ARGFRAME DOVERLAY, 0, STATIC
        EXTERN osal_set_event
        FUNCTION osal_set_event,0202H
        ARGFRAME ISTACK, 0, STACK
        ARGFRAME PSTACK, 0, STACK
        ARGFRAME XSTACK, 32, STACK
        ARGFRAME IOVERLAY, 0, STATIC
        ARGFRAME DOVERLAY, 0, STATIC
        EXTERN osal_start_timerEx
        FUNCTION osal_start_timerEx,0202H
        ARGFRAME ISTACK, 2, STACK
        ARGFRAME PSTACK, 0, STACK
        ARGFRAME XSTACK, 40, STACK
        ARGFRAME IOVERLAY, 0, STATIC
        ARGFRAME DOVERLAY, 0, STATIC
        EXTERN osal_stop_timerEx
        FUNCTION osal_stop_timerEx,0202H
        ARGFRAME ISTACK, 0, STACK
        ARGFRAME PSTACK, 0, STACK
        ARGFRAME XSTACK, 36, STACK
        ARGFRAME IOVERLAY, 0, STATIC
        ARGFRAME DOVERLAY, 0, STATIC
        EXTERN pfnIdentifyTimeChangeCB
        EXTERN requestLinkKeyTimeout
        EXTERN requestNewTrustCenterLinkKey
        EXTERN runtimeChannel
        EXTERN sAddrExtCmp
        FUNCTION sAddrExtCmp,0202H
        ARGFRAME ISTACK, 0, STACK
        ARGFRAME PSTACK, 0, STACK
        ARGFRAME XSTACK, 11, STACK
        ARGFRAME IOVERLAY, 0, STATIC
        ARGFRAME DOVERLAY, 0, STATIC
        EXTERN sspMMOHash
        FUNCTION sspMMOHash,0202H
        ARGFRAME ISTACK, 0, STACK
        ARGFRAME PSTACK, 0, STACK
        ARGFRAME XSTACK, 34, STACK
        ARGFRAME IOVERLAY, 0, STATIC
        ARGFRAME DOVERLAY, 0, STATIC
        EXTERN zclFindAttrRec
        FUNCTION zclFindAttrRec,0202H
        ARGFRAME ISTACK, 0, STACK
        ARGFRAME PSTACK, 0, STACK
        ARGFRAME XSTACK, 31, STACK
        ARGFRAME IOVERLAY, 0, STATIC
        ARGFRAME DOVERLAY, 0, STATIC
        EXTERN zcl_TaskID
        EXTERN zgChildAgingEnable
        EXTERN zgConfigPANID
        EXTERN zgDefaultChannelList
        EXTERN zgDeviceLogicalType
        EXTERN zgPollRate
        EXTERN zgRejoinPollRate
        EXTERN zgStackProfile
        EXTERN zgWriteStartupOptions
        FUNCTION zgWriteStartupOptions,0202H
        ARGFRAME ISTACK, 2, STACK
        ARGFRAME PSTACK, 0, STACK
        ARGFRAME XSTACK, 32, STACK
        ARGFRAME IOVERLAY, 0, STATIC
        ARGFRAME DOVERLAY, 0, STATIC

// C:\Texas Instruments\Z-Stack 3.0.0\Components\stack\bdb\bdb.c
//    1 /**************************************************************************************************
//    2   Filename:       bdb.c
//    3   Revised:        $Date: 2016-02-25 11:51:49 -0700 (Thu, 25 Feb 2016) $
//    4   Revision:       $Revision: - $
//    5 
//    6   Description:    This file contains the Base Device Behavior functions and attributes.
//    7 
//    8 
//    9   Copyright 2006-2015 Texas Instruments Incorporated. All rights reserved.
//   10 
//   11   IMPORTANT: Your use of this Software is limited to those specific rights
//   12   granted under the terms of a software license agreement between the user
//   13   who downloaded the software, his/her employer (which must be your employer)
//   14   and Texas Instruments Incorporated (the "License").  You may not use this
//   15   Software unless you agree to abide by the terms of the License. The License
//   16   limits your use, and you acknowledge, that the Software may not be modified,
//   17   copied or distributed unless embedded on a Texas Instruments microcontroller
//   18   or used solely and exclusively in conjunction with a Texas Instruments radio
//   19   frequency transceiver, which is integrated into your product.  Other than for
//   20   the foregoing purpose, you may not use, reproduce, copy, prepare derivative
//   21   works of, modify, distribute, perform, display or sell this Software and/or
//   22   its documentation for any purpose.
//   23 
//   24   YOU FURTHER ACKNOWLEDGE AND AGREE THAT THE SOFTWARE AND DOCUMENTATION ARE
//   25   PROVIDED "AS IS" WITHOUT WARRANTY OF ANY KIND, EITHER EXPRESS OR IMPLIED,
//   26   INCLUDING WITHOUT LIMITATION, ANY WARRANTY OF MERCHANTABILITY, TITLE,
//   27   NON-INFRINGEMENT AND FITNESS FOR A PARTICULAR PURPOSE. IN NO EVENT SHALL
//   28   TEXAS INSTRUMENTS OR ITS LICENSORS BE LIABLE OR OBLIGATED UNDER CONTRACT,
//   29   NEGLIGENCE, STRICT LIABILITY, CONTRIBUTION, BREACH OF WARRANTY, OR OTHER
//   30   LEGAL EQUITABLE THEORY ANY DIRECT OR INDIRECT DAMAGES OR EXPENSES
//   31   INCLUDING BUT NOT LIMITED TO ANY INCIDENTAL, SPECIAL, INDIRECT, PUNITIVE
//   32   OR CONSEQUENTIAL DAMAGES, LOST PROFITS OR LOST DATA, COST OF PROCUREMENT
//   33   OF SUBSTITUTE GOODS, TECHNOLOGY, SERVICES, OR ANY CLAIMS BY THIRD PARTIES
//   34   (INCLUDING BUT NOT LIMITED TO ANY DEFENSE THEREOF), OR OTHER SIMILAR COSTS.
//   35 
//   36   Should you have any questions regarding your right to use this Software,
//   37   contact Texas Instruments Incorporated at www.TI.com.
//   38 **************************************************************************************************/
//   39 
//   40 /*********************************************************************
//   41  * INCLUDES
//   42  */
//   43 
//   44 #include "bdb.h"
//   45 #include "ZDApp.h"
//   46 #include "OSAL.h"
//   47 #include "ZDConfig.h"
//   48 #include "hal_led.h"
//   49 #include "ZDObject.h"
//   50 #include "OSAL_Nv.h"
//   51 #include "AddrMgr.h"
//   52 #include "ZDSecMgr.h"
//   53 #include "nwk.h"
//   54 #include "nwk_util.h"
//   55 #include "ssp_hash.h"
//   56 #ifdef BDB_REPORTING
//   57 #include "bdb_Reporting.h"
//   58 #endif 
//   59 
//   60 //GP_UPDATE
//   61 #include "gp_interface.h"
//   62 #include "gp_common.h"
//   63 #include "bdb_interface.h"
//   64 #include "dgp_stub.h"
//   65 
//   66 #if defined ( INTER_PAN ) 
//   67 #if defined ( BDB_TL_INITIATOR )  
//   68 #include "bdb_touchlink_initiator.h"
//   69 #endif
//   70 #if defined ( BDB_TL_TARGET )  
//   71 #include "bdb_touchlink_target.h"
//   72 #endif
//   73 #endif
//   74    
//   75 #if defined ( INTER_PAN ) && ( defined ( BDB_TL_INITIATOR ) || defined ( BDB_TL_TARGET ) )
//   76   #include "bdb_touchlink.h"
//   77 #endif
//   78  
//   79 #ifdef MT_APP_CNF_FUNC
//   80 #include "MT_APP_CONFIG.h"
//   81 #endif
//   82    
//   83  /*********************************************************************
//   84  * MACROS
//   85  */
//   86 //This is actually the channels used
//   87 #define vScanChannels  zgDefaultChannelList
//   88    
//   89  /*********************************************************************
//   90  * CONSTANTS
//   91  */
//   92 
//   93 #define NUMBER_OF_CHANNELS     16
//   94 
//   95 #define CHANNEL_11_MASK_POS    11
//   96 #define CHANNEL_26_MASK_POS    26
//   97    

        RSEG XDATA_Z:XDATA:NOROOT(0)
        DATA8
//   98 uint8 bdb_FB_InitiatorCurrentCyclesNumber = 0; //last cycle is #1 (i.e. cycles-left = (bdb_FB_InitiatorCurrentCyclesNumber - 1))
bdb_FB_InitiatorCurrentCyclesNumber:
        DS 1
        REQUIRE __INIT_XDATA_Z
//   99 
//  100 /*********************************************************************
//  101  * TYPEDEFS
//  102  */
//  103  
//  104  
//  105  /*********************************************************************
//  106  * GLOBAL VARIABLES
//  107  */
//  108 

        RSEG XDATA_Z:XDATA:NOROOT(0)
        DATA8
//  109 byte bdb_TaskID;
bdb_TaskID:
        DS 1
        REQUIRE __INIT_XDATA_Z

        RSEG XDATA_I:XDATA:NOROOT(0)
//  110 bdbAttributes_t bdbAttributes = BDB_ATTRIBUTES_DEFAULT_CONFIG;
bdbAttributes:
        DATA8
        DS 19
        REQUIRE `?<Initializer for bdbAttributes>`
        REQUIRE __INIT_XDATA_I

        RSEG XDATA_Z:XDATA:NOROOT(0)
        DATA16
//  111 epList_t *bdb_HeadEpDescriptorList = NULL;
bdb_HeadEpDescriptorList:
        DS 2
        REQUIRE __INIT_XDATA_Z

        RSEG XDATA_Z:XDATA:NOROOT(0)
        DATA16
//  112 epList_t *bdb_CurrEpDescriptorList = NULL;
bdb_CurrEpDescriptorList:
        DS 2
        REQUIRE __INIT_XDATA_Z
//  113 

        RSEG XDATA_Z:XDATA:NOROOT(0)
        DATA16
//  114 bdbFindingBindingRespondent_t *pRespondentHead = NULL;
pRespondentHead:
        DS 2
        REQUIRE __INIT_XDATA_Z

        RSEG XDATA_Z:XDATA:NOROOT(0)
        DATA16
//  115 bdbFindingBindingRespondent_t *pRespondentCurr = NULL;
pRespondentCurr:
        DS 2
        REQUIRE __INIT_XDATA_Z

        RSEG XDATA_Z:XDATA:NOROOT(0)
        DATA16
//  116 bdbFindingBindingRespondent_t *pRespondentNext = NULL;
pRespondentNext:
        DS 2
        REQUIRE __INIT_XDATA_Z
//  117 

        RSEG XDATA_Z:XDATA:NOROOT(0)
        DATA32
//  118 bdbCommissioningProcedureState_t bdbCommissioningProcedureState; 
bdbCommissioningProcedureState:
        DS 4
        REQUIRE __INIT_XDATA_Z

        RSEG XDATA_Z:XDATA:NOROOT(0)
        DATA8
//  119 bool bdb_initialization = FALSE;  //Variable to tell if the initialization process has been started
bdb_initialization:
        DS 1
        REQUIRE __INIT_XDATA_Z
//  120 
//  121 //Nwk formation and nwk steering for nodes not in nwk

        RSEG XDATA_I:XDATA:NOROOT(0)
//  122 bool vDoPrimaryScan = TRUE;
vDoPrimaryScan:
        DATA8
        DS 1
        REQUIRE `?<Initializer for vDoPrimaryScan>`
        REQUIRE __INIT_XDATA_I
//  123 

        RSEG XDATA_I:XDATA:NOROOT(0)
//  124 uint8 zgBdbInstallCodeCRC[INSTALL_CODE_LEN + INSTALL_CODE_CRC_LEN] = {0x83,0xFE,0xD3,0x40,0x7A,0x93,0x97,0x23,0xA5,0xC6,0x39,0xB2,0x69,0x16,0xD5,0x05,0xC3,0xB5};
zgBdbInstallCodeCRC:
        DATA8
        DS 18
        REQUIRE `?<Initializer for zgBdbInstallCodeCRC>`
        REQUIRE __INIT_XDATA_I
//  125 
//  126 //Pointer of the nwk being tried in association process
//  127 #if (ZG_BUILD_JOINING_TYPE)

        RSEG XDATA_Z:XDATA:NOROOT(0)
        DATA16
//  128 static networkDesc_t *pBDBListNwk = NULL;
pBDBListNwk:
        DS 2
        REQUIRE __INIT_XDATA_Z
//  129 #endif
//  130 

        RSEG XDATA_Z:XDATA:NOROOT(0)
        DATA8
//  131 uint8 bdb_ZclTransactionSequenceNumber=0x00;
bdb_ZclTransactionSequenceNumber:
        DS 1
        REQUIRE __INIT_XDATA_Z
//  132 

        RSEG XDATA_Z:XDATA:NOROOT(0)
        DATA8
//  133 bool touchLinkTargetEnabled = FALSE;
touchLinkTargetEnabled:
        DS 1
        REQUIRE __INIT_XDATA_Z
//  134 
//  135  /*********************************************************************
//  136  * EXTERNAL VARIABLES
//  137  */
//  138 
//  139 extern devStartModes_t devStartMode;
//  140 extern bool  requestNewTrustCenterLinkKey;
//  141 extern uint32 requestLinkKeyTimeout;
//  142 extern uint32 ZDApp_SavedPollRate;
//  143 
//  144 #if (BDB_FINDING_BINDING_CAPABILITY_ENABLED==1)
//  145 extern bdbGCB_IdentifyTimeChange_t pfnIdentifyTimeChangeCB;
//  146 extern uint8 bdbIndentifyActiveEndpoint;
//  147 #endif
//  148 
//  149 extern bdbFindingBindingRespondent_t *pRespondentNext;
//  150 
//  151 #ifndef ZNP_ENABLED
//  152 extern ZDO_DeviceAnnce_t aliasConflictAnnce;
//  153 #endif
//  154 
//  155 /*********************************************************************
//  156  * EXTERNAL FUNCTIONS
//  157  */
//  158 
//  159 extern void ZDApp_ResetTimerStart( uint16 delay );
//  160 extern void ZDApp_NodeProfileSync( uint8 stackProfile );
//  161 extern uint8 ZDApp_RestoreNwkKey( uint8 incrFrmCnt );
//  162 extern uint8 ZDApp_ReadNetworkRestoreState( void );
//  163 
//  164 extern bdbFindingBindingRespondent_t* bdb_getRespondentRetry(bdbFindingBindingRespondent_t* pRespondentHead);
//  165 
//  166 /*********************************************************************
//  167  * LOCAL VARIABLES
//  168  */
//  169 #if (ZG_BUILD_JOINING_TYPE)

        RSEG XDATA_Z:XDATA:NOROOT(0)
        DATA8
//  170   static uint8 bdb_nwkAssocRetriesCount = 0;
bdb_nwkAssocRetriesCount:
        DS 1
        REQUIRE __INIT_XDATA_Z
//  171 #endif
//  172 #if (ZG_BUILD_COORDINATOR_TYPE)
//  173   static bdb_joiningDeviceList_t *bdb_joiningDeviceList = NULL;
//  174 #endif
//  175   
//  176 #if (BDB_FINDING_BINDING_CAPABILITY_ENABLED==1) 
//  177 //Latch to save the status success of any attempt in the periodic F&B process  

        RSEG XDATA_Z:XDATA:NOROOT(0)
        DATA8
//  178 static uint8 bdb_FBStateSuccessLatch = FALSE;
bdb_FBStateSuccessLatch:
        DS 1
        REQUIRE __INIT_XDATA_Z
//  179 #endif
//  180  /*********************************************************************
//  181  * LOCAL FUNCTIONS
//  182  */
//  183 static void bdb_ProcessOSALMsg(bdbInMsg_t *msgPtr);
//  184 void bdb_NotifyCommissioningModeStart(uint8 commissioningMode);
//  185 
//  186 #if (ZG_BUILD_JOINING_TYPE)
//  187 static void bdb_requestTCStackVersion(void);
//  188 static void bdb_requestTCLinkKey(void);
//  189 static void bdb_requestVerifyTCLinkKey(void);
//  190 static void bdb_tryNwkAssoc(void);
//  191 #endif
//  192 
//  193 
//  194 static void bdb_processTimeout(void);
//  195 static void bdb_startResumeCommissioningProcess(void);
//  196 static void bdb_nwkSteeringDeviceOnNwk(void);
//  197 static void bdb_nwkJoiningFormation(bool isJoining);
//  198 
//  199 //GP_UPDATE
//  200 #if (ZG_BUILD_RTR_TYPE)
//  201 #ifndef ZNP_ENABLED
//  202 static uint8 gp_ChangeChannelReq(void);
//  203 static void gp_CBInit(void);
//  204 #endif
//  205 #endif
//  206 
//  207 #if (ZG_BUILD_COORDINATOR_TYPE)
//  208 static void bdb_TCProcessJoiningList(void);
//  209 static ZStatus_t bdb_TCJoiningDeviceFree(bdb_joiningDeviceList_t* JoiningDeviceToRemove);
//  210 #endif
//  211 #if (ZG_BUILD_COORDINATOR_TYPE)
//  212 static bdbGCB_TCLinkKeyExchangeProcess_t  pfnTCLinkKeyExchangeProcessCB = NULL;
//  213 #endif

        RSEG XDATA_Z:XDATA:NOROOT(0)
        DATA16
//  214 static bdbGCB_CommissioningStatus_t       pfnCommissioningStatusCB = NULL; 
pfnCommissioningStatusCB:
        DS 2
        REQUIRE __INIT_XDATA_Z
//  215 #if (ZG_BUILD_JOINING_TYPE)

        RSEG XDATA_Z:XDATA:NOROOT(0)
        DATA16
//  216 static bdbGCB_CBKETCLinkKeyExchange_t     pfnCBKETCLinkKeyExchange = NULL;
pfnCBKETCLinkKeyExchange:
        DS 2
        REQUIRE __INIT_XDATA_Z

        RSEG XDATA_Z:XDATA:NOROOT(0)
        DATA16
//  217 static bdbGCB_FilterNwkDesc_t             pfnFilterNwkDesc = NULL;   
pfnFilterNwkDesc:
        DS 2
        REQUIRE __INIT_XDATA_Z
//  218 #endif
//  219 
//  220 
//  221 
//  222 void bdb_calculateCCITT_CRC (uint8 *Mb, uint32 msglen, uint16 *crc);
//  223 void bdb_crcInit(uint16 *crc, uint16 *crcinit_direct, uint16 *crcinit_nondirect);
//  224 uint16 bdb_crcReflect (uint16 crc, uint16 bitnum);
//  225 uint16 bdb_crcBitByBitFast(uint8 * p, uint32 len, uint16 crcinit_direct, uint16 crcinit_nondirect);
//  226 
//  227 
//  228 /*********************************************************************
//  229  * PUBLIC FUNCTIONS
//  230  *********************************************************************/
//  231 void bdb_filterNwkDisc(void);
//  232 ZStatus_t bdb_joinProcess(networkDesc_t *pChosenNwk);
//  233 
//  234 ZStatus_t bdb_TCAddJoiningDevice(uint16 parentAddr, uint8* JoiningExtAddr);
//  235 void bdb_TCjoiningDeviceComplete(uint8* JoiningExtAddr);
//  236 
//  237  /*********************************************************************
//  238  * @fn          bdb_Init
//  239  *
//  240  * @brief       Initialization function for the Base Device Behavior.
//  241  *
//  242  * @param       task_id - bdb_TaskID Task ID
//  243  *
//  244  * @return      none
//  245  */

        RSEG BANKED_CODE:CODE:NOROOT(0)
//  246 void bdb_Init( byte task_id )
bdb_Init:
          CFI Block cfiBlock0 Using cfiCommon0
          CFI Function bdb_Init
        CODE
//  247 {
        PUSH    DPL
          CFI DPL0 Frame(CFA_SP, 4)
          CFI CFA_SP SP+-4
        PUSH    DPH
          CFI DPH0 Frame(CFA_SP, 5)
          CFI CFA_SP SP+-5
        ; Saved register size: 2
        ; Auto size: 0
//  248   bdb_TaskID = task_id;
        MOV     A,R1
        MOV     DPTR,#bdb_TaskID
        LJMP    ??Subroutine33_0 & 0xFFFF
//  249     
//  250 #if (ZG_BUILD_COORDINATOR_TYPE)
//  251   if(ZG_DEVICE_COORDINATOR_TYPE)
//  252   {
//  253     if(bdbAttributes.bdbJoinUsesInstallCodeKey)
//  254     {
//  255       zgAllowInstallCodes = ZG_IC_MUST_USED;
//  256     }
//  257   }
//  258 #endif
//  259   
//  260 #if defined ( INTER_PAN ) && defined ( BDB_TL_INITIATOR )  
//  261   touchLinkInitiator_InitDevice( );
//  262 #endif
//  263 
//  264 #if (BDB_REPORTING)
//  265   bdb_RepInit();
//  266 #endif  
//  267   
//  268 //GP_UPDATE
//  269 #if (ZG_BUILD_RTR_TYPE)
//  270 #ifndef ZNP_ENABLED
//  271   gp_RegisterGPChangeChannelReqForBDBCB(gp_ChangeChannelReq);
//  272   gp_CBInit();
//  273 #endif
//  274 #endif
//  275 }
          CFI EndBlock cfiBlock0
//  276 
//  277 /*********************************************************************
//  278  * @fn      bdb_RegisterSimpleDescriptor
//  279  *
//  280  * @brief   Register the Simple descriptor. This function also registers 
//  281  *          the profile's cluster conversion table.
//  282  *
//  283  * @param   simpleDesc - a pointer to a valid SimpleDescriptionFormat_t, must not be NULL.
//  284  *
//  285  * @return  none
//  286  */

        RSEG BANKED_CODE:CODE:NOROOT(0)
//  287 void bdb_RegisterSimpleDescriptor( SimpleDescriptionFormat_t *simpleDesc )
bdb_RegisterSimpleDescriptor:
          CFI Block cfiBlock1 Using cfiCommon0
          CFI Function bdb_RegisterSimpleDescriptor
        CODE
//  288 {
        FUNCALL bdb_RegisterSimpleDescriptor, osal_mem_alloc
        LOCFRAME ISTACK, 0, STACK
        LOCFRAME PSTACK, 0, STACK
        LOCFRAME XSTACK, 10, STACK
        LOCFRAME IOVERLAY, 0, STATIC
        LOCFRAME DOVERLAY, 0, STATIC
        ARGFRAME ISTACK, 0, STACK
        ARGFRAME PSTACK, 0, STACK
        ARGFRAME XSTACK, 10, STACK
        ARGFRAME IOVERLAY, 0, STATIC
        ARGFRAME DOVERLAY, 0, STATIC
        FUNCALL bdb_RegisterSimpleDescriptor, afRegister
        LOCFRAME ISTACK, 0, STACK
        LOCFRAME PSTACK, 0, STACK
        LOCFRAME XSTACK, 10, STACK
        LOCFRAME IOVERLAY, 0, STATIC
        LOCFRAME DOVERLAY, 0, STATIC
        ARGFRAME ISTACK, 0, STACK
        ARGFRAME PSTACK, 0, STACK
        ARGFRAME XSTACK, 10, STACK
        ARGFRAME IOVERLAY, 0, STATIC
        ARGFRAME DOVERLAY, 0, STATIC
        REQUIRE ?V0
        REQUIRE ?V1
        MOV     A,#-0xa
        LCALL   ?BANKED_ENTER_XDATA
          CFI DPH0 load(1, XDATA, add(CFA_XSP16, literal(-1)))
          CFI DPL0 load(1, XDATA, add(CFA_XSP16, literal(-2)))
          CFI ?BRET_EXT load(1, XDATA, add(CFA_XSP16, literal(-3)))
          CFI ?RET_HIGH load(1, XDATA, add(CFA_XSP16, literal(-4)))
          CFI ?RET_LOW load(1, XDATA, add(CFA_XSP16, literal(-5)))
          CFI R7 load(1, XDATA, add(CFA_XSP16, literal(-6)))
          CFI V1 load(1, XDATA, add(CFA_XSP16, literal(-7)))
          CFI V0 load(1, XDATA, add(CFA_XSP16, literal(-8)))
          CFI VB load(1, XDATA, add(CFA_XSP16, literal(-9)))
          CFI R6 load(1, XDATA, add(CFA_XSP16, literal(-10)))
          CFI CFA_SP SP+0
          CFI CFA_XSP16 add(XSP16, 10)
        ; Saved register size: 10
        ; Auto size: 0
        MOV     A,R2
        MOV     R6,A
        MOV     A,R3
        MOV     R7,A
//  289   endPointDesc_t *epDesc;
//  290 
//  291   // Register the application's endpoint descriptor
//  292   //  - This memory is allocated and never freed.
//  293   epDesc = osal_mem_alloc( sizeof ( endPointDesc_t ) );
        ; Setup parameters for call to function osal_mem_alloc
        MOV     R2,#0x7
        MOV     R3,#0x0
        LCALL   `??osal_mem_alloc::?relay`; Banked call to: osal_mem_alloc
//  294   if ( epDesc )
        MOV     A,R2
        ORL     A,R3
        JZ      ??bdb_RegisterSimpleDescriptor_0
//  295   {
//  296     // Fill out the endpoint description.
//  297     epDesc->endPoint = simpleDesc->EndPoint;
        MOV     DPL,R6
        MOV     DPH,R7
        MOVX    A,@DPTR
        MOV     DPL,R2
        MOV     DPH,R3
        MOVX    @DPTR,A
//  298     epDesc->task_id = &zcl_TaskID;   // all messages get sent to ZCL first
        INC     DPTR
        INC     DPTR
        MOV     A,#zcl_TaskID & 0xff
        MOVX    @DPTR,A
        INC     DPTR
        MOV     A,#(zcl_TaskID >> 8) & 0xff
        LCALL   ?Subroutine18 & 0xFFFF
//  299     epDesc->simpleDesc = simpleDesc;
??CrossCallReturnLabel_29:
        MOV     A,R6
        MOVX    @DPTR,A
        INC     DPTR
        MOV     A,R7
        LCALL   ?Subroutine18 & 0xFFFF
//  300     epDesc->latencyReq = noLatencyReqs;
??CrossCallReturnLabel_30:
        INC     DPTR
        INC     DPTR
        CLR     A
        MOVX    @DPTR,A
//  301 
//  302     // Register the endpoint description with the AF
//  303     afRegister( epDesc );
        ; Setup parameters for call to function afRegister
        LCALL   `??afRegister::?relay`; Banked call to: afRegister
//  304   }
//  305 }
??bdb_RegisterSimpleDescriptor_0:
        LJMP    ??Subroutine41_0 & 0xFFFF
          CFI EndBlock cfiBlock1

        RSEG BANKED_CODE:CODE:NOROOT(0)
?Subroutine18:
          CFI Block cfiCond2 Using cfiCommon0
          CFI Function bdb_RegisterSimpleDescriptor
          CFI Conditional ??CrossCallReturnLabel_29
          CFI R6 load(1, XDATA, add(CFA_XSP16, literal(-10)))
          CFI VB load(1, XDATA, add(CFA_XSP16, literal(-9)))
          CFI V0 load(1, XDATA, add(CFA_XSP16, literal(-8)))
          CFI V1 load(1, XDATA, add(CFA_XSP16, literal(-7)))
          CFI R7 load(1, XDATA, add(CFA_XSP16, literal(-6)))
          CFI ?RET_LOW load(1, XDATA, add(CFA_XSP16, literal(-5)))
          CFI ?RET_HIGH load(1, XDATA, add(CFA_XSP16, literal(-4)))
          CFI ?BRET_EXT load(1, XDATA, add(CFA_XSP16, literal(-3)))
          CFI DPL0 load(1, XDATA, add(CFA_XSP16, literal(-2)))
          CFI DPH0 load(1, XDATA, add(CFA_XSP16, literal(-1)))
          CFI CFA_SP SP+-2
          CFI CFA_XSP16 add(XSP16, 10)
          CFI Block cfiCond3 Using cfiCommon0
          CFI (cfiCond3) Function bdb_RegisterSimpleDescriptor
          CFI (cfiCond3) Conditional ??CrossCallReturnLabel_30
          CFI (cfiCond3) R6 load(1, XDATA, add(CFA_XSP16, literal(-10)))
          CFI (cfiCond3) VB load(1, XDATA, add(CFA_XSP16, literal(-9)))
          CFI (cfiCond3) V0 load(1, XDATA, add(CFA_XSP16, literal(-8)))
          CFI (cfiCond3) V1 load(1, XDATA, add(CFA_XSP16, literal(-7)))
          CFI (cfiCond3) R7 load(1, XDATA, add(CFA_XSP16, literal(-6)))
          CFI (cfiCond3) ?RET_LOW load(1, XDATA, add(CFA_XSP16, literal(-5)))
          CFI (cfiCond3) ?RET_HIGH load(1, XDATA, add(CFA_XSP16, literal(-4)))
          CFI (cfiCond3) ?BRET_EXT load(1, XDATA, add(CFA_XSP16, literal(-3)))
          CFI (cfiCond3) DPL0 load(1, XDATA, add(CFA_XSP16, literal(-2)))
          CFI (cfiCond3) DPH0 load(1, XDATA, add(CFA_XSP16, literal(-1)))
          CFI (cfiCond3) CFA_SP SP+-2
          CFI (cfiCond3) CFA_XSP16 add(XSP16, 10)
          CFI Block cfiPicker4 Using cfiCommon1
          CFI (cfiPicker4) NoFunction
          CFI (cfiPicker4) Picker
        MOVX    @DPTR,A
        MOV     DPL,R2
        MOV     DPH,R3
        INC     DPTR
        INC     DPTR
        INC     DPTR
        INC     DPTR
        RET
          CFI EndBlock cfiCond2
          CFI EndBlock cfiCond3
          CFI EndBlock cfiPicker4
//  306 
//  307 #if (BDB_FINDING_BINDING_CAPABILITY_ENABLED==1)  
//  308 /*********************************************************************
//  309  * @fn      bdb_ZclIdentifyCmdInd
//  310  *
//  311  * @brief   Callback from the ZCL General Cluster Library when
//  312  *          it received an Identity Command for this application.
//  313  *
//  314  * @param   srcAddr - source address and endpoint of the response message
//  315  * @param   identifyTime - the number of seconds to identify yourself
//  316  * @param   endpoint - destination endpoint
//  317  *
//  318  * @return  none
//  319  */

        RSEG BANKED_CODE:CODE:NOROOT(0)
//  320 void bdb_ZclIdentifyCmdInd( zclIdentify_t *pCmd, uint8 endpoint )
bdb_ZclIdentifyCmdInd:
          CFI Block cfiBlock5 Using cfiCommon0
          CFI Function bdb_ZclIdentifyCmdInd
        CODE
//  321 {
        FUNCALL bdb_ZclIdentifyCmdInd, zclFindAttrRec
        LOCFRAME ISTACK, 0, STACK
        LOCFRAME PSTACK, 0, STACK
        LOCFRAME XSTACK, 22, STACK
        LOCFRAME IOVERLAY, 0, STATIC
        LOCFRAME DOVERLAY, 0, STATIC
        ARGFRAME ISTACK, 0, STACK
        ARGFRAME PSTACK, 0, STACK
        ARGFRAME XSTACK, 22, STACK
        ARGFRAME IOVERLAY, 0, STATIC
        ARGFRAME DOVERLAY, 0, STATIC
        FUNCALL bdb_ZclIdentifyCmdInd, osal_start_timerEx
        LOCFRAME ISTACK, 0, STACK
        LOCFRAME PSTACK, 0, STACK
        LOCFRAME XSTACK, 24, STACK
        LOCFRAME IOVERLAY, 0, STATIC
        LOCFRAME DOVERLAY, 0, STATIC
        ARGFRAME ISTACK, 0, STACK
        ARGFRAME PSTACK, 0, STACK
        ARGFRAME XSTACK, 24, STACK
        ARGFRAME IOVERLAY, 0, STATIC
        ARGFRAME DOVERLAY, 0, STATIC
        REQUIRE ?V0
        REQUIRE ?V2
        REQUIRE ?V3
        MOV     A,#-0xc
        LCALL   ?BANKED_ENTER_XDATA
          CFI DPH0 load(1, XDATA, add(CFA_XSP16, literal(-1)))
          CFI DPL0 load(1, XDATA, add(CFA_XSP16, literal(-2)))
          CFI ?BRET_EXT load(1, XDATA, add(CFA_XSP16, literal(-3)))
          CFI ?RET_HIGH load(1, XDATA, add(CFA_XSP16, literal(-4)))
          CFI ?RET_LOW load(1, XDATA, add(CFA_XSP16, literal(-5)))
          CFI R7 load(1, XDATA, add(CFA_XSP16, literal(-6)))
          CFI V3 load(1, XDATA, add(CFA_XSP16, literal(-7)))
          CFI V2 load(1, XDATA, add(CFA_XSP16, literal(-8)))
          CFI V1 load(1, XDATA, add(CFA_XSP16, literal(-9)))
          CFI V0 load(1, XDATA, add(CFA_XSP16, literal(-10)))
          CFI VB load(1, XDATA, add(CFA_XSP16, literal(-11)))
          CFI R6 load(1, XDATA, add(CFA_XSP16, literal(-12)))
          CFI CFA_SP SP+0
          CFI CFA_XSP16 add(XSP16, 12)
        ; Saved register size: 12
        ; Auto size: 8
        MOV     A,#-0x8
        LCALL   ?ALLOC_XSTACK8
          CFI CFA_XSP16 add(XSP16, 20)
        MOV     A,R2
        MOV     R6,A
        MOV     A,R3
        MOV     R7,A
        MOV     ?V0,R1
//  322   zclAttrRec_t identifyAttrRec;
//  323   
//  324   if ( zclFindAttrRec( endpoint, ZCL_CLUSTER_ID_GEN_IDENTIFY,
//  325                       ATTRID_IDENTIFY_TIME, &identifyAttrRec ) )
        ; Setup parameters for call to function zclFindAttrRec
        MOV     R0,?XSP + 0
        MOV     R1,?XSP + 1
        MOV     ?V2,R0
        MOV     ?V3,R1
        MOV     R0,#?V2
        LCALL   ?PUSH_XSTACK_I_TWO
          CFI CFA_XSP16 add(XSP16, 22)
        MOV     R4,#0x0
        MOV     R5,#0x0
        MOV     R2,#0x3
        MOV     R3,#0x0
        MOV     R1,?V0
        LCALL   `??zclFindAttrRec::?relay`; Banked call to: zclFindAttrRec
        MOV     A,#0x2
        LCALL   ?DEALLOC_XSTACK8
          CFI CFA_XSP16 add(XSP16, 20)
        MOV     A,R1
        JZ      ??bdb_ZclIdentifyCmdInd_0
//  326   {
//  327     if ( pCmd->identifyTime > 0 )
        MOV     A,#0x6
        LCALL   ?XSTACK_DISP0_8
        LCALL   ?Subroutine11 & 0xFFFF
??CrossCallReturnLabel_9:
        LCALL   ?Subroutine8 & 0xFFFF
??CrossCallReturnLabel_6:
        MOV     DPL,R0
        MOV     DPH,R1
        JZ      ??bdb_ZclIdentifyCmdInd_1
//  328     {
//  329       *((uint16*)identifyAttrRec.attr.dataPtr) += pCmd->identifyTime;
        MOVX    A,@DPTR
        ADD     A,R2
        MOV     R2,A
        INC     DPTR
        MOVX    A,@DPTR
        ADDC    A,R3
        MOV     R3,A
        MOV     DPL,R0
        MOV     DPH,R1
        MOV     A,R2
        MOVX    @DPTR,A
        INC     DPTR
        MOV     A,R3
        SJMP    ??bdb_ZclIdentifyCmdInd_2
//  330     }
//  331     else if ( pCmd->identifyTime <= 0 )
//  332     {
//  333       *((uint16*)identifyAttrRec.attr.dataPtr) = 0;
??bdb_ZclIdentifyCmdInd_1:
        CLR     A
        MOVX    @DPTR,A
        INC     DPTR
??bdb_ZclIdentifyCmdInd_2:
        MOVX    @DPTR,A
//  334     }
//  335     osal_start_timerEx( bdb_TaskID, BDB_IDENTIFY_TIMEOUT, 1000 );
        ; Setup parameters for call to function osal_start_timerEx
        MOV     DPTR,#__Constant_3e8
        LCALL   ?PUSH_XSTACK8_X_FOUR
          CFI CFA_XSP16 add(XSP16, 24)
        MOV     R2,#0x0
        MOV     R3,#0x20
        MOV     DPTR,#bdb_TaskID
        MOVX    A,@DPTR
        MOV     R1,A
        LCALL   `??osal_start_timerEx::?relay`; Banked call to: osal_start_timerEx
        MOV     A,#0x4
        LCALL   ?DEALLOC_XSTACK8
          CFI CFA_XSP16 add(XSP16, 20)
//  336     
//  337     if(pfnIdentifyTimeChangeCB != NULL)
        MOV     DPTR,#pfnIdentifyTimeChangeCB
        LCALL   ??Subroutine39_0 & 0xFFFF
??CrossCallReturnLabel_72:
        JZ      ??bdb_ZclIdentifyCmdInd_0
//  338     {
//  339       pfnIdentifyTimeChangeCB(pCmd->srcAddr->endPoint);
        ; Setup parameters for indirect call
        MOV     DPL,R6
        MOV     DPH,R7
        MOVX    A,@DPTR
        MOV     R0,A
        INC     DPTR
        MOVX    A,@DPTR
        XCH     A,R0
        ADD     A,#0x9
        MOV     DPL,A
        CLR     A
        ADDC    A,R0
        MOV     DPH,A
        MOVX    A,@DPTR
        MOV     R1,A
        MOV     DPTR,#pfnIdentifyTimeChangeCB
        LCALL   ?Subroutine10 & 0xFFFF
//  340     }
//  341   }
??CrossCallReturnLabel_92:
        LCALL   ?CALL_IND
//  342 }
??bdb_ZclIdentifyCmdInd_0:
        MOV     A,#0x8
        LJMP    ??Subroutine35_0 & 0xFFFF
          CFI EndBlock cfiBlock5
//  343 #endif
//  344 
//  345 
//  346 #if (ZG_BUILD_JOINING_TYPE) 
//  347  /*********************************************************************
//  348  * @fn          bdb_setActiveCentralizedLinkKey
//  349  *
//  350  * @brief       Set the active centralized key to be used, Global or IC derived.
//  351  *
//  352  * @param       useGlobal - If TRUE, then use default TC link key, if FALSE use 
//  353  *                          pBuf as source for IC key derived input
//  354  * @param       pBuf - The expected format and length of the IC is defined by 
//  355  *                     BDB_INSTALL_CODE_USE
//  356  *
//  357  * @return      ZStatus_t - ZFailure when no valid BDB_INSTALL_CODE_USE is used
//  358  *                          ZInvalidParameter when IC buffer is null
//  359  */

        RSEG BANKED_CODE:CODE:NOROOT(0)
//  360 ZStatus_t bdb_setActiveCentralizedLinkKey(bool useGlobal, uint8* pBuf)
bdb_setActiveCentralizedLinkKey:
          CFI Block cfiBlock6 Using cfiCommon0
          CFI Function bdb_setActiveCentralizedLinkKey
        CODE
//  361 {
        FUNCALL bdb_setActiveCentralizedLinkKey, osal_memset
        LOCFRAME ISTACK, 0, STACK
        LOCFRAME PSTACK, 0, STACK
        LOCFRAME XSTACK, 18, STACK
        LOCFRAME IOVERLAY, 0, STATIC
        LOCFRAME DOVERLAY, 0, STATIC
        ARGFRAME ISTACK, 0, STACK
        ARGFRAME PSTACK, 0, STACK
        ARGFRAME XSTACK, 18, STACK
        ARGFRAME IOVERLAY, 0, STATIC
        ARGFRAME DOVERLAY, 0, STATIC
        FUNCALL bdb_setActiveCentralizedLinkKey, APSME_AddTCLinkKey
        LOCFRAME ISTACK, 0, STACK
        LOCFRAME PSTACK, 0, STACK
        LOCFRAME XSTACK, 18, STACK
        LOCFRAME IOVERLAY, 0, STATIC
        LOCFRAME DOVERLAY, 0, STATIC
        ARGFRAME ISTACK, 0, STACK
        ARGFRAME PSTACK, 0, STACK
        ARGFRAME XSTACK, 18, STACK
        ARGFRAME IOVERLAY, 0, STATIC
        ARGFRAME DOVERLAY, 0, STATIC
        FUNCALL bdb_setActiveCentralizedLinkKey, bdb_addInstallCode
        LOCFRAME ISTACK, 0, STACK
        LOCFRAME PSTACK, 0, STACK
        LOCFRAME XSTACK, 18, STACK
        LOCFRAME IOVERLAY, 0, STATIC
        LOCFRAME DOVERLAY, 0, STATIC
        ARGFRAME ISTACK, 0, STACK
        ARGFRAME PSTACK, 0, STACK
        ARGFRAME XSTACK, 18, STACK
        ARGFRAME IOVERLAY, 0, STATIC
        ARGFRAME DOVERLAY, 0, STATIC
        REQUIRE ?V0
        REQUIRE ?V1
        MOV     A,#-0xa
        LCALL   ?BANKED_ENTER_XDATA
          CFI DPH0 load(1, XDATA, add(CFA_XSP16, literal(-1)))
          CFI DPL0 load(1, XDATA, add(CFA_XSP16, literal(-2)))
          CFI ?BRET_EXT load(1, XDATA, add(CFA_XSP16, literal(-3)))
          CFI ?RET_HIGH load(1, XDATA, add(CFA_XSP16, literal(-4)))
          CFI ?RET_LOW load(1, XDATA, add(CFA_XSP16, literal(-5)))
          CFI R7 load(1, XDATA, add(CFA_XSP16, literal(-6)))
          CFI V1 load(1, XDATA, add(CFA_XSP16, literal(-7)))
          CFI V0 load(1, XDATA, add(CFA_XSP16, literal(-8)))
          CFI VB load(1, XDATA, add(CFA_XSP16, literal(-9)))
          CFI R6 load(1, XDATA, add(CFA_XSP16, literal(-10)))
          CFI CFA_SP SP+0
          CFI CFA_XSP16 add(XSP16, 10)
        ; Saved register size: 10
        ; Auto size: 8
        MOV     A,#-0x8
        LCALL   ?ALLOC_XSTACK8
          CFI CFA_XSP16 add(XSP16, 18)
        MOV     ?V1,R1
        MOV     A,R2
        MOV     R6,A
        MOV     A,R3
        MOV     R7,A
//  362   uint8 extAddr[Z_EXTADDR_LEN];
//  363   osal_memset(extAddr,0x00,Z_EXTADDR_LEN);
        ; Setup parameters for call to function osal_memset
        MOV     R4,#0x8
        MOV     R5,#0x0
        MOV     R1,#0x0
        MOV     R2,?XSP + 0
        MOV     R3,?XSP + 1
        LCALL   `??osal_memset::?relay`; Banked call to: osal_memset
//  364   ZStatus_t Status = ZSuccess;
        MOV     ?V0,#0x0
//  365 
//  366   if(useGlobal)
        MOV     A,?V1
        JZ      ??bdb_setActiveCentralizedLinkKey_0
//  367   {
//  368     APSME_AddTCLinkKey((uint8*)defaultTCLinkKey,extAddr);
        ; Setup parameters for call to function APSME_AddTCLinkKey
        MOV     R4,?XSP + 0
        MOV     R5,?XSP + 1
        MOV     R2,#defaultTCLinkKey & 0xff
        MOV     R3,#(defaultTCLinkKey >> 8) & 0xff
        LCALL   `??APSME_AddTCLinkKey::?relay`; Banked call to: APSME_AddTCLinkKey
//  369     Status = ZSuccess;
        SJMP    ??bdb_setActiveCentralizedLinkKey_1
//  370   } 
//  371   else
//  372   {
//  373     if(pBuf != NULL)
??bdb_setActiveCentralizedLinkKey_0:
        MOV     A,R6
        ORL     A,R7
        JZ      ??bdb_setActiveCentralizedLinkKey_2
//  374     {
//  375   #if (BDB_INSTALL_CODE_USE==BDB_INSTALL_CODE_USE_IC_CRC)
//  376       //Set the install code as default key
//  377       Status = bdb_addInstallCode(pBuf,extAddr);
        ; Setup parameters for call to function bdb_addInstallCode
        MOV     R4,?XSP + 0
        MOV     R5,?XSP + 1
        MOV     A,R6
        MOV     R2,A
        MOV     A,R7
        MOV     R3,A
        LCALL   `??bdb_addInstallCode::?relay`; Banked call to: bdb_addInstallCode
        MOV     A,R1
        MOV     ?V0,A
        SJMP    ??bdb_setActiveCentralizedLinkKey_1
//  378     
//  379   #elif (BDB_INSTALL_CODE_USE==BDB_INSTALL_CODE_USE_KEY)
//  380 
//  381       //Set the key as global default
//  382       APSME_AddTCLinkKey(pBuf,extAddr);
//  383   #else
//  384     
//  385       //BDB_INSTALL_CODE_USE not supported
//  386       Status = ZFailure;
//  387   #endif
//  388     }
//  389     else
//  390     {
//  391       Status = ZInvalidParameter;
??bdb_setActiveCentralizedLinkKey_2:
        MOV     ?V0,#0x2
//  392     }
//  393   }
//  394   return Status;
??bdb_setActiveCentralizedLinkKey_1:
        MOV     R1,?V0
        MOV     A,#0x8
        LJMP    ??Subroutine40_0 & 0xFFFF
//  395 }
          CFI EndBlock cfiBlock6
//  396 #endif
//  397 
//  398 
//  399     
//  400   
//  401 /******************************************************************************
//  402  * @fn          bdb_addInstallCode
//  403  *
//  404  * @brief       Interface to add an install codes and adds a APS TC Link key.
//  405  *
//  406  * @param       pInstallCode - [in] Install Code with CRC (buffer size of 18 bytes).
//  407  *              pExt - [in] Extended address of the node.
//  408  *
//  409  * @return      ZStatus_t
//  410  */

        RSEG BANKED_CODE:CODE:NOROOT(0)
//  411 ZStatus_t bdb_addInstallCode(uint8* pInstallCode, uint8* pExt)
bdb_addInstallCode:
          CFI Block cfiBlock7 Using cfiCommon0
          CFI Function bdb_addInstallCode
        CODE
//  412 {
        FUNCALL bdb_addInstallCode, bdb_GenerateInstallCodeCRC
        LOCFRAME ISTACK, 0, STACK
        LOCFRAME PSTACK, 0, STACK
        LOCFRAME XSTACK, 30, STACK
        LOCFRAME IOVERLAY, 0, STATIC
        LOCFRAME DOVERLAY, 0, STATIC
        ARGFRAME ISTACK, 0, STACK
        ARGFRAME PSTACK, 0, STACK
        ARGFRAME XSTACK, 30, STACK
        ARGFRAME IOVERLAY, 0, STATIC
        ARGFRAME DOVERLAY, 0, STATIC
        FUNCALL bdb_addInstallCode, osal_build_uint16
        LOCFRAME ISTACK, 0, STACK
        LOCFRAME PSTACK, 0, STACK
        LOCFRAME XSTACK, 30, STACK
        LOCFRAME IOVERLAY, 0, STATIC
        LOCFRAME DOVERLAY, 0, STATIC
        ARGFRAME ISTACK, 0, STACK
        ARGFRAME PSTACK, 0, STACK
        ARGFRAME XSTACK, 30, STACK
        ARGFRAME IOVERLAY, 0, STATIC
        ARGFRAME DOVERLAY, 0, STATIC
        FUNCALL bdb_addInstallCode, sspMMOHash
        LOCFRAME ISTACK, 0, STACK
        LOCFRAME PSTACK, 0, STACK
        LOCFRAME XSTACK, 34, STACK
        LOCFRAME IOVERLAY, 0, STATIC
        LOCFRAME DOVERLAY, 0, STATIC
        ARGFRAME ISTACK, 0, STACK
        ARGFRAME PSTACK, 0, STACK
        ARGFRAME XSTACK, 34, STACK
        ARGFRAME IOVERLAY, 0, STATIC
        ARGFRAME DOVERLAY, 0, STATIC
        FUNCALL bdb_addInstallCode, APSME_AddTCLinkKey
        LOCFRAME ISTACK, 0, STACK
        LOCFRAME PSTACK, 0, STACK
        LOCFRAME XSTACK, 30, STACK
        LOCFRAME IOVERLAY, 0, STATIC
        LOCFRAME DOVERLAY, 0, STATIC
        ARGFRAME ISTACK, 0, STACK
        ARGFRAME PSTACK, 0, STACK
        ARGFRAME XSTACK, 30, STACK
        ARGFRAME IOVERLAY, 0, STATIC
        ARGFRAME DOVERLAY, 0, STATIC
        REQUIRE ?V0
        REQUIRE ?V1
        REQUIRE ?V2
        REQUIRE ?V3
        REQUIRE ?V4
        REQUIRE ?V5
        MOV     A,#-0xe
        LCALL   ?BANKED_ENTER_XDATA
          CFI DPH0 load(1, XDATA, add(CFA_XSP16, literal(-1)))
          CFI DPL0 load(1, XDATA, add(CFA_XSP16, literal(-2)))
          CFI ?BRET_EXT load(1, XDATA, add(CFA_XSP16, literal(-3)))
          CFI ?RET_HIGH load(1, XDATA, add(CFA_XSP16, literal(-4)))
          CFI ?RET_LOW load(1, XDATA, add(CFA_XSP16, literal(-5)))
          CFI R7 load(1, XDATA, add(CFA_XSP16, literal(-6)))
          CFI V5 load(1, XDATA, add(CFA_XSP16, literal(-7)))
          CFI V4 load(1, XDATA, add(CFA_XSP16, literal(-8)))
          CFI V3 load(1, XDATA, add(CFA_XSP16, literal(-9)))
          CFI V2 load(1, XDATA, add(CFA_XSP16, literal(-10)))
          CFI V1 load(1, XDATA, add(CFA_XSP16, literal(-11)))
          CFI V0 load(1, XDATA, add(CFA_XSP16, literal(-12)))
          CFI VB load(1, XDATA, add(CFA_XSP16, literal(-13)))
          CFI R6 load(1, XDATA, add(CFA_XSP16, literal(-14)))
          CFI CFA_SP SP+0
          CFI CFA_XSP16 add(XSP16, 14)
        ; Saved register size: 14
        ; Auto size: 16
        MOV     A,#-0x10
        LCALL   ?ALLOC_XSTACK8
          CFI CFA_XSP16 add(XSP16, 30)
        MOV     A,R2
        MOV     R6,A
        MOV     A,R3
        MOV     R7,A
        MOV     ?V0,R4
        MOV     ?V1,R5
//  413   uint8  hashOutput[16];
//  414   uint16 CRC;
//  415   
//  416 #if (ZG_BUILD_COORDINATOR_TYPE)
//  417   if(ZG_DEVICE_COORDINATOR_TYPE)
//  418   {
//  419     if(zgAllowInstallCodes == ZG_IC_NOT_SUPPORTED)
//  420     {
//  421       return ZFailure;
//  422     }
//  423   }
//  424 #endif
//  425        
//  426   if((pInstallCode == NULL) || (pExt == NULL))
        MOV     A,R6
        ORL     A,R7
        JZ      ??bdb_addInstallCode_0
        MOV     A,R4
        ORL     A,?V1
        JZ      ??bdb_addInstallCode_0
//  427   {
//  428     return ZInvalidParameter;
//  429   }
//  430   
//  431   CRC = bdb_GenerateInstallCodeCRC(pInstallCode);
        ; Setup parameters for call to function bdb_GenerateInstallCodeCRC
        LCALL   `??bdb_GenerateInstallCodeCRC::?relay`; Banked call to: bdb_GenerateInstallCodeCRC
        MOV     ?V2,R2
        MOV     ?V3,R3
//  432   //Validate CRC
//  433   if(CRC != osal_build_uint16(&pInstallCode[INSTALL_CODE_LEN]))
        ; Setup parameters for call to function osal_build_uint16
        MOV     A,R6
        ADD     A,#0x10
        MOV     R2,A
        CLR     A
        ADDC    A,R7
        MOV     R3,A
        LCALL   `??osal_build_uint16::?relay`; Banked call to: osal_build_uint16
        MOV     A,R2
        XRL     A,?V2
        JNZ     ??bdb_addInstallCode_1
        MOV     A,R3
        XRL     A,?V3
??bdb_addInstallCode_1:
        JZ      ??bdb_addInstallCode_2
//  434   {
//  435     return ZInvalidParameter;
??bdb_addInstallCode_0:
        MOV     R1,#0x2
        SJMP    ??bdb_addInstallCode_3
//  436   }
//  437 
//  438   sspMMOHash (NULL, 0, pInstallCode,(INSTALL_CODE_LEN + INSTALL_CODE_CRC_LEN) * BITS_PER_BYTE, hashOutput);
??bdb_addInstallCode_2:
        ; Setup parameters for call to function sspMMOHash
        MOV     R0,?XSP + 0
        MOV     R1,?XSP + 1
        MOV     ?V2,R0
        MOV     ?V3,R1
        MOV     R0,#?V2
        LCALL   ?PUSH_XSTACK_I_TWO
          CFI CFA_XSP16 add(XSP16, 32)
        MOV     ?V2,#-0x70
        MOV     ?V3,#0x0
        MOV     R0,#?V2
        LCALL   ?PUSH_XSTACK_I_TWO
          CFI CFA_XSP16 add(XSP16, 34)
        MOV     A,R6
        MOV     R4,A
        MOV     A,R7
        MOV     R5,A
        MOV     R1,#0x0
        MOV     R2,#0x0
        MOV     R3,#0x0
        LCALL   `??sspMMOHash::?relay`; Banked call to: sspMMOHash
        MOV     A,#0x4
        LCALL   ?DEALLOC_XSTACK8
          CFI CFA_XSP16 add(XSP16, 30)
//  439 
//  440   return APSME_AddTCLinkKey(hashOutput,pExt);
        ; Setup parameters for call to function APSME_AddTCLinkKey
        MOV     R4,?V0
        MOV     R5,?V1
        MOV     R2,?XSP + 0
        MOV     R3,?XSP + 1
        LCALL   `??APSME_AddTCLinkKey::?relay`; Banked call to: APSME_AddTCLinkKey
??bdb_addInstallCode_3:
        MOV     A,#0x10
        LCALL   ?DEALLOC_XSTACK8
          CFI CFA_XSP16 add(XSP16, 14)
        MOV     R7,#0x6
        LJMP    ?BANKED_LEAVE_XDATA
//  441 }    
          CFI EndBlock cfiBlock7
//  442     
//  443 
//  444 #if (ZG_BUILD_COORDINATOR_TYPE)
//  445  /*********************************************************************
//  446  * @fn      bdb_RegisterTCLinkKeyExchangeProcessCB
//  447  *
//  448  * @brief   Register a callback to receive notifications on the joining devices 
//  449  *          and its status on TC link key exchange
//  450  *
//  451  * @param   bdbGCB_TCLinkKeyExchangeProcess - application callback 
//  452  *          (extended address of device, status: 0 = Joining, 1 = TC link key exchange success, 2 = TC link key exchange failed)
//  453  *
//  454  * @return  none
//  455  */
//  456 void bdb_RegisterTCLinkKeyExchangeProcessCB(bdbGCB_TCLinkKeyExchangeProcess_t bdbGCB_TCLinkKeyExchangeProcess)
//  457 {
//  458   if(bdbGCB_TCLinkKeyExchangeProcess != NULL)
//  459   {
//  460     pfnTCLinkKeyExchangeProcessCB = bdbGCB_TCLinkKeyExchangeProcess;
//  461   }
//  462 }
//  463 
//  464 
//  465 
//  466  /*********************************************************************
//  467  * @fn          bdb_setTCRequireKeyExchange
//  468  *
//  469  * @brief       Set the bdb_setTCRequireKeyExchange attribute
//  470  *
//  471  * @param       isKeyExchangeRequired - True if TC will remove devices that do 
//  472  *              not perform key exchange after bdbTrustCenterNodeJoinTimeout, 
//  473  *              False to not remove devices.
//  474  *
//  475  * @return      none
//  476  */
//  477 void bdb_setTCRequireKeyExchange(bool isKeyExchangeRequired)
//  478 {
//  479   bdbAttributes.bdbTrustCenterRequireKeyExchange = isKeyExchangeRequired;
//  480 }
//  481 
//  482 
//  483 
//  484  /*********************************************************************
//  485  * @fn          bdb_TCAddJoiningDevice
//  486  *
//  487  * @brief       Add a joining device to the list of devices that must request a 
//  488  *              key before bdbTrustCenterNodeJoinTimeout.
//  489  *
//  490  * @param       parentAddr - Address of the parent device
//  491  * @param       JoiningExtAddr - IEEE address of the joining device
//  492  *
//  493  * @return      ZStatus_t - ZFailure No memory to allocate the device in the list
//  494  *                          ZInvalidParameter
//  495  */
//  496 ZStatus_t bdb_TCAddJoiningDevice(uint16 parentAddr, uint8* JoiningExtAddr)
//  497 {
//  498   bdb_joiningDeviceList_t* tempJoiningDescNode;
//  499   
//  500   if((parentAddr == INVALID_NODE_ADDR) || (JoiningExtAddr == NULL))
//  501   {
//  502     return ZInvalidParameter;
//  503   }
//  504   
//  505   //If the list was empty and element was allocated, then start the timer
//  506   if(bdb_joiningDeviceList == NULL)
//  507   {
//  508     bdb_joiningDeviceList = osal_mem_alloc(sizeof(bdb_joiningDeviceList_t));
//  509     if(bdb_joiningDeviceList == NULL)
//  510     {
//  511       return ZFailure;
//  512     }
//  513    
//  514     osal_start_reload_timer(bdb_TaskID,BDB_TC_JOIN_TIMEOUT,1000);
//  515     tempJoiningDescNode = bdb_joiningDeviceList;
//  516   }
//  517   //if the list was not empty then add the entry at the end of the list
//  518   else
//  519   {
//  520     tempJoiningDescNode = bdb_joiningDeviceList;
//  521     
//  522     //Validate that this is not already in the list... somehow
//  523     if(osal_memcmp(JoiningExtAddr,tempJoiningDescNode->bdbJoiningNodeEui64,Z_EXTADDR_LEN))
//  524     {
//  525       //The device added is already in the list, refresh its time and do nothing else
//  526       tempJoiningDescNode->NodeJoinTimeout = bdbAttributes.bdbTrustCenterNodeJoinTimeout;
//  527       return ZSuccess;
//  528     }
//  529     
//  530     while(tempJoiningDescNode->nextDev != NULL)
//  531     {
//  532       tempJoiningDescNode = tempJoiningDescNode->nextDev;
//  533       
//  534       //Validate that this is not already in the list... somehow
//  535       if(osal_memcmp(JoiningExtAddr,tempJoiningDescNode->bdbJoiningNodeEui64,Z_EXTADDR_LEN))
//  536       {
//  537         //The device added is already in the list, refresh its time and do nothing else
//  538         tempJoiningDescNode->NodeJoinTimeout = bdbAttributes.bdbTrustCenterNodeJoinTimeout;
//  539         return ZSuccess;
//  540       }
//  541     }
//  542     
//  543     tempJoiningDescNode->nextDev = osal_mem_alloc(sizeof(bdb_joiningDeviceList_t));
//  544     if(tempJoiningDescNode->nextDev == NULL)
//  545     {
//  546       return ZFailure;
//  547     }
//  548     
//  549     tempJoiningDescNode = tempJoiningDescNode->nextDev;
//  550   }
//  551   
//  552   if(pfnTCLinkKeyExchangeProcessCB)
//  553   {
//  554     bdb_TCLinkKeyExchProcess_t bdb_TCLinkKeyExchProcess;
//  555     osal_memcpy(bdb_TCLinkKeyExchProcess.extAddr,tempJoiningDescNode->bdbJoiningNodeEui64, Z_EXTADDR_LEN);
//  556     bdb_TCLinkKeyExchProcess.status = BDB_TC_LK_EXCH_PROCESS_JOINING;
//  557     
//  558     bdb_SendMsg(bdb_TaskID, BDB_TC_LINK_KEY_EXCHANGE_PROCESS, BDB_MSG_EVENT_SUCCESS,sizeof(bdb_TCLinkKeyExchProcess_t),(uint8*)&bdb_TCLinkKeyExchProcess);
//  559   }
//  560   
//  561   tempJoiningDescNode->nextDev = NULL;
//  562   tempJoiningDescNode->NodeJoinTimeout = bdbAttributes.bdbTrustCenterNodeJoinTimeout;
//  563   tempJoiningDescNode->parentAddr = parentAddr;
//  564   osal_memcpy(tempJoiningDescNode->bdbJoiningNodeEui64, JoiningExtAddr, Z_EXTADDR_LEN);
//  565   
//  566   return ZSuccess;
//  567 }
//  568 
//  569 /****************************************************************************
//  570  * @fn          bdb_TCProcessJoiningList
//  571  *
//  572  * @brief       Process the timer to handle the joining devices if the TC link 
//  573  *              key is mandatory for all devices
//  574  *
//  575  * @param       none
//  576  *
//  577  * @return      none
//  578  */
//  579 void bdb_TCProcessJoiningList(void)
//  580 {
//  581   bdb_joiningDeviceList_t* tempJoiningDescNode;
//  582   
//  583   if(bdb_joiningDeviceList)
//  584   {
//  585     tempJoiningDescNode = bdb_joiningDeviceList;
//  586   
//  587     while(tempJoiningDescNode)
//  588     {
//  589       if(tempJoiningDescNode->NodeJoinTimeout)
//  590       {
//  591         tempJoiningDescNode->NodeJoinTimeout--;
//  592       }
//  593       
//  594       if(tempJoiningDescNode->NodeJoinTimeout == 0)
//  595       {
//  596         //Check if the key exchange is required 
//  597         if(bdbAttributes.bdbTrustCenterRequireKeyExchange)
//  598         {
//  599             AddrMgrEntry_t entry;
//  600             
//  601             entry.user = ADDRMGR_USER_DEFAULT;
//  602             osal_memcpy(entry.extAddr,tempJoiningDescNode->bdbJoiningNodeEui64, Z_EXTADDR_LEN);
//  603             
//  604             if(AddrMgrEntryLookupExt(&entry))
//  605             {
//  606               ZDSecMgrAPSRemove(entry.nwkAddr,entry.extAddr,tempJoiningDescNode->parentAddr);
//  607             }
//  608         }
//  609         
//  610         //Expired device either is legacy device not using the TCLK entry or got 
//  611         //removed from the network because of timeout, eitherway it is not using
//  612         //TCLK entry neither the Security user in the address manager, so free the entry
//  613         //in both tables.
//  614         
//  615         uint16 keyNvIndex;
//  616         APSME_TCLKDevEntry_t TCLKDevEntry;
//  617         uint8 found, index;
//  618         
//  619         //Remove the entry in address manager
//  620         ZDSecMgrAddrClear(tempJoiningDescNode->bdbJoiningNodeEui64);
//  621         
//  622         //search for the entry in the TCLK table
//  623         keyNvIndex = APSME_SearchTCLinkKeyEntry(tempJoiningDescNode->bdbJoiningNodeEui64,&found, NULL);
//  624         
//  625         //If found, erase it.
//  626         if(found == TRUE)
//  627         {
//  628           osal_memset(&TCLKDevEntry,0,sizeof(APSME_TCLKDevEntry_t));
//  629           TCLKDevEntry.keyAttributes = ZG_DEFAULT_KEY;
//  630           
//  631           //Increase the shift by one. Validate the maximum shift of the seed which is 15
//  632           index = keyNvIndex - ZCD_NV_TCLK_TABLE_START;
//  633           
//  634           TCLinkKeyFrmCntr[index].rxFrmCntr = 0;
//  635           TCLinkKeyFrmCntr[index].txFrmCntr = 0;
//  636           
//  637           //Update the entry
//  638           osal_nv_write(keyNvIndex,0,sizeof(APSME_TCLKDevEntry_t), &TCLKDevEntry );
//  639         }
//  640         
//  641         if(pfnTCLinkKeyExchangeProcessCB)
//  642         {
//  643           bdb_TCLinkKeyExchProcess_t bdb_TCLinkKeyExchProcess;
//  644           osal_memcpy(bdb_TCLinkKeyExchProcess.extAddr,tempJoiningDescNode->bdbJoiningNodeEui64, Z_EXTADDR_LEN);
//  645           bdb_TCLinkKeyExchProcess.status = BDB_TC_LK_EXCH_PROCESS_EXCH_FAIL;
//  646           
//  647           bdb_SendMsg(bdb_TaskID, BDB_TC_LINK_KEY_EXCHANGE_PROCESS, BDB_MSG_EVENT_SUCCESS,sizeof(bdb_TCLinkKeyExchProcess_t),(uint8*)&bdb_TCLinkKeyExchProcess);
//  648         }
//  649        
//  650         //Free the device from the list
//  651         bdb_TCJoiningDeviceFree(tempJoiningDescNode);
//  652       }
//  653       tempJoiningDescNode = tempJoiningDescNode->nextDev;
//  654     }
//  655   }
//  656 
//  657   //we are done with the list
//  658   if(bdb_joiningDeviceList == NULL)
//  659   {
//  660     osal_stop_timerEx(bdb_TaskID,BDB_TC_JOIN_TIMEOUT);
//  661   }
//  662 }
//  663 
//  664 
//  665 
//  666 /****************************************************************************
//  667  * @fn          bdb_TCjoiningDeviceComplete
//  668  *
//  669  * @brief       This function frees a joining device from the list that has 
//  670  *              finished TC link key exchange process
//  671  *
//  672  * @param       JoiningExtAddr - Extended address of the device
//  673  *
//  674  * @return      none
//  675  */
//  676 void bdb_TCjoiningDeviceComplete(uint8* JoiningExtAddr)
//  677 {
//  678   bdb_joiningDeviceList_t* tempJoiningDescNode;
//  679   
//  680   if((bdb_joiningDeviceList != NULL) && (JoiningExtAddr != NULL))
//  681   {
//  682     tempJoiningDescNode = bdb_joiningDeviceList;
//  683     
//  684     while(tempJoiningDescNode != NULL)
//  685     {
//  686       if(osal_memcmp(tempJoiningDescNode->bdbJoiningNodeEui64,JoiningExtAddr,Z_EXTADDR_LEN))
//  687       {
//  688         if(pfnTCLinkKeyExchangeProcessCB)
//  689         {
//  690           bdb_TCLinkKeyExchProcess_t bdb_TCLinkKeyExchProcess;
//  691           osal_memcpy(bdb_TCLinkKeyExchProcess.extAddr,tempJoiningDescNode->bdbJoiningNodeEui64, Z_EXTADDR_LEN);
//  692           bdb_TCLinkKeyExchProcess.status = BDB_TC_LK_EXCH_PROCESS_EXCH_SUCCESS;
//  693           
//  694           bdb_SendMsg(bdb_TaskID, BDB_TC_LINK_KEY_EXCHANGE_PROCESS, BDB_MSG_EVENT_SUCCESS,sizeof(bdb_TCLinkKeyExchProcess_t),(uint8*)&bdb_TCLinkKeyExchProcess);
//  695         }        
//  696         
//  697         bdb_TCJoiningDeviceFree(tempJoiningDescNode);
//  698         break;
//  699       }
//  700       tempJoiningDescNode = tempJoiningDescNode->nextDev;
//  701     }
//  702    
//  703     if(bdb_joiningDeviceList == NULL)
//  704     {
//  705       osal_stop_timerEx(bdb_TaskID,BDB_TC_JOIN_TIMEOUT);
//  706     }
//  707   }
//  708 }
//  709 
//  710 
//  711 
//  712 /****************************************************************************
//  713  * @fn          bdb_TCJoiningDeviceFree
//  714  *
//  715  * @brief       This function frees a joining device from the list.
//  716  *
//  717  * @param       ZSuccess - If the device was found and erased
//  718  * @param       ZInvalidParameter - Not found
//  719  *
//  720  * @return      none
//  721  */
//  722 ZStatus_t bdb_TCJoiningDeviceFree(bdb_joiningDeviceList_t* JoiningDeviceToRemove)
//  723 {
//  724   bdb_joiningDeviceList_t* descCurrent;
//  725   bdb_joiningDeviceList_t* descPrev;
//  726   
//  727   //validate empty list?
//  728   
//  729   //Is it the first?
//  730   if(osal_memcmp(bdb_joiningDeviceList->bdbJoiningNodeEui64, JoiningDeviceToRemove->bdbJoiningNodeEui64, Z_EXTADDR_LEN))
//  731   {
//  732     descCurrent = bdb_joiningDeviceList;
//  733     bdb_joiningDeviceList = bdb_joiningDeviceList->nextDev;
//  734     osal_mem_free( descCurrent );
//  735     return ZSuccess;
//  736   }
//  737   
//  738   descPrev = NULL;
//  739   descCurrent = bdb_joiningDeviceList;
//  740   
//  741   while(descCurrent != NULL)
//  742   {
//  743     if(osal_memcmp(descCurrent->nextDev->bdbJoiningNodeEui64, JoiningDeviceToRemove->bdbJoiningNodeEui64, Z_EXTADDR_LEN))
//  744     {
//  745       descPrev = descCurrent;
//  746       break;
//  747     }
//  748     descCurrent = descCurrent->nextDev;
//  749   }
//  750   if(descPrev == NULL)
//  751   {
//  752     //Not found
//  753     return ZInvalidParameter;
//  754   }
//  755   
//  756   descPrev->nextDev = descPrev->nextDev->nextDev;
//  757     
//  758   osal_mem_free( JoiningDeviceToRemove );
//  759   return ZSuccess;
//  760 
//  761 }
//  762 
//  763  /*********************************************************************
//  764  * @fn          bdb_setJoinUsesInstallCodeKey
//  765  *
//  766  * @brief       Set BDB attribute bdbJoinUsesInstallCodeKey.
//  767  *
//  768  * @param       set - If TRUE only devices with IC register in TC can join the 
//  769  *              nwk, otherwise devices may or not have a IC register
//  770  *
//  771  * @return      none
//  772  */
//  773 void bdb_setJoinUsesInstallCodeKey(bool set)
//  774 {
//  775   bdbAttributes.bdbJoinUsesInstallCodeKey = set;
//  776   if(set)
//  777   {
//  778     zgAllowInstallCodes = ZG_IC_MUST_USED;
//  779   }
//  780   else
//  781   {
//  782     zgAllowInstallCodes = ZG_IC_SUPPORTED_NOT_REQUIRED;
//  783   }
//  784 }
//  785 #endif
//  786 
//  787  /*********************************************************************
//  788  * @fn          bdb_StartCommissioning
//  789  *
//  790  * @brief       Start the commissioning process setting the commissioning mode given.
//  791  *
//  792  * @param       mode - refer to bdbCommissioningMode
//  793  *
//  794  * @return      none
//  795  */

        RSEG BANKED_CODE:CODE:NOROOT(0)
//  796 void bdb_StartCommissioning(uint8 mode)
bdb_StartCommissioning:
          CFI Block cfiBlock8 Using cfiCommon0
          CFI Function bdb_StartCommissioning
        CODE
//  797 {
        FUNCALL bdb_StartCommissioning, osal_get_timeoutEx
        LOCFRAME ISTACK, 0, STACK
        LOCFRAME PSTACK, 0, STACK
        LOCFRAME XSTACK, 32, STACK
        LOCFRAME IOVERLAY, 0, STATIC
        LOCFRAME DOVERLAY, 0, STATIC
        ARGFRAME ISTACK, 0, STACK
        ARGFRAME PSTACK, 0, STACK
        ARGFRAME XSTACK, 32, STACK
        ARGFRAME IOVERLAY, 0, STATIC
        ARGFRAME DOVERLAY, 0, STATIC
        FUNCALL bdb_StartCommissioning, bdb_nwkSteeringDeviceOnNwk
        LOCFRAME ISTACK, 0, STACK
        LOCFRAME PSTACK, 0, STACK
        LOCFRAME XSTACK, 32, STACK
        LOCFRAME IOVERLAY, 0, STATIC
        LOCFRAME DOVERLAY, 0, STATIC
        ARGFRAME ISTACK, 0, STACK
        ARGFRAME PSTACK, 0, STACK
        ARGFRAME XSTACK, 32, STACK
        ARGFRAME IOVERLAY, 0, STATIC
        ARGFRAME DOVERLAY, 0, STATIC
        FUNCALL bdb_StartCommissioning, bdb_reportCommissioningState
        LOCFRAME ISTACK, 0, STACK
        LOCFRAME PSTACK, 0, STACK
        LOCFRAME XSTACK, 32, STACK
        LOCFRAME IOVERLAY, 0, STATIC
        LOCFRAME DOVERLAY, 0, STATIC
        ARGFRAME ISTACK, 0, STACK
        ARGFRAME PSTACK, 0, STACK
        ARGFRAME XSTACK, 32, STACK
        ARGFRAME IOVERLAY, 0, STATIC
        ARGFRAME DOVERLAY, 0, STATIC
        FUNCALL bdb_StartCommissioning, osal_nv_read
        LOCFRAME ISTACK, 0, STACK
        LOCFRAME PSTACK, 0, STACK
        LOCFRAME XSTACK, 36, STACK
        LOCFRAME IOVERLAY, 0, STATIC
        LOCFRAME DOVERLAY, 0, STATIC
        ARGFRAME ISTACK, 0, STACK
        ARGFRAME PSTACK, 0, STACK
        ARGFRAME XSTACK, 36, STACK
        ARGFRAME IOVERLAY, 0, STATIC
        ARGFRAME DOVERLAY, 0, STATIC
        FUNCALL bdb_StartCommissioning, osal_isbufset
        LOCFRAME ISTACK, 0, STACK
        LOCFRAME PSTACK, 0, STACK
        LOCFRAME XSTACK, 32, STACK
        LOCFRAME IOVERLAY, 0, STATIC
        LOCFRAME DOVERLAY, 0, STATIC
        ARGFRAME ISTACK, 0, STACK
        ARGFRAME PSTACK, 0, STACK
        ARGFRAME XSTACK, 32, STACK
        ARGFRAME IOVERLAY, 0, STATIC
        ARGFRAME DOVERLAY, 0, STATIC
        FUNCALL bdb_StartCommissioning, APSME_IsDistributedSecurity
        LOCFRAME ISTACK, 0, STACK
        LOCFRAME PSTACK, 0, STACK
        LOCFRAME XSTACK, 32, STACK
        LOCFRAME IOVERLAY, 0, STATIC
        LOCFRAME DOVERLAY, 0, STATIC
        ARGFRAME ISTACK, 0, STACK
        ARGFRAME PSTACK, 0, STACK
        ARGFRAME XSTACK, 32, STACK
        ARGFRAME IOVERLAY, 0, STATIC
        ARGFRAME DOVERLAY, 0, STATIC
        FUNCALL bdb_StartCommissioning, osal_nv_read
        LOCFRAME ISTACK, 0, STACK
        LOCFRAME PSTACK, 0, STACK
        LOCFRAME XSTACK, 36, STACK
        LOCFRAME IOVERLAY, 0, STATIC
        LOCFRAME DOVERLAY, 0, STATIC
        ARGFRAME ISTACK, 0, STACK
        ARGFRAME PSTACK, 0, STACK
        ARGFRAME XSTACK, 36, STACK
        ARGFRAME IOVERLAY, 0, STATIC
        ARGFRAME DOVERLAY, 0, STATIC
        FUNCALL bdb_StartCommissioning, osal_memset
        LOCFRAME ISTACK, 0, STACK
        LOCFRAME PSTACK, 0, STACK
        LOCFRAME XSTACK, 32, STACK
        LOCFRAME IOVERLAY, 0, STATIC
        LOCFRAME DOVERLAY, 0, STATIC
        ARGFRAME ISTACK, 0, STACK
        ARGFRAME PSTACK, 0, STACK
        ARGFRAME XSTACK, 32, STACK
        ARGFRAME IOVERLAY, 0, STATIC
        ARGFRAME DOVERLAY, 0, STATIC
        FUNCALL bdb_StartCommissioning, osal_nv_write
        LOCFRAME ISTACK, 0, STACK
        LOCFRAME PSTACK, 0, STACK
        LOCFRAME XSTACK, 36, STACK
        LOCFRAME IOVERLAY, 0, STATIC
        LOCFRAME DOVERLAY, 0, STATIC
        ARGFRAME ISTACK, 0, STACK
        ARGFRAME PSTACK, 0, STACK
        ARGFRAME XSTACK, 36, STACK
        ARGFRAME IOVERLAY, 0, STATIC
        ARGFRAME DOVERLAY, 0, STATIC
        FUNCALL bdb_StartCommissioning, osal_nv_write
        LOCFRAME ISTACK, 0, STACK
        LOCFRAME PSTACK, 0, STACK
        LOCFRAME XSTACK, 36, STACK
        LOCFRAME IOVERLAY, 0, STATIC
        LOCFRAME DOVERLAY, 0, STATIC
        ARGFRAME ISTACK, 0, STACK
        ARGFRAME PSTACK, 0, STACK
        ARGFRAME XSTACK, 36, STACK
        ARGFRAME IOVERLAY, 0, STATIC
        ARGFRAME DOVERLAY, 0, STATIC
        FUNCALL bdb_StartCommissioning, zgWriteStartupOptions
        LOCFRAME ISTACK, 0, STACK
        LOCFRAME PSTACK, 0, STACK
        LOCFRAME XSTACK, 32, STACK
        LOCFRAME IOVERLAY, 0, STATIC
        LOCFRAME DOVERLAY, 0, STATIC
        ARGFRAME ISTACK, 0, STACK
        ARGFRAME PSTACK, 0, STACK
        ARGFRAME XSTACK, 32, STACK
        ARGFRAME IOVERLAY, 0, STATIC
        ARGFRAME DOVERLAY, 0, STATIC
        FUNCALL bdb_StartCommissioning, osal_set_event
        LOCFRAME ISTACK, 0, STACK
        LOCFRAME PSTACK, 0, STACK
        LOCFRAME XSTACK, 32, STACK
        LOCFRAME IOVERLAY, 0, STATIC
        LOCFRAME DOVERLAY, 0, STATIC
        ARGFRAME ISTACK, 0, STACK
        ARGFRAME PSTACK, 0, STACK
        ARGFRAME XSTACK, 32, STACK
        ARGFRAME IOVERLAY, 0, STATIC
        ARGFRAME DOVERLAY, 0, STATIC
        FUNCALL bdb_StartCommissioning, ZDOInitDeviceEx
        LOCFRAME ISTACK, 0, STACK
        LOCFRAME PSTACK, 0, STACK
        LOCFRAME XSTACK, 32, STACK
        LOCFRAME IOVERLAY, 0, STATIC
        LOCFRAME DOVERLAY, 0, STATIC
        ARGFRAME ISTACK, 0, STACK
        ARGFRAME PSTACK, 0, STACK
        ARGFRAME XSTACK, 32, STACK
        ARGFRAME IOVERLAY, 0, STATIC
        ARGFRAME DOVERLAY, 0, STATIC
        FUNCALL bdb_StartCommissioning, bdb_setNodeIsOnANetwork
        LOCFRAME ISTACK, 0, STACK
        LOCFRAME PSTACK, 0, STACK
        LOCFRAME XSTACK, 32, STACK
        LOCFRAME IOVERLAY, 0, STATIC
        LOCFRAME DOVERLAY, 0, STATIC
        ARGFRAME ISTACK, 0, STACK
        ARGFRAME PSTACK, 0, STACK
        ARGFRAME XSTACK, 32, STACK
        ARGFRAME IOVERLAY, 0, STATIC
        ARGFRAME DOVERLAY, 0, STATIC
        FUNCALL bdb_StartCommissioning, bdb_reportCommissioningState
        LOCFRAME ISTACK, 0, STACK
        LOCFRAME PSTACK, 0, STACK
        LOCFRAME XSTACK, 32, STACK
        LOCFRAME IOVERLAY, 0, STATIC
        LOCFRAME DOVERLAY, 0, STATIC
        ARGFRAME ISTACK, 0, STACK
        ARGFRAME PSTACK, 0, STACK
        ARGFRAME XSTACK, 32, STACK
        ARGFRAME IOVERLAY, 0, STATIC
        ARGFRAME DOVERLAY, 0, STATIC
        FUNCALL bdb_StartCommissioning, osal_set_event
        LOCFRAME ISTACK, 0, STACK
        LOCFRAME PSTACK, 0, STACK
        LOCFRAME XSTACK, 32, STACK
        LOCFRAME IOVERLAY, 0, STATIC
        LOCFRAME DOVERLAY, 0, STATIC
        ARGFRAME ISTACK, 0, STACK
        ARGFRAME PSTACK, 0, STACK
        ARGFRAME XSTACK, 32, STACK
        ARGFRAME IOVERLAY, 0, STATIC
        ARGFRAME DOVERLAY, 0, STATIC
        REQUIRE ?V0
        REQUIRE ?V2
        REQUIRE ?V3
        MOV     A,#-0xc
        LCALL   ?BANKED_ENTER_XDATA
          CFI DPH0 load(1, XDATA, add(CFA_XSP16, literal(-1)))
          CFI DPL0 load(1, XDATA, add(CFA_XSP16, literal(-2)))
          CFI ?BRET_EXT load(1, XDATA, add(CFA_XSP16, literal(-3)))
          CFI ?RET_HIGH load(1, XDATA, add(CFA_XSP16, literal(-4)))
          CFI ?RET_LOW load(1, XDATA, add(CFA_XSP16, literal(-5)))
          CFI R7 load(1, XDATA, add(CFA_XSP16, literal(-6)))
          CFI V3 load(1, XDATA, add(CFA_XSP16, literal(-7)))
          CFI V2 load(1, XDATA, add(CFA_XSP16, literal(-8)))
          CFI V1 load(1, XDATA, add(CFA_XSP16, literal(-9)))
          CFI V0 load(1, XDATA, add(CFA_XSP16, literal(-10)))
          CFI VB load(1, XDATA, add(CFA_XSP16, literal(-11)))
          CFI R6 load(1, XDATA, add(CFA_XSP16, literal(-12)))
          CFI CFA_SP SP+0
          CFI CFA_XSP16 add(XSP16, 12)
        ; Saved register size: 12
        ; Auto size: 20
        MOV     A,#-0x14
        LCALL   ?ALLOC_XSTACK8
          CFI CFA_XSP16 add(XSP16, 32)
        MOV     ?V0,R1
//  798   //Application cannot request to set the device in initialization mode or parent lost
//  799   mode &= ~(BDB_COMMISSIONING_MODE_INITIALIZATION | BDB_COMMISSIONING_MODE_PARENT_LOST);
//  800     
//  801 #ifdef BDB_TL_INITIATOR
//  802   if ( touchlinkFNReset == TRUE )
//  803   {
//  804     return;
//  805   }
//  806 #else
//  807   //Commissioning mode used only for initiator
//  808   mode &= ~BDB_COMMISSIONING_MODE_INITIATOR_TL;
        ANL     ?V0,#0xce
//  809 #endif
//  810   
//  811 #if (BDB_FINDING_BINDING_CAPABILITY_ENABLED==0)    
//  812   //Commissioning mode used only for devices with F&B
//  813   mode &= ~BDB_COMMISSIONING_MODE_FINDING_BINDING;
//  814 #endif
//  815  
//  816   //If we have running process or the machine state is triggered, then just append and it will be excecuted
//  817   if((bdbAttributes.bdbCommissioningMode) || (osal_get_timeoutEx(bdb_TaskID,BDB_CHANGE_COMMISSIONING_STATE)))
        MOV     DPTR,#bdbAttributes + 11
        MOVX    A,@DPTR
        JNZ     ??bdb_StartCommissioning_0
        ; Setup parameters for call to function osal_get_timeoutEx
        MOV     R2,#0x4
        MOV     R3,#0x0
        MOV     DPTR,#bdb_TaskID
        MOVX    A,@DPTR
        MOV     R1,A
        LCALL   `??osal_get_timeoutEx::?relay`; Banked call to: osal_get_timeoutEx
        MOV     A,R2
        ORL     A,R3
        ORL     A,R4
        ORL     A,R5
        JZ      ??bdb_StartCommissioning_1
//  818   {
//  819 #if ZG_BUILD_ENDDEVICE_TYPE
//  820     if(ZG_DEVICE_ENDDEVICE_TYPE)
//  821     {
//  822       //Devices with parent lost are not allowed to perform actions
//  823       if(bdbAttributes.bdbCommissioningMode & BDB_COMMISSIONING_MODE_PARENT_LOST)
??bdb_StartCommissioning_0:
        MOV     DPTR,#bdbAttributes + 11
        MOVX    A,@DPTR
        MOV     C,0xE0 /* A   */.5
        JNC     $+5
        LJMP    ??bdb_StartCommissioning_2 & 0xFFFF
//  824       {
//  825         return;
//  826       }
//  827     }
//  828 #endif
//  829     
//  830     //If we are on the network and got requested to do nwk steering, we do not need to wait other process, 
//  831     // just send permit joining and report the application
//  832     if((bdbAttributes.bdbNodeIsOnANetwork) && (mode & BDB_COMMISSIONING_MODE_NWK_STEERING))
        MOV     DPTR,#bdbAttributes + 14
        MOVX    A,@DPTR
        JZ      ??bdb_StartCommissioning_3
        MOV     A,?V0
        MOV     C,0xE0 /* A   */.1
        JNC     ??bdb_StartCommissioning_3
//  833     {
//  834       bdb_nwkSteeringDeviceOnNwk();
        ; Setup parameters for call to function bdb_nwkSteeringDeviceOnNwk
        LCALL   `??bdb_nwkSteeringDeviceOnNwk::?relay`; Banked call to: bdb_nwkSteeringDeviceOnNwk
//  835       bdb_reportCommissioningState(BDB_COMMISSIONING_STATE_STEERING_ON_NWK, TRUE);
        ; Setup parameters for call to function bdb_reportCommissioningState
        MOV     R2,#0x1
        MOV     R1,#0x4
        LCALL   `??bdb_reportCommissioningState::?relay`; Banked call to: bdb_reportCommissioningState
//  836       
//  837       //Clean nwk steering
//  838       mode ^= BDB_COMMISSIONING_MODE_NWK_STEERING; 
        XRL     ?V0,#0x2
//  839     }
//  840     
//  841     //add the remaining valid commissioning modes requested, those will be process when bdb finish its current process
//  842     bdbAttributes.bdbCommissioningMode |= mode & BDB_COMMISSIONING_MODES;
??bdb_StartCommissioning_3:
        MOV     A,#0x3f
        ANL     A,?V0
        MOV     R0,A
        MOV     DPTR,#bdbAttributes + 11
        MOVX    A,@DPTR
        ORL     A,R0
        MOVX    @DPTR,A
//  843     return;      
        LJMP    ??bdb_StartCommissioning_2 & 0xFFFF
//  844   }
//  845 
//  846   //Save the commissioning modes valid requested
//  847   bdbAttributes.bdbCommissioningMode |= mode & BDB_COMMISSIONING_MODES;
??bdb_StartCommissioning_1:
        MOV     A,#0x3f
        ANL     A,?V0
        MOV     R6,A
        MOV     DPTR,#bdbAttributes + 11
        MOVX    A,@DPTR
        ORL     A,R6
        MOVX    @DPTR,A
//  848   
//  849   
//  850   //Start processing the initialization, once per power cycle.
//  851   if(!bdb_initialization)
        MOV     DPTR,#bdb_initialization
        MOVX    A,@DPTR
        JZ      $+5
        LJMP    ??bdb_StartCommissioning_4 & 0xFFFF
//  852   {
//  853     bdb_initialization = TRUE;
        MOV     A,#0x1
        LCALL   ?Subroutine19 & 0xFFFF
//  854     
//  855 #ifdef BDB_REPORTING
//  856     //Delete NV data if startup was with factory reset
//  857     if(ZDO_INITDEV_NEW_NETWORK_STATE == ZDApp_ReadNetworkRestoreState())
//  858     {
//  859       //Factory reset bdb reporting NV data
//  860       uint16 attrRepNvLen = osal_nv_item_len( ZCD_NV_BDBREPORTINGCONFIG );
//  861       if ( attrRepNvLen > 0 )
//  862       {
//  863         osal_nv_delete( ZCD_NV_BDBREPORTINGCONFIG, attrRepNvLen );
//  864       }
//  865     }
//  866 
//  867     //Construct the Endpoint-cluster array
//  868     bdb_RepConstructReportingData();
//  869 #endif //BDB_REPORTING
//  870 
//  871     osal_nv_read(ZCD_NV_BDBNODEISONANETWORK,0,sizeof(bdbAttributes.bdbNodeIsOnANetwork),&bdbAttributes.bdbNodeIsOnANetwork);
??CrossCallReturnLabel_31:
        LCALL   ?PUSH_XSTACK_I_TWO
          CFI CFA_XSP16 add(XSP16, 34)
        MOV     ?V2,#0x1
        MOV     ?V3,#0x0
        MOV     R0,#?V2
        LCALL   ?PUSH_XSTACK_I_TWO
          CFI CFA_XSP16 add(XSP16, 36)
        MOV     R4,#0x0
        MOV     R5,#0x0
        MOV     R2,#0x55
        MOV     R3,#0x0
        LCALL   `??osal_nv_read::?relay`; Banked call to: osal_nv_read
        MOV     A,#0x4
        LCALL   ?DEALLOC_XSTACK8
          CFI CFA_XSP16 add(XSP16, 32)
//  872     
//  873     //Are we on a network
//  874     if(bdbAttributes.bdbNodeIsOnANetwork == TRUE)
        MOV     DPTR,#bdbAttributes + 14
        MOVX    A,@DPTR
        XRL     A,#0x1
        JZ      $+5
        LJMP    ??bdb_StartCommissioning_4 & 0xFFFF
//  875     {
//  876 #ifdef ZG_BUILD_JOINING_TYPE
//  877       //Only for joining devices validate the joining procedure
//  878       if(ZG_DEVICE_JOINING_TYPE)
        MOV     DPTR,#zgDeviceLogicalType
        MOVX    A,@DPTR
        XRL     A,#0x1
        JZ      ??bdb_StartCommissioning_5
        MOVX    A,@DPTR
        XRL     A,#0x2
        JZ      $+5
        LJMP    ??bdb_StartCommissioning_6 & 0xFFFF
//  879       {
//  880         //If we got into a network
//  881         if(!osal_isbufset( AIB_apsTrustCenterAddress, 0x00, Z_EXTADDR_LEN ))
??bdb_StartCommissioning_5:
        ; Setup parameters for call to function osal_isbufset
        MOV     R4,#0x8
        MOV     R1,#0x0
        MOV     DPTR,#AIB_apsTrustCenterAddress
        LCALL   ??Subroutine44_0 & 0xFFFF
??CrossCallReturnLabel_96:
        LCALL   `??osal_isbufset::?relay`; Banked call to: osal_isbufset
        MOV     A,R1
        JZ      $+5
        LJMP    ??bdb_StartCommissioning_6 & 0xFFFF
//  882         {
//  883           //Which is not distributed
//  884           if(!APSME_IsDistributedSecurity())
        ; Setup parameters for call to function APSME_IsDistributedSecurity
        LCALL   `??APSME_IsDistributedSecurity::?relay`; Banked call to: APSME_IsDistributedSecurity
        MOV     A,R1
        JZ      $+5
        LJMP    ??bdb_StartCommissioning_6 & 0xFFFF
//  885           {
//  886             uint8 keyAttributes;
//  887             osal_nv_read(ZCD_NV_TCLK_TABLE_START, osal_offsetof(APSME_TCLKDevEntry_t,keyAttributes), sizeof(uint8), &keyAttributes);
        ; Setup parameters for call to function osal_nv_read
        MOV     R0,?XSP + 0
        MOV     R1,?XSP + 1
        MOV     ?V2,R0
        MOV     ?V3,R1
        MOV     R0,#?V2
        LCALL   ?PUSH_XSTACK_I_TWO
          CFI CFA_XSP16 add(XSP16, 34)
        MOV     ?V2,#0x1
        MOV     ?V3,#0x0
        MOV     R0,#?V2
        LCALL   ?PUSH_XSTACK_I_TWO
          CFI CFA_XSP16 add(XSP16, 36)
        MOV     R4,#0x10
        MOV     R5,#0x0
        MOV     R2,#0x11
        MOV     R3,#0x1
        LCALL   `??osal_nv_read::?relay`; Banked call to: osal_nv_read
        MOV     A,#0x4
        LCALL   ?DEALLOC_XSTACK8
          CFI CFA_XSP16 add(XSP16, 32)
//  888             //And the TCLK procedure got not complete, then reset the device parameters to FN
//  889             if((keyAttributes != ZG_NON_R21_NWK_JOINED) && (keyAttributes != ZG_VERIFIED_KEY))
        MOV     DPL,?XSP + 0
        MOV     DPH,?XSP + 1
        MOVX    A,@DPTR
        XRL     A,#0xfd
        JNZ     $+5
        LJMP    ??bdb_StartCommissioning_6 & 0xFFFF
        MOVX    A,@DPTR
        XRL     A,#0x2
        JZ      ??bdb_StartCommissioning_6
//  890             {
//  891               //Force to initialize the entry
//  892               APSME_TCLKDevEntry_t APSME_TCLKDevEntry;
//  893               
//  894               osal_memset(&APSME_TCLKDevEntry,0,sizeof(APSME_TCLKDevEntry_t));
        ; Setup parameters for call to function osal_memset
        MOV     R4,#0x13
        MOV     R5,#0x0
        MOV     R1,#0x0
        MOV     A,#0x1
        LCALL   ?XSTACK_DISP101_8
        LCALL   `??osal_memset::?relay`; Banked call to: osal_memset
//  895               APSME_TCLKDevEntry.keyAttributes = ZG_DEFAULT_KEY;
        MOV     A,#0x11
        LCALL   ?XSTACK_DISP0_8
        MOV     A,#-0x1
        MOVX    @DPTR,A
//  896               osal_nv_write(ZCD_NV_TCLK_TABLE_START, 0, sizeof(APSME_TCLKDevEntry_t), &APSME_TCLKDevEntry);
        ; Setup parameters for call to function osal_nv_write
        MOV     A,#0x1
        LCALL   ?XSTACK_DISP100_8
        MOV     ?V2,R0
        MOV     ?V3,R1
        MOV     R0,#?V2
        LCALL   ?PUSH_XSTACK_I_TWO
          CFI CFA_XSP16 add(XSP16, 34)
        MOV     ?V2,#0x13
        MOV     ?V3,#0x0
        MOV     R0,#?V2
        LCALL   ?PUSH_XSTACK_I_TWO
          CFI CFA_XSP16 add(XSP16, 36)
        MOV     R4,#0x0
        MOV     R5,#0x0
        MOV     R2,#0x11
        MOV     R3,#0x1
        LCALL   `??osal_nv_write::?relay`; Banked call to: osal_nv_write
        MOV     A,#0x4
        LCALL   ?DEALLOC_XSTACK8
          CFI CFA_XSP16 add(XSP16, 32)
//  897               TCLinkKeyFrmCntr[0].txFrmCntr = 0;
        MOV     DPTR,#TCLinkKeyFrmCntr
        CLR     A
        MOVX    @DPTR,A
        INC     DPTR
        MOVX    @DPTR,A
        INC     DPTR
        MOVX    @DPTR,A
        INC     DPTR
        MOVX    @DPTR,A
//  898               TCLinkKeyFrmCntr[0].rxFrmCntr = 0;
        INC     DPTR
        MOVX    @DPTR,A
        INC     DPTR
        MOVX    @DPTR,A
        INC     DPTR
        MOVX    @DPTR,A
        INC     DPTR
        MOVX    @DPTR,A
//  899               
//  900               
//  901               //reset the device parameters to FN
//  902               bdbAttributes.bdbNodeIsOnANetwork = FALSE;
        MOV     DPTR,#bdbAttributes + 14
        LCALL   ?Subroutine19 & 0xFFFF
//  903               osal_nv_write(ZCD_NV_BDBNODEISONANETWORK,0,sizeof(bdbAttributes.bdbNodeIsOnANetwork),&bdbAttributes.bdbNodeIsOnANetwork);
??CrossCallReturnLabel_32:
        LCALL   ?PUSH_XSTACK_I_TWO
          CFI CFA_XSP16 add(XSP16, 34)
        MOV     ?V2,#0x1
        MOV     ?V3,#0x0
        MOV     R0,#?V2
        LCALL   ?PUSH_XSTACK_I_TWO
          CFI CFA_XSP16 add(XSP16, 36)
        MOV     R4,#0x0
        MOV     R5,#0x0
        MOV     R2,#0x55
        MOV     R3,#0x0
        LCALL   `??osal_nv_write::?relay`; Banked call to: osal_nv_write
        MOV     A,#0x4
        LCALL   ?DEALLOC_XSTACK8
          CFI CFA_XSP16 add(XSP16, 32)
//  904               zgWriteStartupOptions(ZG_STARTUP_SET, ZCD_STARTOPT_DEFAULT_CONFIG_STATE | ZCD_STARTOPT_DEFAULT_NETWORK_STATE);
        ; Setup parameters for call to function zgWriteStartupOptions
        MOV     R2,#0x3
        MOV     R1,#-0x1
        LCALL   `??zgWriteStartupOptions::?relay`; Banked call to: zgWriteStartupOptions
//  905               
//  906               //Then start the commissioning process requested
//  907               bdbCommissioningProcedureState.bdbCommissioningState = BDB_COMMISSIONING_STATE_START_RESUME;
        SJMP    ??bdb_StartCommissioning_4
//  908               osal_set_event( bdb_TaskID, BDB_CHANGE_COMMISSIONING_STATE );
//  909               return;
//  910             }
//  911           }
//  912         }
//  913       }
//  914 #endif //ZG_BUILD_JOINING_TYPE
//  915 
//  916       //Set the initialization
//  917       bdbAttributes.bdbCommissioningMode |= BDB_COMMISSIONING_MODE_INITIALIZATION;
//  918       bdbCommissioningProcedureState.bdbCommissioningState = BDB_INITIALIZATION;
??bdb_StartCommissioning_6:
        MOV     DPTR,#bdbCommissioningProcedureState
        MOV     A,#0x7
        MOVX    @DPTR,A
//  919       bdbAttributes.bdbCommissioningMode |= mode & BDB_COMMISSIONING_MODES;
        MOV     A,#0x10
        ORL     A,R6
        MOV     R0,A
        MOV     DPTR,#bdbAttributes + 11
        MOVX    A,@DPTR
        ORL     A,R0
        MOVX    @DPTR,A
//  920       
//  921       if(ZDOInitDevice(0) == ZDO_INITDEV_RESTORED_NETWORK_STATE)
        ; Setup parameters for call to function ZDOInitDeviceEx
        MOV     R1,#0x0
        MOV     R2,#0x0
        MOV     R3,#0x0
        LCALL   `??ZDOInitDeviceEx::?relay`; Banked call to: ZDOInitDeviceEx
        MOV     A,R1
        JZ      ??bdb_StartCommissioning_2
//  922       {
//  923 #ifdef BDB_REPORTING
//  924         //Mark the clusterEndpoint entries that have binding, starts reporting if at least one entry was marked
//  925         bdb_RepUpdateMarkBindings();
//  926 #endif
//  927         return;
//  928       }
//  929       bdb_setNodeIsOnANetwork(FALSE);  
        ; Setup parameters for call to function bdb_setNodeIsOnANetwork
        MOV     R1,#0x0
        LCALL   `??bdb_setNodeIsOnANetwork::?relay`; Banked call to: bdb_setNodeIsOnANetwork
//  930       //Not in the network
//  931       bdb_reportCommissioningState(BDB_INITIALIZATION,FALSE);
        ; Setup parameters for call to function bdb_reportCommissioningState
        MOV     R2,#0x0
        MOV     R1,#0x7
        LCALL   `??bdb_reportCommissioningState::?relay`; Banked call to: bdb_reportCommissioningState
//  932       return;
        SJMP    ??bdb_StartCommissioning_2
//  933     }
//  934   }
//  935   
//  936   //Start the commissioning process
//  937   bdbCommissioningProcedureState.bdbCommissioningState = BDB_COMMISSIONING_STATE_START_RESUME;
??bdb_StartCommissioning_4:
        MOV     DPTR,#bdbCommissioningProcedureState
        CLR     A
        MOVX    @DPTR,A
//  938   osal_set_event( bdb_TaskID, BDB_CHANGE_COMMISSIONING_STATE );
        ; Setup parameters for call to function osal_set_event
        MOV     R2,#0x4
        MOV     R3,A
        MOV     DPTR,#bdb_TaskID
        MOVX    A,@DPTR
        MOV     R1,A
        LCALL   `??osal_set_event::?relay`; Banked call to: osal_set_event
//  939 }
??bdb_StartCommissioning_2:
        MOV     A,#0x14
        LJMP    ??Subroutine35_0 & 0xFFFF
          CFI EndBlock cfiBlock8

        RSEG BANKED_CODE:CODE:NOROOT(0)
?Subroutine19:
          CFI Block cfiCond9 Using cfiCommon0
          CFI Function bdb_StartCommissioning
          CFI Conditional ??CrossCallReturnLabel_31
          CFI R6 load(1, XDATA, add(CFA_XSP16, literal(-12)))
          CFI VB load(1, XDATA, add(CFA_XSP16, literal(-11)))
          CFI V0 load(1, XDATA, add(CFA_XSP16, literal(-10)))
          CFI V1 load(1, XDATA, add(CFA_XSP16, literal(-9)))
          CFI V2 load(1, XDATA, add(CFA_XSP16, literal(-8)))
          CFI V3 load(1, XDATA, add(CFA_XSP16, literal(-7)))
          CFI R7 load(1, XDATA, add(CFA_XSP16, literal(-6)))
          CFI ?RET_LOW load(1, XDATA, add(CFA_XSP16, literal(-5)))
          CFI ?RET_HIGH load(1, XDATA, add(CFA_XSP16, literal(-4)))
          CFI ?BRET_EXT load(1, XDATA, add(CFA_XSP16, literal(-3)))
          CFI DPL0 load(1, XDATA, add(CFA_XSP16, literal(-2)))
          CFI DPH0 load(1, XDATA, add(CFA_XSP16, literal(-1)))
          CFI CFA_SP SP+-2
          CFI CFA_XSP16 add(XSP16, 32)
          CFI Block cfiCond10 Using cfiCommon0
          CFI (cfiCond10) Function bdb_StartCommissioning
          CFI (cfiCond10) Conditional ??CrossCallReturnLabel_32
          CFI (cfiCond10) R6 load(1, XDATA, add(CFA_XSP16, literal(-12)))
          CFI (cfiCond10) VB load(1, XDATA, add(CFA_XSP16, literal(-11)))
          CFI (cfiCond10) V0 load(1, XDATA, add(CFA_XSP16, literal(-10)))
          CFI (cfiCond10) V1 load(1, XDATA, add(CFA_XSP16, literal(-9)))
          CFI (cfiCond10) V2 load(1, XDATA, add(CFA_XSP16, literal(-8)))
          CFI (cfiCond10) V3 load(1, XDATA, add(CFA_XSP16, literal(-7)))
          CFI (cfiCond10) R7 load(1, XDATA, add(CFA_XSP16, literal(-6)))
          CFI (cfiCond10) ?RET_LOW load(1, XDATA, add(CFA_XSP16, literal(-5)))
          CFI (cfiCond10) ?RET_HIGH load(1, XDATA, add(CFA_XSP16, literal(-4)))
          CFI (cfiCond10) ?BRET_EXT load(1, XDATA, add(CFA_XSP16, literal(-3)))
          CFI (cfiCond10) DPL0 load(1, XDATA, add(CFA_XSP16, literal(-2)))
          CFI (cfiCond10) DPH0 load(1, XDATA, add(CFA_XSP16, literal(-1)))
          CFI (cfiCond10) CFA_SP SP+-2
          CFI (cfiCond10) CFA_XSP16 add(XSP16, 32)
          CFI Block cfiPicker11 Using cfiCommon1
          CFI (cfiPicker11) NoFunction
          CFI (cfiPicker11) Picker
        MOVX    @DPTR,A
        ; Setup parameters for call to function osal_nv_read
        ; Setup parameters for call to function osal_nv_write
        MOV     ?V2,#(bdbAttributes + 14) & 0xff
        MOV     ?V3,#((bdbAttributes + 14) >> 8) & 0xff
        MOV     R0,#?V2
        RET
          CFI EndBlock cfiCond9
          CFI EndBlock cfiCond10
          CFI EndBlock cfiPicker11
//  940 
//  941 
//  942  /*********************************************************************
//  943  * @fn          bdb_NotifyCommissioningModeStart
//  944  *
//  945  * @brief       Notify the user about a commissioning method just started
//  946  *
//  947  * @param       commissioningMode
//  948  *
//  949  * @return      none
//  950  */

        RSEG BANKED_CODE:CODE:NOROOT(0)
//  951 void bdb_NotifyCommissioningModeStart(uint8 commissioningMode)
bdb_NotifyCommissioningModeStart:
          CFI Block cfiBlock12 Using cfiCommon0
          CFI Function bdb_NotifyCommissioningModeStart
        CODE
//  952 {
        FUNCALL bdb_NotifyCommissioningModeStart, bdb_SendMsg
        LOCFRAME ISTACK, 0, STACK
        LOCFRAME PSTACK, 0, STACK
        LOCFRAME XSTACK, 15, STACK
        LOCFRAME IOVERLAY, 0, STATIC
        LOCFRAME DOVERLAY, 0, STATIC
        ARGFRAME ISTACK, 0, STACK
        ARGFRAME PSTACK, 0, STACK
        ARGFRAME XSTACK, 15, STACK
        ARGFRAME IOVERLAY, 0, STATIC
        ARGFRAME DOVERLAY, 0, STATIC
        REQUIRE ?V0
        REQUIRE ?V1
        MOV     A,#-0xa
        LCALL   ?BANKED_ENTER_XDATA
          CFI DPH0 load(1, XDATA, add(CFA_XSP16, literal(-1)))
          CFI DPL0 load(1, XDATA, add(CFA_XSP16, literal(-2)))
          CFI ?BRET_EXT load(1, XDATA, add(CFA_XSP16, literal(-3)))
          CFI ?RET_HIGH load(1, XDATA, add(CFA_XSP16, literal(-4)))
          CFI ?RET_LOW load(1, XDATA, add(CFA_XSP16, literal(-5)))
          CFI R7 load(1, XDATA, add(CFA_XSP16, literal(-6)))
          CFI V1 load(1, XDATA, add(CFA_XSP16, literal(-7)))
          CFI V0 load(1, XDATA, add(CFA_XSP16, literal(-8)))
          CFI VB load(1, XDATA, add(CFA_XSP16, literal(-9)))
          CFI R6 load(1, XDATA, add(CFA_XSP16, literal(-10)))
          CFI CFA_SP SP+0
          CFI CFA_XSP16 add(XSP16, 10)
        ; Saved register size: 10
        ; Auto size: 3
        MOV     A,#-0x3
        LCALL   ?ALLOC_XSTACK8
          CFI CFA_XSP16 add(XSP16, 13)
//  953   bdbCommissioningModeMsg_t bdbCommissioningModeMsg;
//  954 
//  955   bdbCommissioningModeMsg.bdbCommissioningMode = commissioningMode;
        MOV     A,#0x1
        LCALL   ?XSTACK_DISP0_8
        MOV     A,R1
        LCALL   ?Subroutine20 & 0xFFFF
//  956   bdbCommissioningModeMsg.bdbCommissioningStatus = BDB_COMMISSIONING_IN_PROGRESS;
??CrossCallReturnLabel_33:
        LCALL   ?Subroutine17 & 0xFFFF
//  957   //Remaining commissioning modes are set just before the call to the application to avoid race conditions
//  958 
//  959   bdb_NotifyApp((uint8*)&bdbCommissioningModeMsg);
??CrossCallReturnLabel_25:
        LCALL   ?PUSH_XSTACK_I_TWO
          CFI CFA_XSP16 add(XSP16, 15)
        MOV     R4,#0x3
        MOV     R3,#0x0
        MOV     R2,#0xa
        MOV     DPTR,#bdb_TaskID
        MOVX    A,@DPTR
        MOV     R1,A
        LCALL   `??bdb_SendMsg::?relay`; Banked call to: bdb_SendMsg
        MOV     A,#0x2
        LCALL   ?DEALLOC_XSTACK8
          CFI CFA_XSP16 add(XSP16, 13)
//  960 }
        MOV     A,#0x3
        LJMP    ??Subroutine40_0 & 0xFFFF
          CFI EndBlock cfiBlock12
//  961 
//  962 
//  963 
//  964 #if (ZG_BUILD_JOINING_TYPE)
//  965  /*********************************************************************
//  966  * @fn          bdb_setNodeJoinLinkKeyType
//  967  *
//  968  * @brief       Set the key type in use in the network joined. Global centralized key is used by default
//  969  *
//  970  * @param       none
//  971  *
//  972  * @return      none
//  973  */

        RSEG BANKED_CODE:CODE:NOROOT(0)
//  974 void bdb_setNodeJoinLinkKeyType(uint8 KeyType)
bdb_setNodeJoinLinkKeyType:
          CFI Block cfiBlock13 Using cfiCommon0
          CFI Function bdb_setNodeJoinLinkKeyType
        CODE
//  975 {
        PUSH    DPL
          CFI DPL0 Frame(CFA_SP, 4)
          CFI CFA_SP SP+-4
        PUSH    DPH
          CFI DPH0 Frame(CFA_SP, 5)
          CFI CFA_SP SP+-5
        ; Saved register size: 2
        ; Auto size: 0
//  976   bdbAttributes.bdbNodeJoinLinkKeyType = KeyType;
        MOV     A,R1
        MOV     DPTR,#bdbAttributes + 15
        LJMP    ??Subroutine33_0 & 0xFFFF
//  977 }
          CFI EndBlock cfiBlock13
//  978 #endif
//  979 
//  980  /*********************************************************************
//  981  * @fn          bdb_setFN
//  982  *
//  983  * @brief       Set configuration for FN. This FN configuration will be perfome 
//  984  *              upon call to ZDOInitDevice
//  985  *
//  986  * @param       none
//  987  *
//  988  * @return      none
//  989  */

        RSEG BANKED_CODE:CODE:NOROOT(0)
//  990 void bdb_setFN(void)
bdb_setFN:
          CFI Block cfiBlock14 Using cfiCommon0
          CFI Function bdb_setFN
        CODE
//  991 {
        FUNCALL bdb_setFN, bdb_setNodeIsOnANetwork
        LOCFRAME ISTACK, 2, STACK
        LOCFRAME PSTACK, 0, STACK
        LOCFRAME XSTACK, 0, STACK
        LOCFRAME IOVERLAY, 0, STATIC
        LOCFRAME DOVERLAY, 0, STATIC
        ARGFRAME ISTACK, 2, STACK
        ARGFRAME PSTACK, 0, STACK
        ARGFRAME XSTACK, 0, STACK
        ARGFRAME IOVERLAY, 0, STATIC
        ARGFRAME DOVERLAY, 0, STATIC
        FUNCALL bdb_setFN, zgWriteStartupOptions
        LOCFRAME ISTACK, 2, STACK
        LOCFRAME PSTACK, 0, STACK
        LOCFRAME XSTACK, 0, STACK
        LOCFRAME IOVERLAY, 0, STATIC
        LOCFRAME DOVERLAY, 0, STATIC
        ARGFRAME ISTACK, 2, STACK
        ARGFRAME PSTACK, 0, STACK
        ARGFRAME XSTACK, 0, STACK
        ARGFRAME IOVERLAY, 0, STATIC
        ARGFRAME DOVERLAY, 0, STATIC
        PUSH    DPL
          CFI DPL0 Frame(CFA_SP, 4)
          CFI CFA_SP SP+-4
        PUSH    DPH
          CFI DPH0 Frame(CFA_SP, 5)
          CFI CFA_SP SP+-5
        ; Saved register size: 2
        ; Auto size: 0
//  992   bdb_setNodeIsOnANetwork(FALSE);
        ; Setup parameters for call to function bdb_setNodeIsOnANetwork
        MOV     R1,#0x0
        LCALL   `??bdb_setNodeIsOnANetwork::?relay`; Banked call to: bdb_setNodeIsOnANetwork
//  993 
//  994 #if defined ( INTER_PAN ) && defined ( BDB_TL_INITIATOR )
//  995     touchLink_InitFreeRanges( TRUE );
//  996     touchLink_UpdateNV( TOUCHLINK_UPDATE_NV_RANGES );
//  997 #endif
//  998 #if defined ( INTER_PAN ) && defined ( BDB_TL_TARGET ) 
//  999     touchLink_InitFreeRanges( FALSE );
// 1000     touchLink_UpdateNV( TOUCHLINK_UPDATE_NV_RANGES );
// 1001 #endif
// 1002 
// 1003   //Set the device as factory new
// 1004   zgWriteStartupOptions(ZG_STARTUP_SET, ZCD_STARTOPT_DEFAULT_CONFIG_STATE | ZCD_STARTOPT_DEFAULT_NETWORK_STATE);
        ; Setup parameters for call to function zgWriteStartupOptions
        MOV     R2,#0x3
        MOV     R1,#-0x1
        LCALL   `??zgWriteStartupOptions::?relay`; Banked call to: zgWriteStartupOptions
// 1005 }
        LJMP    ??Subroutine34_0 & 0xFFFF
          CFI EndBlock cfiBlock14
// 1006 
// 1007  /*********************************************************************
// 1008  * @fn          bdb_resetLocalAction
// 1009  *
// 1010  * @brief       Application interface to perform BDB Reset to FN.
// 1011  *
// 1012  * @param       none
// 1013  *
// 1014  * @return      none
// 1015  */

        RSEG BANKED_CODE:CODE:NOROOT(0)
// 1016 void bdb_resetLocalAction(void)
bdb_resetLocalAction:
          CFI Block cfiBlock15 Using cfiCommon0
          CFI Function bdb_resetLocalAction
        CODE
// 1017 {
        FUNCALL bdb_resetLocalAction, osal_memset
        LOCFRAME ISTACK, 2, STACK
        LOCFRAME PSTACK, 0, STACK
        LOCFRAME XSTACK, 5, STACK
        LOCFRAME IOVERLAY, 0, STATIC
        LOCFRAME DOVERLAY, 0, STATIC
        ARGFRAME ISTACK, 2, STACK
        ARGFRAME PSTACK, 0, STACK
        ARGFRAME XSTACK, 5, STACK
        ARGFRAME IOVERLAY, 0, STATIC
        ARGFRAME DOVERLAY, 0, STATIC
        FUNCALL bdb_resetLocalAction, bdb_setFN
        LOCFRAME ISTACK, 2, STACK
        LOCFRAME PSTACK, 0, STACK
        LOCFRAME XSTACK, 5, STACK
        LOCFRAME IOVERLAY, 0, STATIC
        LOCFRAME DOVERLAY, 0, STATIC
        ARGFRAME ISTACK, 2, STACK
        ARGFRAME PSTACK, 0, STACK
        ARGFRAME XSTACK, 5, STACK
        ARGFRAME IOVERLAY, 0, STATIC
        ARGFRAME DOVERLAY, 0, STATIC
        FUNCALL bdb_resetLocalAction, NLME_LeaveReq
        LOCFRAME ISTACK, 2, STACK
        LOCFRAME PSTACK, 0, STACK
        LOCFRAME XSTACK, 5, STACK
        LOCFRAME IOVERLAY, 0, STATIC
        LOCFRAME DOVERLAY, 0, STATIC
        ARGFRAME ISTACK, 2, STACK
        ARGFRAME PSTACK, 0, STACK
        ARGFRAME XSTACK, 5, STACK
        ARGFRAME IOVERLAY, 0, STATIC
        ARGFRAME DOVERLAY, 0, STATIC
        FUNCALL bdb_resetLocalAction, bdb_setFN
        LOCFRAME ISTACK, 2, STACK
        LOCFRAME PSTACK, 0, STACK
        LOCFRAME XSTACK, 5, STACK
        LOCFRAME IOVERLAY, 0, STATIC
        LOCFRAME DOVERLAY, 0, STATIC
        ARGFRAME ISTACK, 2, STACK
        ARGFRAME PSTACK, 0, STACK
        ARGFRAME XSTACK, 5, STACK
        ARGFRAME IOVERLAY, 0, STATIC
        ARGFRAME DOVERLAY, 0, STATIC
        FUNCALL bdb_resetLocalAction, ZDApp_ResetTimerStart
        LOCFRAME ISTACK, 2, STACK
        LOCFRAME PSTACK, 0, STACK
        LOCFRAME XSTACK, 5, STACK
        LOCFRAME IOVERLAY, 0, STATIC
        LOCFRAME DOVERLAY, 0, STATIC
        ARGFRAME ISTACK, 2, STACK
        ARGFRAME PSTACK, 0, STACK
        ARGFRAME XSTACK, 5, STACK
        ARGFRAME IOVERLAY, 0, STATIC
        ARGFRAME DOVERLAY, 0, STATIC
        PUSH    DPL
          CFI DPL0 Frame(CFA_SP, 4)
          CFI CFA_SP SP+-4
        PUSH    DPH
          CFI DPH0 Frame(CFA_SP, 5)
          CFI CFA_SP SP+-5
        ; Saved register size: 2
        ; Auto size: 5
        MOV     A,#-0x5
        LCALL   ?ALLOC_XSTACK8
          CFI CFA_XSP16 add(XSP16, 5)
// 1018   //Process reset as nwk leave if the device is on the network and is able to process it
// 1019   if((ZG_BUILD_JOINING_TYPE) && (bdbAttributes.bdbNodeIsOnANetwork) && (!(bdbAttributes.bdbCommissioningMode & BDB_COMMISSIONING_MODE_PARENT_LOST)))
        MOV     DPTR,#bdbAttributes + 14
        MOVX    A,@DPTR
        JZ      ??bdb_resetLocalAction_0
        MOV     DPTR,#bdbAttributes + 11
        MOVX    A,@DPTR
        MOV     C,0xE0 /* A   */.5
        JC      ??bdb_resetLocalAction_0
// 1020   {
// 1021     NLME_LeaveReq_t leaveReq;
// 1022     // Set every field to 0
// 1023     osal_memset( &leaveReq, 0, sizeof( NLME_LeaveReq_t ) );
        ; Setup parameters for call to function osal_memset
        MOV     R4,#0x5
        MOV     R5,#0x0
        MOV     R1,#0x0
        MOV     R2,?XSP + 0
        MOV     R3,?XSP + 1
        LCALL   `??osal_memset::?relay`; Banked call to: osal_memset
// 1024     
// 1025     bdb_setFN();
        ; Setup parameters for call to function bdb_setFN
        LCALL   `??bdb_setFN::?relay`; Banked call to: bdb_setFN
// 1026       
// 1027     NLME_LeaveReq( &leaveReq );
        ; Setup parameters for call to function NLME_LeaveReq
        MOV     R2,?XSP + 0
        MOV     R3,?XSP + 1
        LCALL   `??NLME_LeaveReq::?relay`; Banked call to: NLME_LeaveReq
// 1028     
// 1029     return;
        SJMP    ??bdb_resetLocalAction_1
// 1030   }
// 1031   else
// 1032   {
// 1033     bdb_setFN();
??bdb_resetLocalAction_0:
        ; Setup parameters for call to function bdb_setFN
        LCALL   `??bdb_setFN::?relay`; Banked call to: bdb_setFN
// 1034     
// 1035     ZDApp_ResetTimerStart( 500 );
        ; Setup parameters for call to function ZDApp_ResetTimerStart
        MOV     R2,#-0xc
        MOV     R3,#0x1
        LCALL   `??ZDApp_ResetTimerStart::?relay`; Banked call to: ZDApp_ResetTimerStart
// 1036   }
// 1037 }
??bdb_resetLocalAction_1:
        MOV     A,#0x5
          CFI EndBlock cfiBlock15
        REQUIRE ?Subroutine4
        ; // Fall through to label ?Subroutine4

        RSEG BANKED_CODE:CODE:NOROOT(0)
?Subroutine4:
          CFI Block cfiBlock16 Using cfiCommon0
          CFI NoFunction
          CFI CFA_SP SP+-5
          CFI CFA_XSP16 add(XSP16, 5)
          CFI DPL0 Frame(CFA_SP, 4)
          CFI DPH0 Frame(CFA_SP, 5)
          CFI Invalid
        LCALL   ?DEALLOC_XSTACK8
          CFI CFA_XSP16 XSP16+0
          CFI Valid
        LJMP    ??Subroutine34_0 & 0xFFFF
          CFI EndBlock cfiBlock16
// 1038 
// 1039 
// 1040  /*********************************************************************
// 1041  * @fn          bdb_parentLost
// 1042  *
// 1043  * @brief       Notify bdb that connection with parent is lost
// 1044  *
// 1045  * @return      none
// 1046  */

        RSEG BANKED_CODE:CODE:NOROOT(0)
// 1047 void bdb_parentLost(void)
bdb_parentLost:
          CFI Block cfiBlock17 Using cfiCommon0
          CFI Function bdb_parentLost
        CODE
// 1048 {
        FUNCALL bdb_parentLost, bdb_nwkDescFree
        LOCFRAME ISTACK, 2, STACK
        LOCFRAME PSTACK, 0, STACK
        LOCFRAME XSTACK, 0, STACK
        LOCFRAME IOVERLAY, 0, STATIC
        LOCFRAME DOVERLAY, 0, STATIC
        ARGFRAME ISTACK, 2, STACK
        ARGFRAME PSTACK, 0, STACK
        ARGFRAME XSTACK, 0, STACK
        ARGFRAME IOVERLAY, 0, STATIC
        ARGFRAME DOVERLAY, 0, STATIC
        FUNCALL bdb_parentLost, nwk_desc_list_free
        LOCFRAME ISTACK, 2, STACK
        LOCFRAME PSTACK, 0, STACK
        LOCFRAME XSTACK, 0, STACK
        LOCFRAME IOVERLAY, 0, STATIC
        LOCFRAME DOVERLAY, 0, STATIC
        ARGFRAME ISTACK, 2, STACK
        ARGFRAME PSTACK, 0, STACK
        ARGFRAME XSTACK, 0, STACK
        ARGFRAME IOVERLAY, 0, STATIC
        ARGFRAME DOVERLAY, 0, STATIC
        FUNCALL bdb_parentLost, bdb_reportCommissioningState
        LOCFRAME ISTACK, 2, STACK
        LOCFRAME PSTACK, 0, STACK
        LOCFRAME XSTACK, 0, STACK
        LOCFRAME IOVERLAY, 0, STATIC
        LOCFRAME DOVERLAY, 0, STATIC
        ARGFRAME ISTACK, 2, STACK
        ARGFRAME PSTACK, 0, STACK
        ARGFRAME XSTACK, 0, STACK
        ARGFRAME IOVERLAY, 0, STATIC
        ARGFRAME DOVERLAY, 0, STATIC
        FUNCALL bdb_parentLost, NLME_OrphanStateSet
        LOCFRAME ISTACK, 2, STACK
        LOCFRAME PSTACK, 0, STACK
        LOCFRAME XSTACK, 0, STACK
        LOCFRAME IOVERLAY, 0, STATIC
        LOCFRAME DOVERLAY, 0, STATIC
        ARGFRAME ISTACK, 2, STACK
        ARGFRAME PSTACK, 0, STACK
        ARGFRAME XSTACK, 0, STACK
        ARGFRAME IOVERLAY, 0, STATIC
        ARGFRAME DOVERLAY, 0, STATIC
        FUNCALL bdb_parentLost, ZDApp_ChangeState
        LOCFRAME ISTACK, 2, STACK
        LOCFRAME PSTACK, 0, STACK
        LOCFRAME XSTACK, 0, STACK
        LOCFRAME IOVERLAY, 0, STATIC
        LOCFRAME DOVERLAY, 0, STATIC
        ARGFRAME ISTACK, 2, STACK
        ARGFRAME PSTACK, 0, STACK
        ARGFRAME XSTACK, 0, STACK
        ARGFRAME IOVERLAY, 0, STATIC
        ARGFRAME DOVERLAY, 0, STATIC
        FUNCALL bdb_parentLost, bdb_reportCommissioningState
        LOCFRAME ISTACK, 2, STACK
        LOCFRAME PSTACK, 0, STACK
        LOCFRAME XSTACK, 0, STACK
        LOCFRAME IOVERLAY, 0, STATIC
        LOCFRAME DOVERLAY, 0, STATIC
        ARGFRAME ISTACK, 2, STACK
        ARGFRAME PSTACK, 0, STACK
        ARGFRAME XSTACK, 0, STACK
        ARGFRAME IOVERLAY, 0, STATIC
        ARGFRAME DOVERLAY, 0, STATIC
        PUSH    DPL
          CFI DPL0 Frame(CFA_SP, 4)
          CFI CFA_SP SP+-4
        PUSH    DPH
          CFI DPH0 Frame(CFA_SP, 5)
          CFI CFA_SP SP+-5
        ; Saved register size: 2
        ; Auto size: 0
// 1049 #if ZG_BUILD_ENDDEVICE_TYPE
// 1050   if(ZG_DEVICE_ENDDEVICE_TYPE)
        SJMP    ??bdb_parentLost_0
// 1051   {
// 1052     while(pBDBListNwk)
// 1053     {
// 1054       bdb_nwkDescFree(pBDBListNwk);
??bdb_parentLost_1:
        ; Setup parameters for call to function bdb_nwkDescFree
        LCALL   ??Subroutine43_0 & 0xFFFF
// 1055     }
??CrossCallReturnLabel_103:
        LCALL   `??bdb_nwkDescFree::?relay`; Banked call to: bdb_nwkDescFree
??bdb_parentLost_0:
        MOV     DPTR,#pBDBListNwk
        LCALL   ??Subroutine39_0 & 0xFFFF
??CrossCallReturnLabel_73:
        JNZ     ??bdb_parentLost_1
// 1056     
// 1057     nwk_desc_list_free();  
        ; Setup parameters for call to function nwk_desc_list_free
        LCALL   `??nwk_desc_list_free::?relay`; Banked call to: nwk_desc_list_free
// 1058     if(bdbCommissioningProcedureState.bdbCommissioningState != BDB_PARENT_LOST)
        MOV     DPTR,#bdbCommissioningProcedureState
        MOVX    A,@DPTR
        XRL     A,#0x8
        JZ      ??bdb_parentLost_2
// 1059     {
// 1060       //If parent lost during TCLK exchange, then report TCLK exchange fail
// 1061       if(bdbCommissioningProcedureState.bdbCommissioningState == BDB_COMMISSIONING_STATE_TC_LINK_KEY_EXCHANGE)
        MOVX    A,@DPTR
        XRL     A,#0x1
        JNZ     ??bdb_parentLost_3
// 1062       {
// 1063         bdb_reportCommissioningState(BDB_COMMISSIONING_STATE_TC_LINK_KEY_EXCHANGE, FALSE);
        ; Setup parameters for call to function bdb_reportCommissioningState
        MOV     R2,#0x0
        MOV     R1,#0x1
        SJMP    ??bdb_parentLost_4
// 1064         return;
// 1065       }
// 1066       bdbCommissioningProcedureState.bdb_ParentLostSavedState = bdbCommissioningProcedureState.bdbCommissioningState;
??bdb_parentLost_3:
        MOVX    A,@DPTR
        MOV     DPTR,#bdbCommissioningProcedureState + 3
        MOVX    @DPTR,A
// 1067       
// 1068     }
// 1069     bdbCommissioningProcedureState.bdbCommissioningState = BDB_PARENT_LOST;
??bdb_parentLost_2:
        MOV     DPTR,#bdbCommissioningProcedureState
        MOV     A,#0x8
        MOVX    @DPTR,A
// 1070     NLME_OrphanStateSet();
        ; Setup parameters for call to function NLME_OrphanStateSet
        LCALL   `??NLME_OrphanStateSet::?relay`; Banked call to: NLME_OrphanStateSet
// 1071     ZDApp_ChangeState( DEV_NWK_ORPHAN );
        ; Setup parameters for call to function ZDApp_ChangeState
        MOV     R1,#0xa
        LCALL   `??ZDApp_ChangeState::?relay`; Banked call to: ZDApp_ChangeState
// 1072     bdb_reportCommissioningState(BDB_PARENT_LOST,FALSE);
        ; Setup parameters for call to function bdb_reportCommissioningState
        MOV     R2,#0x0
        MOV     R1,#0x8
??bdb_parentLost_4:
        LCALL   `??bdb_reportCommissioningState::?relay`; Banked call to: bdb_reportCommissioningState
// 1073   }
// 1074 #endif
// 1075 }
        SJMP    ??Subroutine34_0
          CFI EndBlock cfiBlock17
// 1076 
// 1077 
// 1078 
// 1079 
// 1080 
// 1081  /*********************************************************************
// 1082  * @fn          bdb_NetworkRestoredResumeState
// 1083  *
// 1084  * @brief       Restore the state of child device after parent lost
// 1085  *
// 1086  * @return      none
// 1087  */

        RSEG BANKED_CODE:CODE:NOROOT(0)
// 1088 void bdb_NetworkRestoredResumeState(void)
bdb_NetworkRestoredResumeState:
          CFI Block cfiBlock18 Using cfiCommon0
          CFI Function bdb_NetworkRestoredResumeState
        CODE
// 1089 {
        FUNCALL bdb_NetworkRestoredResumeState, osal_start_timerEx
        LOCFRAME ISTACK, 2, STACK
        LOCFRAME PSTACK, 0, STACK
        LOCFRAME XSTACK, 4, STACK
        LOCFRAME IOVERLAY, 0, STATIC
        LOCFRAME DOVERLAY, 0, STATIC
        ARGFRAME ISTACK, 2, STACK
        ARGFRAME PSTACK, 0, STACK
        ARGFRAME XSTACK, 4, STACK
        ARGFRAME IOVERLAY, 0, STATIC
        ARGFRAME DOVERLAY, 0, STATIC
        PUSH    DPL
          CFI DPL0 Frame(CFA_SP, 4)
          CFI CFA_SP SP+-4
        PUSH    DPH
          CFI DPH0 Frame(CFA_SP, 5)
          CFI CFA_SP SP+-5
        ; Saved register size: 2
        ; Auto size: 0
// 1090 #if ZG_BUILD_ENDDEVICE_TYPE
// 1091   if(ZG_DEVICE_ENDDEVICE_TYPE)
// 1092   {
// 1093     uint8 restoreSimpleDesc = FALSE;
        MOV     R2,#0x0
// 1094     //If restored when F&B still enabled, then restore the simple descriptors attempts
// 1095     if(bdbCommissioningProcedureState.bdbCommissioningState == BDB_COMMISSIONING_STATE_FINDING_BINDING)
        MOV     DPTR,#bdbCommissioningProcedureState
        MOVX    A,@DPTR
        XRL     A,#0x6
        JNZ     ??bdb_NetworkRestoredResumeState_0
// 1096     {
// 1097       bdbFindingBindingRespondent_t  *pRespondentTemp = NULL;
// 1098       
// 1099       pRespondentTemp = pRespondentHead;
        MOV     DPTR,#pRespondentHead
        LCALL   ?Subroutine14 & 0xFFFF
??CrossCallReturnLabel_17:
        MOV     A,R4
        MOV     R0,A
        MOV     A,R5
        SJMP    ??bdb_NetworkRestoredResumeState_1
// 1100       
// 1101       while(pRespondentTemp != NULL)
// 1102       {
// 1103         if(pRespondentTemp->attempts == BDB_SIMPLE_DESC_PENDING_PARENT_LOST)
??bdb_NetworkRestoredResumeState_2:
        MOV     A,R0
        ADD     A,#0xc
        MOV     DPL,A
        CLR     A
        ADDC    A,R1
        MOV     DPH,A
        MOVX    A,@DPTR
        XRL     A,#0xfe
        JNZ     ??bdb_NetworkRestoredResumeState_3
// 1104         {
// 1105           pRespondentTemp->attempts = 0;
        CLR     A
        MOVX    @DPTR,A
// 1106           restoreSimpleDesc = TRUE;
        MOV     R2,#0x1
// 1107         }
// 1108         pRespondentTemp = pRespondentTemp->pNext;
??bdb_NetworkRestoredResumeState_3:
        LCALL   ?Subroutine30 & 0xFFFF
// 1109       }
??CrossCallReturnLabel_56:
        MOVX    A,@DPTR
        MOV     R0,A
        INC     DPTR
        MOVX    A,@DPTR
??bdb_NetworkRestoredResumeState_1:
        MOV     R1,A
        MOV     A,R0
        ORL     A,R1
        JNZ     ??bdb_NetworkRestoredResumeState_2
// 1110     }
// 1111     if(restoreSimpleDesc)
        MOV     A,R2
        MOV     C,0xE0 /* A   */.0
        JNC     ??bdb_NetworkRestoredResumeState_0
// 1112     {
// 1113       //Restore the simple Descriptor sending after 1 second of restoring the network
// 1114       osal_start_timerEx(bdb_TaskID,BDB_RESPONDENT_SIMPLEDESC_TIMEOUT, 1000);
        ; Setup parameters for call to function osal_start_timerEx
        MOV     DPTR,#__Constant_3e8
        LCALL   ?PUSH_XSTACK8_X_FOUR
          CFI CFA_XSP16 add(XSP16, 4)
        MOV     R2,#0x0
        MOV     R3,#0x40
        MOV     DPTR,#bdb_TaskID
        MOVX    A,@DPTR
        MOV     R1,A
        LCALL   `??osal_start_timerEx::?relay`; Banked call to: osal_start_timerEx
        MOV     A,#0x4
        LCALL   ?DEALLOC_XSTACK8
          CFI CFA_XSP16 XSP16+0
// 1115     }
// 1116   }
// 1117 #endif
// 1118 }
??bdb_NetworkRestoredResumeState_0:
        SJMP    ??Subroutine34_0
          CFI EndBlock cfiBlock18

        RSEG BANKED_CODE:CODE:NOROOT(0)
?Subroutine0:
          CFI Block cfiBlock19 Using cfiCommon0
          CFI NoFunction
          CFI CFA_SP SP+-5
          CFI DPL0 Frame(CFA_SP, 4)
          CFI DPH0 Frame(CFA_SP, 5)
        MOV     A,R2
        MOVX    @DPTR,A
        INC     DPTR
        MOV     A,R3
          CFI EndBlock cfiBlock19
        REQUIRE ??Subroutine33_0
        ; // Fall through to label ??Subroutine33_0

        RSEG BANKED_CODE:CODE:NOROOT(0)
??Subroutine33_0:
          CFI Block cfiBlock20 Using cfiCommon0
          CFI NoFunction
          CFI CFA_SP SP+-5
          CFI DPL0 Frame(CFA_SP, 4)
          CFI DPH0 Frame(CFA_SP, 5)
        MOVX    @DPTR,A
          CFI EndBlock cfiBlock20
        REQUIRE ??Subroutine34_0
        ; // Fall through to label ??Subroutine34_0

        RSEG BANKED_CODE:CODE:NOROOT(0)
??Subroutine34_0:
          CFI Block cfiBlock21 Using cfiCommon0
          CFI NoFunction
          CFI CFA_SP SP+-5
          CFI DPL0 Frame(CFA_SP, 4)
          CFI DPH0 Frame(CFA_SP, 5)
        POP     DPH
          CFI CFA_SP SP+-4
          CFI DPH0 SameValue
        POP     DPL
          CFI CFA_SP SP+-3
          CFI DPL0 SameValue
        LJMP    ?BRET
          CFI EndBlock cfiBlock21
// 1119 
// 1120 #if ZG_BUILD_ENDDEVICE_TYPE
// 1121  /*********************************************************************
// 1122  * @fn          bdb_ZedAttemptRecoverNwk
// 1123  *
// 1124  * @brief       Instruct the ZED to try to rejoin its previews network
// 1125  *
// 1126  * @return      success if the attempt is being excecuted
// 1127  *              False if device do not have nwk parameters to perform this action
// 1128  */

        RSEG BANKED_CODE:CODE:NOROOT(0)
// 1129 uint8 bdb_ZedAttemptRecoverNwk(void)
bdb_ZedAttemptRecoverNwk:
          CFI Block cfiBlock22 Using cfiCommon0
          CFI Function bdb_ZedAttemptRecoverNwk
        CODE
// 1130 {
        FUNCALL bdb_ZedAttemptRecoverNwk, ZDOInitDeviceEx
        LOCFRAME ISTACK, 2, STACK
        LOCFRAME PSTACK, 0, STACK
        LOCFRAME XSTACK, 0, STACK
        LOCFRAME IOVERLAY, 0, STATIC
        LOCFRAME DOVERLAY, 0, STATIC
        ARGFRAME ISTACK, 2, STACK
        ARGFRAME PSTACK, 0, STACK
        ARGFRAME XSTACK, 0, STACK
        ARGFRAME IOVERLAY, 0, STATIC
        ARGFRAME DOVERLAY, 0, STATIC
        PUSH    DPL
          CFI DPL0 Frame(CFA_SP, 4)
          CFI CFA_SP SP+-4
        PUSH    DPH
          CFI DPH0 Frame(CFA_SP, 5)
          CFI CFA_SP SP+-5
        ; Saved register size: 2
        ; Auto size: 0
// 1131   if(ZG_DEVICE_ENDDEVICE_TYPE)
// 1132   {
// 1133     if(bdbAttributes.bdbNodeIsOnANetwork)
        MOV     DPTR,#bdbAttributes + 14
        MOVX    A,@DPTR
        JZ      ??bdb_ZedAttemptRecoverNwk_0
// 1134     {
// 1135       if(bdbCommissioningProcedureState.bdbCommissioningState == BDB_PARENT_LOST)
        MOV     DPTR,#bdbCommissioningProcedureState
        MOVX    A,@DPTR
        XRL     A,#0x8
        JNZ     ??bdb_ZedAttemptRecoverNwk_0
// 1136       {
// 1137         if(ZDOInitDevice(0) == ZDO_INITDEV_RESTORED_NETWORK_STATE)
        ; Setup parameters for call to function ZDOInitDeviceEx
        MOV     R1,#0x0
        MOV     R2,#0x0
        MOV     R3,#0x0
        LCALL   `??ZDOInitDeviceEx::?relay`; Banked call to: ZDOInitDeviceEx
        MOV     A,R1
        JNZ     ??bdb_ZedAttemptRecoverNwk_0
// 1138         {
// 1139           return ZSuccess;
        MOV     R1,#0x0
        SJMP    ??bdb_ZedAttemptRecoverNwk_1
// 1140         }
// 1141       }
// 1142     }
// 1143   }
// 1144   return ZFailure;
??bdb_ZedAttemptRecoverNwk_0:
        MOV     R1,#0x1
??bdb_ZedAttemptRecoverNwk_1:
        SJMP    ??Subroutine34_0
// 1145 }
          CFI EndBlock cfiBlock22
// 1146 
// 1147 #endif
// 1148 
// 1149  /*********************************************************************
// 1150  * @fn          bdb_reportCommissioningState
// 1151  *
// 1152  * @brief       Process the result of a BDB main state attempt.
// 1153  *
// 1154  * @param       bdbCommissioningState - MainState that is issuing fail
// 1155  * @param       didSuccess - TRUE if the main state were success, FALSE otherwise
// 1156  *
// 1157  * @return      none
// 1158  */

        RSEG BANKED_CODE:CODE:NOROOT(0)
// 1159 void bdb_reportCommissioningState(uint8 bdbCommissioningState,bool didSuccess)
bdb_reportCommissioningState:
          CFI Block cfiBlock23 Using cfiCommon0
          CFI Function bdb_reportCommissioningState
        CODE
// 1160 {
        FUNCALL bdb_reportCommissioningState, osal_start_timerEx
        LOCFRAME ISTACK, 0, STACK
        LOCFRAME PSTACK, 0, STACK
        LOCFRAME XSTACK, 18, STACK
        LOCFRAME IOVERLAY, 0, STATIC
        LOCFRAME DOVERLAY, 0, STATIC
        ARGFRAME ISTACK, 0, STACK
        ARGFRAME PSTACK, 0, STACK
        ARGFRAME XSTACK, 18, STACK
        ARGFRAME IOVERLAY, 0, STATIC
        ARGFRAME DOVERLAY, 0, STATIC
        FUNCALL bdb_reportCommissioningState, bdb_nwkDescFree
        LOCFRAME ISTACK, 0, STACK
        LOCFRAME PSTACK, 0, STACK
        LOCFRAME XSTACK, 14, STACK
        LOCFRAME IOVERLAY, 0, STATIC
        LOCFRAME DOVERLAY, 0, STATIC
        ARGFRAME ISTACK, 0, STACK
        ARGFRAME PSTACK, 0, STACK
        ARGFRAME XSTACK, 14, STACK
        ARGFRAME IOVERLAY, 0, STATIC
        ARGFRAME DOVERLAY, 0, STATIC
        FUNCALL bdb_reportCommissioningState, NLME_SetPollRate
        LOCFRAME ISTACK, 0, STACK
        LOCFRAME PSTACK, 0, STACK
        LOCFRAME XSTACK, 14, STACK
        LOCFRAME IOVERLAY, 0, STATIC
        LOCFRAME DOVERLAY, 0, STATIC
        ARGFRAME ISTACK, 0, STACK
        ARGFRAME PSTACK, 0, STACK
        ARGFRAME XSTACK, 14, STACK
        ARGFRAME IOVERLAY, 0, STATIC
        ARGFRAME DOVERLAY, 0, STATIC
        FUNCALL bdb_reportCommissioningState, NLME_SetPollRate
        LOCFRAME ISTACK, 0, STACK
        LOCFRAME PSTACK, 0, STACK
        LOCFRAME XSTACK, 14, STACK
        LOCFRAME IOVERLAY, 0, STATIC
        LOCFRAME DOVERLAY, 0, STATIC
        ARGFRAME ISTACK, 0, STACK
        ARGFRAME PSTACK, 0, STACK
        ARGFRAME XSTACK, 14, STACK
        ARGFRAME IOVERLAY, 0, STATIC
        ARGFRAME DOVERLAY, 0, STATIC
        FUNCALL bdb_reportCommissioningState, ZMacSetReq
        LOCFRAME ISTACK, 0, STACK
        LOCFRAME PSTACK, 0, STACK
        LOCFRAME XSTACK, 14, STACK
        LOCFRAME IOVERLAY, 0, STATIC
        LOCFRAME DOVERLAY, 0, STATIC
        ARGFRAME ISTACK, 0, STACK
        ARGFRAME PSTACK, 0, STACK
        ARGFRAME XSTACK, 14, STACK
        ARGFRAME IOVERLAY, 0, STATIC
        ARGFRAME DOVERLAY, 0, STATIC
        FUNCALL bdb_reportCommissioningState, bdb_setFN
        LOCFRAME ISTACK, 0, STACK
        LOCFRAME PSTACK, 0, STACK
        LOCFRAME XSTACK, 14, STACK
        LOCFRAME IOVERLAY, 0, STATIC
        LOCFRAME DOVERLAY, 0, STATIC
        ARGFRAME ISTACK, 0, STACK
        ARGFRAME PSTACK, 0, STACK
        ARGFRAME XSTACK, 14, STACK
        ARGFRAME IOVERLAY, 0, STATIC
        ARGFRAME DOVERLAY, 0, STATIC
        FUNCALL bdb_reportCommissioningState, NLME_ResetRequest
        LOCFRAME ISTACK, 0, STACK
        LOCFRAME PSTACK, 0, STACK
        LOCFRAME XSTACK, 14, STACK
        LOCFRAME IOVERLAY, 0, STATIC
        LOCFRAME DOVERLAY, 0, STATIC
        ARGFRAME ISTACK, 0, STACK
        ARGFRAME PSTACK, 0, STACK
        ARGFRAME XSTACK, 14, STACK
        ARGFRAME IOVERLAY, 0, STATIC
        ARGFRAME DOVERLAY, 0, STATIC
        FUNCALL bdb_reportCommissioningState, ZDApp_ChangeState
        LOCFRAME ISTACK, 0, STACK
        LOCFRAME PSTACK, 0, STACK
        LOCFRAME XSTACK, 14, STACK
        LOCFRAME IOVERLAY, 0, STATIC
        LOCFRAME DOVERLAY, 0, STATIC
        ARGFRAME ISTACK, 0, STACK
        ARGFRAME PSTACK, 0, STACK
        ARGFRAME XSTACK, 14, STACK
        ARGFRAME IOVERLAY, 0, STATIC
        ARGFRAME DOVERLAY, 0, STATIC
        FUNCALL bdb_reportCommissioningState, bdb_nwkDescFree
        LOCFRAME ISTACK, 0, STACK
        LOCFRAME PSTACK, 0, STACK
        LOCFRAME XSTACK, 14, STACK
        LOCFRAME IOVERLAY, 0, STATIC
        LOCFRAME DOVERLAY, 0, STATIC
        ARGFRAME ISTACK, 0, STACK
        ARGFRAME PSTACK, 0, STACK
        ARGFRAME XSTACK, 14, STACK
        ARGFRAME IOVERLAY, 0, STATIC
        ARGFRAME DOVERLAY, 0, STATIC
        FUNCALL bdb_reportCommissioningState, osal_start_timerEx
        LOCFRAME ISTACK, 0, STACK
        LOCFRAME PSTACK, 0, STACK
        LOCFRAME XSTACK, 18, STACK
        LOCFRAME IOVERLAY, 0, STATIC
        LOCFRAME DOVERLAY, 0, STATIC
        ARGFRAME ISTACK, 0, STACK
        ARGFRAME PSTACK, 0, STACK
        ARGFRAME XSTACK, 18, STACK
        ARGFRAME IOVERLAY, 0, STATIC
        ARGFRAME DOVERLAY, 0, STATIC
        FUNCALL bdb_reportCommissioningState, NLME_SetPollRate
        LOCFRAME ISTACK, 0, STACK
        LOCFRAME PSTACK, 0, STACK
        LOCFRAME XSTACK, 14, STACK
        LOCFRAME IOVERLAY, 0, STATIC
        LOCFRAME DOVERLAY, 0, STATIC
        ARGFRAME ISTACK, 0, STACK
        ARGFRAME PSTACK, 0, STACK
        ARGFRAME XSTACK, 14, STACK
        ARGFRAME IOVERLAY, 0, STATIC
        ARGFRAME DOVERLAY, 0, STATIC
        FUNCALL bdb_reportCommissioningState, osal_stop_timerEx
        LOCFRAME ISTACK, 0, STACK
        LOCFRAME PSTACK, 0, STACK
        LOCFRAME XSTACK, 14, STACK
        LOCFRAME IOVERLAY, 0, STATIC
        LOCFRAME DOVERLAY, 0, STATIC
        ARGFRAME ISTACK, 0, STACK
        ARGFRAME PSTACK, 0, STACK
        ARGFRAME XSTACK, 14, STACK
        ARGFRAME IOVERLAY, 0, STATIC
        ARGFRAME DOVERLAY, 0, STATIC
        FUNCALL bdb_reportCommissioningState, osal_stop_timerEx
        LOCFRAME ISTACK, 0, STACK
        LOCFRAME PSTACK, 0, STACK
        LOCFRAME XSTACK, 14, STACK
        LOCFRAME IOVERLAY, 0, STATIC
        LOCFRAME DOVERLAY, 0, STATIC
        ARGFRAME ISTACK, 0, STACK
        ARGFRAME PSTACK, 0, STACK
        ARGFRAME XSTACK, 14, STACK
        ARGFRAME IOVERLAY, 0, STATIC
        ARGFRAME DOVERLAY, 0, STATIC
        FUNCALL bdb_reportCommissioningState, osal_start_timerEx
        LOCFRAME ISTACK, 0, STACK
        LOCFRAME PSTACK, 0, STACK
        LOCFRAME XSTACK, 18, STACK
        LOCFRAME IOVERLAY, 0, STATIC
        LOCFRAME DOVERLAY, 0, STATIC
        ARGFRAME ISTACK, 0, STACK
        ARGFRAME PSTACK, 0, STACK
        ARGFRAME XSTACK, 18, STACK
        ARGFRAME IOVERLAY, 0, STATIC
        ARGFRAME DOVERLAY, 0, STATIC
        FUNCALL bdb_reportCommissioningState, ZDApp_ChangeState
        LOCFRAME ISTACK, 0, STACK
        LOCFRAME PSTACK, 0, STACK
        LOCFRAME XSTACK, 14, STACK
        LOCFRAME IOVERLAY, 0, STATIC
        LOCFRAME DOVERLAY, 0, STATIC
        ARGFRAME ISTACK, 0, STACK
        ARGFRAME PSTACK, 0, STACK
        ARGFRAME XSTACK, 14, STACK
        ARGFRAME IOVERLAY, 0, STATIC
        ARGFRAME DOVERLAY, 0, STATIC
        FUNCALL bdb_reportCommissioningState, osal_start_timerEx
        LOCFRAME ISTACK, 0, STACK
        LOCFRAME PSTACK, 0, STACK
        LOCFRAME XSTACK, 18, STACK
        LOCFRAME IOVERLAY, 0, STATIC
        LOCFRAME DOVERLAY, 0, STATIC
        ARGFRAME ISTACK, 0, STACK
        ARGFRAME PSTACK, 0, STACK
        ARGFRAME XSTACK, 18, STACK
        ARGFRAME IOVERLAY, 0, STATIC
        ARGFRAME DOVERLAY, 0, STATIC
        FUNCALL bdb_reportCommissioningState, osal_start_timerEx
        LOCFRAME ISTACK, 0, STACK
        LOCFRAME PSTACK, 0, STACK
        LOCFRAME XSTACK, 18, STACK
        LOCFRAME IOVERLAY, 0, STATIC
        LOCFRAME DOVERLAY, 0, STATIC
        ARGFRAME ISTACK, 0, STACK
        ARGFRAME PSTACK, 0, STACK
        ARGFRAME XSTACK, 18, STACK
        ARGFRAME IOVERLAY, 0, STATIC
        ARGFRAME DOVERLAY, 0, STATIC
        FUNCALL bdb_reportCommissioningState, bdb_getRespondentRetry
        LOCFRAME ISTACK, 0, STACK
        LOCFRAME PSTACK, 0, STACK
        LOCFRAME XSTACK, 14, STACK
        LOCFRAME IOVERLAY, 0, STATIC
        LOCFRAME DOVERLAY, 0, STATIC
        ARGFRAME ISTACK, 0, STACK
        ARGFRAME PSTACK, 0, STACK
        ARGFRAME XSTACK, 14, STACK
        ARGFRAME IOVERLAY, 0, STATIC
        ARGFRAME DOVERLAY, 0, STATIC
        FUNCALL bdb_reportCommissioningState, osal_get_timeoutEx
        LOCFRAME ISTACK, 0, STACK
        LOCFRAME PSTACK, 0, STACK
        LOCFRAME XSTACK, 14, STACK
        LOCFRAME IOVERLAY, 0, STATIC
        LOCFRAME DOVERLAY, 0, STATIC
        ARGFRAME ISTACK, 0, STACK
        ARGFRAME PSTACK, 0, STACK
        ARGFRAME XSTACK, 14, STACK
        ARGFRAME IOVERLAY, 0, STATIC
        ARGFRAME DOVERLAY, 0, STATIC
        FUNCALL bdb_reportCommissioningState, bdb_zclRespondentListClean
        LOCFRAME ISTACK, 0, STACK
        LOCFRAME PSTACK, 0, STACK
        LOCFRAME XSTACK, 14, STACK
        LOCFRAME IOVERLAY, 0, STATIC
        LOCFRAME DOVERLAY, 0, STATIC
        ARGFRAME ISTACK, 0, STACK
        ARGFRAME PSTACK, 0, STACK
        ARGFRAME XSTACK, 14, STACK
        ARGFRAME IOVERLAY, 0, STATIC
        ARGFRAME DOVERLAY, 0, STATIC
        FUNCALL bdb_reportCommissioningState, osal_stop_timerEx
        LOCFRAME ISTACK, 0, STACK
        LOCFRAME PSTACK, 0, STACK
        LOCFRAME XSTACK, 14, STACK
        LOCFRAME IOVERLAY, 0, STATIC
        LOCFRAME DOVERLAY, 0, STATIC
        ARGFRAME ISTACK, 0, STACK
        ARGFRAME PSTACK, 0, STACK
        ARGFRAME XSTACK, 14, STACK
        ARGFRAME IOVERLAY, 0, STATIC
        ARGFRAME DOVERLAY, 0, STATIC
        FUNCALL bdb_reportCommissioningState, osal_start_timerEx
        LOCFRAME ISTACK, 0, STACK
        LOCFRAME PSTACK, 0, STACK
        LOCFRAME XSTACK, 18, STACK
        LOCFRAME IOVERLAY, 0, STATIC
        LOCFRAME DOVERLAY, 0, STATIC
        ARGFRAME ISTACK, 0, STACK
        ARGFRAME PSTACK, 0, STACK
        ARGFRAME XSTACK, 18, STACK
        ARGFRAME IOVERLAY, 0, STATIC
        ARGFRAME DOVERLAY, 0, STATIC
        FUNCALL bdb_reportCommissioningState, nwk_setStateIdle
        LOCFRAME ISTACK, 0, STACK
        LOCFRAME PSTACK, 0, STACK
        LOCFRAME XSTACK, 14, STACK
        LOCFRAME IOVERLAY, 0, STATIC
        LOCFRAME DOVERLAY, 0, STATIC
        ARGFRAME ISTACK, 0, STACK
        ARGFRAME PSTACK, 0, STACK
        ARGFRAME XSTACK, 14, STACK
        ARGFRAME IOVERLAY, 0, STATIC
        ARGFRAME DOVERLAY, 0, STATIC
        FUNCALL bdb_reportCommissioningState, ZDApp_ChangeState
        LOCFRAME ISTACK, 0, STACK
        LOCFRAME PSTACK, 0, STACK
        LOCFRAME XSTACK, 14, STACK
        LOCFRAME IOVERLAY, 0, STATIC
        LOCFRAME DOVERLAY, 0, STATIC
        ARGFRAME ISTACK, 0, STACK
        ARGFRAME PSTACK, 0, STACK
        ARGFRAME XSTACK, 14, STACK
        ARGFRAME IOVERLAY, 0, STATIC
        ARGFRAME DOVERLAY, 0, STATIC
        FUNCALL bdb_reportCommissioningState, osal_start_timerEx
        LOCFRAME ISTACK, 0, STACK
        LOCFRAME PSTACK, 0, STACK
        LOCFRAME XSTACK, 18, STACK
        LOCFRAME IOVERLAY, 0, STATIC
        LOCFRAME DOVERLAY, 0, STATIC
        ARGFRAME ISTACK, 0, STACK
        ARGFRAME PSTACK, 0, STACK
        ARGFRAME XSTACK, 18, STACK
        ARGFRAME IOVERLAY, 0, STATIC
        ARGFRAME DOVERLAY, 0, STATIC
        FUNCALL bdb_reportCommissioningState, NLME_SetPollRate
        LOCFRAME ISTACK, 0, STACK
        LOCFRAME PSTACK, 0, STACK
        LOCFRAME XSTACK, 14, STACK
        LOCFRAME IOVERLAY, 0, STATIC
        LOCFRAME DOVERLAY, 0, STATIC
        ARGFRAME ISTACK, 0, STACK
        ARGFRAME PSTACK, 0, STACK
        ARGFRAME XSTACK, 14, STACK
        ARGFRAME IOVERLAY, 0, STATIC
        ARGFRAME DOVERLAY, 0, STATIC
        FUNCALL bdb_reportCommissioningState, ZDApp_ChangeState
        LOCFRAME ISTACK, 0, STACK
        LOCFRAME PSTACK, 0, STACK
        LOCFRAME XSTACK, 14, STACK
        LOCFRAME IOVERLAY, 0, STATIC
        LOCFRAME DOVERLAY, 0, STATIC
        ARGFRAME ISTACK, 0, STACK
        ARGFRAME PSTACK, 0, STACK
        ARGFRAME XSTACK, 14, STACK
        ARGFRAME IOVERLAY, 0, STATIC
        ARGFRAME DOVERLAY, 0, STATIC
        FUNCALL bdb_reportCommissioningState, ZDApp_RestoreNwkSecMaterial
        LOCFRAME ISTACK, 0, STACK
        LOCFRAME PSTACK, 0, STACK
        LOCFRAME XSTACK, 14, STACK
        LOCFRAME IOVERLAY, 0, STATIC
        LOCFRAME DOVERLAY, 0, STATIC
        ARGFRAME ISTACK, 0, STACK
        ARGFRAME PSTACK, 0, STACK
        ARGFRAME XSTACK, 14, STACK
        ARGFRAME IOVERLAY, 0, STATIC
        ARGFRAME DOVERLAY, 0, STATIC
        FUNCALL bdb_reportCommissioningState, osal_start_timerEx
        LOCFRAME ISTACK, 0, STACK
        LOCFRAME PSTACK, 0, STACK
        LOCFRAME XSTACK, 18, STACK
        LOCFRAME IOVERLAY, 0, STATIC
        LOCFRAME DOVERLAY, 0, STATIC
        ARGFRAME ISTACK, 0, STACK
        ARGFRAME PSTACK, 0, STACK
        ARGFRAME XSTACK, 18, STACK
        ARGFRAME IOVERLAY, 0, STATIC
        ARGFRAME DOVERLAY, 0, STATIC
        FUNCALL bdb_reportCommissioningState, ZDApp_ChangeState
        LOCFRAME ISTACK, 0, STACK
        LOCFRAME PSTACK, 0, STACK
        LOCFRAME XSTACK, 14, STACK
        LOCFRAME IOVERLAY, 0, STATIC
        LOCFRAME DOVERLAY, 0, STATIC
        ARGFRAME ISTACK, 0, STACK
        ARGFRAME PSTACK, 0, STACK
        ARGFRAME XSTACK, 14, STACK
        ARGFRAME IOVERLAY, 0, STATIC
        ARGFRAME DOVERLAY, 0, STATIC
        FUNCALL bdb_reportCommissioningState, NLME_SetPollRate
        LOCFRAME ISTACK, 0, STACK
        LOCFRAME PSTACK, 0, STACK
        LOCFRAME XSTACK, 14, STACK
        LOCFRAME IOVERLAY, 0, STATIC
        LOCFRAME DOVERLAY, 0, STATIC
        ARGFRAME ISTACK, 0, STACK
        ARGFRAME PSTACK, 0, STACK
        ARGFRAME XSTACK, 14, STACK
        ARGFRAME IOVERLAY, 0, STATIC
        ARGFRAME DOVERLAY, 0, STATIC
        FUNCALL bdb_reportCommissioningState, ZDApp_ChangeState
        LOCFRAME ISTACK, 0, STACK
        LOCFRAME PSTACK, 0, STACK
        LOCFRAME XSTACK, 14, STACK
        LOCFRAME IOVERLAY, 0, STATIC
        LOCFRAME DOVERLAY, 0, STATIC
        ARGFRAME ISTACK, 0, STACK
        ARGFRAME PSTACK, 0, STACK
        ARGFRAME XSTACK, 14, STACK
        ARGFRAME IOVERLAY, 0, STATIC
        ARGFRAME DOVERLAY, 0, STATIC
        FUNCALL bdb_reportCommissioningState, bdb_NetworkRestoredResumeState
        LOCFRAME ISTACK, 0, STACK
        LOCFRAME PSTACK, 0, STACK
        LOCFRAME XSTACK, 14, STACK
        LOCFRAME IOVERLAY, 0, STATIC
        LOCFRAME DOVERLAY, 0, STATIC
        ARGFRAME ISTACK, 0, STACK
        ARGFRAME PSTACK, 0, STACK
        ARGFRAME XSTACK, 14, STACK
        ARGFRAME IOVERLAY, 0, STATIC
        ARGFRAME DOVERLAY, 0, STATIC
        FUNCALL bdb_reportCommissioningState, bdb_SendMsg
        LOCFRAME ISTACK, 0, STACK
        LOCFRAME PSTACK, 0, STACK
        LOCFRAME XSTACK, 16, STACK
        LOCFRAME IOVERLAY, 0, STATIC
        LOCFRAME DOVERLAY, 0, STATIC
        ARGFRAME ISTACK, 0, STACK
        ARGFRAME PSTACK, 0, STACK
        ARGFRAME XSTACK, 16, STACK
        ARGFRAME IOVERLAY, 0, STATIC
        ARGFRAME DOVERLAY, 0, STATIC
        REQUIRE ?V0
        REQUIRE ?V1
        MOV     A,#-0xa
        LCALL   ?BANKED_ENTER_XDATA
          CFI DPH0 load(1, XDATA, add(CFA_XSP16, literal(-1)))
          CFI DPL0 load(1, XDATA, add(CFA_XSP16, literal(-2)))
          CFI ?BRET_EXT load(1, XDATA, add(CFA_XSP16, literal(-3)))
          CFI ?RET_HIGH load(1, XDATA, add(CFA_XSP16, literal(-4)))
          CFI ?RET_LOW load(1, XDATA, add(CFA_XSP16, literal(-5)))
          CFI R7 load(1, XDATA, add(CFA_XSP16, literal(-6)))
          CFI V1 load(1, XDATA, add(CFA_XSP16, literal(-7)))
          CFI V0 load(1, XDATA, add(CFA_XSP16, literal(-8)))
          CFI VB load(1, XDATA, add(CFA_XSP16, literal(-9)))
          CFI R6 load(1, XDATA, add(CFA_XSP16, literal(-10)))
          CFI CFA_SP SP+0
          CFI CFA_XSP16 add(XSP16, 10)
        ; Saved register size: 10
        ; Auto size: 4
        MOV     A,#-0x4
        LCALL   ?ALLOC_XSTACK8
          CFI CFA_XSP16 add(XSP16, 14)
        MOV     A,R1
        MOV     R6,A
        MOV     A,R2
        MOV     R7,A
// 1161   bdbCommissioningModeMsg_t bdbCommissioningModeMsg;
// 1162   //Process only if we are in that state, or if we are on parent lost and processing F&B
// 1163   if((bdbCommissioningProcedureState.bdbCommissioningState == bdbCommissioningState)
// 1164      || ((bdbCommissioningProcedureState.bdbCommissioningState == BDB_PARENT_LOST) && (bdbCommissioningProcedureState.bdb_ParentLostSavedState == BDB_COMMISSIONING_STATE_FINDING_BINDING)))
        MOV     DPTR,#bdbCommissioningProcedureState
        MOVX    A,@DPTR
        XRL     A,R6
        JZ      ??bdb_reportCommissioningState_0
        MOVX    A,@DPTR
        XRL     A,#0x8
        JZ      $+5
        LJMP    ??bdb_reportCommissioningState_1 & 0xFFFF
        MOV     DPTR,#bdbCommissioningProcedureState + 3
        MOVX    A,@DPTR
        XRL     A,#0x6
        JZ      $+5
        LJMP    ??bdb_reportCommissioningState_1 & 0xFFFF
// 1165   {
// 1166     switch(bdbCommissioningState)
??bdb_reportCommissioningState_0:
        MOV     A,R6
        DEC     A
        JNZ     $+5
        LJMP    ??bdb_reportCommissioningState_2 & 0xFFFF
        DEC     A
        JNZ     $+5
        LJMP    ??bdb_reportCommissioningState_3 & 0xFFFF
        DEC     A
        JZ      ??bdb_reportCommissioningState_4
        DEC     A
        JNZ     $+5
        LJMP    ??bdb_reportCommissioningState_5 & 0xFFFF
        DEC     A
        JNZ     $+5
        LJMP    ??bdb_reportCommissioningState_6 & 0xFFFF
        DEC     A
        JNZ     $+5
        LJMP    ??bdb_reportCommissioningState_7 & 0xFFFF
        DEC     A
        JNZ     $+5
        LJMP    ??bdb_reportCommissioningState_8 & 0xFFFF
        DEC     A
        JNZ     $+5
        LJMP    ??bdb_reportCommissioningState_9 & 0xFFFF
        LJMP    ??bdb_reportCommissioningState_10 & 0xFFFF
// 1167     {
// 1168 #if (ZG_BUILD_JOINING_TYPE)
// 1169       case BDB_COMMISSIONING_STATE_JOINING:
// 1170         if(ZG_DEVICE_JOINING_TYPE)
??bdb_reportCommissioningState_4:
        MOV     DPTR,#zgDeviceLogicalType
        MOVX    A,@DPTR
        XRL     A,#0x1
        JZ      ??bdb_reportCommissioningState_11
        MOVX    A,@DPTR
        XRL     A,#0x2
        JZ      $+5
        LJMP    ??bdb_reportCommissioningState_10 & 0xFFFF
// 1171         {
// 1172           //Prepare for the next state or commissioning mode to be excecuted
// 1173           osal_start_timerEx(bdb_TaskID,BDB_CHANGE_COMMISSIONING_STATE,50);
??bdb_reportCommissioningState_11:
        ; Setup parameters for call to function osal_start_timerEx
        MOV     DPTR,#__Constant_32
        LCALL   ?PUSH_XSTACK8_X_FOUR
          CFI CFA_XSP16 add(XSP16, 18)
        MOV     R2,#0x4
        MOV     R3,#0x0
        MOV     DPTR,#bdb_TaskID
        MOVX    A,@DPTR
        MOV     R1,A
        LCALL   `??osal_start_timerEx::?relay`; Banked call to: osal_start_timerEx
        MOV     A,#0x4
        LCALL   ?DEALLOC_XSTACK8
          CFI CFA_XSP16 add(XSP16, 14)
// 1174 
// 1175           if(didSuccess)
        MOV     A,R7
        JZ      ??bdb_reportCommissioningState_12
// 1176           {
// 1177             //Next state is TC link key exchange
// 1178             bdbCommissioningProcedureState.bdbCommissioningState = BDB_COMMISSIONING_STATE_TC_LINK_KEY_EXCHANGE;
        MOV     DPTR,#bdbCommissioningProcedureState
        MOV     A,#0x1
        MOVX    @DPTR,A
        SJMP    ??bdb_reportCommissioningState_13
// 1179             //Free the list of nwk discovered
// 1180             while(pBDBListNwk)
// 1181             {
// 1182               bdb_nwkDescFree(pBDBListNwk);
??bdb_reportCommissioningState_14:
        ; Setup parameters for call to function bdb_nwkDescFree
        LCALL   ??Subroutine43_0 & 0xFFFF
// 1183             }
??CrossCallReturnLabel_104:
        LCALL   `??bdb_nwkDescFree::?relay`; Banked call to: bdb_nwkDescFree
??bdb_reportCommissioningState_13:
        MOV     DPTR,#pBDBListNwk
        LCALL   ??Subroutine39_0 & 0xFFFF
??CrossCallReturnLabel_74:
        JNZ     ??bdb_reportCommissioningState_14
// 1184             
// 1185             //Set the poll rate of the ZED joining device to 1 second to allow TCLK 
// 1186             //exchange be perfomed successfully in cases in which application has a 
// 1187             //slow pollrate
// 1188             NLME_SetPollRate(TCLK_POLL_RATE);
        ; Setup parameters for call to function NLME_SetPollRate
        MOV     DPTR,#__Constant_3e8
        LCALL   ?XLOAD_R2345
        LCALL   `??NLME_SetPollRate::?relay`; Banked call to: NLME_SetPollRate
// 1189             
// 1190             //No notification in this step
// 1191             return;
        LJMP    ??bdb_reportCommissioningState_1 & 0xFFFF
// 1192           } 
// 1193           else
// 1194           {
// 1195             uint8 temp = FALSE;
??bdb_reportCommissioningState_12:
        MOV     A,#0x3
        LCALL   ?XSTACK_DISP0_8
        CLR     A
        MOVX    @DPTR,A
// 1196             //If fail, then restore poll rate
// 1197             NLME_SetPollRate(POLL_RATE);
        ; Setup parameters for call to function NLME_SetPollRate
        MOV     DPTR,#__Constant_3e8
        LCALL   ?XLOAD_R2345
        LCALL   `??NLME_SetPollRate::?relay`; Banked call to: NLME_SetPollRate
// 1198             bdbAttributes.bdbCommissioningStatus = BDB_COMMISSIONING_NO_NETWORK;
        MOV     DPTR,#bdbAttributes + 10
        MOV     A,#0x2
        MOVX    @DPTR,A
// 1199             bdbCommissioningModeMsg.bdbCommissioningMode = BDB_COMMISSIONING_NWK_STEERING;
        DEC     A
        LCALL   ?XSTACK_DISP0_8
        MOV     A,#0x1
        LCALL   ?Subroutine22 & 0xFFFF
// 1200             bdbCommissioningProcedureState.bdbCommissioningState = BDB_COMMISSIONING_STATE_START_RESUME;
// 1201             bdbAttributes.bdbCommissioningMode &= ~BDB_COMMISSIONING_MODE_NWK_STEERING;
??CrossCallReturnLabel_35:
        MOV     DPTR,#bdbAttributes + 11
        MOVX    A,@DPTR
        CLR     0xE0 /* A   */.1
        MOVX    @DPTR,A
// 1202             
// 1203             //Turn off the radio
// 1204             ZMacSetReq(ZMacRxOnIdle, &temp);
        ; Setup parameters for call to function ZMacSetReq
        MOV     A,#0x3
        LCALL   ?XSTACK_DISP101_8
        MOV     R1,#0x52
        LCALL   `??ZMacSetReq::?relay`; Banked call to: ZMacSetReq
// 1205             //Set the device to FN, to start as new for subsequent attempts
// 1206             bdb_setFN();
        ; Setup parameters for call to function bdb_setFN
        LCALL   `??bdb_setFN::?relay`; Banked call to: bdb_setFN
// 1207             NLME_ResetRequest();
        ; Setup parameters for call to function NLME_ResetRequest
        LCALL   `??NLME_ResetRequest::?relay`; Banked call to: NLME_ResetRequest
// 1208             ZDApp_ChangeState( DEV_HOLD );
        ; Setup parameters for call to function ZDApp_ChangeState
        MOV     R1,#0x0
        LCALL   `??ZDApp_ChangeState::?relay`; Banked call to: ZDApp_ChangeState
// 1209             
// 1210             //Free the list of nwk discovered
// 1211             while(pBDBListNwk)
??bdb_reportCommissioningState_15:
        MOV     DPTR,#pBDBListNwk
        LCALL   ??Subroutine39_0 & 0xFFFF
??CrossCallReturnLabel_75:
        JNZ     $+5
        LJMP    ??bdb_reportCommissioningState_10 & 0xFFFF
// 1212             {
// 1213               bdb_nwkDescFree(pBDBListNwk);
        ; Setup parameters for call to function bdb_nwkDescFree
        LCALL   ??Subroutine43_0 & 0xFFFF
// 1214             }
// 1215           }
// 1216         }
??CrossCallReturnLabel_105:
        LCALL   `??bdb_nwkDescFree::?relay`; Banked call to: bdb_nwkDescFree
        SJMP    ??bdb_reportCommissioningState_15
// 1217       break;
// 1218 
// 1219       case BDB_COMMISSIONING_STATE_TC_LINK_KEY_EXCHANGE:
// 1220         if(ZG_DEVICE_JOINING_TYPE)
??bdb_reportCommissioningState_2:
        MOV     DPTR,#zgDeviceLogicalType
        MOVX    A,@DPTR
        XRL     A,#0x1
        JZ      ??bdb_reportCommissioningState_16
        MOVX    A,@DPTR
        XRL     A,#0x2
        JZ      $+5
        LJMP    ??bdb_reportCommissioningState_10 & 0xFFFF
// 1221         {
// 1222           if(didSuccess)
??bdb_reportCommissioningState_16:
        MOV     A,R7
        JZ      ??bdb_reportCommissioningState_17
// 1223           {
// 1224             //Next state is nwk steering on the nwk (permit joining)
// 1225             bdbCommissioningProcedureState.bdbCommissioningState = BDB_COMMISSIONING_STATE_STEERING_ON_NWK;
        MOV     DPTR,#bdbCommissioningProcedureState
        MOV     A,#0x4
        MOVX    @DPTR,A
// 1226             osal_start_timerEx(bdb_TaskID,BDB_CHANGE_COMMISSIONING_STATE, 50);
        ; Setup parameters for call to function osal_start_timerEx
        MOV     DPTR,#__Constant_32
        LCALL   ?PUSH_XSTACK8_X_FOUR
          CFI CFA_XSP16 add(XSP16, 18)
        MOV     R2,#0x4
        MOV     R3,#0x0
        MOV     DPTR,#bdb_TaskID
        MOVX    A,@DPTR
        MOV     R1,A
        LCALL   `??osal_start_timerEx::?relay`; Banked call to: osal_start_timerEx
        MOV     A,#0x4
        LCALL   ?DEALLOC_XSTACK8
          CFI CFA_XSP16 add(XSP16, 14)
// 1227             
// 1228             //Set the poll rate to the application default after TCLK success
// 1229             NLME_SetPollRate(POLL_RATE);
        ; Setup parameters for call to function NLME_SetPollRate
        MOV     DPTR,#__Constant_3e8
        LCALL   ?XLOAD_R2345
        LCALL   `??NLME_SetPollRate::?relay`; Banked call to: NLME_SetPollRate
// 1230 
// 1231             osal_stop_timerEx( bdb_TaskID, BDB_PROCESS_TIMEOUT );
        ; Setup parameters for call to function osal_stop_timerEx
        MOV     R2,#0x0
        MOV     R3,#0x10
        MOV     DPTR,#bdb_TaskID
        MOVX    A,@DPTR
        MOV     R1,A
        LCALL   `??osal_stop_timerEx::?relay`; Banked call to: osal_stop_timerEx
// 1232             //No notification to the user is needed
// 1233             return;
        LJMP    ??bdb_reportCommissioningState_1 & 0xFFFF
// 1234           }
// 1235           else
// 1236           {
// 1237             bdbCommissioningModeMsg.bdbCommissioningMode = BDB_COMMISSIONING_NWK_STEERING;
??bdb_reportCommissioningState_17:
        MOV     A,#0x1
        LCALL   ?XSTACK_DISP0_8
        MOV     A,#0x1
        MOVX    @DPTR,A
// 1238             bdbAttributes.bdbCommissioningStatus = BDB_COMMISSIONING_TCLK_EX_FAILURE;
        MOV     DPTR,#bdbAttributes + 10
        MOV     A,#0x7
        MOVX    @DPTR,A
// 1239             
// 1240             osal_stop_timerEx( bdb_TaskID, BDB_PROCESS_TIMEOUT);
        ; Setup parameters for call to function osal_stop_timerEx
        MOV     R2,#0x0
        MOV     R3,#0x10
        MOV     DPTR,#bdb_TaskID
        MOVX    A,@DPTR
        MOV     R1,A
        LCALL   `??osal_stop_timerEx::?relay`; Banked call to: osal_stop_timerEx
// 1241            
// 1242             //No process shall be attempted after this fail
// 1243             bdbAttributes.bdbCommissioningMode = 0;
        MOV     DPTR,#bdbAttributes + 11
        CLR     A
        MOVX    @DPTR,A
// 1244             
// 1245             //Fill the context for the user notification
// 1246             osal_start_timerEx(bdb_TaskID,BDB_TC_LINK_KEY_EXCHANGE_FAIL,BDB_TC_LINK_KEY_EXCHANGE_FAIL_LEAVE_TIMEOUT);
        ; Setup parameters for call to function osal_start_timerEx
        MOV     DPTR,#__Constant_1388
        LCALL   ?PUSH_XSTACK8_X_FOUR
          CFI CFA_XSP16 add(XSP16, 18)
        MOV     R2,#0x2
        MOV     R3,#0x0
        MOV     DPTR,#bdb_TaskID
        MOVX    A,@DPTR
        MOV     R1,A
        LCALL   `??osal_start_timerEx::?relay`; Banked call to: osal_start_timerEx
        MOV     A,#0x4
        LCALL   ?DEALLOC_XSTACK8
          CFI CFA_XSP16 add(XSP16, 14)
        LJMP    ??bdb_reportCommissioningState_10 & 0xFFFF
// 1247           }
// 1248         }
// 1249       break;
// 1250 #endif
// 1251       
// 1252       case BDB_COMMISSIONING_STATE_STEERING_ON_NWK:
// 1253         bdbCommissioningModeMsg.bdbCommissioningMode = BDB_COMMISSIONING_NWK_STEERING;
??bdb_reportCommissioningState_5:
        MOV     A,#0x1
        LCALL   ?XSTACK_DISP0_8
        MOV     A,#0x1
        MOVX    @DPTR,A
// 1254         if(didSuccess)
        MOV     A,R7
        JZ      ??bdb_reportCommissioningState_18
// 1255         {
// 1256           bdbAttributes.bdbCommissioningStatus = BDB_COMMISSIONING_SUCCESS;
        MOV     DPTR,#bdbAttributes + 10
        CLR     A
        MOVX    @DPTR,A
// 1257           
// 1258 #if (ZG_BUILD_RTR_TYPE)          
// 1259           //Update ZDApp state
// 1260           if(ZG_DEVICE_RTRONLY_TYPE)
// 1261           {          
// 1262             ZDApp_ChangeState( DEV_ROUTER );
// 1263           }
// 1264 #endif
// 1265 #if (ZG_BUILD_ENDDEVICE_TYPE)
// 1266           if(ZG_DEVICE_ENDDEVICE_TYPE)
// 1267           {
// 1268             ZDApp_ChangeState( DEV_END_DEVICE );
        ; Setup parameters for call to function ZDApp_ChangeState
        MOV     R1,#0x6
        LCALL   `??ZDApp_ChangeState::?relay`; Banked call to: ZDApp_ChangeState
// 1269           }
// 1270 #endif
// 1271         }
// 1272 #if (ZG_BUILD_COORDINATOR_TYPE)
// 1273         else
// 1274         {
// 1275           if(ZG_DEVICE_COORDINATOR_TYPE)
// 1276           {
// 1277             bdbAttributes.bdbCommissioningStatus = BDB_COMMISSIONING_NO_NETWORK;
// 1278           }
// 1279         }
// 1280 #endif
// 1281         
// 1282         bdbCommissioningProcedureState.bdbCommissioningState = BDB_COMMISSIONING_STATE_START_RESUME;
??bdb_reportCommissioningState_18:
        MOV     DPTR,#bdbCommissioningProcedureState
        CLR     A
        MOVX    @DPTR,A
// 1283         osal_start_timerEx(bdb_TaskID,BDB_CHANGE_COMMISSIONING_STATE,50);
        ; Setup parameters for call to function osal_start_timerEx
        MOV     DPTR,#__Constant_32
        LCALL   ?PUSH_XSTACK8_X_FOUR
          CFI CFA_XSP16 add(XSP16, 18)
        MOV     R2,#0x4
        MOV     R3,#0x0
        MOV     DPTR,#bdb_TaskID
        MOVX    A,@DPTR
        MOV     R1,A
        LCALL   `??osal_start_timerEx::?relay`; Banked call to: osal_start_timerEx
        MOV     A,#0x4
        LCALL   ?DEALLOC_XSTACK8
          CFI CFA_XSP16 add(XSP16, 14)
// 1284         bdbAttributes.bdbCommissioningMode &= ~BDB_COMMISSIONING_MODE_NWK_STEERING;
        MOV     DPTR,#bdbAttributes + 11
        MOVX    A,@DPTR
        CLR     0xE0 /* A   */.1
        LJMP    ??CrossCallReturnLabel_22 & 0xFFFF
// 1285       break;
// 1286       
// 1287       case BDB_COMMISSIONING_STATE_FORMATION:
// 1288         bdbCommissioningModeMsg.bdbCommissioningMode = BDB_COMMISSIONING_FORMATION;
??bdb_reportCommissioningState_6:
        MOV     A,#0x1
        LCALL   ?XSTACK_DISP0_8
        MOV     A,#0x2
        MOVX    @DPTR,A
// 1289 
// 1290         if(didSuccess)
        MOV     A,R7
        MOV     DPTR,#bdbAttributes + 10
        JZ      ??bdb_reportCommissioningState_19
// 1291         {
// 1292           bdbAttributes.bdbCommissioningStatus = BDB_COMMISSIONING_SUCCESS;
        CLR     A
        SJMP    ??bdb_reportCommissioningState_20
// 1293 
// 1294            //Update ZDApp State
// 1295 #if (ZG_BUILD_RTR_TYPE)
// 1296           if(ZG_DEVICE_RTRONLY_TYPE)
// 1297           {          
// 1298             ZDApp_ChangeState( DEV_ROUTER );
// 1299           }
// 1300 #endif    
// 1301 #if (ZG_BUILD_COORDINATOR_TYPE)
// 1302           if(ZG_DEVICE_COORDINATOR_TYPE)
// 1303           {          
// 1304             ZDApp_ChangeState( DEV_ZB_COORD );
// 1305           }     
// 1306 #endif
// 1307         }
// 1308         else
// 1309         {
// 1310           bdbAttributes.bdbCommissioningStatus = BDB_COMMISSIONING_FORMATION_FAILURE;
??bdb_reportCommissioningState_19:
        MOV     A,#0x8
// 1311           //If not on the nwk, then restart the nwk parameters
// 1312 #if (ZG_BUILD_RTR_TYPE)
// 1313           if(ZG_DEVICE_RTR_TYPE)
// 1314           {           
// 1315             if(!bdbAttributes.bdbNodeIsOnANetwork)
// 1316             {
// 1317               uint8 temp = FALSE;
// 1318               //Turn off the radio
// 1319               ZMacSetReq(ZMacRxOnIdle, &temp);
// 1320               //Set the device to FN, to start as new for subsequent attempts
// 1321               bdb_setFN();
// 1322               NLME_ResetRequest();
// 1323               ZDApp_ChangeState( DEV_HOLD );
// 1324             }
// 1325           }
// 1326 #endif
// 1327         }
??bdb_reportCommissioningState_20:
        LCALL   ?Subroutine22 & 0xFFFF
// 1328         bdbCommissioningProcedureState.bdbCommissioningState = BDB_COMMISSIONING_STATE_START_RESUME;
// 1329         osal_start_timerEx(bdb_TaskID,BDB_CHANGE_COMMISSIONING_STATE,50);
??CrossCallReturnLabel_36:
        ; Setup parameters for call to function osal_start_timerEx
        MOV     DPTR,#__Constant_32
        LCALL   ?PUSH_XSTACK8_X_FOUR
          CFI CFA_XSP16 add(XSP16, 18)
        MOV     R2,#0x4
        MOV     R3,#0x0
        MOV     DPTR,#bdb_TaskID
        MOVX    A,@DPTR
        MOV     R1,A
        LCALL   `??osal_start_timerEx::?relay`; Banked call to: osal_start_timerEx
        MOV     A,#0x4
        LCALL   ?DEALLOC_XSTACK8
          CFI CFA_XSP16 add(XSP16, 14)
// 1330         bdbAttributes.bdbCommissioningMode &= ~BDB_COMMISSIONING_MODE_NWK_FORMATION;
        MOV     DPTR,#bdbAttributes + 11
        MOVX    A,@DPTR
        CLR     0xE0 /* A   */.2
        LJMP    ??CrossCallReturnLabel_22 & 0xFFFF
// 1331       break;  
// 1332       
// 1333 
// 1334       case BDB_COMMISSIONING_STATE_FINDING_BINDING:
// 1335 #if (BDB_FINDING_BINDING_CAPABILITY_ENABLED==1) 
// 1336         bdbCommissioningModeMsg.bdbCommissioningMode = BDB_COMMISSIONING_FINDING_BINDING;
??bdb_reportCommissioningState_7:
        MOV     A,#0x1
        LCALL   ?XSTACK_DISP0_8
        MOV     A,#0x3
        MOVX    @DPTR,A
// 1337 
// 1338         //Do not notify the status if we have another identify to send
// 1339         if(bdbAttributes.bdbCommissioningStatus == BDB_COMMISSIONING_SUCCESS)
        MOV     DPTR,#bdbAttributes + 10
        MOVX    A,@DPTR
        JNZ     ??bdb_reportCommissioningState_21
// 1340         {
// 1341           //Success at least once during F&B as initiator, mark it
// 1342           bdb_FBStateSuccessLatch = TRUE;
        MOV     DPTR,#bdb_FBStateSuccessLatch
        MOV     A,#0x1
        MOVX    @DPTR,A
// 1343         }        
// 1344         
// 1345         //Will we process another indentify?
// 1346         if(((FINDING_AND_BINDING_PERIODIC_ENABLE == FALSE) || (bdb_FB_InitiatorCurrentCyclesNumber == 0)) && (bdb_getRespondentRetry(pRespondentHead) == NULL) && (osal_get_timeoutEx( bdb_TaskID, BDB_RESPONDENT_SIMPLEDESC_TIMEOUT) == 0))
??bdb_reportCommissioningState_21:
        MOV     DPTR,#bdb_FB_InitiatorCurrentCyclesNumber
        MOVX    A,@DPTR
        JZ      $+5
        LJMP    ??bdb_reportCommissioningState_1 & 0xFFFF
        ; Setup parameters for call to function bdb_getRespondentRetry
        MOV     DPTR,#pRespondentHead
        LCALL   ??Subroutine44_0 & 0xFFFF
??CrossCallReturnLabel_97:
        LCALL   `??bdb_getRespondentRetry::?relay`; Banked call to: bdb_getRespondentRetry
        MOV     ?V1,R3
        MOV     A,R2
        ORL     A,?V1
        JZ      $+5
        LJMP    ??bdb_reportCommissioningState_1 & 0xFFFF
        ; Setup parameters for call to function osal_get_timeoutEx
        MOV     R2,#0x0
        MOV     R3,#0x40
        MOV     DPTR,#bdb_TaskID
        MOVX    A,@DPTR
        MOV     R1,A
        LCALL   `??osal_get_timeoutEx::?relay`; Banked call to: osal_get_timeoutEx
        MOV     A,R2
        ORL     A,R3
        ORL     A,R4
        ORL     A,R5
        JZ      $+5
        LJMP    ??bdb_reportCommissioningState_1 & 0xFFFF
// 1347         {
// 1348           // Dealocate respondent list and clean all the F&B process
// 1349           pRespondentCurr = NULL;
        MOV     DPTR,#pRespondentCurr
        CLR     A
        MOVX    @DPTR,A
        INC     DPTR
        MOVX    @DPTR,A
// 1350           pRespondentNext = NULL;
        MOV     DPTR,#pRespondentNext
        MOVX    @DPTR,A
        INC     DPTR
        MOVX    @DPTR,A
// 1351           bdb_zclRespondentListClean( &pRespondentHead );
        ; Setup parameters for call to function bdb_zclRespondentListClean
        MOV     R2,#pRespondentHead & 0xff
        MOV     R3,#(pRespondentHead >> 8) & 0xff
        LCALL   `??bdb_zclRespondentListClean::?relay`; Banked call to: bdb_zclRespondentListClean
// 1352           osal_stop_timerEx( bdb_TaskID, BDB_RESPONDENT_SIMPLEDESC_TIMEOUT );
        ; Setup parameters for call to function osal_stop_timerEx
        MOV     R2,#0x0
        MOV     R3,#0x40
        MOV     DPTR,#bdb_TaskID
        MOVX    A,@DPTR
        MOV     R1,A
        LCALL   `??osal_stop_timerEx::?relay`; Banked call to: osal_stop_timerEx
// 1353           
// 1354           //Report success if in any of the attempts we got success, regardless that we did receive no rsp on the last attempt
// 1355           if(bdb_FBStateSuccessLatch && (bdbAttributes.bdbCommissioningStatus == BDB_COMMISSIONING_FB_NO_IDENTIFY_QUERY_RESPONSE))
        MOV     DPTR,#bdb_FBStateSuccessLatch
        MOVX    A,@DPTR
        JZ      ??bdb_reportCommissioningState_22
        MOV     DPTR,#bdbAttributes + 10
        MOVX    A,@DPTR
        XRL     A,#0xb
        JNZ     ??bdb_reportCommissioningState_22
// 1356           {
// 1357             bdbAttributes.bdbCommissioningStatus = BDB_COMMISSIONING_SUCCESS;
        CLR     A
        MOVX    @DPTR,A
// 1358           }
// 1359           
// 1360           //Set default state
// 1361           bdb_FBStateSuccessLatch = FALSE;
??bdb_reportCommissioningState_22:
        MOV     DPTR,#bdb_FBStateSuccessLatch
        CLR     A
        MOVX    @DPTR,A
// 1362           
// 1363           //Resume BDB machine state only if we were in F&B, if we were on parent lost, only clean the commissioning mode and remove from bdb_ParentLostSavedState
// 1364           if(bdbCommissioningProcedureState.bdbCommissioningState == BDB_COMMISSIONING_STATE_FINDING_BINDING)
        MOV     DPTR,#bdbCommissioningProcedureState
        MOVX    A,@DPTR
        XRL     A,#0x6
        JNZ     ??bdb_reportCommissioningState_23
// 1365           {
// 1366             bdbCommissioningProcedureState.bdbCommissioningState = BDB_COMMISSIONING_STATE_START_RESUME;
        CLR     A
        MOVX    @DPTR,A
// 1367             osal_start_timerEx(bdb_TaskID,BDB_CHANGE_COMMISSIONING_STATE,50); 
        ; Setup parameters for call to function osal_start_timerEx
        MOV     DPTR,#__Constant_32
        LCALL   ?PUSH_XSTACK8_X_FOUR
          CFI CFA_XSP16 add(XSP16, 18)
        MOV     R2,#0x4
        MOV     R3,#0x0
        MOV     DPTR,#bdb_TaskID
        MOVX    A,@DPTR
        MOV     R1,A
        LCALL   `??osal_start_timerEx::?relay`; Banked call to: osal_start_timerEx
        MOV     A,#0x4
        LCALL   ?DEALLOC_XSTACK8
          CFI CFA_XSP16 add(XSP16, 14)
        SJMP    ??bdb_reportCommissioningState_24
// 1368           }
// 1369           else if(bdbCommissioningProcedureState.bdb_ParentLostSavedState == BDB_COMMISSIONING_STATE_FINDING_BINDING)
??bdb_reportCommissioningState_23:
        MOV     DPTR,#bdbCommissioningProcedureState + 3
        MOVX    A,@DPTR
        XRL     A,#0x6
        JNZ     ??bdb_reportCommissioningState_24
// 1370           {
// 1371             bdbCommissioningProcedureState.bdb_ParentLostSavedState = BDB_COMMISSIONING_STATE_START_RESUME;
        CLR     A
        MOVX    @DPTR,A
// 1372           }
// 1373           
// 1374           bdbAttributes.bdbCommissioningMode &= ~BDB_COMMISSIONING_MODE_FINDING_BINDING;
??bdb_reportCommissioningState_24:
        MOV     DPTR,#bdbAttributes + 11
        MOVX    A,@DPTR
        CLR     0xE0 /* A   */.3
        LJMP    ??CrossCallReturnLabel_22 & 0xFFFF
// 1375         }
// 1376         else
// 1377         {
// 1378           return;
// 1379         }
// 1380 
// 1381 #endif
// 1382       break;     
// 1383       case BDB_COMMISSIONING_STATE_TL:
// 1384         // Set NWK task to run
// 1385         nwk_setStateIdle( FALSE );
??bdb_reportCommissioningState_3:
        ; Setup parameters for call to function nwk_setStateIdle
        MOV     R1,#0x0
        LCALL   `??nwk_setStateIdle::?relay`; Banked call to: nwk_setStateIdle
// 1386         bdbCommissioningModeMsg.bdbCommissioningMode = BDB_COMMISSIONING_TOUCHLINK;
        MOV     A,#0x1
        LCALL   ?XSTACK_DISP0_8
        MOV     A,#0x4
        MOVX    @DPTR,A
// 1387         if(didSuccess)
        MOV     A,R7
        JZ      ??bdb_reportCommissioningState_25
// 1388         {
// 1389           bdbAttributes.bdbCommissioningStatus = BDB_COMMISSIONING_SUCCESS;
        MOV     DPTR,#bdbAttributes + 10
        CLR     A
        MOVX    @DPTR,A
// 1390           bdbAttributes.bdbCommissioningMode = BDB_COMMISSIONING_MODE_IDDLE;
        INC     DPTR
        MOVX    @DPTR,A
// 1391           
// 1392           //Update ZDApp state
// 1393 #if (ZG_BUILD_RTR_TYPE)
// 1394           if(ZG_DEVICE_RTRONLY_TYPE)
// 1395           {          
// 1396             ZDApp_ChangeState( DEV_ROUTER );
// 1397           }
// 1398 #endif
// 1399 #if (ZG_BUILD_ENDDEVICE_TYPE)
// 1400           if(ZG_DEVICE_ENDDEVICE_TYPE)
// 1401           {
// 1402             ZDApp_ChangeState( DEV_END_DEVICE );
        ; Setup parameters for call to function ZDApp_ChangeState
        MOV     R1,#0x6
        LCALL   `??ZDApp_ChangeState::?relay`; Banked call to: ZDApp_ChangeState
// 1403           }
// 1404 #endif          
// 1405         }
// 1406         //The fail status is already set from the calling function to report commissioning process
// 1407         
// 1408         // The commissioning FAIL status is set before calling the bdb_reportCommissioningState
// 1409         bdbCommissioningProcedureState.bdbCommissioningState = BDB_COMMISSIONING_STATE_START_RESUME;
??bdb_reportCommissioningState_25:
        MOV     DPTR,#bdbCommissioningProcedureState
        CLR     A
        MOVX    @DPTR,A
// 1410         osal_start_timerEx(bdb_TaskID,BDB_CHANGE_COMMISSIONING_STATE,50); 
        ; Setup parameters for call to function osal_start_timerEx
        MOV     DPTR,#__Constant_32
        LCALL   ?PUSH_XSTACK8_X_FOUR
          CFI CFA_XSP16 add(XSP16, 18)
        MOV     R2,#0x4
        MOV     R3,#0x0
        MOV     DPTR,#bdb_TaskID
        MOVX    A,@DPTR
        MOV     R1,A
        LCALL   `??osal_start_timerEx::?relay`; Banked call to: osal_start_timerEx
        MOV     A,#0x4
        LCALL   ?DEALLOC_XSTACK8
          CFI CFA_XSP16 add(XSP16, 14)
// 1411         //Clear the event
// 1412         bdbAttributes.bdbCommissioningMode &= ~BDB_COMMISSIONING_MODE_INITIATOR_TL;
        MOV     DPTR,#bdbAttributes + 11
        MOVX    A,@DPTR
        CLR     0xE0 /* A   */.0
        LJMP    ??CrossCallReturnLabel_22 & 0xFFFF
// 1413         
// 1414       break;
// 1415       
// 1416       case BDB_INITIALIZATION:
// 1417         //Notify user about successfull initialization
// 1418         bdbCommissioningModeMsg.bdbCommissioningMode = BDB_COMMISSIONING_INITIALIZATION;
??bdb_reportCommissioningState_8:
        MOV     A,#0x1
        LCALL   ?XSTACK_DISP0_8
        CLR     A
        MOVX    @DPTR,A
// 1419         if(didSuccess)
        MOV     A,R7
        JZ      ??bdb_reportCommissioningState_26
// 1420         {
// 1421           //Update ZDApp state
// 1422 #if (ZG_BUILD_COORDINATOR_TYPE)
// 1423           if(ZG_DEVICE_COORDINATOR_TYPE)
// 1424           {          
// 1425             ZDApp_ChangeState( DEV_ZB_COORD );
// 1426           }
// 1427 #endif          
// 1428 #if (ZG_BUILD_ENDDEVICE_TYPE)
// 1429           if(ZG_DEVICE_ENDDEVICE_TYPE)
// 1430           {
// 1431             uint32 pollrate = POLL_RATE;
// 1432             NLME_SetPollRate(pollrate);
        ; Setup parameters for call to function NLME_SetPollRate
        MOV     DPTR,#__Constant_3e8
        LCALL   ?XLOAD_R2345
        LCALL   `??NLME_SetPollRate::?relay`; Banked call to: NLME_SetPollRate
// 1433             ZDApp_ChangeState( DEV_END_DEVICE );
        ; Setup parameters for call to function ZDApp_ChangeState
        MOV     R1,#0x6
        LCALL   `??ZDApp_ChangeState::?relay`; Banked call to: ZDApp_ChangeState
// 1434             
// 1435           }
// 1436 #endif          
// 1437           ZDApp_RestoreNwkSecMaterial();
        ; Setup parameters for call to function ZDApp_RestoreNwkSecMaterial
        LCALL   `??ZDApp_RestoreNwkSecMaterial::?relay`; Banked call to: ZDApp_RestoreNwkSecMaterial
// 1438           bdbAttributes.bdbCommissioningStatus = BDB_COMMISSIONING_NETWORK_RESTORED;
        MOV     DPTR,#bdbAttributes + 10
        MOV     A,#0xd
        LCALL   ?Subroutine22 & 0xFFFF
// 1439           bdbCommissioningProcedureState.bdbCommissioningState = BDB_COMMISSIONING_STATE_START_RESUME;
// 1440           osal_start_timerEx(bdb_TaskID,BDB_CHANGE_COMMISSIONING_STATE,200);
??CrossCallReturnLabel_37:
        ; Setup parameters for call to function osal_start_timerEx
        MOV     DPTR,#__Constant_c8
        LCALL   ?PUSH_XSTACK8_X_FOUR
          CFI CFA_XSP16 add(XSP16, 18)
        MOV     R2,#0x4
        MOV     R3,#0x0
        MOV     DPTR,#bdb_TaskID
        MOVX    A,@DPTR
        MOV     R1,A
        LCALL   `??osal_start_timerEx::?relay`; Banked call to: osal_start_timerEx
        MOV     A,#0x4
        LCALL   ?DEALLOC_XSTACK8
          CFI CFA_XSP16 add(XSP16, 14)
        SJMP    ??bdb_reportCommissioningState_27
// 1441         }
// 1442 #if (ZG_BUILD_ENDDEVICE_TYPE)         
// 1443         //Notify the user about losing parent
// 1444         else
// 1445         {
// 1446           if(ZG_DEVICE_ENDDEVICE_TYPE)
// 1447           {
// 1448             bdbCommissioningModeMsg.bdbCommissioningMode = BDB_COMMISSIONING_PARENT_LOST;
??bdb_reportCommissioningState_26:
        MOV     A,#0x5
        MOVX    @DPTR,A
// 1449             bdbAttributes.bdbCommissioningMode |= BDB_COMMISSIONING_MODE_PARENT_LOST;
        LCALL   ?Subroutine15 & 0xFFFF
// 1450             bdbAttributes.bdbCommissioningStatus = BDB_COMMISSIONING_NO_NETWORK;
??CrossCallReturnLabel_21:
        MOVX    @DPTR,A
// 1451             
// 1452             //Update ZDApp state
// 1453             ZDApp_ChangeState( DEV_NWK_ORPHAN );
        ; Setup parameters for call to function ZDApp_ChangeState
        MOV     R1,#0xa
        LCALL   `??ZDApp_ChangeState::?relay`; Banked call to: ZDApp_ChangeState
// 1454           }
// 1455         }
// 1456 #endif
// 1457         //Clear the commissioning mode
// 1458         bdbAttributes.bdbCommissioningMode &= ~BDB_COMMISSIONING_MODE_INITIALIZATION;
??bdb_reportCommissioningState_27:
        MOV     DPTR,#bdbAttributes + 11
        MOVX    A,@DPTR
        CLR     0xE0 /* A   */.4
        SJMP    ??CrossCallReturnLabel_22
// 1459         
// 1460       break;
// 1461 #if (ZG_BUILD_ENDDEVICE_TYPE)     
// 1462       case BDB_PARENT_LOST:
// 1463         bdbCommissioningModeMsg.bdbCommissioningMode = BDB_COMMISSIONING_PARENT_LOST;
??bdb_reportCommissioningState_9:
        MOV     A,#0x1
        LCALL   ?XSTACK_DISP0_8
        MOV     A,#0x5
        MOVX    @DPTR,A
// 1464         if(ZG_DEVICE_ENDDEVICE_TYPE)
// 1465         {
// 1466           if(didSuccess)
        MOV     A,R7
        JZ      ??bdb_reportCommissioningState_28
// 1467           {
// 1468             uint32 pollrate = POLL_RATE;
// 1469             bdbCommissioningProcedureState.bdbCommissioningState = bdbCommissioningProcedureState.bdb_ParentLostSavedState;  
        MOV     DPTR,#bdbCommissioningProcedureState + 3
        MOVX    A,@DPTR
        MOV     DPTR,#bdbCommissioningProcedureState
        MOVX    @DPTR,A
// 1470             bdbCommissioningProcedureState.bdb_ParentLostSavedState = 0;
        MOV     DPTR,#bdbCommissioningProcedureState + 3
        CLR     A
        MOVX    @DPTR,A
// 1471             NLME_SetPollRate(pollrate);
        ; Setup parameters for call to function NLME_SetPollRate
        MOV     DPTR,#__Constant_3e8
        LCALL   ?XLOAD_R2345
        LCALL   `??NLME_SetPollRate::?relay`; Banked call to: NLME_SetPollRate
// 1472             bdbAttributes.bdbCommissioningMode &= ~BDB_COMMISSIONING_MODE_PARENT_LOST;
        MOV     DPTR,#bdbAttributes + 11
        MOVX    A,@DPTR
        CLR     0xE0 /* A   */.5
        MOVX    @DPTR,A
// 1473             bdbAttributes.bdbCommissioningStatus = BDB_COMMISSIONING_NETWORK_RESTORED;
        MOV     DPTR,#bdbAttributes + 10
        MOV     A,#0xd
        MOVX    @DPTR,A
// 1474             //Update ZDApp state
// 1475             ZDApp_ChangeState( DEV_END_DEVICE );
        ; Setup parameters for call to function ZDApp_ChangeState
        MOV     R1,#0x6
        LCALL   `??ZDApp_ChangeState::?relay`; Banked call to: ZDApp_ChangeState
// 1476             
// 1477             bdb_NetworkRestoredResumeState();
        ; Setup parameters for call to function bdb_NetworkRestoredResumeState
        LCALL   `??bdb_NetworkRestoredResumeState::?relay`; Banked call to: bdb_NetworkRestoredResumeState
        SJMP    ??bdb_reportCommissioningState_10
// 1478           }
// 1479           else
// 1480           {
// 1481             bdbAttributes.bdbCommissioningMode |= BDB_COMMISSIONING_MODE_PARENT_LOST;
??bdb_reportCommissioningState_28:
        LCALL   ?Subroutine15 & 0xFFFF
// 1482             bdbAttributes.bdbCommissioningStatus = BDB_COMMISSIONING_NO_NETWORK;
// 1483           }
// 1484         }
// 1485       break;
// 1486 #endif
// 1487     }
??CrossCallReturnLabel_22:
        MOVX    @DPTR,A
// 1488 #ifdef MT_APP_CNF_FUNC
// 1489     //Notify the user about the status, the main state which has failed
// 1490     bdbCommissioningModeMsg.bdbCommissioningStatus = bdbAttributes.bdbCommissioningStatus;
// 1491     
// 1492     bdb_NotifyApp((uint8*)&bdbCommissioningModeMsg);
// 1493 #else
// 1494     if(pfnCommissioningStatusCB)
??bdb_reportCommissioningState_10:
        MOV     DPTR,#pfnCommissioningStatusCB
        LCALL   ??Subroutine39_0 & 0xFFFF
??CrossCallReturnLabel_76:
        JZ      ??bdb_reportCommissioningState_1
// 1495     {
// 1496       //Notify the user about the status, the main state which has failed
// 1497       bdbCommissioningModeMsg.bdbCommissioningStatus = bdbAttributes.bdbCommissioningStatus;
        MOV     DPTR,#bdbAttributes + 10
        MOVX    A,@DPTR
        MOV     DPL,?XSP + 0
        MOV     DPH,?XSP + 1
        LCALL   ?Subroutine17 & 0xFFFF
// 1498       
// 1499       bdb_NotifyApp((uint8*)&bdbCommissioningModeMsg);
// 1500     }
// 1501 #endif
// 1502   }  
??CrossCallReturnLabel_26:
        LCALL   ?PUSH_XSTACK_I_TWO
          CFI CFA_XSP16 add(XSP16, 16)
        MOV     R4,#0x3
        MOV     R3,#0x0
        MOV     R2,#0xa
        MOV     DPTR,#bdb_TaskID
        MOVX    A,@DPTR
        MOV     R1,A
        LCALL   `??bdb_SendMsg::?relay`; Banked call to: bdb_SendMsg
        MOV     A,#0x2
        LCALL   ?DEALLOC_XSTACK8
          CFI CFA_XSP16 add(XSP16, 14)
// 1503 }
??bdb_reportCommissioningState_1:
        MOV     A,#0x4
        LJMP    ??Subroutine40_0 & 0xFFFF
          CFI EndBlock cfiBlock23

        RSEG BANKED_CODE:CODE:NOROOT(0)
?Subroutine22:
          CFI Block cfiCond24 Using cfiCommon0
          CFI Function bdb_reportCommissioningState
          CFI Conditional ??CrossCallReturnLabel_35
          CFI R6 load(1, XDATA, add(CFA_XSP16, literal(-10)))
          CFI VB load(1, XDATA, add(CFA_XSP16, literal(-9)))
          CFI V0 load(1, XDATA, add(CFA_XSP16, literal(-8)))
          CFI V1 load(1, XDATA, add(CFA_XSP16, literal(-7)))
          CFI R7 load(1, XDATA, add(CFA_XSP16, literal(-6)))
          CFI ?RET_LOW load(1, XDATA, add(CFA_XSP16, literal(-5)))
          CFI ?RET_HIGH load(1, XDATA, add(CFA_XSP16, literal(-4)))
          CFI ?BRET_EXT load(1, XDATA, add(CFA_XSP16, literal(-3)))
          CFI DPL0 load(1, XDATA, add(CFA_XSP16, literal(-2)))
          CFI DPH0 load(1, XDATA, add(CFA_XSP16, literal(-1)))
          CFI CFA_SP SP+-2
          CFI CFA_XSP16 add(XSP16, 14)
          CFI Block cfiCond25 Using cfiCommon0
          CFI (cfiCond25) Function bdb_reportCommissioningState
          CFI (cfiCond25) Conditional ??CrossCallReturnLabel_36
          CFI (cfiCond25) R6 load(1, XDATA, add(CFA_XSP16, literal(-10)))
          CFI (cfiCond25) VB load(1, XDATA, add(CFA_XSP16, literal(-9)))
          CFI (cfiCond25) V0 load(1, XDATA, add(CFA_XSP16, literal(-8)))
          CFI (cfiCond25) V1 load(1, XDATA, add(CFA_XSP16, literal(-7)))
          CFI (cfiCond25) R7 load(1, XDATA, add(CFA_XSP16, literal(-6)))
          CFI (cfiCond25) ?RET_LOW load(1, XDATA, add(CFA_XSP16, literal(-5)))
          CFI (cfiCond25) ?RET_HIGH load(1, XDATA, add(CFA_XSP16, literal(-4)))
          CFI (cfiCond25) ?BRET_EXT load(1, XDATA, add(CFA_XSP16, literal(-3)))
          CFI (cfiCond25) DPL0 load(1, XDATA, add(CFA_XSP16, literal(-2)))
          CFI (cfiCond25) DPH0 load(1, XDATA, add(CFA_XSP16, literal(-1)))
          CFI (cfiCond25) CFA_SP SP+-2
          CFI (cfiCond25) CFA_XSP16 add(XSP16, 14)
          CFI Block cfiCond26 Using cfiCommon0
          CFI (cfiCond26) Function bdb_reportCommissioningState
          CFI (cfiCond26) Conditional ??CrossCallReturnLabel_37
          CFI (cfiCond26) R6 load(1, XDATA, add(CFA_XSP16, literal(-10)))
          CFI (cfiCond26) VB load(1, XDATA, add(CFA_XSP16, literal(-9)))
          CFI (cfiCond26) V0 load(1, XDATA, add(CFA_XSP16, literal(-8)))
          CFI (cfiCond26) V1 load(1, XDATA, add(CFA_XSP16, literal(-7)))
          CFI (cfiCond26) R7 load(1, XDATA, add(CFA_XSP16, literal(-6)))
          CFI (cfiCond26) ?RET_LOW load(1, XDATA, add(CFA_XSP16, literal(-5)))
          CFI (cfiCond26) ?RET_HIGH load(1, XDATA, add(CFA_XSP16, literal(-4)))
          CFI (cfiCond26) ?BRET_EXT load(1, XDATA, add(CFA_XSP16, literal(-3)))
          CFI (cfiCond26) DPL0 load(1, XDATA, add(CFA_XSP16, literal(-2)))
          CFI (cfiCond26) DPH0 load(1, XDATA, add(CFA_XSP16, literal(-1)))
          CFI (cfiCond26) CFA_SP SP+-2
          CFI (cfiCond26) CFA_XSP16 add(XSP16, 14)
          CFI Block cfiPicker27 Using cfiCommon1
          CFI (cfiPicker27) NoFunction
          CFI (cfiPicker27) Picker
        MOVX    @DPTR,A
        MOV     DPTR,#bdbCommissioningProcedureState
        CLR     A
        MOVX    @DPTR,A
        RET
          CFI EndBlock cfiCond24
          CFI EndBlock cfiCond25
          CFI EndBlock cfiCond26
          CFI EndBlock cfiPicker27

        RSEG BANKED_CODE:CODE:NOROOT(0)
?Subroutine17:
          CFI Block cfiCond28 Using cfiCommon0
          CFI Function bdb_NotifyCommissioningModeStart
          CFI Conditional ??CrossCallReturnLabel_25
          CFI R6 load(1, XDATA, add(CFA_XSP16, literal(-10)))
          CFI VB load(1, XDATA, add(CFA_XSP16, literal(-9)))
          CFI V0 load(1, XDATA, add(CFA_XSP16, literal(-8)))
          CFI V1 load(1, XDATA, add(CFA_XSP16, literal(-7)))
          CFI R7 load(1, XDATA, add(CFA_XSP16, literal(-6)))
          CFI ?RET_LOW load(1, XDATA, add(CFA_XSP16, literal(-5)))
          CFI ?RET_HIGH load(1, XDATA, add(CFA_XSP16, literal(-4)))
          CFI ?BRET_EXT load(1, XDATA, add(CFA_XSP16, literal(-3)))
          CFI DPL0 load(1, XDATA, add(CFA_XSP16, literal(-2)))
          CFI DPH0 load(1, XDATA, add(CFA_XSP16, literal(-1)))
          CFI CFA_SP SP+-2
          CFI CFA_XSP16 add(XSP16, 13)
          CFI Block cfiCond29 Using cfiCommon0
          CFI (cfiCond29) Function bdb_reportCommissioningState
          CFI (cfiCond29) Conditional ??CrossCallReturnLabel_26
          CFI (cfiCond29) R6 load(1, XDATA, add(CFA_XSP16, literal(-10)))
          CFI (cfiCond29) VB load(1, XDATA, add(CFA_XSP16, literal(-9)))
          CFI (cfiCond29) V0 load(1, XDATA, add(CFA_XSP16, literal(-8)))
          CFI (cfiCond29) V1 load(1, XDATA, add(CFA_XSP16, literal(-7)))
          CFI (cfiCond29) R7 load(1, XDATA, add(CFA_XSP16, literal(-6)))
          CFI (cfiCond29) ?RET_LOW load(1, XDATA, add(CFA_XSP16, literal(-5)))
          CFI (cfiCond29) ?RET_HIGH load(1, XDATA, add(CFA_XSP16, literal(-4)))
          CFI (cfiCond29) ?BRET_EXT load(1, XDATA, add(CFA_XSP16, literal(-3)))
          CFI (cfiCond29) DPL0 load(1, XDATA, add(CFA_XSP16, literal(-2)))
          CFI (cfiCond29) DPH0 load(1, XDATA, add(CFA_XSP16, literal(-1)))
          CFI (cfiCond29) CFA_SP SP+-2
          CFI (cfiCond29) CFA_XSP16 add(XSP16, 14)
          CFI Block cfiCond30 Using cfiCommon0
          CFI (cfiCond30) Function bdb_startResumeCommissioningProcess
          CFI (cfiCond30) Conditional ??CrossCallReturnLabel_27
          CFI (cfiCond30) R6 load(1, XDATA, add(CFA_XSP16, literal(-10)))
          CFI (cfiCond30) VB load(1, XDATA, add(CFA_XSP16, literal(-9)))
          CFI (cfiCond30) V0 load(1, XDATA, add(CFA_XSP16, literal(-8)))
          CFI (cfiCond30) V1 load(1, XDATA, add(CFA_XSP16, literal(-7)))
          CFI (cfiCond30) R7 load(1, XDATA, add(CFA_XSP16, literal(-6)))
          CFI (cfiCond30) ?RET_LOW load(1, XDATA, add(CFA_XSP16, literal(-5)))
          CFI (cfiCond30) ?RET_HIGH load(1, XDATA, add(CFA_XSP16, literal(-4)))
          CFI (cfiCond30) ?BRET_EXT load(1, XDATA, add(CFA_XSP16, literal(-3)))
          CFI (cfiCond30) DPL0 load(1, XDATA, add(CFA_XSP16, literal(-2)))
          CFI (cfiCond30) DPH0 load(1, XDATA, add(CFA_XSP16, literal(-1)))
          CFI (cfiCond30) CFA_SP SP+-2
          CFI (cfiCond30) CFA_XSP16 add(XSP16, 21)
          CFI Block cfiCond31 Using cfiCommon0
          CFI (cfiCond31) Function bdb_startResumeCommissioningProcess
          CFI (cfiCond31) Conditional ??CrossCallReturnLabel_28
          CFI (cfiCond31) R6 load(1, XDATA, add(CFA_XSP16, literal(-10)))
          CFI (cfiCond31) VB load(1, XDATA, add(CFA_XSP16, literal(-9)))
          CFI (cfiCond31) V0 load(1, XDATA, add(CFA_XSP16, literal(-8)))
          CFI (cfiCond31) V1 load(1, XDATA, add(CFA_XSP16, literal(-7)))
          CFI (cfiCond31) R7 load(1, XDATA, add(CFA_XSP16, literal(-6)))
          CFI (cfiCond31) ?RET_LOW load(1, XDATA, add(CFA_XSP16, literal(-5)))
          CFI (cfiCond31) ?RET_HIGH load(1, XDATA, add(CFA_XSP16, literal(-4)))
          CFI (cfiCond31) ?BRET_EXT load(1, XDATA, add(CFA_XSP16, literal(-3)))
          CFI (cfiCond31) DPL0 load(1, XDATA, add(CFA_XSP16, literal(-2)))
          CFI (cfiCond31) DPH0 load(1, XDATA, add(CFA_XSP16, literal(-1)))
          CFI (cfiCond31) CFA_SP SP+-2
          CFI (cfiCond31) CFA_XSP16 add(XSP16, 21)
          CFI Block cfiPicker32 Using cfiCommon1
          CFI (cfiPicker32) NoFunction
          CFI (cfiPicker32) Picker
        MOVX    @DPTR,A
        ; Setup parameters for call to function bdb_SendMsg
        ; Setup parameters for call to function bdb_SendMsg
        ; Setup parameters for call to function bdb_SendMsg
        ; Setup parameters for call to function bdb_SendMsg
        MOV     R0,?XSP + 0
        MOV     R1,?XSP + 1
        MOV     ?V0,R0
        MOV     ?V1,R1
        MOV     R0,#?V0
        RET
          CFI EndBlock cfiCond28
          CFI EndBlock cfiCond29
          CFI EndBlock cfiCond30
          CFI EndBlock cfiCond31
          CFI EndBlock cfiPicker32

        RSEG BANKED_CODE:CODE:NOROOT(0)
?Subroutine15:
          CFI Block cfiCond33 Using cfiCommon0
          CFI Function bdb_reportCommissioningState
          CFI Conditional ??CrossCallReturnLabel_21
          CFI R6 load(1, XDATA, add(CFA_XSP16, literal(-10)))
          CFI VB load(1, XDATA, add(CFA_XSP16, literal(-9)))
          CFI V0 load(1, XDATA, add(CFA_XSP16, literal(-8)))
          CFI V1 load(1, XDATA, add(CFA_XSP16, literal(-7)))
          CFI R7 load(1, XDATA, add(CFA_XSP16, literal(-6)))
          CFI ?RET_LOW load(1, XDATA, add(CFA_XSP16, literal(-5)))
          CFI ?RET_HIGH load(1, XDATA, add(CFA_XSP16, literal(-4)))
          CFI ?BRET_EXT load(1, XDATA, add(CFA_XSP16, literal(-3)))
          CFI DPL0 load(1, XDATA, add(CFA_XSP16, literal(-2)))
          CFI DPH0 load(1, XDATA, add(CFA_XSP16, literal(-1)))
          CFI CFA_SP SP+-2
          CFI CFA_XSP16 add(XSP16, 14)
          CFI Block cfiCond34 Using cfiCommon0
          CFI (cfiCond34) Function bdb_reportCommissioningState
          CFI (cfiCond34) Conditional ??CrossCallReturnLabel_22
          CFI (cfiCond34) R6 load(1, XDATA, add(CFA_XSP16, literal(-10)))
          CFI (cfiCond34) VB load(1, XDATA, add(CFA_XSP16, literal(-9)))
          CFI (cfiCond34) V0 load(1, XDATA, add(CFA_XSP16, literal(-8)))
          CFI (cfiCond34) V1 load(1, XDATA, add(CFA_XSP16, literal(-7)))
          CFI (cfiCond34) R7 load(1, XDATA, add(CFA_XSP16, literal(-6)))
          CFI (cfiCond34) ?RET_LOW load(1, XDATA, add(CFA_XSP16, literal(-5)))
          CFI (cfiCond34) ?RET_HIGH load(1, XDATA, add(CFA_XSP16, literal(-4)))
          CFI (cfiCond34) ?BRET_EXT load(1, XDATA, add(CFA_XSP16, literal(-3)))
          CFI (cfiCond34) DPL0 load(1, XDATA, add(CFA_XSP16, literal(-2)))
          CFI (cfiCond34) DPH0 load(1, XDATA, add(CFA_XSP16, literal(-1)))
          CFI (cfiCond34) CFA_SP SP+-2
          CFI (cfiCond34) CFA_XSP16 add(XSP16, 14)
          CFI Block cfiPicker35 Using cfiCommon1
          CFI (cfiPicker35) NoFunction
          CFI (cfiPicker35) Picker
        MOV     DPTR,#bdbAttributes + 11
        MOVX    A,@DPTR
        SETB    0xE0 /* A   */.5
        MOVX    @DPTR,A
        MOV     DPTR,#bdbAttributes + 10
        MOV     A,#0x2
        RET
          CFI EndBlock cfiCond33
          CFI EndBlock cfiCond34
          CFI EndBlock cfiPicker35
// 1504 
// 1505 
// 1506  /*********************************************************************
// 1507  * @fn          bdb_nwkFormationAttempt
// 1508  *
// 1509  * @brief       Process a nwk formation attempt.
// 1510  *
// 1511  * @param       didSuccess - TRUE if the nwk formation was success, FALSE 
// 1512  *                         otherwise and try secondary channel
// 1513  *
// 1514  * @return      none
// 1515  */

        RSEG BANKED_CODE:CODE:NOROOT(0)
// 1516 void bdb_nwkFormationAttempt(bool didSuccess)
bdb_nwkFormationAttempt:
          CFI Block cfiBlock36 Using cfiCommon0
          CFI Function bdb_nwkFormationAttempt
        CODE
// 1517 {
        FUNCALL bdb_nwkFormationAttempt, bdb_reportCommissioningState
        LOCFRAME ISTACK, 0, STACK
        LOCFRAME PSTACK, 0, STACK
        LOCFRAME XSTACK, 9, STACK
        LOCFRAME IOVERLAY, 0, STATIC
        LOCFRAME DOVERLAY, 0, STATIC
        ARGFRAME ISTACK, 0, STACK
        ARGFRAME PSTACK, 0, STACK
        ARGFRAME XSTACK, 9, STACK
        ARGFRAME IOVERLAY, 0, STATIC
        ARGFRAME DOVERLAY, 0, STATIC
        FUNCALL bdb_nwkFormationAttempt, bdb_nwkJoiningFormation
        LOCFRAME ISTACK, 0, STACK
        LOCFRAME PSTACK, 0, STACK
        LOCFRAME XSTACK, 9, STACK
        LOCFRAME IOVERLAY, 0, STATIC
        LOCFRAME DOVERLAY, 0, STATIC
        ARGFRAME ISTACK, 0, STACK
        ARGFRAME PSTACK, 0, STACK
        ARGFRAME XSTACK, 9, STACK
        ARGFRAME IOVERLAY, 0, STATIC
        ARGFRAME DOVERLAY, 0, STATIC
        FUNCALL bdb_nwkFormationAttempt, bdb_reportCommissioningState
        LOCFRAME ISTACK, 0, STACK
        LOCFRAME PSTACK, 0, STACK
        LOCFRAME XSTACK, 9, STACK
        LOCFRAME IOVERLAY, 0, STATIC
        LOCFRAME DOVERLAY, 0, STATIC
        ARGFRAME ISTACK, 0, STACK
        ARGFRAME PSTACK, 0, STACK
        ARGFRAME XSTACK, 9, STACK
        ARGFRAME IOVERLAY, 0, STATIC
        ARGFRAME DOVERLAY, 0, STATIC
        MOV     A,#-0x9
        LCALL   ?BANKED_ENTER_XDATA
          CFI DPH0 load(1, XDATA, add(CFA_XSP16, literal(-1)))
          CFI DPL0 load(1, XDATA, add(CFA_XSP16, literal(-2)))
          CFI ?BRET_EXT load(1, XDATA, add(CFA_XSP16, literal(-3)))
          CFI ?RET_HIGH load(1, XDATA, add(CFA_XSP16, literal(-4)))
          CFI ?RET_LOW load(1, XDATA, add(CFA_XSP16, literal(-5)))
          CFI R7 load(1, XDATA, add(CFA_XSP16, literal(-6)))
          CFI V0 load(1, XDATA, add(CFA_XSP16, literal(-7)))
          CFI VB load(1, XDATA, add(CFA_XSP16, literal(-8)))
          CFI R6 load(1, XDATA, add(CFA_XSP16, literal(-9)))
          CFI CFA_SP SP+0
          CFI CFA_XSP16 add(XSP16, 9)
        ; Saved register size: 9
        ; Auto size: 0
        MOV     A,R1
// 1518   if(didSuccess)
        JZ      ??bdb_nwkFormationAttempt_0
// 1519   {
// 1520     bdb_reportCommissioningState(BDB_COMMISSIONING_STATE_FORMATION,TRUE);
        ; Setup parameters for call to function bdb_reportCommissioningState
        MOV     R2,#0x1
        SJMP    ??bdb_nwkFormationAttempt_1
// 1521   }
// 1522   else
// 1523   {
// 1524     //Can we try the secondary channel set?
// 1525     if((vDoPrimaryScan) && (bdbAttributes.bdbSecondaryChannelSet))
??bdb_nwkFormationAttempt_0:
        MOV     DPTR,#vDoPrimaryScan
        MOVX    A,@DPTR
        JZ      ??bdb_nwkFormationAttempt_2
        MOV     DPTR,#bdbAttributes
        LCALL   ?XLOAD_R0123
        MOV     A,R0
        ORL     A,R1
        ORL     A,R2
        ORL     A,R3
        JZ      ??bdb_nwkFormationAttempt_2
// 1526     {
// 1527       vDoPrimaryScan = FALSE;
        MOV     DPTR,#vDoPrimaryScan
        CLR     A
        MOVX    @DPTR,A
// 1528       bdb_nwkJoiningFormation(FALSE);
        ; Setup parameters for call to function bdb_nwkJoiningFormation
        MOV     R1,A
        LCALL   `??bdb_nwkJoiningFormation::?relay`; Banked call to: bdb_nwkJoiningFormation
        SJMP    ??bdb_nwkFormationAttempt_3
// 1529     }
// 1530     else
// 1531     {
// 1532       bdb_reportCommissioningState(BDB_COMMISSIONING_STATE_FORMATION, FALSE);
??bdb_nwkFormationAttempt_2:
        ; Setup parameters for call to function bdb_reportCommissioningState
        MOV     R2,#0x0
??bdb_nwkFormationAttempt_1:
        MOV     R1,#0x5
        LCALL   `??bdb_reportCommissioningState::?relay`; Banked call to: bdb_reportCommissioningState
// 1533     }
// 1534   }
// 1535 }
??bdb_nwkFormationAttempt_3:
        LJMP    ?Subroutine3 & 0xFFFF
          CFI EndBlock cfiBlock36
// 1536 
// 1537 
// 1538 
// 1539 /*********************************************************************
// 1540  * @fn          bdb_isDeviceNonFactoryNew
// 1541  *
// 1542  * @brief       Returns the state of bdbNodeIsOnANetwork attribute
// 1543  * 
// 1544  * @param       none
// 1545  *
// 1546  * @return      bdbNodeIsOnANetwork
// 1547  */

        RSEG BANKED_CODE:CODE:NOROOT(0)
// 1548 bool bdb_isDeviceNonFactoryNew(void)
bdb_isDeviceNonFactoryNew:
          CFI Block cfiBlock37 Using cfiCommon0
          CFI Function bdb_isDeviceNonFactoryNew
        CODE
// 1549 {
        PUSH    DPL
          CFI DPL0 Frame(CFA_SP, 4)
          CFI CFA_SP SP+-4
        PUSH    DPH
          CFI DPH0 Frame(CFA_SP, 5)
          CFI CFA_SP SP+-5
        ; Saved register size: 2
        ; Auto size: 0
// 1550   return bdbAttributes.bdbNodeIsOnANetwork;
        MOV     DPTR,#bdbAttributes + 14
        MOVX    A,@DPTR
        MOV     R1,A
        LJMP    ??Subroutine34_0 & 0xFFFF
// 1551 }
          CFI EndBlock cfiBlock37
// 1552 
// 1553 
// 1554 /*********************************************************************
// 1555  * @fn      bdb_rejoinNwk
// 1556  *
// 1557  * @brief   Attempt to rejoin/resume a nwk from nv parameters
// 1558  *
// 1559  * @param   none
// 1560  *
// 1561  * @return  ZStatus_t
// 1562  */

        RSEG BANKED_CODE:CODE:NOROOT(0)
// 1563 ZStatus_t bdb_rejoinNwk(void)
bdb_rejoinNwk:
          CFI Block cfiBlock38 Using cfiCommon0
          CFI Function bdb_rejoinNwk
        CODE
// 1564 {
        FUNCALL bdb_rejoinNwk, ZDApp_RestoreNwkKey
        LOCFRAME ISTACK, 0, STACK
        LOCFRAME PSTACK, 0, STACK
        LOCFRAME XSTACK, 10, STACK
        LOCFRAME IOVERLAY, 0, STATIC
        LOCFRAME DOVERLAY, 0, STATIC
        ARGFRAME ISTACK, 0, STACK
        ARGFRAME PSTACK, 0, STACK
        ARGFRAME XSTACK, 10, STACK
        ARGFRAME IOVERLAY, 0, STATIC
        ARGFRAME DOVERLAY, 0, STATIC
        FUNCALL bdb_rejoinNwk, ZDApp_ChangeState
        LOCFRAME ISTACK, 0, STACK
        LOCFRAME PSTACK, 0, STACK
        LOCFRAME XSTACK, 10, STACK
        LOCFRAME IOVERLAY, 0, STATIC
        LOCFRAME DOVERLAY, 0, STATIC
        ARGFRAME ISTACK, 0, STACK
        ARGFRAME PSTACK, 0, STACK
        ARGFRAME XSTACK, 10, STACK
        ARGFRAME IOVERLAY, 0, STATIC
        ARGFRAME DOVERLAY, 0, STATIC
        FUNCALL bdb_rejoinNwk, ZDApp_ChangeState
        LOCFRAME ISTACK, 0, STACK
        LOCFRAME PSTACK, 0, STACK
        LOCFRAME XSTACK, 10, STACK
        LOCFRAME IOVERLAY, 0, STATIC
        LOCFRAME DOVERLAY, 0, STATIC
        ARGFRAME ISTACK, 0, STACK
        ARGFRAME PSTACK, 0, STACK
        ARGFRAME XSTACK, 10, STACK
        ARGFRAME IOVERLAY, 0, STATIC
        ARGFRAME DOVERLAY, 0, STATIC
        FUNCALL bdb_rejoinNwk, ZMacSetReq
        LOCFRAME ISTACK, 0, STACK
        LOCFRAME PSTACK, 0, STACK
        LOCFRAME XSTACK, 10, STACK
        LOCFRAME IOVERLAY, 0, STATIC
        LOCFRAME DOVERLAY, 0, STATIC
        ARGFRAME ISTACK, 0, STACK
        ARGFRAME PSTACK, 0, STACK
        ARGFRAME XSTACK, 10, STACK
        ARGFRAME IOVERLAY, 0, STATIC
        ARGFRAME DOVERLAY, 0, STATIC
        FUNCALL bdb_rejoinNwk, ZDApp_RestoreNwkKey
        LOCFRAME ISTACK, 0, STACK
        LOCFRAME PSTACK, 0, STACK
        LOCFRAME XSTACK, 10, STACK
        LOCFRAME IOVERLAY, 0, STATIC
        LOCFRAME DOVERLAY, 0, STATIC
        ARGFRAME ISTACK, 0, STACK
        ARGFRAME PSTACK, 0, STACK
        ARGFRAME XSTACK, 10, STACK
        ARGFRAME IOVERLAY, 0, STATIC
        ARGFRAME DOVERLAY, 0, STATIC
        FUNCALL bdb_rejoinNwk, NLME_ReJoinRequest
        LOCFRAME ISTACK, 0, STACK
        LOCFRAME PSTACK, 0, STACK
        LOCFRAME XSTACK, 10, STACK
        LOCFRAME IOVERLAY, 0, STATIC
        LOCFRAME DOVERLAY, 0, STATIC
        ARGFRAME ISTACK, 0, STACK
        ARGFRAME PSTACK, 0, STACK
        ARGFRAME XSTACK, 10, STACK
        ARGFRAME IOVERLAY, 0, STATIC
        ARGFRAME DOVERLAY, 0, STATIC
        FUNCALL bdb_rejoinNwk, NLME_ReJoinRequestUnsecure
        LOCFRAME ISTACK, 0, STACK
        LOCFRAME PSTACK, 0, STACK
        LOCFRAME XSTACK, 10, STACK
        LOCFRAME IOVERLAY, 0, STATIC
        LOCFRAME DOVERLAY, 0, STATIC
        ARGFRAME ISTACK, 0, STACK
        ARGFRAME PSTACK, 0, STACK
        ARGFRAME XSTACK, 10, STACK
        ARGFRAME IOVERLAY, 0, STATIC
        ARGFRAME DOVERLAY, 0, STATIC
        MOV     A,#-0x9
        LCALL   ?BANKED_ENTER_XDATA
          CFI DPH0 load(1, XDATA, add(CFA_XSP16, literal(-1)))
          CFI DPL0 load(1, XDATA, add(CFA_XSP16, literal(-2)))
          CFI ?BRET_EXT load(1, XDATA, add(CFA_XSP16, literal(-3)))
          CFI ?RET_HIGH load(1, XDATA, add(CFA_XSP16, literal(-4)))
          CFI ?RET_LOW load(1, XDATA, add(CFA_XSP16, literal(-5)))
          CFI R7 load(1, XDATA, add(CFA_XSP16, literal(-6)))
          CFI V0 load(1, XDATA, add(CFA_XSP16, literal(-7)))
          CFI VB load(1, XDATA, add(CFA_XSP16, literal(-8)))
          CFI R6 load(1, XDATA, add(CFA_XSP16, literal(-9)))
          CFI CFA_SP SP+0
          CFI CFA_XSP16 add(XSP16, 9)
        ; Saved register size: 9
        ; Auto size: 1
        MOV     A,#-0x1
        LCALL   ?ALLOC_XSTACK8
          CFI CFA_XSP16 add(XSP16, 10)
// 1565   ZStatus_t rejoinStatus = ZSuccess;
        MOV     R6,#0x0
// 1566   
// 1567   // Transition state machine to correct rejoin state based on nwk key
// 1568   if ( ZDApp_RestoreNwkKey( FALSE )== TRUE )
        ; Setup parameters for call to function ZDApp_RestoreNwkKey
        MOV     R1,#0x0
        LCALL   `??ZDApp_RestoreNwkKey::?relay`; Banked call to: ZDApp_RestoreNwkKey
        MOV     A,R1
        XRL     A,#0x1
        JNZ     ??bdb_rejoinNwk_0
// 1569   {
// 1570     ZDApp_ChangeState( DEV_NWK_SEC_REJOIN_CURR_CHANNEL );
        ; Setup parameters for call to function ZDApp_ChangeState
        MOV     R1,#0x4
        SJMP    ??bdb_rejoinNwk_1
// 1571   }
// 1572   else
// 1573   {
// 1574     ZDApp_ChangeState( DEV_NWK_TC_REJOIN_CURR_CHANNEL );
??bdb_rejoinNwk_0:
        ; Setup parameters for call to function ZDApp_ChangeState
        MOV     R1,#0xe
??bdb_rejoinNwk_1:
        LCALL   `??ZDApp_ChangeState::?relay`; Banked call to: ZDApp_ChangeState
// 1575   }
// 1576 
// 1577   // Before trying to do rejoin, check if the device has a valid short address
// 1578   // If not, generate a random short address for itself
// 1579   if ( _NIB.nwkDevAddress == INVALID_NODE_ADDR )
        MOV     DPTR,#_NIB + 20
        MOVX    A,@DPTR
        XRL     A,#0xfe
        JNZ     ??bdb_rejoinNwk_2
        INC     DPTR
        MOVX    A,@DPTR
        CPL     A
??bdb_rejoinNwk_2:
        JNZ     ??bdb_rejoinNwk_3
// 1580   {
// 1581     rejoinStatus = ZFailure;
        MOV     R6,#0x1
// 1582   }
// 1583 
// 1584   // Check if the device has a valid PanID, if not, set it to the discovered Pan
// 1585   if ( _NIB.nwkPanId == 0xFFFF )
??bdb_rejoinNwk_3:
        MOV     DPTR,#_NIB + 33
        MOVX    A,@DPTR
        CPL     A
        JNZ     ??bdb_rejoinNwk_4
        INC     DPTR
        MOVX    A,@DPTR
        CPL     A
??bdb_rejoinNwk_4:
        JNZ     ??bdb_rejoinNwk_5
// 1586   {
// 1587     rejoinStatus = ZFailure;
        MOV     R6,#0x1
        SJMP    ??bdb_rejoinNwk_6
// 1588   }
// 1589 
// 1590   if(rejoinStatus == ZSuccess)
??bdb_rejoinNwk_5:
        MOV     A,R6
        MOV     C,0xE0 /* A   */.0
        JC      ??bdb_rejoinNwk_6
// 1591   {
// 1592     uint8 tmp = true;
        MOV     DPL,?XSP + 0
        MOV     DPH,?XSP + 1
        MOV     A,#0x1
        MOVX    @DPTR,A
// 1593     ZMacSetReq( ZMacRxOnIdle, &tmp ); // Set receiver always on during rejoin
        ; Setup parameters for call to function ZMacSetReq
        MOV     R2,?XSP + 0
        MOV     R3,?XSP + 1
        MOV     R1,#0x52
        LCALL   `??ZMacSetReq::?relay`; Banked call to: ZMacSetReq
// 1594         
// 1595     // Perform Secure or Unsecure Rejoin depending on available configuration
// 1596     if ( ZG_SECURE_ENABLED && ( ZDApp_RestoreNwkKey( TRUE ) == TRUE ) )
        ; Setup parameters for call to function ZDApp_RestoreNwkKey
        MOV     R1,#0x1
        LCALL   `??ZDApp_RestoreNwkKey::?relay`; Banked call to: ZDApp_RestoreNwkKey
        MOV     A,R1
        XRL     A,#0x1
        MOV     DPTR,#_NIB + 22
        JNZ     ??bdb_rejoinNwk_7
// 1597     {
// 1598       rejoinStatus = NLME_ReJoinRequest( ZDO_UseExtendedPANID, _NIB.nwkLogicalChannel);
        ; Setup parameters for call to function NLME_ReJoinRequest
        MOVX    A,@DPTR
        MOV     R1,A
        MOV     R2,#ZDO_UseExtendedPANID & 0xff
        MOV     R3,#(ZDO_UseExtendedPANID >> 8) & 0xff
        LCALL   `??NLME_ReJoinRequest::?relay`; Banked call to: NLME_ReJoinRequest
        SJMP    ??bdb_rejoinNwk_8
// 1599     }
// 1600     else
// 1601     {
// 1602       rejoinStatus = NLME_ReJoinRequestUnsecure( ZDO_UseExtendedPANID, _NIB.nwkLogicalChannel);
??bdb_rejoinNwk_7:
        ; Setup parameters for call to function NLME_ReJoinRequestUnsecure
        MOVX    A,@DPTR
        MOV     R1,A
        MOV     R2,#ZDO_UseExtendedPANID & 0xff
        MOV     R3,#(ZDO_UseExtendedPANID >> 8) & 0xff
        LCALL   `??NLME_ReJoinRequestUnsecure::?relay`; Banked call to: NLME_ReJoinRequestUnsecure
??bdb_rejoinNwk_8:
        MOV     A,R1
        MOV     R6,A
// 1603     }
// 1604   }
// 1605   
// 1606   return rejoinStatus;
??bdb_rejoinNwk_6:
        MOV     A,R6
        MOV     R1,A
        MOV     A,#0x1
        LCALL   ?DEALLOC_XSTACK8
          CFI CFA_XSP16 add(XSP16, 9)
        LJMP    ?Subroutine3 & 0xFFFF
// 1607 }
          CFI EndBlock cfiBlock38
// 1608 
// 1609 #if (ZG_BUILD_JOINING_TYPE)
// 1610  /*********************************************************************
// 1611  * @fn          bdb_nwkDiscoveryAttempt
// 1612  *
// 1613  * @brief       Process a nwk discovery attempt
// 1614  *
// 1615  * @param       didSuccess - TRUE we found nwk in the scanned channels, FALSE if 
// 1616  *                           no suitable nwks were found, try secondary channel
// 1617  *
// 1618  * @return      none
// 1619  */

        RSEG BANKED_CODE:CODE:NOROOT(0)
// 1620 void bdb_nwkDiscoveryAttempt(bool didSuccess)
bdb_nwkDiscoveryAttempt:
          CFI Block cfiBlock39 Using cfiCommon0
          CFI Function bdb_nwkDiscoveryAttempt
        CODE
// 1621 {
        FUNCALL bdb_nwkDiscoveryAttempt, bdb_SendMsg
        LOCFRAME ISTACK, 0, STACK
        LOCFRAME PSTACK, 0, STACK
        LOCFRAME XSTACK, 13, STACK
        LOCFRAME IOVERLAY, 0, STATIC
        LOCFRAME DOVERLAY, 0, STATIC
        ARGFRAME ISTACK, 0, STACK
        ARGFRAME PSTACK, 0, STACK
        ARGFRAME XSTACK, 13, STACK
        ARGFRAME IOVERLAY, 0, STATIC
        ARGFRAME DOVERLAY, 0, STATIC
        FUNCALL bdb_nwkDiscoveryAttempt, bdb_setChannel
        LOCFRAME ISTACK, 0, STACK
        LOCFRAME PSTACK, 0, STACK
        LOCFRAME XSTACK, 11, STACK
        LOCFRAME IOVERLAY, 0, STATIC
        LOCFRAME DOVERLAY, 0, STATIC
        ARGFRAME ISTACK, 0, STACK
        ARGFRAME PSTACK, 0, STACK
        ARGFRAME XSTACK, 11, STACK
        ARGFRAME IOVERLAY, 0, STATIC
        ARGFRAME DOVERLAY, 0, STATIC
        FUNCALL bdb_nwkDiscoveryAttempt, ZDApp_NetworkInit
        LOCFRAME ISTACK, 0, STACK
        LOCFRAME PSTACK, 0, STACK
        LOCFRAME XSTACK, 11, STACK
        LOCFRAME IOVERLAY, 0, STATIC
        LOCFRAME DOVERLAY, 0, STATIC
        ARGFRAME ISTACK, 0, STACK
        ARGFRAME PSTACK, 0, STACK
        ARGFRAME XSTACK, 11, STACK
        ARGFRAME IOVERLAY, 0, STATIC
        ARGFRAME DOVERLAY, 0, STATIC
        FUNCALL bdb_nwkDiscoveryAttempt, bdb_reportCommissioningState
        LOCFRAME ISTACK, 0, STACK
        LOCFRAME PSTACK, 0, STACK
        LOCFRAME XSTACK, 11, STACK
        LOCFRAME IOVERLAY, 0, STATIC
        LOCFRAME DOVERLAY, 0, STATIC
        ARGFRAME ISTACK, 0, STACK
        ARGFRAME PSTACK, 0, STACK
        ARGFRAME XSTACK, 11, STACK
        ARGFRAME IOVERLAY, 0, STATIC
        ARGFRAME DOVERLAY, 0, STATIC
        REQUIRE ?V0
        REQUIRE ?V1
        MOV     A,#-0xa
        LCALL   ?BANKED_ENTER_XDATA
          CFI DPH0 load(1, XDATA, add(CFA_XSP16, literal(-1)))
          CFI DPL0 load(1, XDATA, add(CFA_XSP16, literal(-2)))
          CFI ?BRET_EXT load(1, XDATA, add(CFA_XSP16, literal(-3)))
          CFI ?RET_HIGH load(1, XDATA, add(CFA_XSP16, literal(-4)))
          CFI ?RET_LOW load(1, XDATA, add(CFA_XSP16, literal(-5)))
          CFI R7 load(1, XDATA, add(CFA_XSP16, literal(-6)))
          CFI V1 load(1, XDATA, add(CFA_XSP16, literal(-7)))
          CFI V0 load(1, XDATA, add(CFA_XSP16, literal(-8)))
          CFI VB load(1, XDATA, add(CFA_XSP16, literal(-9)))
          CFI R6 load(1, XDATA, add(CFA_XSP16, literal(-10)))
          CFI CFA_SP SP+0
          CFI CFA_XSP16 add(XSP16, 10)
        ; Saved register size: 10
        ; Auto size: 1
        MOV     A,#-0x1
        LCALL   ?ALLOC_XSTACK8
          CFI CFA_XSP16 add(XSP16, 11)
        MOV     A,R1
        MOV     R6,A
// 1622   uint8 bdbJoinEvent = BDB_JOIN_EVENT_NWK_DISCOVERY;
        MOV     DPL,?XSP + 0
        MOV     DPH,?XSP + 1
        CLR     A
        MOVX    @DPTR,A
// 1623   
// 1624   if(didSuccess)
        MOV     A,R6
        JZ      ??bdb_nwkDiscoveryAttempt_0
// 1625   {
// 1626     bdb_SendMsg(bdb_TaskID, BDB_COMMISSIONING_STATE_JOINING, BDB_MSG_EVENT_SUCCESS,sizeof(bdbJoinEvent),(uint8*)&bdbJoinEvent);
        ; Setup parameters for call to function bdb_SendMsg
        MOV     R0,?XSP + 0
        MOV     R1,?XSP + 1
        MOV     ?V0,R0
        MOV     ?V1,R1
        MOV     R0,#?V0
        LCALL   ?PUSH_XSTACK_I_TWO
          CFI CFA_XSP16 add(XSP16, 13)
        MOV     R4,#0x1
        MOV     R3,#0x0
        MOV     R2,#0x3
        MOV     DPTR,#bdb_TaskID
        MOVX    A,@DPTR
        MOV     R1,A
        LCALL   `??bdb_SendMsg::?relay`; Banked call to: bdb_SendMsg
        MOV     A,#0x2
        LCALL   ?DEALLOC_XSTACK8
          CFI CFA_XSP16 add(XSP16, 11)
        SJMP    ??bdb_nwkDiscoveryAttempt_1
// 1627   }
// 1628   else
// 1629   {
// 1630     //Can we try the secondary channel set?
// 1631     if((vDoPrimaryScan) && (bdbAttributes.bdbSecondaryChannelSet))
??bdb_nwkDiscoveryAttempt_0:
        MOV     DPTR,#vDoPrimaryScan
        MOVX    A,@DPTR
        JZ      ??bdb_nwkDiscoveryAttempt_2
        MOV     DPTR,#bdbAttributes
        LCALL   ?XLOAD_R0123
