///////////////////////////////////////////////////////////////////////////////
//
// IAR C/C++ Compiler V9.30.1.3056 for 8051               05/Nov/2017  14:39:08
// Copyright 2004-2015 IAR Systems AB.
// Standalone license - IAR Embedded Workbench for 8051
//
//    Core               =  plain
//    Code model         =  banked
//    Data model         =  large
//    Calling convention =  xdata reentrant
//    Constant location  =  data_rom
//    Dptr setup         =  1,16
//                          
//    Source file        =  
//        C:\Users\admin\Desktop\github\z-stack3.0.0\Components\stack\zdo\ZDProfile.c
//    Command line       =  
//        -f
//        C:\Users\admin\Desktop\github\z-stack3.0.0\Projects\zstack\HomeAutomation\GenericApp\CC2530DB\..\..\..\Tools\CC2530DB\f8wEndev.cfg
//        (-DCPU32MHZ -DROOT=__near_func -DMAC_CFG_TX_DATA_MAX=3
//        -DMAC_CFG_TX_MAX=6 -DMAC_CFG_RX_MAX=3) -f
//        C:\Users\admin\Desktop\github\z-stack3.0.0\Projects\zstack\HomeAutomation\GenericApp\CC2530DB\..\..\..\Tools\CC2530DB\f8wConfig.cfg
//        (-DZIGBEEPRO -DSECURE=1 -DZG_SECURE_DYNAMIC=0 -DREFLECTOR
//        -DDEFAULT_CHANLIST=0x00000800 -DZDAPP_CONFIG_PAN_ID=0xFFFF
//        -DNWK_START_DELAY=100 -DEXTENDED_JOINING_RANDOM_MASK=0x007F
//        -DBEACON_REQUEST_DELAY=100 -DBEACON_REQ_DELAY_MASK=0x00FF
//        -DLINK_STATUS_JITTER_MASK=0x007F -DROUTE_EXPIRY_TIME=30
//        -DAPSC_ACK_WAIT_DURATION_POLLED=3000 -DNWK_INDIRECT_MSG_TIMEOUT=7
//        -DMAX_RREQ_ENTRIES=8 -DAPSC_MAX_FRAME_RETRIES=3
//        -DNWK_MAX_DATA_RETRIES=2 -DMAX_POLL_FAILURE_RETRIES=2 -DMAX_BCAST=9
//        -DAPS_MAX_GROUPS=16 -DMAX_RTG_ENTRIES=40 -DNWK_MAX_BINDING_ENTRIES=4
//        -DMAX_BINDING_CLUSTER_IDS=4 -DDEFAULT_KEY={0}
//        -DMAC_MAX_FRAME_SIZE=116 -DZDNWKMGR_MIN_TRANSMISSIONS=20
//        "-DCONST=const __code" -DGENERIC=__generic -DRFD_RCVC_ALWAYS_ON=FALSE
//        -DPOLL_RATE=1000 -DQUEUED_POLL_RATE=100 -DRESPONSE_POLL_RATE=100
//        -DREJOIN_POLL_RATE=440 -DREJOIN_BACKOFF=900000 -DREJOIN_SCAN=900000
//        -DENABLE_LED4_DISABLE_S1) -f
//        C:\Users\admin\Desktop\github\z-stack3.0.0\Projects\zstack\HomeAutomation\GenericApp\CC2530DB\..\..\..\Tools\CC2530DB\f8wZCL.cfg
//        C:\Users\admin\Desktop\github\z-stack3.0.0\Components\stack\zdo\ZDProfile.c
//        -D SECURE=1 -D TC_LINKKEY_JOIN -D NV_INIT -D NV_RESTORE -D
//        xPOWER_SAVING -D NWK_AUTO_POLL -D xZTOOL_P1 -D xMT_TASK -D
//        xMT_APP_FUNC -D xMT_SYS_FUNC -D xMT_ZDO_FUNC -D xMT_ZDO_MGMT -D
//        xMT_APP_CNF_FUNC -D LEGACY_LCD_DEBUG -D LCD_SUPPORTED=DEBUG -D
//        MULTICAST_ENABLED=FALSE -D ZCL_READ -D ZCL_WRITE -D ZCL_BASIC -D
//        ZCL_IDENTIFY -D ZCL_SCENES -D ZCL_GROUPS -lC
//        C:\Users\admin\Desktop\github\z-stack3.0.0\Projects\zstack\HomeAutomation\GenericApp\CC2530DB\EndDeviceEB\List
//        -lA
//        C:\Users\admin\Desktop\github\z-stack3.0.0\Projects\zstack\HomeAutomation\GenericApp\CC2530DB\EndDeviceEB\List
//        --diag_suppress Pe001,Pa010 -o
//        C:\Users\admin\Desktop\github\z-stack3.0.0\Projects\zstack\HomeAutomation\GenericApp\CC2530DB\EndDeviceEB\Obj
//        -e --debug --core=plain --dptr=16,1 --data_model=large
//        --code_model=banked --calling_convention=xdata_reentrant
//        --place_constants=data_rom --nr_virtual_regs 16 -I
//        C:\Users\admin\Desktop\github\z-stack3.0.0\Projects\zstack\HomeAutomation\GenericApp\CC2530DB\
//        -I
//        C:\Users\admin\Desktop\github\z-stack3.0.0\Projects\zstack\HomeAutomation\GenericApp\CC2530DB\..\Source\
//        -I
//        C:\Users\admin\Desktop\github\z-stack3.0.0\Projects\zstack\HomeAutomation\GenericApp\CC2530DB\..\..\Source\
//        -I
//        C:\Users\admin\Desktop\github\z-stack3.0.0\Projects\zstack\HomeAutomation\GenericApp\CC2530DB\..\..\..\ZMain\TI2530DB\
//        -I
//        C:\Users\admin\Desktop\github\z-stack3.0.0\Projects\zstack\HomeAutomation\GenericApp\CC2530DB\..\..\..\..\..\Components\hal\include\
//        -I
//        C:\Users\admin\Desktop\github\z-stack3.0.0\Projects\zstack\HomeAutomation\GenericApp\CC2530DB\..\..\..\..\..\Components\hal\target\CC2530EB\
//        -I
//        C:\Users\admin\Desktop\github\z-stack3.0.0\Projects\zstack\HomeAutomation\GenericApp\CC2530DB\..\..\..\..\..\Components\mac\include\
//        -I
//        C:\Users\admin\Desktop\github\z-stack3.0.0\Projects\zstack\HomeAutomation\GenericApp\CC2530DB\..\..\..\..\..\Components\mac\high_level\
//        -I
//        C:\Users\admin\Desktop\github\z-stack3.0.0\Projects\zstack\HomeAutomation\GenericApp\CC2530DB\..\..\..\..\..\Components\mac\low_level\srf04\
//        -I
//        C:\Users\admin\Desktop\github\z-stack3.0.0\Projects\zstack\HomeAutomation\GenericApp\CC2530DB\..\..\..\..\..\Components\mac\low_level\srf04\single_chip\
//        -I
//        C:\Users\admin\Desktop\github\z-stack3.0.0\Projects\zstack\HomeAutomation\GenericApp\CC2530DB\..\..\..\..\..\Components\mt\
//        -I
//        C:\Users\admin\Desktop\github\z-stack3.0.0\Projects\zstack\HomeAutomation\GenericApp\CC2530DB\..\..\..\..\..\Components\osal\include\
//        -I
//        C:\Users\admin\Desktop\github\z-stack3.0.0\Projects\zstack\HomeAutomation\GenericApp\CC2530DB\..\..\..\..\..\Components\services\saddr\
//        -I
//        C:\Users\admin\Desktop\github\z-stack3.0.0\Projects\zstack\HomeAutomation\GenericApp\CC2530DB\..\..\..\..\..\Components\services\sdata\
//        -I
//        C:\Users\admin\Desktop\github\z-stack3.0.0\Projects\zstack\HomeAutomation\GenericApp\CC2530DB\..\..\..\..\..\Components\stack\af\
//        -I
//        C:\Users\admin\Desktop\github\z-stack3.0.0\Projects\zstack\HomeAutomation\GenericApp\CC2530DB\..\..\..\..\..\Components\stack\bdb\
//        -I
//        C:\Users\admin\Desktop\github\z-stack3.0.0\Projects\zstack\HomeAutomation\GenericApp\CC2530DB\..\..\..\..\..\Components\stack\gp\
//        -I
//        C:\Users\admin\Desktop\github\z-stack3.0.0\Projects\zstack\HomeAutomation\GenericApp\CC2530DB\..\..\..\..\..\Components\stack\nwk\
//        -I
//        C:\Users\admin\Desktop\github\z-stack3.0.0\Projects\zstack\HomeAutomation\GenericApp\CC2530DB\..\..\..\..\..\Components\stack\sapi\
//        -I
//        C:\Users\admin\Desktop\github\z-stack3.0.0\Projects\zstack\HomeAutomation\GenericApp\CC2530DB\..\..\..\..\..\Components\stack\sec\
//        -I
//        C:\Users\admin\Desktop\github\z-stack3.0.0\Projects\zstack\HomeAutomation\GenericApp\CC2530DB\..\..\..\..\..\Components\stack\sys\
//        -I
//        C:\Users\admin\Desktop\github\z-stack3.0.0\Projects\zstack\HomeAutomation\GenericApp\CC2530DB\..\..\..\..\..\Components\stack\zcl\
//        -I
//        C:\Users\admin\Desktop\github\z-stack3.0.0\Projects\zstack\HomeAutomation\GenericApp\CC2530DB\..\..\..\..\..\Components\stack\zdo\
//        -I
//        C:\Users\admin\Desktop\github\z-stack3.0.0\Projects\zstack\HomeAutomation\GenericApp\CC2530DB\..\..\..\..\..\Components\zmac\
//        -I
//        C:\Users\admin\Desktop\github\z-stack3.0.0\Projects\zstack\HomeAutomation\GenericApp\CC2530DB\..\..\..\..\..\Components\zmac\f8w\
//        -Ohz --require_prototypes
//    List file          =  
//        C:\Users\admin\Desktop\github\z-stack3.0.0\Projects\zstack\HomeAutomation\GenericApp\CC2530DB\EndDeviceEB\List\ZDProfile.s51
//
///////////////////////////////////////////////////////////////////////////////

        NAME ZDProfile

        RTMODEL "__SystemLibrary", "CLib"
        RTMODEL "__calling_convention", "xdata_reentrant"
        RTMODEL "__code_model", "banked"
        RTMODEL "__core", "plain"
        RTMODEL "__data_model", "large"
        RTMODEL "__dptr_size", "16"
        RTMODEL "__extended_stack", "disabled"
        RTMODEL "__location_for_constants", "data"
        RTMODEL "__number_of_dptrs", "1"
        RTMODEL "__rt_version", "1"

        RSEG DOVERLAY:DATA:NOROOT(0)
        RSEG IOVERLAY:IDATA:NOROOT(0)
        RSEG ISTACK:IDATA:NOROOT(0)
        RSEG PSTACK:XDATA:NOROOT(0)
        RSEG XSTACK:XDATA:NOROOT(0)

        EXTERN ?V0
        EXTERN ?V1
        EXTERN ?V2
        EXTERN ?V3
        EXTERN ?V4
        EXTERN ?V5
        EXTERN ?V6
        EXTERN ?V7
        EXTERN ?V8
        EXTERN ?V10
        EXTERN ?V11
        EXTERN ?V12
        EXTERN ?V13
        EXTERN ?V9
        EXTERN ?ALLOC_XSTACK8
        EXTERN ?BANKED_ENTER_XDATA
        EXTERN ?BANKED_LEAVE_XDATA
        EXTERN ?BDISPATCH
        EXTERN ?CALL_IND
        EXTERN ?DEALLOC_XSTACK8
        EXTERN ?PUSH_XSTACK8_X_FOUR
        EXTERN ?PUSH_XSTACK8_X_TWO
        EXTERN ?PUSH_XSTACK_I_ONE
        EXTERN ?PUSH_XSTACK_I_THREE
        EXTERN ?PUSH_XSTACK_I_TWO
        EXTERN ?S_SHL
        EXTERN ?US_SHR
        EXTERN ?XSP
        EXTERN ?XSTACK_DISP0_8
        EXTERN ?XSTACK_DISP101_8
        EXTERN ?XSTACK_DISP102_8
        EXTERN __INIT_XDATA_I
        EXTERN __INIT_XDATA_Z

        PUBLIC `??ZDO_RegisterForZDOMsg::?relay`
        FUNCTION `??ZDO_RegisterForZDOMsg::?relay`,0203H
        PUBLIC `??ZDO_RemoveRegisteredCB::?relay`
        FUNCTION `??ZDO_RemoveRegisteredCB::?relay`,0203H
        PUBLIC `??ZDO_SendMsgCBs::?relay`
        FUNCTION `??ZDO_SendMsgCBs::?relay`,0203H
        PUBLIC `??ZDP_BindUnbindReq::?relay`
        FUNCTION `??ZDP_BindUnbindReq::?relay`,0203H
        PUBLIC `??ZDP_DeviceAnnce::?relay`
        FUNCTION `??ZDP_DeviceAnnce::?relay`,0203H
        PUBLIC `??ZDP_EPRsp::?relay`
        FUNCTION `??ZDP_EPRsp::?relay`,0203H
        PUBLIC `??ZDP_EndDeviceBindReq::?relay`
        FUNCTION `??ZDP_EndDeviceBindReq::?relay`,0203H
        PUBLIC `??ZDP_GenericRsp::?relay`
        FUNCTION `??ZDP_GenericRsp::?relay`,0203H
        PUBLIC `??ZDP_IEEEAddrReq::?relay`
        FUNCTION `??ZDP_IEEEAddrReq::?relay`,0203H
        PUBLIC `??ZDP_IncomingData::?relay`
        FUNCTION `??ZDP_IncomingData::?relay`,0203H
        PUBLIC `??ZDP_MatchDescReq::?relay`
        FUNCTION `??ZDP_MatchDescReq::?relay`,0203H
        PUBLIC `??ZDP_MgmtBindRsp::?relay`
        FUNCTION `??ZDP_MgmtBindRsp::?relay`,0203H
        PUBLIC `??ZDP_MgmtDirectJoinReq::?relay`
        FUNCTION `??ZDP_MgmtDirectJoinReq::?relay`,0203H
        PUBLIC `??ZDP_MgmtLeaveReq::?relay`
        FUNCTION `??ZDP_MgmtLeaveReq::?relay`,0203H
        PUBLIC `??ZDP_MgmtLqiRsp::?relay`
        FUNCTION `??ZDP_MgmtLqiRsp::?relay`,0203H
        PUBLIC `??ZDP_MgmtNwkDiscReq::?relay`
        FUNCTION `??ZDP_MgmtNwkDiscReq::?relay`,0203H
        PUBLIC `??ZDP_MgmtNwkDiscRsp::?relay`
        FUNCTION `??ZDP_MgmtNwkDiscRsp::?relay`,0203H
        PUBLIC `??ZDP_MgmtNwkUpdateNotify::?relay`
        FUNCTION `??ZDP_MgmtNwkUpdateNotify::?relay`,0203H
        PUBLIC `??ZDP_MgmtNwkUpdateReq::?relay`
        FUNCTION `??ZDP_MgmtNwkUpdateReq::?relay`,0203H
        PUBLIC `??ZDP_MgmtPermitJoinReq::?relay`
        FUNCTION `??ZDP_MgmtPermitJoinReq::?relay`,0203H
        PUBLIC `??ZDP_MgmtRtgRsp::?relay`
        FUNCTION `??ZDP_MgmtRtgRsp::?relay`,0203H
        PUBLIC `??ZDP_NWKAddrOfInterestReq::?relay`
        FUNCTION `??ZDP_NWKAddrOfInterestReq::?relay`,0203H
        PUBLIC `??ZDP_NodeDescMsg::?relay`
        FUNCTION `??ZDP_NodeDescMsg::?relay`,0203H
        PUBLIC `??ZDP_NwkAddrReq::?relay`
        FUNCTION `??ZDP_NwkAddrReq::?relay`,0203H
        PUBLIC `??ZDP_ParentAnnce::?relay`
        FUNCTION `??ZDP_ParentAnnce::?relay`,0203H
        PUBLIC `??ZDP_PowerDescMsg::?relay`
        FUNCTION `??ZDP_PowerDescMsg::?relay`,0203H
        PUBLIC `??ZDP_SendData::?relay`
        FUNCTION `??ZDP_SendData::?relay`,0203H
        PUBLIC `??ZDP_ServerDiscReq::?relay`
        FUNCTION `??ZDP_ServerDiscReq::?relay`,0203H
        PUBLIC `??ZDP_ServerDiscRsp::?relay`
        FUNCTION `??ZDP_ServerDiscRsp::?relay`,0203H
        PUBLIC `??ZDP_SimpleDescMsg::?relay`
        FUNCTION `??ZDP_SimpleDescMsg::?relay`,0203H
        PUBLIC `??ZDP_SimpleDescReq::?relay`
        FUNCTION `??ZDP_SimpleDescReq::?relay`,0203H
        PUBLIC `??ZDP_UserDescRsp::?relay`
        FUNCTION `??ZDP_UserDescRsp::?relay`,0203H
        PUBLIC `??ZDP_UserDescSet::?relay`
        FUNCTION `??ZDP_UserDescSet::?relay`,0203H
        FUNCTION `??fillAndSend::?relay`,0203H
        PUBLIC `??zdpProcessAddrReq::?relay`
        FUNCTION `??zdpProcessAddrReq::?relay`,0203H
        PUBLIC ZDO_RegisterForZDOMsg
        FUNCTION ZDO_RegisterForZDOMsg,0a1203H
        ARGFRAME XSTACK, 0, STACK
        LOCFRAME ISTACK, 1, STACK
        LOCFRAME XSTACK, 14, STACK
        PUBLIC ZDO_RemoveRegisteredCB
        FUNCTION ZDO_RemoveRegisteredCB,021203H
        ARGFRAME XSTACK, 0, STACK
        LOCFRAME XSTACK, 9, STACK
        PUBLIC ZDO_SendMsgCBs
        FUNCTION ZDO_SendMsgCBs,0a1203H
        ARGFRAME XSTACK, 33, STACK
        ARGFRAME IOVERLAY, 0, STATIC
        ARGFRAME DOVERLAY, 0, STATIC
        LOCFRAME XSTACK, 21, STACK
        PUBLIC ZDP_AF_ENDPOINT
        PUBLIC ZDP_BindUnbindReq
        FUNCTION ZDP_BindUnbindReq,0a1203H
        ARGFRAME XSTACK, 8, STACK
        LOCFRAME ISTACK, 1, STACK
        LOCFRAME XSTACK, 20, STACK
        PUBLIC ZDP_DeviceAnnce
        FUNCTION ZDP_DeviceAnnce,0a1203H
        ARGFRAME XSTACK, 1, STACK
        LOCFRAME ISTACK, 1, STACK
        LOCFRAME XSTACK, 21, STACK
        PUBLIC ZDP_EPRsp
        FUNCTION ZDP_EPRsp,0a1203H
        ARGFRAME XSTACK, 7, STACK
        LOCFRAME ISTACK, 1, STACK
        LOCFRAME XSTACK, 19, STACK
        PUBLIC ZDP_EndDeviceBindReq
        FUNCTION ZDP_EndDeviceBindReq,0a1203H
        ARGFRAME XSTACK, 9, STACK
        LOCFRAME ISTACK, 1, STACK
        LOCFRAME XSTACK, 20, STACK
        PUBLIC ZDP_GenericRsp
        FUNCTION ZDP_GenericRsp,021203H
        ARGFRAME XSTACK, 4, STACK
        LOCFRAME ISTACK, 1, STACK
        LOCFRAME XSTACK, 12, STACK
        PUBLIC ZDP_IEEEAddrReq
        FUNCTION ZDP_IEEEAddrReq,0a1203H
        ARGFRAME XSTACK, 0, STACK
        LOCFRAME ISTACK, 1, STACK
        LOCFRAME XSTACK, 21, STACK
        PUBLIC ZDP_IncomingData
        FUNCTION ZDP_IncomingData,0a1203H
        ARGFRAME XSTACK, 0, STACK
        LOCFRAME ISTACK, 1, STACK
        LOCFRAME XSTACK, 33, STACK
        PUBLIC ZDP_MatchDescReq
        FUNCTION ZDP_MatchDescReq,0a1203H
        ARGFRAME XSTACK, 8, STACK
        LOCFRAME ISTACK, 1, STACK
        LOCFRAME XSTACK, 16, STACK
        PUBLIC ZDP_MgmtBindRsp
        FUNCTION ZDP_MgmtBindRsp,0a1203H
        ARGFRAME XSTACK, 5, STACK
        LOCFRAME ISTACK, 1, STACK
        LOCFRAME XSTACK, 25, STACK
        PUBLIC ZDP_MgmtDirectJoinReq
        FUNCTION ZDP_MgmtDirectJoinReq,0a1203H
        ARGFRAME XSTACK, 1, STACK
        LOCFRAME ISTACK, 1, STACK
        LOCFRAME XSTACK, 14, STACK
        PUBLIC ZDP_MgmtLeaveReq
        FUNCTION ZDP_MgmtLeaveReq,0a1203H
        ARGFRAME XSTACK, 2, STACK
        LOCFRAME XSTACK, 14, STACK
        PUBLIC ZDP_MgmtLqiRsp
        FUNCTION ZDP_MgmtLqiRsp,0a1203H
        ARGFRAME XSTACK, 5, STACK
        LOCFRAME ISTACK, 1, STACK
        LOCFRAME XSTACK, 24, STACK
        PUBLIC ZDP_MgmtNwkDiscReq
        FUNCTION ZDP_MgmtNwkDiscReq,0a1203H
        ARGFRAME XSTACK, 4, STACK
        LOCFRAME ISTACK, 1, STACK
        LOCFRAME XSTACK, 16, STACK
        PUBLIC ZDP_MgmtNwkDiscRsp
        FUNCTION ZDP_MgmtNwkDiscRsp,0a1203H
        ARGFRAME XSTACK, 5, STACK
        LOCFRAME ISTACK, 1, STACK
        LOCFRAME XSTACK, 25, STACK
        PUBLIC ZDP_MgmtNwkUpdateNotify
        FUNCTION ZDP_MgmtNwkUpdateNotify,0a1203H
        ARGFRAME XSTACK, 12, STACK
        LOCFRAME ISTACK, 1, STACK
        LOCFRAME XSTACK, 23, STACK
        PUBLIC ZDP_MgmtNwkUpdateReq
        FUNCTION ZDP_MgmtNwkUpdateReq,0a1203H
        ARGFRAME XSTACK, 6, STACK
        LOCFRAME ISTACK, 1, STACK
        LOCFRAME XSTACK, 18, STACK
        PUBLIC ZDP_MgmtPermitJoinReq
        FUNCTION ZDP_MgmtPermitJoinReq,0a1203H
        ARGFRAME XSTACK, 0, STACK
        LOCFRAME ISTACK, 1, STACK
        LOCFRAME XSTACK, 23, STACK
        PUBLIC ZDP_MgmtRtgRsp
        FUNCTION ZDP_MgmtRtgRsp,0a1203H
        ARGFRAME XSTACK, 5, STACK
        LOCFRAME ISTACK, 1, STACK
        LOCFRAME XSTACK, 23, STACK
        PUBLIC ZDP_NWKAddrOfInterestReq
        FUNCTION ZDP_NWKAddrOfInterestReq,0a1203H
        ARGFRAME XSTACK, 1, STACK
        LOCFRAME ISTACK, 1, STACK
        LOCFRAME XSTACK, 12, STACK
        PUBLIC ZDP_NodeDescMsg
        FUNCTION ZDP_NodeDescMsg,0a1203H
        ARGFRAME XSTACK, 2, STACK
        LOCFRAME ISTACK, 1, STACK
        LOCFRAME XSTACK, 12, STACK
        PUBLIC ZDP_NwkAddrReq
        FUNCTION ZDP_NwkAddrReq,0a1203H
        ARGFRAME XSTACK, 0, STACK
        LOCFRAME ISTACK, 1, STACK
        LOCFRAME XSTACK, 23, STACK
        PUBLIC ZDP_ParentAnnce
        FUNCTION ZDP_ParentAnnce,0a1203H
        ARGFRAME XSTACK, 5, STACK
        LOCFRAME ISTACK, 1, STACK
        LOCFRAME XSTACK, 26, STACK
        PUBLIC ZDP_PowerDescMsg
        FUNCTION ZDP_PowerDescMsg,0a1203H
        ARGFRAME XSTACK, 2, STACK
        LOCFRAME ISTACK, 1, STACK
        LOCFRAME XSTACK, 12, STACK
        PUBLIC ZDP_SendData
        FUNCTION ZDP_SendData,0a1203H
        ARGFRAME XSTACK, 5, STACK
        LOCFRAME ISTACK, 1, STACK
        LOCFRAME XSTACK, 14, STACK
        PUBLIC ZDP_ServerDiscReq
        FUNCTION ZDP_ServerDiscReq,0a1203H
        ARGFRAME XSTACK, 0, STACK
        LOCFRAME ISTACK, 1, STACK
        LOCFRAME XSTACK, 21, STACK
        PUBLIC ZDP_ServerDiscRsp
        FUNCTION ZDP_ServerDiscRsp,0a1203H
        ARGFRAME XSTACK, 4, STACK
        LOCFRAME ISTACK, 1, STACK
        LOCFRAME XSTACK, 13, STACK
        PUBLIC ZDP_SimpleDescMsg
        FUNCTION ZDP_SimpleDescMsg,0a1203H
        ARGFRAME XSTACK, 0, STACK
        LOCFRAME ISTACK, 1, STACK
        LOCFRAME XSTACK, 22, STACK
        PUBLIC ZDP_SimpleDescReq
        FUNCTION ZDP_SimpleDescReq,0a1203H
        ARGFRAME XSTACK, 1, STACK
        LOCFRAME ISTACK, 1, STACK
        LOCFRAME XSTACK, 12, STACK
        PUBLIC ZDP_TransID
        PUBLIC ZDP_TxOptions
        PUBLIC ZDP_UserDescRsp
        FUNCTION ZDP_UserDescRsp,0a1203H
        ARGFRAME XSTACK, 3, STACK
        LOCFRAME ISTACK, 1, STACK
        LOCFRAME XSTACK, 22, STACK
        PUBLIC ZDP_UserDescSet
        FUNCTION ZDP_UserDescSet,0a1203H
        ARGFRAME XSTACK, 2, STACK
        LOCFRAME ISTACK, 1, STACK
        LOCFRAME XSTACK, 18, STACK
        PUBWEAK __Constant_a
        PUBLIC childIndex
        FUNCTION fillAndSend,0a1203H
        ARGFRAME XSTACK, 25, STACK
        ARGFRAME IOVERLAY, 0, STATIC
        ARGFRAME DOVERLAY, 0, STATIC
        LOCFRAME ISTACK, 1, STACK
        LOCFRAME XSTACK, 35, STACK
        PUBLIC zdoMsgCBs
        PUBLIC zdpMsgProcs
        PUBLIC zdpProcessAddrReq
        FUNCTION zdpProcessAddrReq,0a1603H
        ARGFRAME XSTACK, 0, STACK
        LOCFRAME ISTACK, 1, STACK
        LOCFRAME XSTACK, 19, STACK
        
          CFI Names cfiNames0
          CFI StackFrame CFA_SP SP IDATA
          CFI StackFrame CFA_PSP16 PSP16 XDATA
          CFI StackFrame CFA_XSP16 XSP16 XDATA
          CFI StaticOverlayFrame CFA_IOVERLAY IOVERLAY
          CFI StaticOverlayFrame CFA_DOVERLAY DOVERLAY
          CFI Resource `PSW.CY`:1, `B.BR0`:1, `B.BR1`:1, `B.BR2`:1, `B.BR3`:1
          CFI Resource `B.BR4`:1, `B.BR5`:1, `B.BR6`:1, `B.BR7`:1, `VB.BR8`:1
          CFI Resource `VB.BR9`:1, `VB.BR10`:1, `VB.BR11`:1, `VB.BR12`:1
          CFI Resource `VB.BR13`:1, `VB.BR14`:1, `VB.BR15`:1, VB:8, B:8, A:8
          CFI Resource PSW:8, DPL0:8, DPH0:8, R0:8, R1:8, R2:8, R3:8, R4:8, R5:8
          CFI Resource R6:8, R7:8, V0:8, V1:8, V2:8, V3:8, V4:8, V5:8, V6:8, V7:8
          CFI Resource V8:8, V9:8, V10:8, V11:8, V12:8, V13:8, V14:8, V15:8, SP:8
          CFI Resource PSPH:8, PSPL:8, PSP16:16, XSPH:8, XSPL:8, XSP16:16
          CFI VirtualResource ?RET:24
          CFI Resource ?BRET_EXT:8
          CFI VirtualResource ?RET_HIGH:8, ?RET_LOW:8
          CFI ResourceParts PSP16 PSPH, PSPL
          CFI ResourceParts XSP16 XSPH, XSPL
          CFI ResourceParts ?RET ?BRET_EXT, ?RET_HIGH, ?RET_LOW
          CFI EndNames cfiNames0
        
          CFI Common cfiCommon0 Using cfiNames0
          CFI CodeAlign 1
          CFI DataAlign -1
          CFI ReturnAddress ?RET CODE
          CFI CFA_DOVERLAY Used
          CFI CFA_IOVERLAY Used
          CFI CFA_SP SP+-3
          CFI CFA_PSP16 PSP16+0
          CFI CFA_XSP16 XSP16+0
          CFI `PSW.CY` SameValue
          CFI `B.BR0` SameValue
          CFI `B.BR1` SameValue
          CFI `B.BR2` SameValue
          CFI `B.BR3` SameValue
          CFI `B.BR4` SameValue
          CFI `B.BR5` SameValue
          CFI `B.BR6` SameValue
          CFI `B.BR7` SameValue
          CFI `VB.BR8` SameValue
          CFI `VB.BR9` SameValue
          CFI `VB.BR10` SameValue
          CFI `VB.BR11` SameValue
          CFI `VB.BR12` SameValue
          CFI `VB.BR13` SameValue
          CFI `VB.BR14` SameValue
          CFI `VB.BR15` SameValue
          CFI VB SameValue
          CFI B Undefined
          CFI A Undefined
          CFI PSW SameValue
          CFI DPL0 SameValue
          CFI DPH0 SameValue
          CFI R0 Undefined
          CFI R1 Undefined
          CFI R2 Undefined
          CFI R3 Undefined
          CFI R4 Undefined
          CFI R5 Undefined
          CFI R6 SameValue
          CFI R7 SameValue
          CFI V0 SameValue
          CFI V1 SameValue
          CFI V2 SameValue
          CFI V3 SameValue
          CFI V4 SameValue
          CFI V5 SameValue
          CFI V6 SameValue
          CFI V7 SameValue
          CFI V8 SameValue
          CFI V9 SameValue
          CFI V10 SameValue
          CFI V11 SameValue
          CFI V12 SameValue
          CFI V13 SameValue
          CFI V14 SameValue
          CFI V15 SameValue
          CFI PSPH Undefined
          CFI PSPL Undefined
          CFI XSPH Undefined
          CFI XSPL Undefined
          CFI ?RET Concat
          CFI ?BRET_EXT Frame(CFA_SP, 3)
          CFI ?RET_HIGH Frame(CFA_SP, 2)
          CFI ?RET_LOW Frame(CFA_SP, 1)
          CFI EndCommon cfiCommon0
        
        
          CFI Common cfiCommon1 Using cfiNames0
          CFI CodeAlign 1
          CFI DataAlign -1
          CFI ReturnAddress ?RET CODE
          CFI CFA_DOVERLAY Used
          CFI CFA_IOVERLAY Used
          CFI CFA_SP SP+-2
          CFI CFA_PSP16 PSP16+0
          CFI CFA_XSP16 XSP16+0
          CFI `PSW.CY` SameValue
          CFI `B.BR0` SameValue
          CFI `B.BR1` SameValue
          CFI `B.BR2` SameValue
          CFI `B.BR3` SameValue
          CFI `B.BR4` SameValue
          CFI `B.BR5` SameValue
          CFI `B.BR6` SameValue
          CFI `B.BR7` SameValue
          CFI `VB.BR8` SameValue
          CFI `VB.BR9` SameValue
          CFI `VB.BR10` SameValue
          CFI `VB.BR11` SameValue
          CFI `VB.BR12` SameValue
          CFI `VB.BR13` SameValue
          CFI `VB.BR14` SameValue
          CFI `VB.BR15` SameValue
          CFI VB SameValue
          CFI B SameValue
          CFI A SameValue
          CFI PSW SameValue
          CFI DPL0 SameValue
          CFI DPH0 SameValue
          CFI R0 SameValue
          CFI R1 SameValue
          CFI R2 SameValue
          CFI R3 SameValue
          CFI R4 SameValue
          CFI R5 SameValue
          CFI R6 SameValue
          CFI R7 SameValue
          CFI V0 SameValue
          CFI V1 SameValue
          CFI V2 SameValue
          CFI V3 SameValue
          CFI V4 SameValue
          CFI V5 SameValue
          CFI V6 SameValue
          CFI V7 SameValue
          CFI V8 SameValue
          CFI V9 SameValue
          CFI V10 SameValue
          CFI V11 SameValue
          CFI V12 SameValue
          CFI V13 SameValue
          CFI V14 SameValue
          CFI V15 SameValue
          CFI PSPH Undefined
          CFI PSPL Undefined
          CFI XSPH Undefined
          CFI XSPL Undefined
          CFI ?RET Concat
          CFI ?BRET_EXT SameValue
          CFI ?RET_HIGH Frame(CFA_SP, 2)
          CFI ?RET_LOW Frame(CFA_SP, 1)
          CFI EndCommon cfiCommon1
        
AF_DataRequest      SYMBOL "AF_DataRequest"
`??AF_DataRequest::?relay` SYMBOL "?relay", AF_DataRequest
NLME_GetExtAddr     SYMBOL "NLME_GetExtAddr"
`??NLME_GetExtAddr::?relay` SYMBOL "?relay", NLME_GetExtAddr
NLME_GetShortAddr   SYMBOL "NLME_GetShortAddr"
`??NLME_GetShortAddr::?relay` SYMBOL "?relay", NLME_GetShortAddr
ZDApp_InMsgCB       SYMBOL "ZDApp_InMsgCB"
`??ZDApp_InMsgCB::?relay` SYMBOL "?relay", ZDApp_InMsgCB
ZDApp_SetParentAnnceTimer SYMBOL "ZDApp_SetParentAnnceTimer"
`??ZDApp_SetParentAnnceTimer::?relay` SYMBOL "?relay", ZDApp_SetParentAnnceTimer
`?<Name ZDO_ProcessActiveEPR 10>` SYMBOL "ZDO_ProcessActiveEPReq"
`??ZDO_ProcessActiveEPReq::?relay` SYMBOL "?relay", `?<Name ZDO_ProcessActiveEPR 10>`
`?<Name ZDO_ProcessMatchDesc 12>` SYMBOL "ZDO_ProcessMatchDescReq"
`??ZDO_ProcessMatchDescReq::?relay` SYMBOL "?relay", `?<Name ZDO_ProcessMatchDesc 12>`
`?<Name ZDO_ProcessMgmtBindR 14>` SYMBOL "ZDO_ProcessMgmtBindReq"
`??ZDO_ProcessMgmtBindReq::?relay` SYMBOL "?relay", `?<Name ZDO_ProcessMgmtBindR 14>`
`?<Name ZDO_ProcessMgmtLeave 16>` SYMBOL "ZDO_ProcessMgmtLeaveReq"
`??ZDO_ProcessMgmtLeaveReq::?relay` SYMBOL "?relay", `?<Name ZDO_ProcessMgmtLeave 16>`
`?<Name ZDO_ProcessMgmtLqiRe 18>` SYMBOL "ZDO_ProcessMgmtLqiReq"
`??ZDO_ProcessMgmtLqiReq::?relay` SYMBOL "?relay", `?<Name ZDO_ProcessMgmtLqiRe 18>`
`?<Name ZDO_ProcessNodeDescR 20>` SYMBOL "ZDO_ProcessNodeDescReq"
`??ZDO_ProcessNodeDescReq::?relay` SYMBOL "?relay", `?<Name ZDO_ProcessNodeDescR 20>`
`?<Name ZDO_ProcessNodeDescR 22>` SYMBOL "ZDO_ProcessNodeDescRsp"
`??ZDO_ProcessNodeDescRsp::?relay` SYMBOL "?relay", `?<Name ZDO_ProcessNodeDescR 22>`
`?<Name ZDO_ProcessPowerDesc 24>` SYMBOL "ZDO_ProcessPowerDescReq"
`??ZDO_ProcessPowerDescReq::?relay` SYMBOL "?relay", `?<Name ZDO_ProcessPowerDesc 24>`
`?<Name ZDO_ProcessSimpleDes 26>` SYMBOL "ZDO_ProcessSimpleDescReq"
`??ZDO_ProcessSimpleDescReq::?relay` SYMBOL "?relay", `?<Name ZDO_ProcessSimpleDes 26>`
`?<Name ZDO_ProcessSimpleDes 28>` SYMBOL "ZDO_ProcessSimpleDescRsp"
`??ZDO_ProcessSimpleDescRsp::?relay` SYMBOL "?relay", `?<Name ZDO_ProcessSimpleDes 28>`
osal_buffer_uint32  SYMBOL "osal_buffer_uint32"
`??osal_buffer_uint32::?relay` SYMBOL "?relay", osal_buffer_uint32
osal_mem_alloc      SYMBOL "osal_mem_alloc"
`??osal_mem_alloc::?relay` SYMBOL "?relay", osal_mem_alloc
osal_mem_free       SYMBOL "osal_mem_free"
`??osal_mem_free::?relay` SYMBOL "?relay", osal_mem_free
osal_memcpy         SYMBOL "osal_memcpy"
`??osal_memcpy::?relay` SYMBOL "?relay", osal_memcpy
osal_memset         SYMBOL "osal_memset"
`??osal_memset::?relay` SYMBOL "?relay", osal_memset
osal_msg_allocate   SYMBOL "osal_msg_allocate"
`??osal_msg_allocate::?relay` SYMBOL "?relay", osal_msg_allocate
osal_msg_send       SYMBOL "osal_msg_send"
`??osal_msg_send::?relay` SYMBOL "?relay", osal_msg_send
osal_start_timerEx  SYMBOL "osal_start_timerEx"
`??osal_start_timerEx::?relay` SYMBOL "?relay", osal_start_timerEx
sAddrExtCmp         SYMBOL "sAddrExtCmp"
`??sAddrExtCmp::?relay` SYMBOL "?relay", sAddrExtCmp
sAddrExtCpy         SYMBOL "sAddrExtCpy"
`??sAddrExtCpy::?relay` SYMBOL "?relay", sAddrExtCpy
ZDO_RegisterForZDOMsg SYMBOL "ZDO_RegisterForZDOMsg"
`??ZDO_RegisterForZDOMsg::?relay` SYMBOL "?relay", ZDO_RegisterForZDOMsg
ZDO_RemoveRegisteredCB SYMBOL "ZDO_RemoveRegisteredCB"
`??ZDO_RemoveRegisteredCB::?relay` SYMBOL "?relay", ZDO_RemoveRegisteredCB
ZDO_SendMsgCBs      SYMBOL "ZDO_SendMsgCBs"
`??ZDO_SendMsgCBs::?relay` SYMBOL "?relay", ZDO_SendMsgCBs
ZDP_BindUnbindReq   SYMBOL "ZDP_BindUnbindReq"
`??ZDP_BindUnbindReq::?relay` SYMBOL "?relay", ZDP_BindUnbindReq
ZDP_DeviceAnnce     SYMBOL "ZDP_DeviceAnnce"
`??ZDP_DeviceAnnce::?relay` SYMBOL "?relay", ZDP_DeviceAnnce
ZDP_EPRsp           SYMBOL "ZDP_EPRsp"
`??ZDP_EPRsp::?relay` SYMBOL "?relay", ZDP_EPRsp
ZDP_EndDeviceBindReq SYMBOL "ZDP_EndDeviceBindReq"
`??ZDP_EndDeviceBindReq::?relay` SYMBOL "?relay", ZDP_EndDeviceBindReq
ZDP_GenericRsp      SYMBOL "ZDP_GenericRsp"
`??ZDP_GenericRsp::?relay` SYMBOL "?relay", ZDP_GenericRsp
ZDP_IEEEAddrReq     SYMBOL "ZDP_IEEEAddrReq"
`??ZDP_IEEEAddrReq::?relay` SYMBOL "?relay", ZDP_IEEEAddrReq
ZDP_IncomingData    SYMBOL "ZDP_IncomingData"
`??ZDP_IncomingData::?relay` SYMBOL "?relay", ZDP_IncomingData
ZDP_MatchDescReq    SYMBOL "ZDP_MatchDescReq"
`??ZDP_MatchDescReq::?relay` SYMBOL "?relay", ZDP_MatchDescReq
ZDP_MgmtBindRsp     SYMBOL "ZDP_MgmtBindRsp"
`??ZDP_MgmtBindRsp::?relay` SYMBOL "?relay", ZDP_MgmtBindRsp
ZDP_MgmtDirectJoinReq SYMBOL "ZDP_MgmtDirectJoinReq"
`??ZDP_MgmtDirectJoinReq::?relay` SYMBOL "?relay", ZDP_MgmtDirectJoinReq
ZDP_MgmtLeaveReq    SYMBOL "ZDP_MgmtLeaveReq"
`??ZDP_MgmtLeaveReq::?relay` SYMBOL "?relay", ZDP_MgmtLeaveReq
ZDP_MgmtLqiRsp      SYMBOL "ZDP_MgmtLqiRsp"
`??ZDP_MgmtLqiRsp::?relay` SYMBOL "?relay", ZDP_MgmtLqiRsp
ZDP_MgmtNwkDiscReq  SYMBOL "ZDP_MgmtNwkDiscReq"
`??ZDP_MgmtNwkDiscReq::?relay` SYMBOL "?relay", ZDP_MgmtNwkDiscReq
ZDP_MgmtNwkDiscRsp  SYMBOL "ZDP_MgmtNwkDiscRsp"
`??ZDP_MgmtNwkDiscRsp::?relay` SYMBOL "?relay", ZDP_MgmtNwkDiscRsp
ZDP_MgmtNwkUpdateNotify SYMBOL "ZDP_MgmtNwkUpdateNotify"
`??ZDP_MgmtNwkUpdateNotify::?relay` SYMBOL "?relay", ZDP_MgmtNwkUpdateNotify
ZDP_MgmtNwkUpdateReq SYMBOL "ZDP_MgmtNwkUpdateReq"
`??ZDP_MgmtNwkUpdateReq::?relay` SYMBOL "?relay", ZDP_MgmtNwkUpdateReq
ZDP_MgmtPermitJoinReq SYMBOL "ZDP_MgmtPermitJoinReq"
`??ZDP_MgmtPermitJoinReq::?relay` SYMBOL "?relay", ZDP_MgmtPermitJoinReq
ZDP_MgmtRtgRsp      SYMBOL "ZDP_MgmtRtgRsp"
`??ZDP_MgmtRtgRsp::?relay` SYMBOL "?relay", ZDP_MgmtRtgRsp
ZDP_NWKAddrOfInterestReq SYMBOL "ZDP_NWKAddrOfInterestReq"
`??ZDP_NWKAddrOfInterestReq::?relay` SYMBOL "?relay", ZDP_NWKAddrOfInterestReq
ZDP_NodeDescMsg     SYMBOL "ZDP_NodeDescMsg"
`??ZDP_NodeDescMsg::?relay` SYMBOL "?relay", ZDP_NodeDescMsg
ZDP_NwkAddrReq      SYMBOL "ZDP_NwkAddrReq"
`??ZDP_NwkAddrReq::?relay` SYMBOL "?relay", ZDP_NwkAddrReq
ZDP_ParentAnnce     SYMBOL "ZDP_ParentAnnce"
`??ZDP_ParentAnnce::?relay` SYMBOL "?relay", ZDP_ParentAnnce
ZDP_PowerDescMsg    SYMBOL "ZDP_PowerDescMsg"
`??ZDP_PowerDescMsg::?relay` SYMBOL "?relay", ZDP_PowerDescMsg
ZDP_SendData        SYMBOL "ZDP_SendData"
`??ZDP_SendData::?relay` SYMBOL "?relay", ZDP_SendData
ZDP_ServerDiscReq   SYMBOL "ZDP_ServerDiscReq"
`??ZDP_ServerDiscReq::?relay` SYMBOL "?relay", ZDP_ServerDiscReq
ZDP_ServerDiscRsp   SYMBOL "ZDP_ServerDiscRsp"
`??ZDP_ServerDiscRsp::?relay` SYMBOL "?relay", ZDP_ServerDiscRsp
ZDP_SimpleDescMsg   SYMBOL "ZDP_SimpleDescMsg"
`??ZDP_SimpleDescMsg::?relay` SYMBOL "?relay", ZDP_SimpleDescMsg
ZDP_SimpleDescReq   SYMBOL "ZDP_SimpleDescReq"
`??ZDP_SimpleDescReq::?relay` SYMBOL "?relay", ZDP_SimpleDescReq
ZDP_UserDescRsp     SYMBOL "ZDP_UserDescRsp"
`??ZDP_UserDescRsp::?relay` SYMBOL "?relay", ZDP_UserDescRsp
ZDP_UserDescSet     SYMBOL "ZDP_UserDescSet"
`??ZDP_UserDescSet::?relay` SYMBOL "?relay", ZDP_UserDescSet
zdpProcessAddrReq   SYMBOL "zdpProcessAddrReq"
`??zdpProcessAddrReq::?relay` SYMBOL "?relay", zdpProcessAddrReq

        EXTERN `??AF_DataRequest::?relay`
        FUNCTION `??AF_DataRequest::?relay`,00H
        EXTERN `??NLME_GetExtAddr::?relay`
        FUNCTION `??NLME_GetExtAddr::?relay`,00H
        EXTERN `??NLME_GetShortAddr::?relay`
        FUNCTION `??NLME_GetShortAddr::?relay`,00H
        EXTERN `??ZDApp_InMsgCB::?relay`
        FUNCTION `??ZDApp_InMsgCB::?relay`,00H
        EXTERN `??ZDApp_SetParentAnnceTimer::?relay`
        FUNCTION `??ZDApp_SetParentAnnceTimer::?relay`,00H
        EXTERN `??ZDO_ProcessActiveEPReq::?relay`
        FUNCTION `??ZDO_ProcessActiveEPReq::?relay`,00H
        EXTERN `??ZDO_ProcessMatchDescReq::?relay`
        FUNCTION `??ZDO_ProcessMatchDescReq::?relay`,00H
        EXTERN `??ZDO_ProcessMgmtBindReq::?relay`
        FUNCTION `??ZDO_ProcessMgmtBindReq::?relay`,00H
        EXTERN `??ZDO_ProcessMgmtLeaveReq::?relay`
        FUNCTION `??ZDO_ProcessMgmtLeaveReq::?relay`,00H
        EXTERN `??ZDO_ProcessMgmtLqiReq::?relay`
        FUNCTION `??ZDO_ProcessMgmtLqiReq::?relay`,00H
        EXTERN `??ZDO_ProcessNodeDescReq::?relay`
        FUNCTION `??ZDO_ProcessNodeDescReq::?relay`,00H
        EXTERN `??ZDO_ProcessNodeDescRsp::?relay`
        FUNCTION `??ZDO_ProcessNodeDescRsp::?relay`,00H
        EXTERN `??ZDO_ProcessPowerDescReq::?relay`
        FUNCTION `??ZDO_ProcessPowerDescReq::?relay`,00H
        EXTERN `??ZDO_ProcessSimpleDescReq::?relay`
        FUNCTION `??ZDO_ProcessSimpleDescReq::?relay`,00H
        EXTERN `??ZDO_ProcessSimpleDescRsp::?relay`
        FUNCTION `??ZDO_ProcessSimpleDescRsp::?relay`,00H
        EXTERN `??osal_buffer_uint32::?relay`
        FUNCTION `??osal_buffer_uint32::?relay`,00H
        EXTERN `??osal_mem_alloc::?relay`
        FUNCTION `??osal_mem_alloc::?relay`,00H
        EXTERN `??osal_mem_free::?relay`
        FUNCTION `??osal_mem_free::?relay`,00H
        EXTERN `??osal_memcpy::?relay`
        FUNCTION `??osal_memcpy::?relay`,00H
        EXTERN `??osal_memset::?relay`
        FUNCTION `??osal_memset::?relay`,00H
        EXTERN `??osal_msg_allocate::?relay`
        FUNCTION `??osal_msg_allocate::?relay`,00H
        EXTERN `??osal_msg_send::?relay`
        FUNCTION `??osal_msg_send::?relay`,00H
        EXTERN `??osal_start_timerEx::?relay`
        FUNCTION `??osal_start_timerEx::?relay`,00H
        EXTERN `??sAddrExtCmp::?relay`
        FUNCTION `??sAddrExtCmp::?relay`,00H
        EXTERN `??sAddrExtCpy::?relay`
        FUNCTION `??sAddrExtCpy::?relay`,00H
        EXTERN AF_DataRequest
        FUNCTION AF_DataRequest,0202H
        ARGFRAME ISTACK, 0, STACK
        ARGFRAME PSTACK, 0, STACK
        ARGFRAME XSTACK, 35, STACK
        ARGFRAME IOVERLAY, 0, STATIC
        ARGFRAME DOVERLAY, 0, STATIC
        EXTERN NLME_GetExtAddr
        FUNCTION NLME_GetExtAddr,0202H
        ARGFRAME ISTACK, 0, STACK
        ARGFRAME PSTACK, 0, STACK
        ARGFRAME XSTACK, 18, STACK
        ARGFRAME IOVERLAY, 0, STATIC
        ARGFRAME DOVERLAY, 0, STATIC
        EXTERN NLME_GetShortAddr
        FUNCTION NLME_GetShortAddr,0202H
        ARGFRAME ISTACK, 0, STACK
        ARGFRAME PSTACK, 0, STACK
        ARGFRAME XSTACK, 21, STACK
        ARGFRAME IOVERLAY, 0, STATIC
        ARGFRAME DOVERLAY, 0, STATIC
        EXTERN ZDAppNwkAddr
        EXTERN ZDAppTaskID
        EXTERN ZDApp_InMsgCB
        FUNCTION ZDApp_InMsgCB,0202H
        ARGFRAME ISTACK, 0, STACK
        ARGFRAME PSTACK, 0, STACK
        ARGFRAME XSTACK, 33, STACK
        ARGFRAME IOVERLAY, 0, STATIC
        ARGFRAME DOVERLAY, 0, STATIC
        EXTERN ZDApp_SetParentAnnceTimer
        FUNCTION ZDApp_SetParentAnnceTimer,0202H
        ARGFRAME ISTACK, 0, STACK
        ARGFRAME PSTACK, 0, STACK
        ARGFRAME XSTACK, 22, STACK
        ARGFRAME IOVERLAY, 0, STATIC
        ARGFRAME DOVERLAY, 0, STATIC
        EXTERN ZDApp_epDesc
        EXTERN osal_buffer_uint32
        FUNCTION osal_buffer_uint32,0202H
        ARGFRAME ISTACK, 0, STACK
        ARGFRAME PSTACK, 0, STACK
        ARGFRAME XSTACK, 23, STACK
        ARGFRAME IOVERLAY, 0, STATIC
        ARGFRAME DOVERLAY, 0, STATIC
        EXTERN osal_mem_alloc
        FUNCTION osal_mem_alloc,0202H
        ARGFRAME ISTACK, 0, STACK
        ARGFRAME PSTACK, 0, STACK
        ARGFRAME XSTACK, 23, STACK
        ARGFRAME IOVERLAY, 0, STATIC
        ARGFRAME DOVERLAY, 0, STATIC
        EXTERN osal_mem_free
        FUNCTION osal_mem_free,0202H
        ARGFRAME ISTACK, 0, STACK
        ARGFRAME PSTACK, 0, STACK
        ARGFRAME XSTACK, 23, STACK
        ARGFRAME IOVERLAY, 0, STATIC
        ARGFRAME DOVERLAY, 0, STATIC
        EXTERN osal_memcpy
        FUNCTION osal_memcpy,0202H
        ARGFRAME ISTACK, 0, STACK
        ARGFRAME PSTACK, 0, STACK
        ARGFRAME XSTACK, 22, STACK
        ARGFRAME IOVERLAY, 0, STATIC
        ARGFRAME DOVERLAY, 0, STATIC
        EXTERN osal_memset
        FUNCTION osal_memset,0202H
        ARGFRAME ISTACK, 0, STACK
        ARGFRAME PSTACK, 0, STACK
        ARGFRAME XSTACK, 26, STACK
        ARGFRAME IOVERLAY, 0, STATIC
        ARGFRAME DOVERLAY, 0, STATIC
        EXTERN osal_msg_allocate
        FUNCTION osal_msg_allocate,0202H
        ARGFRAME ISTACK, 0, STACK
        ARGFRAME PSTACK, 0, STACK
        ARGFRAME XSTACK, 18, STACK
        ARGFRAME IOVERLAY, 0, STATIC
        ARGFRAME DOVERLAY, 0, STATIC
        EXTERN osal_msg_send
        FUNCTION osal_msg_send,0202H
        ARGFRAME ISTACK, 0, STACK
        ARGFRAME PSTACK, 0, STACK
        ARGFRAME XSTACK, 18, STACK
        ARGFRAME IOVERLAY, 0, STATIC
        ARGFRAME DOVERLAY, 0, STATIC
        EXTERN osal_start_timerEx
        FUNCTION osal_start_timerEx,0202H
        ARGFRAME ISTACK, 0, STACK
        ARGFRAME PSTACK, 0, STACK
        ARGFRAME XSTACK, 26, STACK
        ARGFRAME IOVERLAY, 0, STATIC
        ARGFRAME DOVERLAY, 0, STATIC
        EXTERN sAddrExtCmp
        FUNCTION sAddrExtCmp,0202H
        ARGFRAME ISTACK, 0, STACK
        ARGFRAME PSTACK, 0, STACK
        ARGFRAME XSTACK, 21, STACK
        ARGFRAME IOVERLAY, 0, STATIC
        ARGFRAME DOVERLAY, 0, STATIC
        EXTERN sAddrExtCpy
        FUNCTION sAddrExtCpy,0202H
        ARGFRAME ISTACK, 1, STACK
        ARGFRAME PSTACK, 0, STACK
        ARGFRAME XSTACK, 23, STACK
        ARGFRAME IOVERLAY, 0, STATIC
        ARGFRAME DOVERLAY, 0, STATIC
        EXTERN saveExtAddr

// C:\Users\admin\Desktop\github\z-stack3.0.0\Components\stack\zdo\ZDProfile.c
//    1 /**************************************************************************************************
//    2   Filename:       ZDProfile.c
//    3   Revised:        $Date: 2015-10-14 11:48:06 -0700 (Wed, 14 Oct 2015) $
//    4   Revision:       $Revision: 44530 $
//    5 
//    6   Description:    This is the Zigbee Device Profile.
//    7 
//    8 
//    9   Copyright 2004-2015 Texas Instruments Incorporated. All rights reserved.
//   10 
//   11   IMPORTANT: Your use of this Software is limited to those specific rights
//   12   granted under the terms of a software license agreement between the user
//   13   who downloaded the software, his/her employer (which must be your employer)
//   14   and Texas Instruments Incorporated (the "License").  You may not use this
//   15   Software unless you agree to abide by the terms of the License. The License
//   16   limits your use, and you acknowledge, that the Software may not be modified,
//   17   copied or distributed unless embedded on a Texas Instruments microcontroller
//   18   or used solely and exclusively in conjunction with a Texas Instruments radio
//   19   frequency transceiver, which is integrated into your product.  Other than for
//   20   the foregoing purpose, you may not use, reproduce, copy, prepare derivative
//   21   works of, modify, distribute, perform, display or sell this Software and/or
//   22   its documentation for any purpose.
//   23 
//   24   YOU FURTHER ACKNOWLEDGE AND AGREE THAT THE SOFTWARE AND DOCUMENTATION ARE
//   25   PROVIDED "AS IS" WITHOUT WARRANTY OF ANY KIND, EITHER EXPRESS OR IMPLIED,
//   26   INCLUDING WITHOUT LIMITATION, ANY WARRANTY OF MERCHANTABILITY, TITLE,
//   27   NON-INFRINGEMENT AND FITNESS FOR A PARTICULAR PURPOSE. IN NO EVENT SHALL
//   28   TEXAS INSTRUMENTS OR ITS LICENSORS BE LIABLE OR OBLIGATED UNDER CONTRACT,
//   29   NEGLIGENCE, STRICT LIABILITY, CONTRIBUTION, BREACH OF WARRANTY, OR OTHER
//   30   LEGAL EQUITABLE THEORY ANY DIRECT OR INDIRECT DAMAGES OR EXPENSES
//   31   INCLUDING BUT NOT LIMITED TO ANY INCIDENTAL, SPECIAL, INDIRECT, PUNITIVE
//   32   OR CONSEQUENTIAL DAMAGES, LOST PROFITS OR LOST DATA, COST OF PROCUREMENT
//   33   OF SUBSTITUTE GOODS, TECHNOLOGY, SERVICES, OR ANY CLAIMS BY THIRD PARTIES
//   34   (INCLUDING BUT NOT LIMITED TO ANY DEFENSE THEREOF), OR OTHER SIMILAR COSTS.
//   35 
//   36   Should you have any questions regarding your right to use this Software,
//   37   contact Texas Instruments Incorporated at www.TI.com.
//   38 **************************************************************************************************/
//   39 
//   40 /*********************************************************************
//   41  * INCLUDES
//   42  */
//   43 #include "ZComDef.h"
//   44 #include "OSAL.h"
//   45 #include "AF.h"
//   46 #include "NLMEDE.h"
//   47 #include "nwk_util.h"
//   48 #include "APS.h"
//   49 
//   50 #include "AddrMgr.h"
//   51 #include "ZDConfig.h"
//   52 #include "ZDProfile.h"
//   53 #include "ZDObject.h"
//   54 #include "ZDNwkMgr.h"
//   55 
//   56 #if defined( LCD_SUPPORTED )
//   57   #include "OnBoard.h"
//   58 #endif
//   59 
//   60 #include "nwk_util.h"
//   61 
//   62 #if defined( MT_ZDO_FUNC )
//   63   #include "MT_ZDO.h"
//   64 #endif
//   65 
//   66 /*********************************************************************
//   67  * MACROS
//   68  */
//   69 
//   70 #define ZADDR_TO_AFADDR( pZADDR, AFADDR ) {                            \ 
//   71   (AFADDR).endPoint = ZDP_AF_ENDPOINT;                                 \ 
//   72   (AFADDR).addrMode = (afAddrMode_t)(pZADDR)->addrMode;                \ 
//   73   (AFADDR).addr.shortAddr = (pZADDR)->addr.shortAddr;                  \ 
//   74 }
//   75 
//   76 #define FillAndSendBuffer( TRANSSEQ, ADDR, ID, LEN, BUF ) {     \ 
//   77   afStatus_t stat;                                    \ 
//   78   ZDP_TmpBuf = (BUF)+1;                               \ 
//   79   stat = fillAndSend( (TRANSSEQ), (ADDR), (ID), (LEN) );          \ 
//   80   osal_mem_free( (BUF) );                             \ 
//   81   ZDP_TmpBuf = ZDP_Buf+1;                             \ 
//   82   return stat;                                        \ 
//   83 }
//   84 
//   85 #define FillAndSendTxOptions( TRANSSEQ, ADDR, ID, LEN, TxO ) {  \ 
//   86   afStatus_t stat;                                    \ 
//   87   ZDP_TxOptions = (TxO);                              \ 
//   88   stat = fillAndSend( (TRANSSEQ), (ADDR), (ID), (LEN) );          \ 
//   89   ZDP_TxOptions = AF_TX_OPTIONS_NONE;                 \ 
//   90   return stat;                                        \ 
//   91 }
//   92 
//   93 #define FillAndSendBufferTxOptions( TRANSSEQ, ADDR, ID, LEN, BUF, TxO ) { \ 
//   94   afStatus_t stat;                                    \ 
//   95   ZDP_TmpBuf = (BUF)+1;                               \ 
//   96   ZDP_TxOptions = (TxO);                              \ 
//   97   stat = fillAndSend( (TRANSSEQ), (ADDR), (ID), (LEN) );          \ 
//   98   osal_mem_free( (BUF) );                             \ 
//   99   ZDP_TmpBuf = ZDP_Buf+1;                             \ 
//  100   ZDP_TxOptions = AF_TX_OPTIONS_NONE;                 \ 
//  101   return stat;                                        \ 
//  102 }
//  103 
//  104 /*********************************************************************
//  105  * CONSTANTS
//  106  */
//  107 
//  108 #define ZDP_BUF_SZ          80
//  109 

        RSEG CODE_C:CODE:REORDER:NOROOT(0)
        DATA8
//  110 CONST byte ZDP_AF_ENDPOINT = 0;
ZDP_AF_ENDPOINT:
        DB 0
//  111 
//  112 // Routing table options
//  113 #define ZP_RTG_RECORD       0x04       // Routing table indication that a route record is needed
//  114 #define ZP_MTO_ROUTE_RC     0x08       // Concentrator with routing cache
//  115 #define ZP_MTO_ROUTE_NRC    0x10       // Concentrator with limited cache
//  116 
//  117 
//  118 /*********************************************************************
//  119  * TYPEDEFS
//  120  */
//  121 typedef struct
//  122 {
//  123   void *next;
//  124   uint8 taskID;
//  125   uint16 clusterID;
//  126 } ZDO_MsgCB_t;
//  127 
//  128 
//  129 /*********************************************************************
//  130  * GLOBAL VARIABLES
//  131  */
//  132 

        RSEG XDATA_Z:XDATA:NOROOT(0)
        DATA8
//  133 byte ZDP_TransID = 0;
ZDP_TransID:
        DS 1
        REQUIRE __INIT_XDATA_Z

        RSEG XDATA_Z:XDATA:NOROOT(0)
        DATA8
//  134 uint8 childIndex = 0;
childIndex:
        DS 1
        REQUIRE __INIT_XDATA_Z
//  135 
//  136 /*********************************************************************
//  137  * EXTERNAL VARIABLES
//  138  */
//  139 
//  140 extern endPointDesc_t ZDApp_epDesc;
//  141 
//  142 /*********************************************************************
//  143  * EXTERNAL FUNCTIONS
//  144  */
//  145 extern void ZDApp_SetParentAnnceTimer( void );
//  146 
//  147 /*********************************************************************
//  148  * LOCAL FUNCTIONS
//  149  */
//  150 
//  151 static afStatus_t fillAndSend( uint8 *transSeq, zAddrType_t *addr, cId_t clusterID, byte len );
//  152 uint8 ZDO_SendMsgCBs( zdoIncomingMsg_t *inMsg );
//  153 void zdpProcessAddrReq( zdoIncomingMsg_t *inMsg );
//  154 
//  155 /*********************************************************************
//  156  * LOCAL VARIABLES
//  157  */
//  158 

        RSEG XDATA_Z:XDATA:NOROOT(0)
        DATA8
//  159 static uint8  ZDP_Buf[ ZDP_BUF_SZ ];
ZDP_Buf:
        DS 80
        REQUIRE __INIT_XDATA_Z

        RSEG XDATA_I:XDATA:NOROOT(0)
//  160 static uint8 *ZDP_TmpBuf = ZDP_Buf+1;
ZDP_TmpBuf:
        DATA16
        DS 2
        REQUIRE `?<Initializer for ZDP_TmpBuf>`
        REQUIRE __INIT_XDATA_I
//  161 

        RSEG XDATA_Z:XDATA:NOROOT(0)
        DATA8
//  162 byte ZDP_TxOptions = AF_TX_OPTIONS_NONE;
ZDP_TxOptions:
        DS 1
        REQUIRE __INIT_XDATA_Z

        RSEG XDATA_Z:XDATA:NOROOT(0)
        DATA16
//  163 ZDO_MsgCB_t *zdoMsgCBs = (ZDO_MsgCB_t *)NULL;
zdoMsgCBs:
        DS 2
        REQUIRE __INIT_XDATA_Z
//  164 
//  165 /*********************************************************************
//  166  * ZDO Message Processing table
//  167  */
//  168 
//  169 typedef void (*pfnZDPMsgProcessor)( zdoIncomingMsg_t *inMsg );
//  170 
//  171 typedef struct
//  172 {
//  173   uint16                clusterID;
//  174   pfnZDPMsgProcessor    pFn;
//  175 } zdpMsgProcItem_t;
//  176 

        RSEG CODE_C:CODE:REORDER:NOROOT(0)
        DATA8
//  177 CONST zdpMsgProcItem_t zdpMsgProcs[] =
zdpMsgProcs:
        DATA16
        DW 1
        DW `??zdpProcessAddrReq::?relay`
        DW 2
        DW `??ZDO_ProcessNodeDescReq::?relay`
        DW 32770
        DW `??ZDO_ProcessNodeDescRsp::?relay`
        DW 3
        DW `??ZDO_ProcessPowerDescReq::?relay`
        DW 4
        DW `??ZDO_ProcessSimpleDescReq::?relay`
        DW 32772
        DW `??ZDO_ProcessSimpleDescRsp::?relay`
        DW 5
        DW `??ZDO_ProcessActiveEPReq::?relay`
        DW 6
        DW `??ZDO_ProcessMatchDescReq::?relay`
        DW 49
        DW `??ZDO_ProcessMgmtLqiReq::?relay`
        DW 51
        DW `??ZDO_ProcessMgmtBindReq::?relay`
        DW 52
        DW `??ZDO_ProcessMgmtLeaveReq::?relay`
        DW 65535
        DW 0H
//  178 {
//  179 #if ( RFD_RCVC_ALWAYS_ON==TRUE ) || ( ZG_BUILD_RTR_TYPE )
//  180   // These aren't processed by sleeping end devices.
//  181   { NWK_addr_req,           zdpProcessAddrReq },
//  182   { Device_annce,           ZDO_ProcessDeviceAnnce },
//  183 #endif
//  184 #if ( ZG_BUILD_RTR_TYPE )
//  185   // These aren't processed by end devices.
//  186   { Parent_annce,           ZDO_ProcessParentAnnce },
//  187   { Parent_annce_rsp,       ZDO_ProcessParentAnnceRsp },
//  188 #endif
//  189   { IEEE_addr_req,          zdpProcessAddrReq },
//  190   { Node_Desc_req,          ZDO_ProcessNodeDescReq },
//  191   { Node_Desc_rsp,          ZDO_ProcessNodeDescRsp },
//  192   { Power_Desc_req,         ZDO_ProcessPowerDescReq },
//  193   { Simple_Desc_req,        ZDO_ProcessSimpleDescReq },
//  194   { Simple_Desc_rsp,        ZDO_ProcessSimpleDescRsp },
//  195   { Active_EP_req,          ZDO_ProcessActiveEPReq },
//  196   { Match_Desc_req,         ZDO_ProcessMatchDescReq },
//  197 #if defined ( ZDO_MGMT_NWKDISC_RESPONSE )
//  198   { Mgmt_NWK_Disc_req,      ZDO_ProcessMgmtNwkDiscReq },
//  199 #endif
//  200 #if defined ( ZDO_MGMT_LQI_RESPONSE ) && ( ZG_BUILD_RTR_TYPE || ZG_BUILD_ENDDEVICE_TYPE )
//  201   { Mgmt_Lqi_req,           ZDO_ProcessMgmtLqiReq },
//  202 #endif
//  203 #if defined ( ZDO_MGMT_RTG_RESPONSE ) && ( ZG_BUILD_RTR_TYPE )
//  204   { Mgmt_Rtg_req,           ZDO_ProcessMgmtRtgReq },
//  205 #endif
//  206 #if defined ( ZDO_MGMT_BIND_RESPONSE ) && defined ( REFLECTOR )
//  207   { Mgmt_Bind_req,          ZDO_ProcessMgmtBindReq },
//  208 #endif
//  209 #if defined ( ZDO_MGMT_JOINDIRECT_RESPONSE ) && ( ZG_BUILD_RTR_TYPE )
//  210   { Mgmt_Direct_Join_req,   ZDO_ProcessMgmtDirectJoinReq },
//  211 #endif
//  212 #if defined ( ZDO_MGMT_LEAVE_RESPONSE )
//  213   { Mgmt_Leave_req,         ZDO_ProcessMgmtLeaveReq },
//  214 #endif
//  215 #if defined ( ZDO_MGMT_PERMIT_JOIN_RESPONSE )  && ( ZG_BUILD_RTR_TYPE )
//  216   { Mgmt_Permit_Join_req,   ZDO_ProcessMgmtPermitJoinReq },
//  217 #endif
//  218 #if defined ( ZDO_USERDESC_RESPONSE )
//  219   { User_Desc_req,          ZDO_ProcessUserDescReq },
//  220 #endif
//  221 #if defined ( ZDO_USERDESCSET_RESPONSE )
//  222   { User_Desc_set,          ZDO_ProcessUserDescSet },
//  223 #endif
//  224 #if defined ( ZDO_SERVERDISC_RESPONSE )
//  225   { Server_Discovery_req,   ZDO_ProcessServerDiscReq },
//  226 #endif
//  227   {0xFFFF, NULL} // Last
//  228 };
//  229 
//  230 /*********************************************************************
//  231  * @fn          fillAndSend
//  232  *
//  233  * @brief       Combined to reduce space
//  234  *
//  235  * @param
//  236  * @param
//  237  *
//  238  * @return      afStatus_t
//  239  */

        RSEG BANKED_CODE:CODE:NOROOT(0)
//  240 static afStatus_t fillAndSend( uint8 *transSeq, zAddrType_t *addr, cId_t clusterID, byte len )
fillAndSend:
          CFI Block cfiBlock0 Using cfiCommon0
          CFI Function fillAndSend
        CODE
//  241 {
        FUNCALL fillAndSend, osal_memset
        LOCFRAME ISTACK, 0, STACK
        LOCFRAME PSTACK, 0, STACK
        LOCFRAME XSTACK, 26, STACK
        LOCFRAME IOVERLAY, 0, STATIC
        LOCFRAME DOVERLAY, 0, STATIC
        ARGFRAME ISTACK, 0, STACK
        ARGFRAME PSTACK, 0, STACK
        ARGFRAME XSTACK, 26, STACK
        ARGFRAME IOVERLAY, 0, STATIC
        ARGFRAME DOVERLAY, 0, STATIC
        FUNCALL fillAndSend, AF_DataRequest
        LOCFRAME ISTACK, 0, STACK
        LOCFRAME PSTACK, 0, STACK
        LOCFRAME XSTACK, 35, STACK
        LOCFRAME IOVERLAY, 0, STATIC
        LOCFRAME DOVERLAY, 0, STATIC
        ARGFRAME ISTACK, 0, STACK
        ARGFRAME PSTACK, 0, STACK
        ARGFRAME XSTACK, 35, STACK
        ARGFRAME IOVERLAY, 0, STATIC
        ARGFRAME DOVERLAY, 0, STATIC
        REQUIRE ?V0
        REQUIRE ?V1
        REQUIRE ?V2
        REQUIRE ?V3
        REQUIRE ?V4
        REQUIRE ?V5
        MOV     A,#-0xe
        LCALL   ?BANKED_ENTER_XDATA
          CFI DPH0 load(1, XDATA, add(CFA_XSP16, literal(-1)))
          CFI DPL0 load(1, XDATA, add(CFA_XSP16, literal(-2)))
          CFI ?BRET_EXT load(1, XDATA, add(CFA_XSP16, literal(-3)))
          CFI ?RET_HIGH load(1, XDATA, add(CFA_XSP16, literal(-4)))
          CFI ?RET_LOW load(1, XDATA, add(CFA_XSP16, literal(-5)))
          CFI R7 load(1, XDATA, add(CFA_XSP16, literal(-6)))
          CFI V5 load(1, XDATA, add(CFA_XSP16, literal(-7)))
          CFI V4 load(1, XDATA, add(CFA_XSP16, literal(-8)))
          CFI V3 load(1, XDATA, add(CFA_XSP16, literal(-9)))
          CFI V2 load(1, XDATA, add(CFA_XSP16, literal(-10)))
          CFI V1 load(1, XDATA, add(CFA_XSP16, literal(-11)))
          CFI V0 load(1, XDATA, add(CFA_XSP16, literal(-12)))
          CFI VB load(1, XDATA, add(CFA_XSP16, literal(-13)))
          CFI R6 load(1, XDATA, add(CFA_XSP16, literal(-14)))
          CFI CFA_SP SP+0
          CFI CFA_XSP16 add(XSP16, 14)
        ; Saved register size: 14
        ; Auto size: 12
        MOV     A,#-0xc
        LCALL   ?ALLOC_XSTACK8
          CFI CFA_XSP16 add(XSP16, 26)
        MOV     ?V0,R2
        MOV     ?V1,R3
        MOV     A,R4
        MOV     R6,A
        MOV     A,R5
        MOV     R7,A
        MOV     ?V4,R1
//  242   afAddrType_t afAddr;
//  243 
//  244   osal_memset( &afAddr, 0, sizeof(afAddrType_t) );
        ; Setup parameters for call to function osal_memset
        MOV     R4,#0xc
        MOV     R5,#0x0
        MOV     R1,#0x0
        MOV     R2,?XSP + 0
        MOV     R3,?XSP + 1
        LCALL   `??osal_memset::?relay`; Banked call to: osal_memset
//  245   ZADDR_TO_AFADDR( addr, afAddr );
        MOV     A,#0x9
        LCALL   ?XSTACK_DISP0_8
        CLR     A
        LCALL   ?Subroutine22 & 0xFFFF
??CrossCallReturnLabel_22:
        MOVX    A,@DPTR
        PUSH    A
          CFI CFA_SP SP+-1
        MOV     A,#0x8
        LCALL   ?XSTACK_DISP0_8
        POP     A
          CFI CFA_SP SP+0
        MOVX    @DPTR,A
        MOV     DPL,R6
        MOV     DPH,R7
        LCALL   ?Subroutine51 & 0xFFFF
??CrossCallReturnLabel_76:
        LCALL   ?Subroutine30 & 0xFFFF
//  246 
//  247   *(ZDP_TmpBuf-1) = *transSeq;
??CrossCallReturnLabel_35:
        MOV     DPTR,#ZDP_TmpBuf
        MOVX    A,@DPTR
        ADD     A,#-0x1
        MOV     ?V2,A
        INC     DPTR
        MOVX    A,@DPTR
        ADDC    A,#-0x1
        MOV     ?V3,A
        MOV     DPL,?V0
        MOV     DPH,?V1
        MOVX    A,@DPTR
        MOV     DPL,?V2
        MOV     DPH,?V3
        MOVX    @DPTR,A
//  248 
//  249   return AF_DataRequest( &afAddr, &ZDApp_epDesc, clusterID,
//  250                            (uint16)(len+1), (uint8*)(ZDP_TmpBuf-1),
//  251                            transSeq, ZDP_TxOptions,  AF_DEFAULT_RADIUS );
        ; Setup parameters for call to function AF_DataRequest
        MOV     ?V5,#0x1e
        MOV     R0,#?V5
        LCALL   ?PUSH_XSTACK_I_ONE
          CFI CFA_XSP16 add(XSP16, 27)
        MOV     R0,#?V0
        LCALL   ?PUSH_XSTACK_I_TWO
          CFI CFA_XSP16 add(XSP16, 29)
        MOV     R0,#?V2
        LCALL   ?PUSH_XSTACK_I_TWO
          CFI CFA_XSP16 add(XSP16, 31)
        MOV     A,?V4
        ADD     A,#0x1
        MOV     ?V0,A
        CLR     A
        ADDC    A,#0x0
        MOV     ?V1,A
        MOV     R0,#?V0
        LCALL   ?PUSH_XSTACK_I_TWO
          CFI CFA_XSP16 add(XSP16, 33)
        MOV     A,#0x21
        LCALL   ?XSTACK_DISP0_8
        LCALL   ?PUSH_XSTACK8_X_TWO
          CFI CFA_XSP16 add(XSP16, 35)
        MOV     DPTR,#ZDP_TxOptions
        MOVX    A,@DPTR
        MOV     R1,A
        MOV     R4,#ZDApp_epDesc & 0xff
        MOV     R5,#(ZDApp_epDesc >> 8) & 0xff
        MOV     A,#0x9
        LCALL   ?XSTACK_DISP101_8
        LCALL   `??AF_DataRequest::?relay`; Banked call to: AF_DataRequest
        MOV     A,#0x9
        LCALL   ?DEALLOC_XSTACK8
          CFI CFA_XSP16 add(XSP16, 26)
        MOV     A,#0xc
        LJMP    ?Subroutine0 & 0xFFFF
//  252 
//  253 }
          CFI EndBlock cfiBlock0
//  254 
//  255 /*********************************************************************
//  256  * @fn          ZDP_SendData
//  257  *
//  258  * @brief       This builds and send a request message that has
//  259  *              NWKAddrOfInterest as its only parameter.
//  260  *
//  261  * @param       dstAddr - destination address
//  262  * @param       cmd - clusterID
//  263  * @param       dataLen - number of bytes of data
//  264  * @param       data - pointer to the data
//  265  * @param       SecurityEnable - Security Options
//  266  *
//  267  * @return      afStatus_t
//  268  */

        RSEG BANKED_CODE:CODE:NOROOT(0)
//  269 afStatus_t ZDP_SendData( uint8 *TransSeq, zAddrType_t *dstAddr, uint16 cmd,
ZDP_SendData:
          CFI Block cfiBlock1 Using cfiCommon0
          CFI Function ZDP_SendData
        CODE
//  270                         byte len, uint8 *buf, byte SecurityEnable )
//  271 {
        FUNCALL ZDP_SendData, fillAndSend
        LOCFRAME ISTACK, 0, STACK
        LOCFRAME PSTACK, 0, STACK
        LOCFRAME XSTACK, 14, STACK
        LOCFRAME IOVERLAY, 0, STATIC
        LOCFRAME DOVERLAY, 0, STATIC
        ARGFRAME ISTACK, 0, STACK
        ARGFRAME PSTACK, 0, STACK
        ARGFRAME XSTACK, 14, STACK
        ARGFRAME IOVERLAY, 0, STATIC
        ARGFRAME DOVERLAY, 0, STATIC
        REQUIRE ?V0
        REQUIRE ?V2
        REQUIRE ?V3
        MOV     A,#-0xc
        LCALL   ?BANKED_ENTER_XDATA
          CFI DPH0 load(1, XDATA, add(CFA_XSP16, literal(-1)))
          CFI DPL0 load(1, XDATA, add(CFA_XSP16, literal(-2)))
          CFI ?BRET_EXT load(1, XDATA, add(CFA_XSP16, literal(-3)))
          CFI ?RET_HIGH load(1, XDATA, add(CFA_XSP16, literal(-4)))
          CFI ?RET_LOW load(1, XDATA, add(CFA_XSP16, literal(-5)))
          CFI R7 load(1, XDATA, add(CFA_XSP16, literal(-6)))
          CFI V3 load(1, XDATA, add(CFA_XSP16, literal(-7)))
          CFI V2 load(1, XDATA, add(CFA_XSP16, literal(-8)))
          CFI V1 load(1, XDATA, add(CFA_XSP16, literal(-9)))
          CFI V0 load(1, XDATA, add(CFA_XSP16, literal(-10)))
          CFI VB load(1, XDATA, add(CFA_XSP16, literal(-11)))
          CFI R6 load(1, XDATA, add(CFA_XSP16, literal(-12)))
          CFI CFA_SP SP+0
          CFI CFA_XSP16 add(XSP16, 12)
        ; Saved register size: 12
        ; Auto size: 0
        MOV     A,R1
        MOV     R7,A
//  272   uint8 *pBuf = ZDP_TmpBuf;
        MOV     DPTR,#ZDP_TmpBuf
        LCALL   ?Subroutine45 & 0xFFFF
//  273   byte cnt = len;
??CrossCallReturnLabel_63:
        MOV     A,R7
        MOV     R6,A
        MOV     A,#0xe
        LCALL   ?XSTACK_DISP0_8
        LCALL   ??Subroutine122_0 & 0xFFFF
??CrossCallReturnLabel_241:
        SJMP    ??ZDP_SendData_0
//  274 
//  275   while ( cnt-- )
//  276   {
//  277     *pBuf++ = *buf++;
??ZDP_SendData_1:
        MOV     DPL,R0
        MOV     DPH,R1
        MOVX    A,@DPTR
        MOV     DPL,?V2
        MOV     DPH,?V3
        LCALL   ??Subroutine120_0 & 0xFFFF
//  278   }
??CrossCallReturnLabel_230:
        MOV     R0,DPL
        MOV     R1,DPH
        MOV     DPL,?V2
        MOV     DPH,?V3
        INC     DPTR
        MOV     ?V2,DPL
        MOV     ?V3,DPH
??ZDP_SendData_0:
        MOV     A,#-0x1
        ADD     A,R6
        MOV     R6,A
        INC     A
        JNZ     ??ZDP_SendData_1
//  279 
//  280   FillAndSendTxOptions( TransSeq, dstAddr, cmd, len, ((SecurityEnable) ? AF_EN_SECURITY : 0) );
        MOV     A,#0x10
        LCALL   ?XSTACK_DISP0_8
        MOVX    A,@DPTR
        MOV     DPTR,#ZDP_TxOptions
        JZ      ??ZDP_SendData_2
        MOV     A,#0x40
        SJMP    ??ZDP_SendData_3
??ZDP_SendData_2:
        CLR     A
??ZDP_SendData_3:
        MOVX    @DPTR,A
        ; Setup parameters for call to function fillAndSend
        MOV     A,#0xc
        LCALL   ?XSTACK_DISP0_8
        LCALL   ?PUSH_XSTACK8_X_TWO
          CFI CFA_XSP16 add(XSP16, 14)
        MOV     A,R7
        MOV     R1,A
        LCALL   `??fillAndSend::?relay`; Banked call to: fillAndSend
        MOV     A,#0x2
        LCALL   ?DEALLOC_XSTACK8
          CFI CFA_XSP16 add(XSP16, 12)
        MOV     A,R1
        MOV     R1,A
        MOV     DPTR,#ZDP_TxOptions
        CLR     A
        MOVX    @DPTR,A
        LJMP    ??Subroutine97_0 & 0xFFFF
//  281 }
          CFI EndBlock cfiBlock1
//  282 
//  283 /*********************************************************************
//  284  * @fn          ZDP_NWKAddrOfInterestReq
//  285  *
//  286  * @brief       This builds and send a request message that has
//  287  *              NWKAddrOfInterest as its only parameter.
//  288  *
//  289  * @param       dstAddr - destination address
//  290  * @param       nwkAddr - 16 bit address
//  291  * @param       SecurityEnable - Security Options
//  292  *
//  293  * @return      afStatus_t
//  294  */

        RSEG BANKED_CODE:CODE:NOROOT(0)
//  295 afStatus_t ZDP_NWKAddrOfInterestReq( zAddrType_t *dstAddr, uint16 nwkAddr,
ZDP_NWKAddrOfInterestReq:
          CFI Block cfiBlock2 Using cfiCommon0
          CFI Function ZDP_NWKAddrOfInterestReq
        CODE
//  296                                      byte cmd, byte SecurityEnable )
//  297 {
        FUNCALL ZDP_NWKAddrOfInterestReq, fillAndSend
        LOCFRAME ISTACK, 0, STACK
        LOCFRAME PSTACK, 0, STACK
        LOCFRAME XSTACK, 12, STACK
        LOCFRAME IOVERLAY, 0, STATIC
        LOCFRAME DOVERLAY, 0, STATIC
        ARGFRAME ISTACK, 0, STACK
        ARGFRAME PSTACK, 0, STACK
        ARGFRAME XSTACK, 12, STACK
        ARGFRAME IOVERLAY, 0, STATIC
        ARGFRAME DOVERLAY, 0, STATIC
        REQUIRE ?V0
        REQUIRE ?V1
        MOV     A,#-0xa
        LCALL   ?BANKED_ENTER_XDATA
          CFI DPH0 load(1, XDATA, add(CFA_XSP16, literal(-1)))
          CFI DPL0 load(1, XDATA, add(CFA_XSP16, literal(-2)))
          CFI ?BRET_EXT load(1, XDATA, add(CFA_XSP16, literal(-3)))
          CFI ?RET_HIGH load(1, XDATA, add(CFA_XSP16, literal(-4)))
          CFI ?RET_LOW load(1, XDATA, add(CFA_XSP16, literal(-5)))
          CFI R7 load(1, XDATA, add(CFA_XSP16, literal(-6)))
          CFI V1 load(1, XDATA, add(CFA_XSP16, literal(-7)))
          CFI V0 load(1, XDATA, add(CFA_XSP16, literal(-8)))
          CFI VB load(1, XDATA, add(CFA_XSP16, literal(-9)))
          CFI R6 load(1, XDATA, add(CFA_XSP16, literal(-10)))
          CFI CFA_SP SP+0
          CFI CFA_XSP16 add(XSP16, 10)
        ; Saved register size: 10
        ; Auto size: 0
        MOV     A,R1
        MOV     R6,A
//  298   (void)SecurityEnable;  // Intentionally unreferenced parameter
//  299 
//  300   ZDP_TmpBuf[0] = LO_UINT16( nwkAddr );
        LCALL   ?Subroutine19 & 0xFFFF
//  301   ZDP_TmpBuf[1] = HI_UINT16( nwkAddr );
??CrossCallReturnLabel_16:
        MOVX    @DPTR,A
//  302 
//  303   return fillAndSend( &ZDP_TransID, dstAddr, cmd, 2 );
        ; Setup parameters for call to function fillAndSend
        MOV     ?V0,R6
        MOV     ?V1,#0x0
        MOV     R0,#?V0
        LCALL   ?PUSH_XSTACK_I_TWO
          CFI CFA_XSP16 add(XSP16, 12)
        MOV     R1,#0x2
        LJMP    ?Subroutine8 & 0xFFFF
//  304 }
          CFI EndBlock cfiBlock2
//  305 
//  306 /*********************************************************************
//  307  * Address Requests
//  308  */
//  309 
//  310 /*********************************************************************
//  311  * @fn          ZDP_NwkAddrReq
//  312  *
//  313  * @brief       This builds and send a NWK_addr_req message.  This
//  314  *              function sends a broadcast message looking for a 16
//  315  *              bit address with a 64 bit address as bait.
//  316  *
//  317  * @param       IEEEAddress - looking for this device
//  318  * @param       SecurityEnable - Security Options
//  319  *
//  320  * @return      afStatus_t
//  321  */

        RSEG BANKED_CODE:CODE:NOROOT(0)
//  322 afStatus_t ZDP_NwkAddrReq( uint8 *IEEEAddress, byte ReqType,
ZDP_NwkAddrReq:
          CFI Block cfiBlock3 Using cfiCommon0
          CFI Function ZDP_NwkAddrReq
        CODE
//  323                            byte StartIndex, byte SecurityEnable )
//  324 {
        FUNCALL ZDP_NwkAddrReq, sAddrExtCmp
        LOCFRAME ISTACK, 0, STACK
        LOCFRAME PSTACK, 0, STACK
        LOCFRAME XSTACK, 21, STACK
        LOCFRAME IOVERLAY, 0, STATIC
        LOCFRAME DOVERLAY, 0, STATIC
        ARGFRAME ISTACK, 0, STACK
        ARGFRAME PSTACK, 0, STACK
        ARGFRAME XSTACK, 21, STACK
        ARGFRAME IOVERLAY, 0, STATIC
        ARGFRAME DOVERLAY, 0, STATIC
        FUNCALL ZDP_NwkAddrReq, sAddrExtCpy
        LOCFRAME ISTACK, 0, STACK
        LOCFRAME PSTACK, 0, STACK
        LOCFRAME XSTACK, 21, STACK
        LOCFRAME IOVERLAY, 0, STATIC
        LOCFRAME DOVERLAY, 0, STATIC
        ARGFRAME ISTACK, 0, STACK
        ARGFRAME PSTACK, 0, STACK
        ARGFRAME XSTACK, 21, STACK
        ARGFRAME IOVERLAY, 0, STATIC
        ARGFRAME DOVERLAY, 0, STATIC
        FUNCALL ZDP_NwkAddrReq, fillAndSend
        LOCFRAME ISTACK, 0, STACK
        LOCFRAME PSTACK, 0, STACK
        LOCFRAME XSTACK, 23, STACK
        LOCFRAME IOVERLAY, 0, STATIC
        LOCFRAME DOVERLAY, 0, STATIC
        ARGFRAME ISTACK, 0, STACK
        ARGFRAME PSTACK, 0, STACK
        ARGFRAME XSTACK, 23, STACK
        ARGFRAME IOVERLAY, 0, STATIC
        ARGFRAME DOVERLAY, 0, STATIC
        REQUIRE ?V0
        REQUIRE ?V1
        REQUIRE ?V2
        REQUIRE ?V3
        MOV     A,#-0xc
        LCALL   ?BANKED_ENTER_XDATA
          CFI DPH0 load(1, XDATA, add(CFA_XSP16, literal(-1)))
          CFI DPL0 load(1, XDATA, add(CFA_XSP16, literal(-2)))
          CFI ?BRET_EXT load(1, XDATA, add(CFA_XSP16, literal(-3)))
          CFI ?RET_HIGH load(1, XDATA, add(CFA_XSP16, literal(-4)))
          CFI ?RET_LOW load(1, XDATA, add(CFA_XSP16, literal(-5)))
          CFI R7 load(1, XDATA, add(CFA_XSP16, literal(-6)))
          CFI V3 load(1, XDATA, add(CFA_XSP16, literal(-7)))
          CFI V2 load(1, XDATA, add(CFA_XSP16, literal(-8)))
          CFI V1 load(1, XDATA, add(CFA_XSP16, literal(-9)))
          CFI V0 load(1, XDATA, add(CFA_XSP16, literal(-10)))
          CFI VB load(1, XDATA, add(CFA_XSP16, literal(-11)))
          CFI R6 load(1, XDATA, add(CFA_XSP16, literal(-12)))
          CFI CFA_SP SP+0
          CFI CFA_XSP16 add(XSP16, 12)
        ; Saved register size: 12
        ; Auto size: 9
        MOV     A,#-0x9
        LCALL   ?ALLOC_XSTACK8
          CFI CFA_XSP16 add(XSP16, 21)
        MOV     A,R2
        MOV     R6,A
        MOV     A,R3
        MOV     R7,A
        MOV     ?V2,R1
        MOV     ?V3,R4
//  325   uint8 *pBuf = ZDP_TmpBuf;
        LCALL   ?Subroutine42 & 0xFFFF
//  326   byte len = Z_EXTADDR_LEN + 1 + 1;  // IEEEAddress + ReqType + StartIndex.
//  327   zAddrType_t dstAddr;
//  328 
//  329   (void)SecurityEnable;  // Intentionally unreferenced parameter
//  330 
//  331   if ( osal_ExtAddrEqual( saveExtAddr, IEEEAddress ) == FALSE )
??CrossCallReturnLabel_164:
        ; Setup parameters for call to function sAddrExtCmp
        MOV     A,R6
        MOV     R4,A
        MOV     A,R7
        MOV     R5,A
        MOV     R2,#saveExtAddr & 0xff
        MOV     R3,#(saveExtAddr >> 8) & 0xff
        LCALL   `??sAddrExtCmp::?relay`; Banked call to: sAddrExtCmp
        MOV     A,R1
        JNZ     ??ZDP_NwkAddrReq_0
//  332   {
//  333     dstAddr.addrMode = AddrBroadcast;
        MOV     A,#0x8
        LCALL   ?XSTACK_DISP0_8
        LCALL   ?Subroutine83 & 0xFFFF
//  334     dstAddr.addr.shortAddr = NWK_BROADCAST_SHORTADDR_DEVRXON;
//  335   }
??CrossCallReturnLabel_136:
        SJMP    ??ZDP_NwkAddrReq_1
//  336   else
//  337   {
//  338     dstAddr.addrMode = Addr16Bit;
??ZDP_NwkAddrReq_0:
        MOV     A,#0x8
        LCALL   ?XSTACK_DISP0_8
        MOV     A,#0x2
        MOVX    @DPTR,A
//  339     dstAddr.addr.shortAddr = ZDAppNwkAddr.addr.shortAddr;
        MOV     DPTR,#ZDAppNwkAddr
        LCALL   ?Subroutine51 & 0xFFFF
//  340   }
??CrossCallReturnLabel_77:
        MOV     A,R0
        MOVX    @DPTR,A
        INC     DPTR
        MOV     A,R1
??ZDP_NwkAddrReq_1:
        MOVX    @DPTR,A
//  341 
//  342   pBuf = osal_cpyExtAddr( pBuf, IEEEAddress );
        ; Setup parameters for call to function sAddrExtCpy
        MOV     A,R6
        MOV     R4,A
        MOV     A,R7
        MOV     R5,A
        MOV     R2,?V0
        MOV     R3,?V1
        LCALL   `??sAddrExtCpy::?relay`; Banked call to: sAddrExtCpy
        MOV     DPL,R2
        MOV     DPH,R3
//  343 
//  344   *pBuf++ = ReqType;
        MOV     A,?V2
        MOVX    @DPTR,A
//  345   *pBuf++ = StartIndex;
        INC     DPTR
        MOV     A,?V3
        MOVX    @DPTR,A
//  346 
//  347   return fillAndSend( &ZDP_TransID, &dstAddr, NWK_addr_req, len );
        ; Setup parameters for call to function fillAndSend
        CLR     A
        MOV     ?V0,A
        MOV     ?V1,A
        MOV     R0,#?V0
        LCALL   ?PUSH_XSTACK_I_TWO
          CFI CFA_XSP16 add(XSP16, 23)
        MOV     R1,#0xa
        MOV     A,#0x2
        LCALL   ?XSTACK_DISP102_8
          CFI EndBlock cfiBlock3
        REQUIRE ?Subroutine9
        ; // Fall through to label ?Subroutine9
//  348 }

        RSEG BANKED_CODE:CODE:NOROOT(0)
?Subroutine9:
          CFI Block cfiBlock4 Using cfiCommon0
          CFI NoFunction
          CFI CFA_SP SP+0
          CFI CFA_XSP16 add(XSP16, 23)
          CFI VB load(1, XDATA, add(CFA_XSP16, literal(-11)))
          CFI DPL0 load(1, XDATA, add(CFA_XSP16, literal(-2)))
          CFI DPH0 load(1, XDATA, add(CFA_XSP16, literal(-1)))
          CFI R6 load(1, XDATA, add(CFA_XSP16, literal(-12)))
          CFI R7 load(1, XDATA, add(CFA_XSP16, literal(-6)))
          CFI V0 load(1, XDATA, add(CFA_XSP16, literal(-10)))
          CFI V1 load(1, XDATA, add(CFA_XSP16, literal(-9)))
          CFI V2 load(1, XDATA, add(CFA_XSP16, literal(-8)))
          CFI V3 load(1, XDATA, add(CFA_XSP16, literal(-7)))
          CFI ?BRET_EXT load(1, XDATA, add(CFA_XSP16, literal(-3)))
          CFI ?RET_HIGH load(1, XDATA, add(CFA_XSP16, literal(-4)))
          CFI ?RET_LOW load(1, XDATA, add(CFA_XSP16, literal(-5)))
        MOV     R2,#ZDP_TransID & 0xff
        MOV     R3,#(ZDP_TransID >> 8) & 0xff
        LCALL   `??fillAndSend::?relay`; Banked call to: fillAndSend
        MOV     A,#0x2
        LCALL   ?DEALLOC_XSTACK8
          CFI CFA_XSP16 add(XSP16, 21)
        MOV     A,#0x9
        SJMP    ??Subroutine96_0
          CFI EndBlock cfiBlock4

        RSEG BANKED_CODE:CODE:NOROOT(0)
?Subroutine51:
          CFI Block cfiCond5 Using cfiCommon0
          CFI Function fillAndSend
          CFI Conditional ??CrossCallReturnLabel_76
          CFI R6 load(1, XDATA, add(CFA_XSP16, literal(-14)))
          CFI VB load(1, XDATA, add(CFA_XSP16, literal(-13)))
          CFI V0 load(1, XDATA, add(CFA_XSP16, literal(-12)))
          CFI V1 load(1, XDATA, add(CFA_XSP16, literal(-11)))
          CFI V2 load(1, XDATA, add(CFA_XSP16, literal(-10)))
          CFI V3 load(1, XDATA, add(CFA_XSP16, literal(-9)))
          CFI V4 load(1, XDATA, add(CFA_XSP16, literal(-8)))
          CFI V5 load(1, XDATA, add(CFA_XSP16, literal(-7)))
          CFI R7 load(1, XDATA, add(CFA_XSP16, literal(-6)))
          CFI ?RET_LOW load(1, XDATA, add(CFA_XSP16, literal(-5)))
          CFI ?RET_HIGH load(1, XDATA, add(CFA_XSP16, literal(-4)))
          CFI ?BRET_EXT load(1, XDATA, add(CFA_XSP16, literal(-3)))
          CFI DPL0 load(1, XDATA, add(CFA_XSP16, literal(-2)))
          CFI DPH0 load(1, XDATA, add(CFA_XSP16, literal(-1)))
          CFI CFA_SP SP+-2
          CFI CFA_XSP16 add(XSP16, 26)
          CFI Block cfiCond6 Using cfiCommon0
          CFI (cfiCond6) Function ZDP_NwkAddrReq
          CFI (cfiCond6) Conditional ??CrossCallReturnLabel_77
          CFI (cfiCond6) R6 load(1, XDATA, add(CFA_XSP16, literal(-12)))
          CFI (cfiCond6) VB load(1, XDATA, add(CFA_XSP16, literal(-11)))
          CFI (cfiCond6) V0 load(1, XDATA, add(CFA_XSP16, literal(-10)))
          CFI (cfiCond6) V1 load(1, XDATA, add(CFA_XSP16, literal(-9)))
          CFI (cfiCond6) V2 load(1, XDATA, add(CFA_XSP16, literal(-8)))
          CFI (cfiCond6) V3 load(1, XDATA, add(CFA_XSP16, literal(-7)))
          CFI (cfiCond6) R7 load(1, XDATA, add(CFA_XSP16, literal(-6)))
          CFI (cfiCond6) ?RET_LOW load(1, XDATA, add(CFA_XSP16, literal(-5)))
          CFI (cfiCond6) ?RET_HIGH load(1, XDATA, add(CFA_XSP16, literal(-4)))
          CFI (cfiCond6) ?BRET_EXT load(1, XDATA, add(CFA_XSP16, literal(-3)))
          CFI (cfiCond6) DPL0 load(1, XDATA, add(CFA_XSP16, literal(-2)))
          CFI (cfiCond6) DPH0 load(1, XDATA, add(CFA_XSP16, literal(-1)))
          CFI (cfiCond6) CFA_SP SP+-2
          CFI (cfiCond6) CFA_XSP16 add(XSP16, 21)
          CFI Block cfiPicker7 Using cfiCommon1
          CFI (cfiPicker7) NoFunction
          CFI (cfiPicker7) Picker
        LCALL   ?Subroutine74 & 0xFFFF
??CrossCallReturnLabel_252:
        MOV     DPL,?XSP + 0
        MOV     DPH,?XSP + 1
        RET
          CFI EndBlock cfiCond5
          CFI EndBlock cfiCond6
          CFI EndBlock cfiPicker7

        RSEG BANKED_CODE:CODE:NOROOT(0)
?Subroutine1:
          CFI Block cfiBlock8 Using cfiCommon0
          CFI NoFunction
          CFI CFA_SP SP+0
          CFI CFA_XSP16 add(XSP16, 12)
          CFI VB load(1, XDATA, add(CFA_XSP16, literal(-11)))
          CFI DPL0 load(1, XDATA, add(CFA_XSP16, literal(-2)))
          CFI DPH0 load(1, XDATA, add(CFA_XSP16, literal(-1)))
          CFI R6 load(1, XDATA, add(CFA_XSP16, literal(-12)))
          CFI R7 load(1, XDATA, add(CFA_XSP16, literal(-6)))
          CFI V0 load(1, XDATA, add(CFA_XSP16, literal(-10)))
          CFI V1 load(1, XDATA, add(CFA_XSP16, literal(-9)))
          CFI V2 load(1, XDATA, add(CFA_XSP16, literal(-8)))
          CFI V3 load(1, XDATA, add(CFA_XSP16, literal(-7)))
          CFI ?BRET_EXT load(1, XDATA, add(CFA_XSP16, literal(-3)))
          CFI ?RET_HIGH load(1, XDATA, add(CFA_XSP16, literal(-4)))
          CFI ?RET_LOW load(1, XDATA, add(CFA_XSP16, literal(-5)))
        MOV     ?V3,#0x0
        MOV     R0,#?V2
        LCALL   ?PUSH_XSTACK_I_TWO
          CFI CFA_XSP16 add(XSP16, 14)
        MOV     R1,#0x9
          CFI EndBlock cfiBlock8
        REQUIRE ??Subroutine95_0
        ; // Fall through to label ??Subroutine95_0

        RSEG BANKED_CODE:CODE:NOROOT(0)
??Subroutine95_0:
          CFI Block cfiBlock9 Using cfiCommon0
          CFI NoFunction
          CFI CFA_SP SP+0
          CFI CFA_XSP16 add(XSP16, 14)
          CFI VB load(1, XDATA, add(CFA_XSP16, literal(-11)))
          CFI DPL0 load(1, XDATA, add(CFA_XSP16, literal(-2)))
          CFI DPH0 load(1, XDATA, add(CFA_XSP16, literal(-1)))
          CFI R6 load(1, XDATA, add(CFA_XSP16, literal(-12)))
          CFI R7 load(1, XDATA, add(CFA_XSP16, literal(-6)))
          CFI V0 load(1, XDATA, add(CFA_XSP16, literal(-10)))
          CFI V1 load(1, XDATA, add(CFA_XSP16, literal(-9)))
          CFI V2 load(1, XDATA, add(CFA_XSP16, literal(-8)))
          CFI V3 load(1, XDATA, add(CFA_XSP16, literal(-7)))
          CFI ?BRET_EXT load(1, XDATA, add(CFA_XSP16, literal(-3)))
          CFI ?RET_HIGH load(1, XDATA, add(CFA_XSP16, literal(-4)))
          CFI ?RET_LOW load(1, XDATA, add(CFA_XSP16, literal(-5)))
        MOV     A,R6
        MOV     R4,A
        MOV     A,R7
        MOV     R5,A
        MOV     R2,#ZDP_TransID & 0xff
        MOV     R3,#(ZDP_TransID >> 8) & 0xff
        LCALL   `??fillAndSend::?relay`; Banked call to: fillAndSend
        MOV     A,#0x2
          CFI EndBlock cfiBlock9
        REQUIRE ??Subroutine96_0
        ; // Fall through to label ??Subroutine96_0

        RSEG BANKED_CODE:CODE:NOROOT(0)
??Subroutine96_0:
          CFI Block cfiBlock10 Using cfiCommon0
          CFI NoFunction
          CFI CFA_SP SP+0
          CFI CFA_XSP16 add(XSP16, 21)
          CFI VB load(1, XDATA, add(CFA_XSP16, literal(-11)))
          CFI DPL0 load(1, XDATA, add(CFA_XSP16, literal(-2)))
          CFI DPH0 load(1, XDATA, add(CFA_XSP16, literal(-1)))
          CFI R6 load(1, XDATA, add(CFA_XSP16, literal(-12)))
          CFI R7 load(1, XDATA, add(CFA_XSP16, literal(-6)))
          CFI V0 load(1, XDATA, add(CFA_XSP16, literal(-10)))
          CFI V1 load(1, XDATA, add(CFA_XSP16, literal(-9)))
          CFI V2 load(1, XDATA, add(CFA_XSP16, literal(-8)))
          CFI V3 load(1, XDATA, add(CFA_XSP16, literal(-7)))
          CFI ?BRET_EXT load(1, XDATA, add(CFA_XSP16, literal(-3)))
          CFI ?RET_HIGH load(1, XDATA, add(CFA_XSP16, literal(-4)))
          CFI ?RET_LOW load(1, XDATA, add(CFA_XSP16, literal(-5)))
          CFI Invalid
        LCALL   ?DEALLOC_XSTACK8
          CFI EndBlock cfiBlock10
        REQUIRE ??Subroutine97_0
        ; // Fall through to label ??Subroutine97_0

        RSEG BANKED_CODE:CODE:NOROOT(0)
??Subroutine97_0:
          CFI Block cfiBlock11 Using cfiCommon0
          CFI NoFunction
          CFI CFA_SP SP+0
          CFI CFA_XSP16 add(XSP16, 12)
          CFI VB load(1, XDATA, add(CFA_XSP16, literal(-11)))
          CFI DPL0 load(1, XDATA, add(CFA_XSP16, literal(-2)))
          CFI DPH0 load(1, XDATA, add(CFA_XSP16, literal(-1)))
          CFI R6 load(1, XDATA, add(CFA_XSP16, literal(-12)))
          CFI R7 load(1, XDATA, add(CFA_XSP16, literal(-6)))
          CFI V0 load(1, XDATA, add(CFA_XSP16, literal(-10)))
          CFI V1 load(1, XDATA, add(CFA_XSP16, literal(-9)))
          CFI V2 load(1, XDATA, add(CFA_XSP16, literal(-8)))
          CFI V3 load(1, XDATA, add(CFA_XSP16, literal(-7)))
          CFI ?BRET_EXT load(1, XDATA, add(CFA_XSP16, literal(-3)))
          CFI ?RET_HIGH load(1, XDATA, add(CFA_XSP16, literal(-4)))
          CFI ?RET_LOW load(1, XDATA, add(CFA_XSP16, literal(-5)))
        MOV     R7,#0x4
        LJMP    ?BANKED_LEAVE_XDATA
          CFI EndBlock cfiBlock11
//  349 
//  350 /*********************************************************************
//  351  * @fn          ZDP_IEEEAddrReq
//  352  *
//  353  * @brief       This builds and send a IEEE_addr_req message.  This
//  354  *              function sends a unicast message looking for a 64
//  355  *              bit IEEE address with a 16 bit address as bait.
//  356  *
//  357  * @param       ReqType - ZDP_IEEEADDR_REQTYPE_SINGLE or
//  358  *                        ZDP_IEEEADDR_REQTYPE_EXTENDED
//  359  * @param       SecurityEnable - Security Options
//  360  *
//  361  * @return      afStatus_t
//  362  */

        RSEG BANKED_CODE:CODE:NOROOT(0)
//  363 afStatus_t ZDP_IEEEAddrReq( uint16 shortAddr, byte ReqType,
ZDP_IEEEAddrReq:
          CFI Block cfiBlock12 Using cfiCommon0
          CFI Function ZDP_IEEEAddrReq
        CODE
//  364                             byte StartIndex, byte SecurityEnable )
//  365 {
        FUNCALL ZDP_IEEEAddrReq, fillAndSend
        LOCFRAME ISTACK, 0, STACK
        LOCFRAME PSTACK, 0, STACK
        LOCFRAME XSTACK, 21, STACK
        LOCFRAME IOVERLAY, 0, STATIC
        LOCFRAME DOVERLAY, 0, STATIC
        ARGFRAME ISTACK, 0, STACK
        ARGFRAME PSTACK, 0, STACK
        ARGFRAME XSTACK, 21, STACK
        ARGFRAME IOVERLAY, 0, STATIC
        ARGFRAME DOVERLAY, 0, STATIC
        REQUIRE ?V0
        REQUIRE ?V1
        MOV     A,#-0xa
        LCALL   ?BANKED_ENTER_XDATA
          CFI DPH0 load(1, XDATA, add(CFA_XSP16, literal(-1)))
          CFI DPL0 load(1, XDATA, add(CFA_XSP16, literal(-2)))
          CFI ?BRET_EXT load(1, XDATA, add(CFA_XSP16, literal(-3)))
          CFI ?RET_HIGH load(1, XDATA, add(CFA_XSP16, literal(-4)))
          CFI ?RET_LOW load(1, XDATA, add(CFA_XSP16, literal(-5)))
          CFI R7 load(1, XDATA, add(CFA_XSP16, literal(-6)))
          CFI V1 load(1, XDATA, add(CFA_XSP16, literal(-7)))
          CFI V0 load(1, XDATA, add(CFA_XSP16, literal(-8)))
          CFI VB load(1, XDATA, add(CFA_XSP16, literal(-9)))
          CFI R6 load(1, XDATA, add(CFA_XSP16, literal(-10)))
          CFI CFA_SP SP+0
          CFI CFA_XSP16 add(XSP16, 10)
        ; Saved register size: 10
        ; Auto size: 9
        MOV     A,#-0x9
        LCALL   ?ALLOC_XSTACK8
          CFI CFA_XSP16 add(XSP16, 19)
        MOV     A,R1
        MOV     R6,A
        MOV     A,R4
        MOV     R7,A
//  366   uint8 *pBuf = ZDP_TmpBuf;
        LCALL   ??Subroutine121_0 & 0xFFFF
//  367   byte len = 2 + 1 + 1;  // shortAddr + ReqType + StartIndex.
//  368   zAddrType_t dstAddr;
//  369 
//  370   (void)SecurityEnable;  // Intentionally unreferenced parameter
//  371 
//  372   dstAddr.addrMode = (afAddrMode_t)Addr16Bit;
??CrossCallReturnLabel_250:
        MOV     A,#0x8
        LCALL   ?XSTACK_DISP0_8
        MOV     A,#0x2
        MOVX    @DPTR,A
//  373   dstAddr.addr.shortAddr = shortAddr;
        MOV     DPL,?XSP + 0
        MOV     DPH,?XSP + 1
        MOV     A,R2
        MOVX    @DPTR,A
        INC     DPTR
        MOV     A,R3
        MOVX    @DPTR,A
//  374 
//  375   *pBuf++ = LO_UINT16( shortAddr );
        MOV     A,R2
        MOV     DPL,R0
        MOV     DPH,R1
        MOVX    @DPTR,A
//  376   *pBuf++ = HI_UINT16( shortAddr );
        MOV     A,R3
        LCALL   ?Subroutine37 & 0xFFFF
//  377 
//  378   *pBuf++ = ReqType;
??CrossCallReturnLabel_48:
        MOVX    @DPTR,A
//  379   *pBuf++ = StartIndex;
        MOV     A,R7
        MOV     DPL,R0
        MOV     DPH,R1
        INC     DPTR
        INC     DPTR
        INC     DPTR
        MOVX    @DPTR,A
//  380 
//  381   return fillAndSend( &ZDP_TransID, &dstAddr, IEEE_addr_req, len );
        ; Setup parameters for call to function fillAndSend
        MOV     ?V0,#0x1
        MOV     ?V1,#0x0
        MOV     R0,#?V0
        LCALL   ?PUSH_XSTACK_I_TWO
          CFI CFA_XSP16 add(XSP16, 21)
        MOV     R1,#0x4
        LJMP    ?Subroutine2 & 0xFFFF
//  382 }
          CFI EndBlock cfiBlock12
//  383 
//  384 /*********************************************************************
//  385  * @fn          ZDP_MatchDescReq
//  386  *
//  387  * @brief       This builds and send a Match_Desc_req message.  This
//  388  *              function sends a broadcast or unicast message
//  389  *              requesting the list of endpoint/interfaces that
//  390  *              match profile ID and cluster IDs.
//  391  *
//  392  * @param       dstAddr - destination address
//  393  * @param       nwkAddr - network address of interest
//  394  * @param       ProfileID - Profile ID
//  395  * @param       NumInClusters - number of input clusters
//  396  * @param       InClusterList - input cluster ID list
//  397  * @param       NumOutClusters - number of output clusters
//  398  * @param       OutClusterList - output cluster ID list
//  399  * @param       SecurityEnable - Security Options
//  400  *
//  401  * @return      afStatus_t
//  402  */

        RSEG BANKED_CODE:CODE:NOROOT(0)
//  403 afStatus_t ZDP_MatchDescReq( zAddrType_t *dstAddr, uint16 nwkAddr,
ZDP_MatchDescReq:
          CFI Block cfiBlock13 Using cfiCommon0
          CFI Function ZDP_MatchDescReq
        CODE
//  404                                 uint16 ProfileID,
//  405                                 byte NumInClusters, cId_t *InClusterList,
//  406                                 byte NumOutClusters, cId_t *OutClusterList,
//  407                                 byte SecurityEnable )
//  408 {
        FUNCALL ZDP_MatchDescReq, fillAndSend
        LOCFRAME ISTACK, 0, STACK
        LOCFRAME PSTACK, 0, STACK
        LOCFRAME XSTACK, 16, STACK
        LOCFRAME IOVERLAY, 0, STATIC
        LOCFRAME DOVERLAY, 0, STATIC
        ARGFRAME ISTACK, 0, STACK
        ARGFRAME PSTACK, 0, STACK
        ARGFRAME XSTACK, 16, STACK
        ARGFRAME IOVERLAY, 0, STATIC
        ARGFRAME DOVERLAY, 0, STATIC
        REQUIRE ?V0
        REQUIRE ?V1
        REQUIRE ?V2
        REQUIRE ?V3
        REQUIRE ?V4
        REQUIRE ?V5
        MOV     A,#-0xe
        LCALL   ?BANKED_ENTER_XDATA
          CFI DPH0 load(1, XDATA, add(CFA_XSP16, literal(-1)))
          CFI DPL0 load(1, XDATA, add(CFA_XSP16, literal(-2)))
          CFI ?BRET_EXT load(1, XDATA, add(CFA_XSP16, literal(-3)))
          CFI ?RET_HIGH load(1, XDATA, add(CFA_XSP16, literal(-4)))
          CFI ?RET_LOW load(1, XDATA, add(CFA_XSP16, literal(-5)))
          CFI R7 load(1, XDATA, add(CFA_XSP16, literal(-6)))
          CFI V5 load(1, XDATA, add(CFA_XSP16, literal(-7)))
          CFI V4 load(1, XDATA, add(CFA_XSP16, literal(-8)))
          CFI V3 load(1, XDATA, add(CFA_XSP16, literal(-9)))
          CFI V2 load(1, XDATA, add(CFA_XSP16, literal(-10)))
          CFI V1 load(1, XDATA, add(CFA_XSP16, literal(-11)))
          CFI V0 load(1, XDATA, add(CFA_XSP16, literal(-12)))
          CFI VB load(1, XDATA, add(CFA_XSP16, literal(-13)))
          CFI R6 load(1, XDATA, add(CFA_XSP16, literal(-14)))
          CFI CFA_SP SP+0
          CFI CFA_XSP16 add(XSP16, 14)
        ; Saved register size: 14
        ; Auto size: 0
        LCALL   ?Subroutine58 & 0xFFFF
//  409   uint8 *pBuf = ZDP_TmpBuf;
??CrossCallReturnLabel_239:
        MOV     A,#0x12
        LCALL   ?XSTACK_DISP0_8
        MOVX    A,@DPTR
        MOV     ?V0,A
//  410   // nwkAddr+ProfileID+NumInClusters+NumOutClusters.
//  411   byte i, len = 2 + 2 + 1 + 1;  // nwkAddr+ProfileID+NumInClusters+NumOutClusters.
//  412 
//  413   (void)SecurityEnable;  // Intentionally unreferenced parameter
//  414 
//  415   len += (NumInClusters + NumOutClusters) * sizeof(uint16);
        MOV     A,R6
        ADD     A,?V0
        CLR     C
        RLC     A
        ADD     A,#0x6
        MOV     R7,A
//  416 
//  417   if ( len >= ZDP_BUF_SZ-1 )
        CLR     C
        SUBB    A,#0x4f
        JC      ??ZDP_MatchDescReq_0
//  418   {
//  419     return afStatus_MEM_FAIL;
        MOV     R1,#0x10
        LJMP    ??ZDP_MatchDescReq_1 & 0xFFFF
//  420   }
//  421 
//  422   // The spec changed in Zigbee 2007 (2.4.3.1.7.1) to not allow sending
//  423   // this command to 0xFFFF.  So, here we will filter this and replace
//  424   // with 0xFFFD to only send to devices with RX ON.  This includes the
//  425   // network address of interest.
//  426   if ( ((dstAddr->addrMode == AddrBroadcast) || (dstAddr->addrMode == Addr16Bit))
//  427       && (dstAddr->addr.shortAddr == NWK_BROADCAST_SHORTADDR_DEVALL) )
??ZDP_MatchDescReq_0:
        MOV     DPL,R2
        MOV     DPH,R3
        INC     DPTR
        INC     DPTR
        INC     DPTR
        INC     DPTR
        INC     DPTR
        INC     DPTR
        INC     DPTR
        INC     DPTR
        MOVX    A,@DPTR
        MOV     ?V1,A
        MOV     A,#0xf
        XRL     A,?V1
        JZ      ??ZDP_MatchDescReq_2
        MOV     A,#0x2
        XRL     A,?V1
        JNZ     ??ZDP_MatchDescReq_3
??ZDP_MatchDescReq_2:
        MOV     DPL,R2
        MOV     DPH,R3
        MOVX    A,@DPTR
        CPL     A
        JNZ     ??ZDP_MatchDescReq_4
        INC     DPTR
        MOVX    A,@DPTR
        CPL     A
??ZDP_MatchDescReq_4:
        JNZ     ??ZDP_MatchDescReq_3
//  428   {
//  429     dstAddr->addr.shortAddr = NWK_BROADCAST_SHORTADDR_DEVRXON;
        MOV     DPL,R2
        MOV     DPH,R3
        MOV     A,#-0x3
        MOVX    @DPTR,A
        INC     DPTR
        MOV     A,#-0x1
        MOVX    @DPTR,A
//  430   }
//  431   if ( nwkAddr == NWK_BROADCAST_SHORTADDR_DEVALL )
??ZDP_MatchDescReq_3:
        MOV     A,#-0x1
        XRL     A,R4
        JNZ     ??ZDP_MatchDescReq_5
        MOV     A,#-0x1
        XRL     A,R5
??ZDP_MatchDescReq_5:
        JNZ     ??ZDP_MatchDescReq_6
//  432   {
//  433     nwkAddr = NWK_BROADCAST_SHORTADDR_DEVRXON;
        MOV     R4,#-0x3
        MOV     R5,#-0x1
//  434   }
//  435 
//  436   *pBuf++ = LO_UINT16( nwkAddr );   // NWKAddrOfInterest
??ZDP_MatchDescReq_6:
        MOV     A,R4
        MOV     DPL,R0
        MOV     DPH,R1
        MOVX    @DPTR,A
//  437   *pBuf++ = HI_UINT16( nwkAddr );
        MOV     A,R5
        INC     DPTR
        MOVX    @DPTR,A
        MOV     A,#0xe
        LCALL   ?XSTACK_DISP0_8
        LCALL   ?Subroutine60 & 0xFFFF
//  438 
//  439   *pBuf++ = LO_UINT16( ProfileID );   // Profile ID
??CrossCallReturnLabel_93:
        MOV     A,R4
        MOV     DPL,R0
        MOV     DPH,R1
        INC     DPTR
        INC     DPTR
        MOVX    @DPTR,A
//  440   *pBuf++ = HI_UINT16( ProfileID );
        MOV     A,R5
        MOV     DPL,R0
        MOV     DPH,R1
        INC     DPTR
        INC     DPTR
        LCALL   ?Subroutine37 & 0xFFFF
//  441 
//  442   *pBuf++ = NumInClusters; // Input cluster list
??CrossCallReturnLabel_49:
        INC     DPTR
        INC     DPTR
        MOVX    @DPTR,A
        MOV     A,R0
        ADD     A,#0x5
        MOV     R0,A
        JNC     ??ZDP_MatchDescReq_7
        INC     R1
//  443   if ( NumInClusters )
??ZDP_MatchDescReq_7:
        MOV     A,R6
        JZ      ??ZDP_MatchDescReq_8
//  444   {
//  445     for (i=0; i<NumInClusters; ++i)  {
        MOV     ?V1,#0x0
        MOV     A,#0x10
        LCALL   ?XSTACK_DISP0_8
        LCALL   ?Subroutine59 & 0xFFFF
//  446       *pBuf++ = LO_UINT16( InClusterList[i] );
??CrossCallReturnLabel_91:
        LCALL   ?Subroutine12 & 0xFFFF
//  447       *pBuf++ = HI_UINT16( InClusterList[i] );
//  448     }
??CrossCallReturnLabel_4:
        JNC     ??ZDP_MatchDescReq_9
        INC     R1
??ZDP_MatchDescReq_9:
        INC     ?V1
        MOV     A,?V1
        CLR     C
        SUBB    A,R6
        JC      ??CrossCallReturnLabel_91
//  449   }
//  450 
//  451   *pBuf++ = NumOutClusters; // Output cluster list
??ZDP_MatchDescReq_8:
        MOV     DPL,R0
        MOV     DPH,R1
        MOV     A,?V0
        MOVX    @DPTR,A
        INC     DPTR
        MOV     R0,DPL
        MOV     R1,DPH
//  452   if ( NumOutClusters )
        JZ      ??ZDP_MatchDescReq_10
//  453   {
//  454     for (i=0; i<NumOutClusters; ++i)  {
        MOV     ?V1,#0x0
        MOV     A,#0x13
        LCALL   ?XSTACK_DISP0_8
        LCALL   ?Subroutine59 & 0xFFFF
//  455       *pBuf++ = LO_UINT16( OutClusterList[i] );
??CrossCallReturnLabel_92:
        LCALL   ?Subroutine12 & 0xFFFF
//  456       *pBuf++ = HI_UINT16( OutClusterList[i] );
//  457     }
??CrossCallReturnLabel_5:
        JNC     ??ZDP_MatchDescReq_11
        INC     R1
??ZDP_MatchDescReq_11:
        INC     ?V1
        MOV     A,?V1
        CLR     C
        SUBB    A,?V0
        JC      ??CrossCallReturnLabel_92
//  458   }
//  459 
//  460   return fillAndSend( &ZDP_TransID, dstAddr, Match_Desc_req, len );
??ZDP_MatchDescReq_10:
        ; Setup parameters for call to function fillAndSend
        MOV     ?V0,#0x6
        MOV     ?V1,#0x0
        MOV     R0,#?V0
        LCALL   ?PUSH_XSTACK_I_TWO
          CFI CFA_XSP16 add(XSP16, 16)
        MOV     A,R7
        MOV     R1,A
        MOV     A,R2
        MOV     R4,A
        MOV     A,R3
        MOV     R5,A
        MOV     R2,#ZDP_TransID & 0xff
        MOV     R3,#(ZDP_TransID >> 8) & 0xff
        LCALL   `??fillAndSend::?relay`; Banked call to: fillAndSend
        MOV     A,#0x2
        LCALL   ?DEALLOC_XSTACK8
          CFI CFA_XSP16 add(XSP16, 14)
??ZDP_MatchDescReq_1:
        SJMP    ??Subroutine98_0
//  461 }
          CFI EndBlock cfiBlock13

        RSEG BANKED_CODE:CODE:NOROOT(0)
?Subroutine59:
          CFI Block cfiCond14 Using cfiCommon0
          CFI Function ZDP_MatchDescReq
          CFI Conditional ??CrossCallReturnLabel_91
          CFI R6 load(1, XDATA, add(CFA_XSP16, literal(-14)))
          CFI VB load(1, XDATA, add(CFA_XSP16, literal(-13)))
          CFI V0 load(1, XDATA, add(CFA_XSP16, literal(-12)))
          CFI V1 load(1, XDATA, add(CFA_XSP16, literal(-11)))
          CFI V2 load(1, XDATA, add(CFA_XSP16, literal(-10)))
          CFI V3 load(1, XDATA, add(CFA_XSP16, literal(-9)))
          CFI V4 load(1, XDATA, add(CFA_XSP16, literal(-8)))
          CFI V5 load(1, XDATA, add(CFA_XSP16, literal(-7)))
          CFI R7 load(1, XDATA, add(CFA_XSP16, literal(-6)))
          CFI ?RET_LOW load(1, XDATA, add(CFA_XSP16, literal(-5)))
          CFI ?RET_HIGH load(1, XDATA, add(CFA_XSP16, literal(-4)))
          CFI ?BRET_EXT load(1, XDATA, add(CFA_XSP16, literal(-3)))
          CFI DPL0 load(1, XDATA, add(CFA_XSP16, literal(-2)))
          CFI DPH0 load(1, XDATA, add(CFA_XSP16, literal(-1)))
          CFI CFA_SP SP+-2
          CFI CFA_XSP16 add(XSP16, 14)
          CFI Block cfiCond15 Using cfiCommon0
          CFI (cfiCond15) Function ZDP_MatchDescReq
          CFI (cfiCond15) Conditional ??CrossCallReturnLabel_92
          CFI (cfiCond15) R6 load(1, XDATA, add(CFA_XSP16, literal(-14)))
          CFI (cfiCond15) VB load(1, XDATA, add(CFA_XSP16, literal(-13)))
          CFI (cfiCond15) V0 load(1, XDATA, add(CFA_XSP16, literal(-12)))
          CFI (cfiCond15) V1 load(1, XDATA, add(CFA_XSP16, literal(-11)))
          CFI (cfiCond15) V2 load(1, XDATA, add(CFA_XSP16, literal(-10)))
          CFI (cfiCond15) V3 load(1, XDATA, add(CFA_XSP16, literal(-9)))
          CFI (cfiCond15) V4 load(1, XDATA, add(CFA_XSP16, literal(-8)))
          CFI (cfiCond15) V5 load(1, XDATA, add(CFA_XSP16, literal(-7)))
          CFI (cfiCond15) R7 load(1, XDATA, add(CFA_XSP16, literal(-6)))
          CFI (cfiCond15) ?RET_LOW load(1, XDATA, add(CFA_XSP16, literal(-5)))
          CFI (cfiCond15) ?RET_HIGH load(1, XDATA, add(CFA_XSP16, literal(-4)))
          CFI (cfiCond15) ?BRET_EXT load(1, XDATA, add(CFA_XSP16, literal(-3)))
          CFI (cfiCond15) DPL0 load(1, XDATA, add(CFA_XSP16, literal(-2)))
          CFI (cfiCond15) DPH0 load(1, XDATA, add(CFA_XSP16, literal(-1)))
          CFI (cfiCond15) CFA_SP SP+-2
          CFI (cfiCond15) CFA_XSP16 add(XSP16, 14)
          CFI Block cfiPicker16 Using cfiCommon1
          CFI (cfiPicker16) NoFunction
          CFI (cfiPicker16) Picker
        MOVX    A,@DPTR
        MOV     R4,A
        INC     DPTR
        MOVX    A,@DPTR
        MOV     R5,A
        MOV     ?V2,R4
        MOV     ?V3,R5
        RET
          CFI EndBlock cfiCond14
          CFI EndBlock cfiCond15
          CFI EndBlock cfiPicker16

        RSEG BANKED_CODE:CODE:NOROOT(0)
?Subroutine37:
          CFI Block cfiCond17 Using cfiCommon0
          CFI Function ZDP_IEEEAddrReq
          CFI Conditional ??CrossCallReturnLabel_48
          CFI R6 load(1, XDATA, add(CFA_XSP16, literal(-10)))
          CFI VB load(1, XDATA, add(CFA_XSP16, literal(-9)))
          CFI V0 load(1, XDATA, add(CFA_XSP16, literal(-8)))
          CFI V1 load(1, XDATA, add(CFA_XSP16, literal(-7)))
          CFI R7 load(1, XDATA, add(CFA_XSP16, literal(-6)))
          CFI ?RET_LOW load(1, XDATA, add(CFA_XSP16, literal(-5)))
          CFI ?RET_HIGH load(1, XDATA, add(CFA_XSP16, literal(-4)))
          CFI ?BRET_EXT load(1, XDATA, add(CFA_XSP16, literal(-3)))
          CFI DPL0 load(1, XDATA, add(CFA_XSP16, literal(-2)))
          CFI DPH0 load(1, XDATA, add(CFA_XSP16, literal(-1)))
          CFI CFA_SP SP+-2
          CFI CFA_XSP16 add(XSP16, 19)
          CFI Block cfiCond18 Using cfiCommon0
          CFI (cfiCond18) Function ZDP_MatchDescReq
          CFI (cfiCond18) Conditional ??CrossCallReturnLabel_49
          CFI (cfiCond18) R6 load(1, XDATA, add(CFA_XSP16, literal(-14)))
          CFI (cfiCond18) VB load(1, XDATA, add(CFA_XSP16, literal(-13)))
          CFI (cfiCond18) V0 load(1, XDATA, add(CFA_XSP16, literal(-12)))
          CFI (cfiCond18) V1 load(1, XDATA, add(CFA_XSP16, literal(-11)))
          CFI (cfiCond18) V2 load(1, XDATA, add(CFA_XSP16, literal(-10)))
          CFI (cfiCond18) V3 load(1, XDATA, add(CFA_XSP16, literal(-9)))
          CFI (cfiCond18) V4 load(1, XDATA, add(CFA_XSP16, literal(-8)))
          CFI (cfiCond18) V5 load(1, XDATA, add(CFA_XSP16, literal(-7)))
          CFI (cfiCond18) R7 load(1, XDATA, add(CFA_XSP16, literal(-6)))
          CFI (cfiCond18) ?RET_LOW load(1, XDATA, add(CFA_XSP16, literal(-5)))
          CFI (cfiCond18) ?RET_HIGH load(1, XDATA, add(CFA_XSP16, literal(-4)))
          CFI (cfiCond18) ?BRET_EXT load(1, XDATA, add(CFA_XSP16, literal(-3)))
          CFI (cfiCond18) DPL0 load(1, XDATA, add(CFA_XSP16, literal(-2)))
          CFI (cfiCond18) DPH0 load(1, XDATA, add(CFA_XSP16, literal(-1)))
          CFI (cfiCond18) CFA_SP SP+-2
          CFI (cfiCond18) CFA_XSP16 add(XSP16, 14)
          CFI Block cfiPicker19 Using cfiCommon1
          CFI (cfiPicker19) NoFunction
          CFI (cfiPicker19) Picker
        INC     DPTR
        MOVX    @DPTR,A
        MOV     A,R6
        MOV     DPL,R0
        MOV     DPH,R1
        INC     DPTR
        INC     DPTR
        RET
          CFI EndBlock cfiCond17
          CFI EndBlock cfiCond18
          CFI EndBlock cfiPicker19

        RSEG BANKED_CODE:CODE:NOROOT(0)
?Subroutine12:
          CFI Block cfiCond20 Using cfiCommon0
          CFI Function ZDP_MatchDescReq
          CFI Conditional ??CrossCallReturnLabel_4
          CFI R6 load(1, XDATA, add(CFA_XSP16, literal(-14)))
          CFI VB load(1, XDATA, add(CFA_XSP16, literal(-13)))
          CFI V0 load(1, XDATA, add(CFA_XSP16, literal(-12)))
          CFI V1 load(1, XDATA, add(CFA_XSP16, literal(-11)))
          CFI V2 load(1, XDATA, add(CFA_XSP16, literal(-10)))
          CFI V3 load(1, XDATA, add(CFA_XSP16, literal(-9)))
          CFI V4 load(1, XDATA, add(CFA_XSP16, literal(-8)))
          CFI V5 load(1, XDATA, add(CFA_XSP16, literal(-7)))
          CFI R7 load(1, XDATA, add(CFA_XSP16, literal(-6)))
          CFI ?RET_LOW load(1, XDATA, add(CFA_XSP16, literal(-5)))
          CFI ?RET_HIGH load(1, XDATA, add(CFA_XSP16, literal(-4)))
          CFI ?BRET_EXT load(1, XDATA, add(CFA_XSP16, literal(-3)))
          CFI DPL0 load(1, XDATA, add(CFA_XSP16, literal(-2)))
          CFI DPH0 load(1, XDATA, add(CFA_XSP16, literal(-1)))
          CFI CFA_SP SP+-2
          CFI CFA_XSP16 add(XSP16, 14)
          CFI Block cfiCond21 Using cfiCommon0
          CFI (cfiCond21) Function ZDP_MatchDescReq
          CFI (cfiCond21) Conditional ??CrossCallReturnLabel_5
          CFI (cfiCond21) R6 load(1, XDATA, add(CFA_XSP16, literal(-14)))
          CFI (cfiCond21) VB load(1, XDATA, add(CFA_XSP16, literal(-13)))
          CFI (cfiCond21) V0 load(1, XDATA, add(CFA_XSP16, literal(-12)))
          CFI (cfiCond21) V1 load(1, XDATA, add(CFA_XSP16, literal(-11)))
          CFI (cfiCond21) V2 load(1, XDATA, add(CFA_XSP16, literal(-10)))
          CFI (cfiCond21) V3 load(1, XDATA, add(CFA_XSP16, literal(-9)))
          CFI (cfiCond21) V4 load(1, XDATA, add(CFA_XSP16, literal(-8)))
          CFI (cfiCond21) V5 load(1, XDATA, add(CFA_XSP16, literal(-7)))
          CFI (cfiCond21) R7 load(1, XDATA, add(CFA_XSP16, literal(-6)))
          CFI (cfiCond21) ?RET_LOW load(1, XDATA, add(CFA_XSP16, literal(-5)))
          CFI (cfiCond21) ?RET_HIGH load(1, XDATA, add(CFA_XSP16, literal(-4)))
          CFI (cfiCond21) ?BRET_EXT load(1, XDATA, add(CFA_XSP16, literal(-3)))
          CFI (cfiCond21) DPL0 load(1, XDATA, add(CFA_XSP16, literal(-2)))
          CFI (cfiCond21) DPH0 load(1, XDATA, add(CFA_XSP16, literal(-1)))
          CFI (cfiCond21) CFA_SP SP+-2
          CFI (cfiCond21) CFA_XSP16 add(XSP16, 14)
          CFI Block cfiPicker22 Using cfiCommon1
          CFI (cfiPicker22) NoFunction
          CFI (cfiPicker22) Picker
        MOV     R4,?V1
        MOV     A,R4
        ADD     A,R4
        MOV     R4,A
        CLR     A
        RLC     A
        MOV     R5,A
        MOV     A,?V2
        ADD     A,R4
        MOV     R4,A
        MOV     A,?V3
        ADDC    A,R5
        MOV     R5,A
        MOV     DPL,R4
        MOV     DPH,R5
        LCALL   ??Subroutine116_0 & 0xFFFF
??CrossCallReturnLabel_213:
        LCALL   ?Subroutine86 & 0xFFFF
??CrossCallReturnLabel_170:
        LCALL   ?Subroutine78 & 0xFFFF
??CrossCallReturnLabel_215:
        INC     DPTR
        MOVX    @DPTR,A
        MOV     A,R0
        ADD     A,#0x2
        MOV     R0,A
        RET
          CFI EndBlock cfiCond20
          CFI EndBlock cfiCond21
          CFI EndBlock cfiPicker22

        RSEG BANKED_CODE:CODE:NOROOT(0)
?Subroutine0:
          CFI Block cfiBlock23 Using cfiCommon0
          CFI NoFunction
          CFI CFA_SP SP+0
          CFI CFA_XSP16 add(XSP16, 26)
          CFI VB load(1, XDATA, add(CFA_XSP16, literal(-13)))
          CFI DPL0 load(1, XDATA, add(CFA_XSP16, literal(-2)))
          CFI DPH0 load(1, XDATA, add(CFA_XSP16, literal(-1)))
          CFI R6 load(1, XDATA, add(CFA_XSP16, literal(-14)))
          CFI R7 load(1, XDATA, add(CFA_XSP16, literal(-6)))
          CFI V0 load(1, XDATA, add(CFA_XSP16, literal(-12)))
          CFI V1 load(1, XDATA, add(CFA_XSP16, literal(-11)))
          CFI V2 load(1, XDATA, add(CFA_XSP16, literal(-10)))
          CFI V3 load(1, XDATA, add(CFA_XSP16, literal(-9)))
          CFI V4 load(1, XDATA, add(CFA_XSP16, literal(-8)))
          CFI V5 load(1, XDATA, add(CFA_XSP16, literal(-7)))
          CFI ?BRET_EXT load(1, XDATA, add(CFA_XSP16, literal(-3)))
          CFI ?RET_HIGH load(1, XDATA, add(CFA_XSP16, literal(-4)))
          CFI ?RET_LOW load(1, XDATA, add(CFA_XSP16, literal(-5)))
          CFI Invalid
        LCALL   ?DEALLOC_XSTACK8
          CFI EndBlock cfiBlock23
        REQUIRE ??Subroutine98_0
        ; // Fall through to label ??Subroutine98_0

        RSEG BANKED_CODE:CODE:NOROOT(0)
??Subroutine98_0:
          CFI Block cfiBlock24 Using cfiCommon0
          CFI NoFunction
          CFI CFA_SP SP+0
          CFI CFA_XSP16 add(XSP16, 14)
          CFI VB load(1, XDATA, add(CFA_XSP16, literal(-13)))
          CFI DPL0 load(1, XDATA, add(CFA_XSP16, literal(-2)))
          CFI DPH0 load(1, XDATA, add(CFA_XSP16, literal(-1)))
          CFI R6 load(1, XDATA, add(CFA_XSP16, literal(-14)))
          CFI R7 load(1, XDATA, add(CFA_XSP16, literal(-6)))
          CFI V0 load(1, XDATA, add(CFA_XSP16, literal(-12)))
          CFI V1 load(1, XDATA, add(CFA_XSP16, literal(-11)))
          CFI V2 load(1, XDATA, add(CFA_XSP16, literal(-10)))
          CFI V3 load(1, XDATA, add(CFA_XSP16, literal(-9)))
          CFI V4 load(1, XDATA, add(CFA_XSP16, literal(-8)))
          CFI V5 load(1, XDATA, add(CFA_XSP16, literal(-7)))
          CFI ?BRET_EXT load(1, XDATA, add(CFA_XSP16, literal(-3)))
          CFI ?RET_HIGH load(1, XDATA, add(CFA_XSP16, literal(-4)))
          CFI ?RET_LOW load(1, XDATA, add(CFA_XSP16, literal(-5)))
        MOV     R7,#0x6
        LJMP    ?BANKED_LEAVE_XDATA
          CFI EndBlock cfiBlock24
//  462 
//  463 /*********************************************************************
//  464  * @fn          ZDP_SimpleDescReq
//  465  *
//  466  * @brief       This builds and send a NWK_Simple_Desc_req
//  467  *              message.  This function sends unicast message to the
//  468  *              destination device.
//  469  *
//  470  * @param       dstAddr - destination address
//  471  * @param       nwkAddr - 16 bit address
//  472  * @param       epIntf - endpoint/interface
//  473  * @param       SecurityEnable - Security Options
//  474  *
//  475  * @return      afStatus_t
//  476  */

        RSEG BANKED_CODE:CODE:NOROOT(0)
//  477 afStatus_t ZDP_SimpleDescReq( zAddrType_t *dstAddr, uint16 nwkAddr,
ZDP_SimpleDescReq:
          CFI Block cfiBlock25 Using cfiCommon0
          CFI Function ZDP_SimpleDescReq
        CODE
//  478                                     byte endPoint, byte SecurityEnable )
//  479 
//  480 {
        FUNCALL ZDP_SimpleDescReq, fillAndSend
        LOCFRAME ISTACK, 0, STACK
        LOCFRAME PSTACK, 0, STACK
        LOCFRAME XSTACK, 12, STACK
        LOCFRAME IOVERLAY, 0, STATIC
        LOCFRAME DOVERLAY, 0, STATIC
        ARGFRAME ISTACK, 0, STACK
        ARGFRAME PSTACK, 0, STACK
        ARGFRAME XSTACK, 12, STACK
        ARGFRAME IOVERLAY, 0, STATIC
        ARGFRAME DOVERLAY, 0, STATIC
        REQUIRE ?V0
        REQUIRE ?V1
        MOV     A,#-0xa
        LCALL   ?BANKED_ENTER_XDATA
          CFI DPH0 load(1, XDATA, add(CFA_XSP16, literal(-1)))
          CFI DPL0 load(1, XDATA, add(CFA_XSP16, literal(-2)))
          CFI ?BRET_EXT load(1, XDATA, add(CFA_XSP16, literal(-3)))
          CFI ?RET_HIGH load(1, XDATA, add(CFA_XSP16, literal(-4)))
          CFI ?RET_LOW load(1, XDATA, add(CFA_XSP16, literal(-5)))
          CFI R7 load(1, XDATA, add(CFA_XSP16, literal(-6)))
          CFI V1 load(1, XDATA, add(CFA_XSP16, literal(-7)))
          CFI V0 load(1, XDATA, add(CFA_XSP16, literal(-8)))
          CFI VB load(1, XDATA, add(CFA_XSP16, literal(-9)))
          CFI R6 load(1, XDATA, add(CFA_XSP16, literal(-10)))
          CFI CFA_SP SP+0
          CFI CFA_XSP16 add(XSP16, 10)
        ; Saved register size: 10
        ; Auto size: 0
//  481   (void)SecurityEnable;  // Intentionally unreferenced parameter
//  482 
//  483   ZDP_TmpBuf[0] = LO_UINT16( nwkAddr );
        LCALL   ?Subroutine19 & 0xFFFF
//  484   ZDP_TmpBuf[1] = HI_UINT16( nwkAddr );
??CrossCallReturnLabel_17:
        LCALL   ?Subroutine13 & 0xFFFF
//  485   ZDP_TmpBuf[2] = endPoint;
//  486 
//  487   return fillAndSend( &ZDP_TransID, dstAddr, Simple_Desc_req, 3 );
??CrossCallReturnLabel_6:
        ; Setup parameters for call to function fillAndSend
        MOV     ?V0,#0x4
        MOV     ?V1,#0x0
        MOV     R0,#?V0
        LCALL   ?PUSH_XSTACK_I_TWO
          CFI CFA_XSP16 add(XSP16, 12)
        MOV     R1,#0x3
        LJMP    ?Subroutine8 & 0xFFFF
//  488 }
          CFI EndBlock cfiBlock25

        RSEG BANKED_CODE:CODE:NOROOT(0)
?Subroutine19:
          CFI Block cfiCond26 Using cfiCommon0
          CFI Function ZDP_NWKAddrOfInterestReq
          CFI Conditional ??CrossCallReturnLabel_16
          CFI R6 load(1, XDATA, add(CFA_XSP16, literal(-10)))
          CFI VB load(1, XDATA, add(CFA_XSP16, literal(-9)))
          CFI V0 load(1, XDATA, add(CFA_XSP16, literal(-8)))
          CFI V1 load(1, XDATA, add(CFA_XSP16, literal(-7)))
          CFI R7 load(1, XDATA, add(CFA_XSP16, literal(-6)))
          CFI ?RET_LOW load(1, XDATA, add(CFA_XSP16, literal(-5)))
          CFI ?RET_HIGH load(1, XDATA, add(CFA_XSP16, literal(-4)))
          CFI ?BRET_EXT load(1, XDATA, add(CFA_XSP16, literal(-3)))
          CFI DPL0 load(1, XDATA, add(CFA_XSP16, literal(-2)))
          CFI DPH0 load(1, XDATA, add(CFA_XSP16, literal(-1)))
          CFI CFA_SP SP+-2
          CFI CFA_XSP16 add(XSP16, 10)
          CFI Block cfiCond27 Using cfiCommon0
          CFI (cfiCond27) Function ZDP_SimpleDescReq
          CFI (cfiCond27) Conditional ??CrossCallReturnLabel_17
          CFI (cfiCond27) R6 load(1, XDATA, add(CFA_XSP16, literal(-10)))
          CFI (cfiCond27) VB load(1, XDATA, add(CFA_XSP16, literal(-9)))
          CFI (cfiCond27) V0 load(1, XDATA, add(CFA_XSP16, literal(-8)))
          CFI (cfiCond27) V1 load(1, XDATA, add(CFA_XSP16, literal(-7)))
          CFI (cfiCond27) R7 load(1, XDATA, add(CFA_XSP16, literal(-6)))
          CFI (cfiCond27) ?RET_LOW load(1, XDATA, add(CFA_XSP16, literal(-5)))
          CFI (cfiCond27) ?RET_HIGH load(1, XDATA, add(CFA_XSP16, literal(-4)))
          CFI (cfiCond27) ?BRET_EXT load(1, XDATA, add(CFA_XSP16, literal(-3)))
          CFI (cfiCond27) DPL0 load(1, XDATA, add(CFA_XSP16, literal(-2)))
          CFI (cfiCond27) DPH0 load(1, XDATA, add(CFA_XSP16, literal(-1)))
          CFI (cfiCond27) CFA_SP SP+-2
          CFI (cfiCond27) CFA_XSP16 add(XSP16, 10)
          CFI Block cfiPicker28 Using cfiCommon1
          CFI (cfiPicker28) NoFunction
          CFI (cfiPicker28) Picker
        LCALL   ?Subroutine90 & 0xFFFF
??CrossCallReturnLabel_146:
        MOV     A,R4
        LCALL   ?Subroutine70 & 0xFFFF
??CrossCallReturnLabel_117:
        MOV     A,R5
        RET
          CFI EndBlock cfiCond26
          CFI EndBlock cfiCond27
          CFI EndBlock cfiPicker28

        RSEG BANKED_CODE:CODE:NOROOT(0)
?Subroutine2:
          CFI Block cfiBlock29 Using cfiCommon0
          CFI NoFunction
          CFI CFA_SP SP+0
          CFI CFA_XSP16 add(XSP16, 21)
          CFI VB load(1, XDATA, add(CFA_XSP16, literal(-9)))
          CFI DPL0 load(1, XDATA, add(CFA_XSP16, literal(-2)))
          CFI DPH0 load(1, XDATA, add(CFA_XSP16, literal(-1)))
          CFI R6 load(1, XDATA, add(CFA_XSP16, literal(-10)))
          CFI R7 load(1, XDATA, add(CFA_XSP16, literal(-6)))
          CFI V0 load(1, XDATA, add(CFA_XSP16, literal(-8)))
          CFI V1 load(1, XDATA, add(CFA_XSP16, literal(-7)))
          CFI ?BRET_EXT load(1, XDATA, add(CFA_XSP16, literal(-3)))
          CFI ?RET_HIGH load(1, XDATA, add(CFA_XSP16, literal(-4)))
          CFI ?RET_LOW load(1, XDATA, add(CFA_XSP16, literal(-5)))
        MOV     A,#0x2
        LCALL   ?XSTACK_DISP102_8
        MOV     R2,#ZDP_TransID & 0xff
        MOV     R3,#(ZDP_TransID >> 8) & 0xff
        LCALL   `??fillAndSend::?relay`; Banked call to: fillAndSend
        MOV     A,#0x2
        LCALL   ?DEALLOC_XSTACK8
          CFI EndBlock cfiBlock29
        REQUIRE ??Subroutine99_0
        ; // Fall through to label ??Subroutine99_0

        RSEG BANKED_CODE:CODE:NOROOT(0)
??Subroutine99_0:
          CFI Block cfiBlock30 Using cfiCommon0
          CFI NoFunction
          CFI CFA_SP SP+0
          CFI CFA_XSP16 add(XSP16, 19)
          CFI VB load(1, XDATA, add(CFA_XSP16, literal(-9)))
          CFI DPL0 load(1, XDATA, add(CFA_XSP16, literal(-2)))
          CFI DPH0 load(1, XDATA, add(CFA_XSP16, literal(-1)))
          CFI R6 load(1, XDATA, add(CFA_XSP16, literal(-10)))
          CFI R7 load(1, XDATA, add(CFA_XSP16, literal(-6)))
          CFI V0 load(1, XDATA, add(CFA_XSP16, literal(-8)))
          CFI V1 load(1, XDATA, add(CFA_XSP16, literal(-7)))
          CFI ?BRET_EXT load(1, XDATA, add(CFA_XSP16, literal(-3)))
          CFI ?RET_HIGH load(1, XDATA, add(CFA_XSP16, literal(-4)))
          CFI ?RET_LOW load(1, XDATA, add(CFA_XSP16, literal(-5)))
        MOV     A,#0x9
          CFI EndBlock cfiBlock30
        REQUIRE ??Subroutine100_0
        ; // Fall through to label ??Subroutine100_0

        RSEG BANKED_CODE:CODE:NOROOT(0)
??Subroutine100_0:
          CFI Block cfiBlock31 Using cfiCommon0
          CFI NoFunction
          CFI CFA_SP SP+0
          CFI CFA_XSP16 add(XSP16, 12)
          CFI VB load(1, XDATA, add(CFA_XSP16, literal(-9)))
          CFI DPL0 load(1, XDATA, add(CFA_XSP16, literal(-2)))
          CFI DPH0 load(1, XDATA, add(CFA_XSP16, literal(-1)))
          CFI R6 load(1, XDATA, add(CFA_XSP16, literal(-10)))
          CFI R7 load(1, XDATA, add(CFA_XSP16, literal(-6)))
          CFI V0 load(1, XDATA, add(CFA_XSP16, literal(-8)))
          CFI V1 load(1, XDATA, add(CFA_XSP16, literal(-7)))
          CFI ?BRET_EXT load(1, XDATA, add(CFA_XSP16, literal(-3)))
          CFI ?RET_HIGH load(1, XDATA, add(CFA_XSP16, literal(-4)))
          CFI ?RET_LOW load(1, XDATA, add(CFA_XSP16, literal(-5)))
          CFI Invalid
        LCALL   ?DEALLOC_XSTACK8
          CFI CFA_XSP16 add(XSP16, 10)
          CFI Valid
        MOV     R7,#0x2
        LJMP    ?BANKED_LEAVE_XDATA
          CFI EndBlock cfiBlock31
//  489 
//  490 /*********************************************************************
//  491  * @fn          ZDP_UserDescSet
//  492  *
//  493  * @brief       This builds and send a User_Desc_set message to set
//  494  *              the user descriptor.  This function sends unicast
//  495  *              message to the destination device.
//  496  *
//  497  * @param       dstAddr - destination address
//  498  * @param       nwkAddr - 16 bit address
//  499  * @param       UserDescriptor - user descriptor
//  500  * @param       SecurityEnable - Security Options
//  501  *
//  502  * @return      afStatus_t
//  503  */

        RSEG BANKED_CODE:CODE:NOROOT(0)
//  504 afStatus_t ZDP_UserDescSet( zAddrType_t *dstAddr, uint16 nwkAddr,
ZDP_UserDescSet:
          CFI Block cfiBlock32 Using cfiCommon0
          CFI Function ZDP_UserDescSet
        CODE
//  505                           UserDescriptorFormat_t *UserDescriptor,
//  506                           byte SecurityEnable )
//  507 {
        FUNCALL ZDP_UserDescSet, osal_memcpy
        LOCFRAME ISTACK, 0, STACK
        LOCFRAME PSTACK, 0, STACK
        LOCFRAME XSTACK, 18, STACK
        LOCFRAME IOVERLAY, 0, STATIC
        LOCFRAME DOVERLAY, 0, STATIC
        ARGFRAME ISTACK, 0, STACK
        ARGFRAME PSTACK, 0, STACK
        ARGFRAME XSTACK, 18, STACK
        ARGFRAME IOVERLAY, 0, STATIC
        ARGFRAME DOVERLAY, 0, STATIC
        FUNCALL ZDP_UserDescSet, osal_memset
        LOCFRAME ISTACK, 0, STACK
        LOCFRAME PSTACK, 0, STACK
        LOCFRAME XSTACK, 15, STACK
        LOCFRAME IOVERLAY, 0, STATIC
        LOCFRAME DOVERLAY, 0, STATIC
        ARGFRAME ISTACK, 0, STACK
        ARGFRAME PSTACK, 0, STACK
        ARGFRAME XSTACK, 15, STACK
        ARGFRAME IOVERLAY, 0, STATIC
        ARGFRAME DOVERLAY, 0, STATIC
        FUNCALL ZDP_UserDescSet, fillAndSend
        LOCFRAME ISTACK, 0, STACK
        LOCFRAME PSTACK, 0, STACK
        LOCFRAME XSTACK, 17, STACK
        LOCFRAME IOVERLAY, 0, STATIC
        LOCFRAME DOVERLAY, 0, STATIC
        ARGFRAME ISTACK, 0, STACK
        ARGFRAME PSTACK, 0, STACK
        ARGFRAME XSTACK, 17, STACK
        ARGFRAME IOVERLAY, 0, STATIC
        ARGFRAME DOVERLAY, 0, STATIC
        REQUIRE ?V0
        REQUIRE ?V1
        REQUIRE ?V2
        REQUIRE ?V4
        REQUIRE ?V5
        REQUIRE ?V6
        MOV     A,#-0xf
        LCALL   ?BANKED_ENTER_XDATA
          CFI DPH0 load(1, XDATA, add(CFA_XSP16, literal(-1)))
          CFI DPL0 load(1, XDATA, add(CFA_XSP16, literal(-2)))
          CFI ?BRET_EXT load(1, XDATA, add(CFA_XSP16, literal(-3)))
          CFI ?RET_HIGH load(1, XDATA, add(CFA_XSP16, literal(-4)))
          CFI ?RET_LOW load(1, XDATA, add(CFA_XSP16, literal(-5)))
          CFI R7 load(1, XDATA, add(CFA_XSP16, literal(-6)))
          CFI V6 load(1, XDATA, add(CFA_XSP16, literal(-7)))
          CFI V5 load(1, XDATA, add(CFA_XSP16, literal(-8)))
          CFI V4 load(1, XDATA, add(CFA_XSP16, literal(-9)))
          CFI V3 load(1, XDATA, add(CFA_XSP16, literal(-10)))
          CFI V2 load(1, XDATA, add(CFA_XSP16, literal(-11)))
          CFI V1 load(1, XDATA, add(CFA_XSP16, literal(-12)))
          CFI V0 load(1, XDATA, add(CFA_XSP16, literal(-13)))
          CFI VB load(1, XDATA, add(CFA_XSP16, literal(-14)))
          CFI R6 load(1, XDATA, add(CFA_XSP16, literal(-15)))
          CFI CFA_SP SP+0
          CFI CFA_XSP16 add(XSP16, 15)
        ; Saved register size: 15
        ; Auto size: 0
        LCALL   ?Subroutine54 & 0xFFFF
//  508   uint8 *pBuf = ZDP_TmpBuf;
??CrossCallReturnLabel_82:
        MOV     A,#0xf
        LCALL   ?XSTACK_DISP0_8
        LCALL   ?Subroutine44 & 0xFFFF
//  509   byte len = (UserDescriptor->len < AF_MAX_USER_DESCRIPTOR_LEN) ?
//  510               UserDescriptor->len : AF_MAX_USER_DESCRIPTOR_LEN;
??CrossCallReturnLabel_60:
        MOV     R2,A
        CLR     C
        SUBB    A,#0x10
        JNC     ??ZDP_UserDescSet_0
        MOV     ?V2,R2
        SJMP    ??ZDP_UserDescSet_1
??ZDP_UserDescSet_0:
        MOV     ?V2,#0x10
//  511   byte addrLen = 2;
//  512 
//  513   (void)SecurityEnable;  // Intentionally unreferenced parameter
//  514 
//  515   *pBuf++ = LO_UINT16( nwkAddr );
??ZDP_UserDescSet_1:
        MOV     A,R4
        MOV     DPL,?V0
        MOV     DPH,?V1
        MOVX    @DPTR,A
//  516   *pBuf++ = HI_UINT16( nwkAddr );
        MOV     A,R5
        LCALL   ?Subroutine32 & 0xFFFF
//  517 
//  518   *pBuf++ = len;
??CrossCallReturnLabel_42:
        MOV     A,?V2
        LCALL   ?Subroutine10 & 0xFFFF
//  519   addrLen = 3;
//  520 
//  521   pBuf = osal_memcpy( pBuf, UserDescriptor->desc, len );
??CrossCallReturnLabel_0:
        LCALL   ?PUSH_XSTACK_I_THREE
          CFI CFA_XSP16 add(XSP16, 18)
        MOV     R4,?V2
        MOV     R5,#0x0
        MOV     A,?V0
        ADD     A,#0x3
        MOV     R2,A
        CLR     A
        ADDC    A,?V1
        MOV     R3,A
        LCALL   `??osal_memcpy::?relay`; Banked call to: osal_memcpy
        MOV     A,#0x3
        LCALL   ?DEALLOC_XSTACK8
          CFI CFA_XSP16 add(XSP16, 15)
//  522   osal_memset( pBuf, AF_USER_DESCRIPTOR_FILL, AF_MAX_USER_DESCRIPTOR_LEN-len );
        ; Setup parameters for call to function osal_memset
        MOV     R0,?V2
        MOV     A,#0x10
        CLR     C
        SUBB    A,R0
        MOV     R4,A
        SUBB    A,0xE0 /* A   */
        MOV     R5,A
        MOV     R1,#0x20
        LCALL   `??osal_memset::?relay`; Banked call to: osal_memset
//  523 
//  524   return fillAndSend( &ZDP_TransID, dstAddr, User_Desc_set, (AF_MAX_USER_DESCRIPTOR_LEN + addrLen) );
        ; Setup parameters for call to function fillAndSend
        MOV     ?V0,#0x14
        MOV     ?V1,#0x0
        MOV     R0,#?V0
        LCALL   ?PUSH_XSTACK_I_TWO
          CFI CFA_XSP16 add(XSP16, 17)
        MOV     R1,#0x13
        MOV     A,R6
        MOV     R4,A
        MOV     A,R7
        MOV     R5,A
        MOV     R2,#ZDP_TransID & 0xff
        MOV     R3,#(ZDP_TransID >> 8) & 0xff
        LCALL   `??fillAndSend::?relay`; Banked call to: fillAndSend
        MOV     A,#0x2
          CFI EndBlock cfiBlock32
        REQUIRE ?Subroutine3
        ; // Fall through to label ?Subroutine3
//  525 }

        RSEG BANKED_CODE:CODE:NOROOT(0)
?Subroutine3:
          CFI Block cfiBlock33 Using cfiCommon0
          CFI NoFunction
          CFI CFA_SP SP+0
          CFI CFA_XSP16 add(XSP16, 17)
          CFI VB load(1, XDATA, add(CFA_XSP16, literal(-14)))
          CFI DPL0 load(1, XDATA, add(CFA_XSP16, literal(-2)))
          CFI DPH0 load(1, XDATA, add(CFA_XSP16, literal(-1)))
          CFI R6 load(1, XDATA, add(CFA_XSP16, literal(-15)))
          CFI R7 load(1, XDATA, add(CFA_XSP16, literal(-6)))
          CFI V0 load(1, XDATA, add(CFA_XSP16, literal(-13)))
          CFI V1 load(1, XDATA, add(CFA_XSP16, literal(-12)))
          CFI V2 load(1, XDATA, add(CFA_XSP16, literal(-11)))
          CFI V3 load(1, XDATA, add(CFA_XSP16, literal(-10)))
          CFI V4 load(1, XDATA, add(CFA_XSP16, literal(-9)))
          CFI V5 load(1, XDATA, add(CFA_XSP16, literal(-8)))
          CFI V6 load(1, XDATA, add(CFA_XSP16, literal(-7)))
          CFI ?BRET_EXT load(1, XDATA, add(CFA_XSP16, literal(-3)))
          CFI ?RET_HIGH load(1, XDATA, add(CFA_XSP16, literal(-4)))
          CFI ?RET_LOW load(1, XDATA, add(CFA_XSP16, literal(-5)))
          CFI Invalid
        LCALL   ?DEALLOC_XSTACK8
          CFI CFA_XSP16 add(XSP16, 15)
          CFI Valid
        MOV     R7,#0x7
        LJMP    ?BANKED_LEAVE_XDATA
          CFI EndBlock cfiBlock33
//  526 
//  527 /*********************************************************************
//  528  * @fn          ZDP_ServerDiscReq
//  529  *
//  530  * @brief       Build and send a Server_Discovery_req request message.
//  531  *
//  532  * @param       serverMask - 16-bit bit-mask of server services being sought.
//  533  * @param       SecurityEnable - Security Options
//  534  *
//  535  * @return      afStatus_t
//  536  */

        RSEG BANKED_CODE:CODE:NOROOT(0)
//  537 afStatus_t ZDP_ServerDiscReq( uint16 serverMask, byte SecurityEnable )
ZDP_ServerDiscReq:
          CFI Block cfiBlock34 Using cfiCommon0
          CFI Function ZDP_ServerDiscReq
        CODE
//  538 {
        FUNCALL ZDP_ServerDiscReq, fillAndSend
        LOCFRAME ISTACK, 0, STACK
        LOCFRAME PSTACK, 0, STACK
        LOCFRAME XSTACK, 21, STACK
        LOCFRAME IOVERLAY, 0, STATIC
        LOCFRAME DOVERLAY, 0, STATIC
        ARGFRAME ISTACK, 0, STACK
        ARGFRAME PSTACK, 0, STACK
        ARGFRAME XSTACK, 21, STACK
        ARGFRAME IOVERLAY, 0, STATIC
        ARGFRAME DOVERLAY, 0, STATIC
        REQUIRE ?V0
        REQUIRE ?V1
        MOV     A,#-0xa
        LCALL   ?BANKED_ENTER_XDATA
          CFI DPH0 load(1, XDATA, add(CFA_XSP16, literal(-1)))
          CFI DPL0 load(1, XDATA, add(CFA_XSP16, literal(-2)))
          CFI ?BRET_EXT load(1, XDATA, add(CFA_XSP16, literal(-3)))
          CFI ?RET_HIGH load(1, XDATA, add(CFA_XSP16, literal(-4)))
          CFI ?RET_LOW load(1, XDATA, add(CFA_XSP16, literal(-5)))
          CFI R7 load(1, XDATA, add(CFA_XSP16, literal(-6)))
          CFI V1 load(1, XDATA, add(CFA_XSP16, literal(-7)))
          CFI V0 load(1, XDATA, add(CFA_XSP16, literal(-8)))
          CFI VB load(1, XDATA, add(CFA_XSP16, literal(-9)))
          CFI R6 load(1, XDATA, add(CFA_XSP16, literal(-10)))
          CFI CFA_SP SP+0
          CFI CFA_XSP16 add(XSP16, 10)
        ; Saved register size: 10
        ; Auto size: 9
        MOV     A,#-0x9
        LCALL   ?ALLOC_XSTACK8
          CFI CFA_XSP16 add(XSP16, 19)
        LCALL   ?Subroutine58 & 0xFFFF
//  539   uint8 *pBuf = ZDP_TmpBuf;
//  540   zAddrType_t dstAddr;
//  541 
//  542   dstAddr.addrMode = AddrBroadcast;
??CrossCallReturnLabel_240:
        MOV     A,#0x8
        LCALL   ?XSTACK_DISP0_8
        LCALL   ?Subroutine20 & 0xFFFF
//  543   dstAddr.addr.shortAddr = NWK_BROADCAST_SHORTADDR_DEVRXON;
//  544 
//  545   *pBuf++ = LO_UINT16( serverMask );
??CrossCallReturnLabel_18:
        MOV     A,R2
        MOV     DPL,R0
        MOV     DPH,R1
        MOVX    @DPTR,A
//  546   *pBuf = HI_UINT16( serverMask );
        MOV     A,R3
        INC     DPTR
        MOVX    @DPTR,A
//  547 
//  548   FillAndSendTxOptions( &ZDP_TransID, &dstAddr, Server_Discovery_req, 2,
//  549              ((SecurityEnable) ? AF_EN_SECURITY : AF_TX_OPTIONS_NONE) );
        MOV     A,R6
        MOV     DPTR,#ZDP_TxOptions
        JZ      ??ZDP_ServerDiscReq_0
        MOV     A,#0x40
        SJMP    ??ZDP_ServerDiscReq_1
??ZDP_ServerDiscReq_0:
        CLR     A
??ZDP_ServerDiscReq_1:
        MOVX    @DPTR,A
        ; Setup parameters for call to function fillAndSend
        MOV     ?V0,#0x15
        MOV     ?V1,#0x0
        MOV     R0,#?V0
        LCALL   ?PUSH_XSTACK_I_TWO
          CFI CFA_XSP16 add(XSP16, 21)
        MOV     R1,#0x2
        MOV     A,R1
        LCALL   ?XSTACK_DISP102_8
        MOV     R2,#ZDP_TransID & 0xff
        MOV     R3,#(ZDP_TransID >> 8) & 0xff
        LCALL   `??fillAndSend::?relay`; Banked call to: fillAndSend
        MOV     A,#0x2
        LCALL   ?DEALLOC_XSTACK8
          CFI CFA_XSP16 add(XSP16, 19)
        MOV     A,R1
        MOV     R1,A
        MOV     DPTR,#ZDP_TxOptions
        CLR     A
        MOVX    @DPTR,A
        LJMP    ??Subroutine99_0 & 0xFFFF
//  550 }
          CFI EndBlock cfiBlock34
//  551 
//  552 /*********************************************************************
//  553  * @fn          ZDP_DeviceAnnce
//  554  *
//  555  * @brief       This builds and send a Device_Annce message.  This
//  556  *              function sends a broadcast message.
//  557  *
//  558  * @param       nwkAddr - 16 bit address of the device
//  559  * @param       IEEEAddr - 64 bit address of the device
//  560  * @param       capabilities - device capabilities.  This field is only
//  561  *                 sent for v1.1 networks.
//  562  * @param       SecurityEnable - Security Options
//  563  *
//  564  * @return      afStatus_t
//  565  */

        RSEG BANKED_CODE:CODE:NOROOT(0)
//  566 afStatus_t ZDP_DeviceAnnce( uint16 nwkAddr, uint8 *IEEEAddr,
ZDP_DeviceAnnce:
          CFI Block cfiBlock35 Using cfiCommon0
          CFI Function ZDP_DeviceAnnce
        CODE
//  567                               byte capabilities, byte SecurityEnable )
//  568 {
        FUNCALL ZDP_DeviceAnnce, sAddrExtCpy
        LOCFRAME ISTACK, 0, STACK
        LOCFRAME PSTACK, 0, STACK
        LOCFRAME XSTACK, 19, STACK
        LOCFRAME IOVERLAY, 0, STATIC
        LOCFRAME DOVERLAY, 0, STATIC
        ARGFRAME ISTACK, 0, STACK
        ARGFRAME PSTACK, 0, STACK
        ARGFRAME XSTACK, 19, STACK
        ARGFRAME IOVERLAY, 0, STATIC
        ARGFRAME DOVERLAY, 0, STATIC
        FUNCALL ZDP_DeviceAnnce, fillAndSend
        LOCFRAME ISTACK, 0, STACK
        LOCFRAME PSTACK, 0, STACK
        LOCFRAME XSTACK, 21, STACK
        LOCFRAME IOVERLAY, 0, STATIC
        LOCFRAME DOVERLAY, 0, STATIC
        ARGFRAME ISTACK, 0, STACK
        ARGFRAME PSTACK, 0, STACK
        ARGFRAME XSTACK, 21, STACK
        ARGFRAME IOVERLAY, 0, STATIC
        ARGFRAME DOVERLAY, 0, STATIC
        REQUIRE ?V0
        REQUIRE ?V1
        MOV     A,#-0xa
        LCALL   ?BANKED_ENTER_XDATA
          CFI DPH0 load(1, XDATA, add(CFA_XSP16, literal(-1)))
          CFI DPL0 load(1, XDATA, add(CFA_XSP16, literal(-2)))
          CFI ?BRET_EXT load(1, XDATA, add(CFA_XSP16, literal(-3)))
          CFI ?RET_HIGH load(1, XDATA, add(CFA_XSP16, literal(-4)))
          CFI ?RET_LOW load(1, XDATA, add(CFA_XSP16, literal(-5)))
          CFI R7 load(1, XDATA, add(CFA_XSP16, literal(-6)))
          CFI V1 load(1, XDATA, add(CFA_XSP16, literal(-7)))
          CFI V0 load(1, XDATA, add(CFA_XSP16, literal(-8)))
          CFI VB load(1, XDATA, add(CFA_XSP16, literal(-9)))
          CFI R6 load(1, XDATA, add(CFA_XSP16, literal(-10)))
          CFI CFA_SP SP+0
          CFI CFA_XSP16 add(XSP16, 10)
        ; Saved register size: 10
        ; Auto size: 9
        MOV     A,#-0x9
        LCALL   ?ALLOC_XSTACK8
          CFI CFA_XSP16 add(XSP16, 19)
        MOV     A,R1
        MOV     R6,A
//  569   zAddrType_t dstAddr;
//  570   uint8 len;
//  571 
//  572   (void)SecurityEnable;  // Intentionally unreferenced parameter
//  573 
//  574   dstAddr.addrMode = (afAddrMode_t)AddrBroadcast;
        MOV     A,#0x8
        LCALL   ?XSTACK_DISP0_8
        LCALL   ?Subroutine20 & 0xFFFF
//  575   dstAddr.addr.shortAddr = NWK_BROADCAST_SHORTADDR_DEVRXON;
//  576 
//  577   ZDP_TmpBuf[0] = LO_UINT16( nwkAddr );
??CrossCallReturnLabel_19:
        LCALL   ?Subroutine48 & 0xFFFF
??CrossCallReturnLabel_183:
        MOV     A,R2
        LCALL   ?Subroutine23 & 0xFFFF
//  578   ZDP_TmpBuf[1] = HI_UINT16( nwkAddr );
??CrossCallReturnLabel_24:
        MOV     A,R3
        MOVX    @DPTR,A
//  579   osal_cpyExtAddr( &ZDP_TmpBuf[2], IEEEAddr );
        ; Setup parameters for call to function sAddrExtCpy
        MOV     DPTR,#ZDP_TmpBuf
        MOVX    A,@DPTR
        ADD     A,#0x2
        MOV     R2,A
        INC     DPTR
        MOVX    A,@DPTR
        ADDC    A,#0x0
        MOV     R3,A
        LCALL   `??sAddrExtCpy::?relay`; Banked call to: sAddrExtCpy
//  580   len = 2 + Z_EXTADDR_LEN;
//  581 
//  582   ZDP_TmpBuf[10] = capabilities;
        LCALL   ?Subroutine91 & 0xFFFF
??CrossCallReturnLabel_258:
        XCH     A,R0
        ADD     A,#0xa
        MOV     DPL,A
        CLR     A
        ADDC    A,R0
        MOV     DPH,A
        MOV     A,R6
        MOVX    @DPTR,A
//  583   len++;
//  584 
//  585   return fillAndSend( &ZDP_TransID, &dstAddr, Device_annce, len );
        ; Setup parameters for call to function fillAndSend
        MOV     ?V0,#0x13
        MOV     ?V1,#0x0
        MOV     R0,#?V0
        LCALL   ?PUSH_XSTACK_I_TWO
          CFI CFA_XSP16 add(XSP16, 21)
        MOV     R1,#0xb
        LJMP    ?Subroutine2 & 0xFFFF
//  586 }
          CFI EndBlock cfiBlock35

        RSEG BANKED_CODE:CODE:NOROOT(0)
?Subroutine20:
          CFI Block cfiCond36 Using cfiCommon0
          CFI Function ZDP_ServerDiscReq
          CFI Conditional ??CrossCallReturnLabel_18
          CFI R6 load(1, XDATA, add(CFA_XSP16, literal(-10)))
          CFI VB load(1, XDATA, add(CFA_XSP16, literal(-9)))
          CFI V0 load(1, XDATA, add(CFA_XSP16, literal(-8)))
          CFI V1 load(1, XDATA, add(CFA_XSP16, literal(-7)))
          CFI R7 load(1, XDATA, add(CFA_XSP16, literal(-6)))
          CFI ?RET_LOW load(1, XDATA, add(CFA_XSP16, literal(-5)))
          CFI ?RET_HIGH load(1, XDATA, add(CFA_XSP16, literal(-4)))
          CFI ?BRET_EXT load(1, XDATA, add(CFA_XSP16, literal(-3)))
          CFI DPL0 load(1, XDATA, add(CFA_XSP16, literal(-2)))
          CFI DPH0 load(1, XDATA, add(CFA_XSP16, literal(-1)))
          CFI CFA_SP SP+-2
          CFI CFA_XSP16 add(XSP16, 19)
          CFI Block cfiCond37 Using cfiCommon0
          CFI (cfiCond37) Function ZDP_DeviceAnnce
          CFI (cfiCond37) Conditional ??CrossCallReturnLabel_19
          CFI (cfiCond37) R6 load(1, XDATA, add(CFA_XSP16, literal(-10)))
          CFI (cfiCond37) VB load(1, XDATA, add(CFA_XSP16, literal(-9)))
          CFI (cfiCond37) V0 load(1, XDATA, add(CFA_XSP16, literal(-8)))
          CFI (cfiCond37) V1 load(1, XDATA, add(CFA_XSP16, literal(-7)))
          CFI (cfiCond37) R7 load(1, XDATA, add(CFA_XSP16, literal(-6)))
          CFI (cfiCond37) ?RET_LOW load(1, XDATA, add(CFA_XSP16, literal(-5)))
          CFI (cfiCond37) ?RET_HIGH load(1, XDATA, add(CFA_XSP16, literal(-4)))
          CFI (cfiCond37) ?BRET_EXT load(1, XDATA, add(CFA_XSP16, literal(-3)))
          CFI (cfiCond37) DPL0 load(1, XDATA, add(CFA_XSP16, literal(-2)))
          CFI (cfiCond37) DPH0 load(1, XDATA, add(CFA_XSP16, literal(-1)))
          CFI (cfiCond37) CFA_SP SP+-2
          CFI (cfiCond37) CFA_XSP16 add(XSP16, 19)
          CFI Block cfiPicker38 Using cfiCommon1
          CFI (cfiPicker38) NoFunction
          CFI (cfiPicker38) Picker
        LCALL   ?Subroutine83 & 0xFFFF
??CrossCallReturnLabel_137:
        MOVX    @DPTR,A
        RET
          CFI EndBlock cfiCond36
          CFI EndBlock cfiCond37
          CFI EndBlock cfiPicker38

        RSEG BANKED_CODE:CODE:NOROOT(0)
?Subroutine83:
          CFI Block cfiCond39 Using cfiCommon0
          CFI Function ZDP_NwkAddrReq
          CFI Conditional ??CrossCallReturnLabel_136
          CFI R6 load(1, XDATA, add(CFA_XSP16, literal(-12)))
          CFI VB load(1, XDATA, add(CFA_XSP16, literal(-11)))
          CFI V0 load(1, XDATA, add(CFA_XSP16, literal(-10)))
          CFI V1 load(1, XDATA, add(CFA_XSP16, literal(-9)))
          CFI V2 load(1, XDATA, add(CFA_XSP16, literal(-8)))
          CFI V3 load(1, XDATA, add(CFA_XSP16, literal(-7)))
          CFI R7 load(1, XDATA, add(CFA_XSP16, literal(-6)))
          CFI ?RET_LOW load(1, XDATA, add(CFA_XSP16, literal(-5)))
          CFI ?RET_HIGH load(1, XDATA, add(CFA_XSP16, literal(-4)))
          CFI ?BRET_EXT load(1, XDATA, add(CFA_XSP16, literal(-3)))
          CFI DPL0 load(1, XDATA, add(CFA_XSP16, literal(-2)))
          CFI DPH0 load(1, XDATA, add(CFA_XSP16, literal(-1)))
          CFI CFA_SP SP+-2
          CFI CFA_XSP16 add(XSP16, 21)
          CFI Block cfiCond40 Using cfiCommon0
          CFI (cfiCond40) Function ZDP_ServerDiscReq
          CFI (cfiCond40) Conditional ??CrossCallReturnLabel_137, ??CrossCallReturnLabel_18
          CFI (cfiCond40) R6 load(1, XDATA, add(CFA_XSP16, literal(-10)))
          CFI (cfiCond40) VB load(1, XDATA, add(CFA_XSP16, literal(-9)))
          CFI (cfiCond40) V0 load(1, XDATA, add(CFA_XSP16, literal(-8)))
          CFI (cfiCond40) V1 load(1, XDATA, add(CFA_XSP16, literal(-7)))
          CFI (cfiCond40) R7 load(1, XDATA, add(CFA_XSP16, literal(-6)))
          CFI (cfiCond40) ?RET_LOW load(1, XDATA, add(CFA_XSP16, literal(-5)))
          CFI (cfiCond40) ?RET_HIGH load(1, XDATA, add(CFA_XSP16, literal(-4)))
          CFI (cfiCond40) ?BRET_EXT load(1, XDATA, add(CFA_XSP16, literal(-3)))
          CFI (cfiCond40) DPL0 load(1, XDATA, add(CFA_XSP16, literal(-2)))
          CFI (cfiCond40) DPH0 load(1, XDATA, add(CFA_XSP16, literal(-1)))
          CFI (cfiCond40) CFA_SP SP+-4
          CFI (cfiCond40) CFA_XSP16 add(XSP16, 19)
          CFI Block cfiCond41 Using cfiCommon0
          CFI (cfiCond41) Function ZDP_DeviceAnnce
          CFI (cfiCond41) Conditional ??CrossCallReturnLabel_137, ??CrossCallReturnLabel_19
          CFI (cfiCond41) R6 load(1, XDATA, add(CFA_XSP16, literal(-10)))
          CFI (cfiCond41) VB load(1, XDATA, add(CFA_XSP16, literal(-9)))
          CFI (cfiCond41) V0 load(1, XDATA, add(CFA_XSP16, literal(-8)))
          CFI (cfiCond41) V1 load(1, XDATA, add(CFA_XSP16, literal(-7)))
          CFI (cfiCond41) R7 load(1, XDATA, add(CFA_XSP16, literal(-6)))
          CFI (cfiCond41) ?RET_LOW load(1, XDATA, add(CFA_XSP16, literal(-5)))
          CFI (cfiCond41) ?RET_HIGH load(1, XDATA, add(CFA_XSP16, literal(-4)))
          CFI (cfiCond41) ?BRET_EXT load(1, XDATA, add(CFA_XSP16, literal(-3)))
          CFI (cfiCond41) DPL0 load(1, XDATA, add(CFA_XSP16, literal(-2)))
          CFI (cfiCond41) DPH0 load(1, XDATA, add(CFA_XSP16, literal(-1)))
          CFI (cfiCond41) CFA_SP SP+-4
          CFI (cfiCond41) CFA_XSP16 add(XSP16, 19)
          CFI Block cfiPicker42 Using cfiCommon1
          CFI (cfiPicker42) NoFunction
          CFI (cfiPicker42) Picker
        MOV     A,#0xf
        MOVX    @DPTR,A
        MOV     DPL,?XSP + 0
        MOV     DPH,?XSP + 1
        MOV     A,#-0x3
        MOVX    @DPTR,A
        INC     DPTR
        MOV     A,#-0x1
        RET
          CFI EndBlock cfiCond39
          CFI EndBlock cfiCond40
          CFI EndBlock cfiCond41
          CFI EndBlock cfiPicker42
//  587 
//  588 /*********************************************************************
//  589  * @fn          ZDP_ParentAnnce
//  590  *
//  591  * @brief       This builds and send a Parent_Annce and Parent_Annce_Rsp
//  592  *              messages, it will depend on the clusterID parameter.
//  593  *
//  594  * @param       TransSeq - ZDP Transaction Sequence Number
//  595  * @param       dstAddr - destination address
//  596  * @param       numberOfChildren - 8 bit number of children
//  597  * @param       childInfo - list of children information (ExtAddr and Age)
//  598  * @param       clusterID - Parent_annce or Parent_annce_rsp
//  599  * @param       SecurityEnable - Security Options
//  600  *
//  601  * @return      afStatus_t
//  602  */

        RSEG BANKED_CODE:CODE:NOROOT(0)
//  603 afStatus_t ZDP_ParentAnnce( uint8 *TransSeq,
ZDP_ParentAnnce:
          CFI Block cfiBlock43 Using cfiCommon0
          CFI Function ZDP_ParentAnnce
        CODE
//  604                             zAddrType_t *dstAddr,
//  605                             uint8 numberOfChildren,
//  606                             uint8 *childInfo,
//  607                             cId_t clusterID,
//  608                             uint8 SecurityEnable )
//  609 {
        FUNCALL ZDP_ParentAnnce, sAddrExtCpy
        LOCFRAME ISTACK, 0, STACK
        LOCFRAME PSTACK, 0, STACK
        LOCFRAME XSTACK, 22, STACK
        LOCFRAME IOVERLAY, 0, STATIC
        LOCFRAME DOVERLAY, 0, STATIC
        ARGFRAME ISTACK, 0, STACK
        ARGFRAME PSTACK, 0, STACK
        ARGFRAME XSTACK, 22, STACK
        ARGFRAME IOVERLAY, 0, STATIC
        ARGFRAME DOVERLAY, 0, STATIC
        FUNCALL ZDP_ParentAnnce, fillAndSend
        LOCFRAME ISTACK, 0, STACK
        LOCFRAME PSTACK, 0, STACK
        LOCFRAME XSTACK, 24, STACK
        LOCFRAME IOVERLAY, 0, STATIC
        LOCFRAME DOVERLAY, 0, STATIC
        ARGFRAME ISTACK, 0, STACK
        ARGFRAME PSTACK, 0, STACK
        ARGFRAME XSTACK, 24, STACK
        ARGFRAME IOVERLAY, 0, STATIC
        ARGFRAME DOVERLAY, 0, STATIC
        FUNCALL ZDP_ParentAnnce, ZDApp_SetParentAnnceTimer
        LOCFRAME ISTACK, 0, STACK
        LOCFRAME PSTACK, 0, STACK
        LOCFRAME XSTACK, 22, STACK
        LOCFRAME IOVERLAY, 0, STATIC
        LOCFRAME DOVERLAY, 0, STATIC
        ARGFRAME ISTACK, 0, STACK
        ARGFRAME PSTACK, 0, STACK
        ARGFRAME XSTACK, 22, STACK
        ARGFRAME IOVERLAY, 0, STATIC
        ARGFRAME DOVERLAY, 0, STATIC
        FUNCALL ZDP_ParentAnnce, osal_start_timerEx
        LOCFRAME ISTACK, 0, STACK
        LOCFRAME PSTACK, 0, STACK
        LOCFRAME XSTACK, 26, STACK
        LOCFRAME IOVERLAY, 0, STATIC
        LOCFRAME DOVERLAY, 0, STATIC
        ARGFRAME ISTACK, 0, STACK
        ARGFRAME PSTACK, 0, STACK
        ARGFRAME XSTACK, 26, STACK
        ARGFRAME IOVERLAY, 0, STATIC
        ARGFRAME DOVERLAY, 0, STATIC
        FUNCALL ZDP_ParentAnnce, fillAndSend
        LOCFRAME ISTACK, 0, STACK
        LOCFRAME PSTACK, 0, STACK
        LOCFRAME XSTACK, 24, STACK
        LOCFRAME IOVERLAY, 0, STATIC
        LOCFRAME DOVERLAY, 0, STATIC
        ARGFRAME ISTACK, 0, STACK
        ARGFRAME PSTACK, 0, STACK
        ARGFRAME XSTACK, 24, STACK
        ARGFRAME IOVERLAY, 0, STATIC
        ARGFRAME DOVERLAY, 0, STATIC
        REQUIRE ?V0
        REQUIRE ?V1
        REQUIRE ?V2
        REQUIRE ?V3
        REQUIRE ?V4
        REQUIRE ?V5
        REQUIRE ?V6
        REQUIRE ?V7
        REQUIRE ?V8
        REQUIRE ?V10
        REQUIRE ?V11
        REQUIRE ?V12
        REQUIRE ?V13
        MOV     A,#-0x16
        LCALL   ?BANKED_ENTER_XDATA
          CFI DPH0 load(1, XDATA, add(CFA_XSP16, literal(-1)))
          CFI DPL0 load(1, XDATA, add(CFA_XSP16, literal(-2)))
          CFI ?BRET_EXT load(1, XDATA, add(CFA_XSP16, literal(-3)))
          CFI ?RET_HIGH load(1, XDATA, add(CFA_XSP16, literal(-4)))
          CFI ?RET_LOW load(1, XDATA, add(CFA_XSP16, literal(-5)))
          CFI R7 load(1, XDATA, add(CFA_XSP16, literal(-6)))
          CFI V13 load(1, XDATA, add(CFA_XSP16, literal(-7)))
          CFI V12 load(1, XDATA, add(CFA_XSP16, literal(-8)))
          CFI V11 load(1, XDATA, add(CFA_XSP16, literal(-9)))
          CFI V10 load(1, XDATA, add(CFA_XSP16, literal(-10)))
          CFI V9 load(1, XDATA, add(CFA_XSP16, literal(-11)))
          CFI V8 load(1, XDATA, add(CFA_XSP16, literal(-12)))
          CFI V7 load(1, XDATA, add(CFA_XSP16, literal(-13)))
          CFI V6 load(1, XDATA, add(CFA_XSP16, literal(-14)))
          CFI V5 load(1, XDATA, add(CFA_XSP16, literal(-15)))
          CFI V4 load(1, XDATA, add(CFA_XSP16, literal(-16)))
          CFI V3 load(1, XDATA, add(CFA_XSP16, literal(-17)))
          CFI V2 load(1, XDATA, add(CFA_XSP16, literal(-18)))
          CFI V1 load(1, XDATA, add(CFA_XSP16, literal(-19)))
          CFI V0 load(1, XDATA, add(CFA_XSP16, literal(-20)))
          CFI VB load(1, XDATA, add(CFA_XSP16, literal(-21)))
          CFI R6 load(1, XDATA, add(CFA_XSP16, literal(-22)))
          CFI CFA_SP SP+0
          CFI CFA_XSP16 add(XSP16, 22)
        ; Saved register size: 22
        ; Auto size: 0
        MOV     ?V4,R2
        MOV     ?V5,R3
        MOV     A,R4
        MOV     R6,A
        MOV     A,R5
        MOV     R7,A
        MOV     ?V8,R1
//  610   uint8 *pBuf = ZDP_TmpBuf;
        LCALL   ??Subroutine112_0 & 0xFFFF
//  611   ZDO_ChildInfo_t *pChildInfo;
//  612   uint8 i, len;
//  613   uint8 *numOfChild;
//  614 
//  615   (void)SecurityEnable;  // Intentionally unreferenced parameter
//  616 
//  617   pChildInfo = (ZDO_ChildInfo_t *)childInfo;
//  618 
//  619   if ( dstAddr->addrMode == AddrBroadcast )
??CrossCallReturnLabel_203:
        MOV     DPL,R6
        MOV     DPH,R7
        INC     DPTR
        INC     DPTR
        INC     DPTR
        INC     DPTR
        INC     DPTR
        INC     DPTR
        INC     DPTR
        INC     DPTR
        MOVX    A,@DPTR
        XRL     A,#0xf
        JNZ     ??ZDP_ParentAnnce_0
//  620   {
//  621     // Make sure is sent to 0xFFFC
//  622     dstAddr->addr.shortAddr = NWK_BROADCAST_SHORTADDR_DEVZCZR;
        MOV     DPL,R6
        MOV     DPH,R7
        MOV     A,#-0x4
        MOVX    @DPTR,A
        INC     DPTR
        MOV     A,#-0x1
        MOVX    @DPTR,A
//  623   }
//  624   len = 1;
??ZDP_ParentAnnce_0:
        MOV     ?V6,#0x1
        MOV     A,#0x18
        LCALL   ?XSTACK_DISP0_8
        LCALL   ?Subroutine45 & 0xFFFF
//  625   if ( clusterID == Parent_annce_rsp )
??CrossCallReturnLabel_64:
        MOV     A,#0x1f
        XRL     A,?V2
        JNZ     ??ZDP_ParentAnnce_1
        MOV     A,#-0x80
        XRL     A,?V3
??ZDP_ParentAnnce_1:
        JNZ     ??CrossCallReturnLabel_151
//  626   {
//  627     // + Status Byte
//  628     len += 1;
        MOV     ?V6,#0x2
//  629     // Set the status bit to success
//  630     *pBuf++ = 0;
        MOV     DPL,R2
        MOV     DPH,R3
        CLR     A
        LCALL   ??Subroutine101_0 & 0xFFFF
//  631   }
//  632   
//  633   numOfChild = pBuf;
??CrossCallReturnLabel_151:
        MOV     ?V0,R2
        MOV     ?V1,R3
//  634   *pBuf++ = numberOfChildren;
        MOV     DPL,R2
        MOV     DPH,R3
        MOV     A,R1
        LCALL   ??Subroutine101_0 & 0xFFFF
//  635 
//  636   for ( i = 0; i < MAX_PARENT_ANNCE_CHILD; i++ )
??CrossCallReturnLabel_152:
        MOV     ?V7,#0x0
        MOV     A,#0x16
        LCALL   ?XSTACK_DISP0_8
        MOVX    A,@DPTR
        MOV     ?V12,A
        INC     DPTR
        MOVX    A,@DPTR
        MOV     ?V13,A
//  637   {
//  638     pBuf = osal_cpyExtAddr( pBuf, pChildInfo[childIndex].extAddr );
??ZDP_ParentAnnce_2:
        ; Setup parameters for call to function sAddrExtCpy
        MOV     DPTR,#childIndex
        MOVX    A,@DPTR
        MOV     B,#0xc
        MUL     AB
        MOV     R0,A
        MOV     R1,B
        MOV     A,?V12
        ADD     A,R0
        MOV     R4,A
        MOV     A,?V13
        ADDC    A,R1
        MOV     R5,A
        LCALL   `??sAddrExtCpy::?relay`; Banked call to: sAddrExtCpy
//  639     childIndex++;
        MOV     DPTR,#childIndex
        MOVX    A,@DPTR
        INC     A
        MOVX    @DPTR,A
//  640     
//  641     len += Z_EXTADDR_LEN;
        MOV     A,#0x8
        ADD     A,?V6
        MOV     ?V6,A
//  642     
//  643     if ( childIndex == numberOfChildren )
        MOVX    A,@DPTR
        XRL     A,?V8
        JNZ     ??ZDP_ParentAnnce_3
//  644     {
//  645       pBuf = numOfChild;
//  646       *pBuf = i + 1;
        MOV     A,#0x1
        ADD     A,?V7
        MOV     DPL,?V0
        MOV     DPH,?V1
        MOVX    @DPTR,A
//  647       // All childs are taken, restart index and go out
//  648       childIndex = 0;
        MOV     DPTR,#childIndex
        CLR     A
        MOVX    @DPTR,A
//  649       return fillAndSend( TransSeq, dstAddr, clusterID, len );
        ; Setup parameters for call to function fillAndSend
        SJMP    ??ZDP_ParentAnnce_4
//  650     }
//  651   }
??ZDP_ParentAnnce_3:
        INC     ?V7
        MOV     A,?V7
        CLR     C
        SUBB    A,#0xa
        JC      ??ZDP_ParentAnnce_2
//  652   
//  653   pBuf = numOfChild;
//  654   *pBuf = MAX_PARENT_ANNCE_CHILD;
        MOV     DPL,?V0
        MOV     DPH,?V1
        MOV     A,#0xa
        MOVX    @DPTR,A
//  655   if ( childIndex < numberOfChildren )
        MOV     DPTR,#childIndex
        MOVX    A,@DPTR
        CLR     C
        SUBB    A,?V8
        JNC     ??ZDP_ParentAnnce_4
//  656   {
//  657     if ( clusterID == Parent_annce )
        MOV     A,#0x1f
        XRL     A,?V2
        ORL     A,?V3
        JNZ     ??ZDP_ParentAnnce_5
//  658     {
//  659       ZDApp_SetParentAnnceTimer();
        ; Setup parameters for call to function ZDApp_SetParentAnnceTimer
        LCALL   `??ZDApp_SetParentAnnceTimer::?relay`; Banked call to: ZDApp_SetParentAnnceTimer
        SJMP    ??ZDP_ParentAnnce_4
//  660     }
//  661     if ( clusterID == Parent_annce_rsp )
??ZDP_ParentAnnce_5:
        MOV     A,#0x1f
        XRL     A,?V2
        JNZ     ??ZDP_ParentAnnce_6
        MOV     A,#-0x80
        XRL     A,?V3
??ZDP_ParentAnnce_6:
        JNZ     ??ZDP_ParentAnnce_4
//  662     {
//  663       osal_start_timerEx( ZDAppTaskID, ZDO_PARENT_ANNCE_EVT, 10 );
        ; Setup parameters for call to function osal_start_timerEx
        MOV     DPTR,#__Constant_a
        LCALL   ?PUSH_XSTACK8_X_FOUR
          CFI CFA_XSP16 add(XSP16, 26)
        MOV     R2,#0x0
        MOV     R3,#0x40
        MOV     DPTR,#ZDAppTaskID
        MOVX    A,@DPTR
        MOV     R1,A
        LCALL   `??osal_start_timerEx::?relay`; Banked call to: osal_start_timerEx
        MOV     A,#0x4
        LCALL   ?DEALLOC_XSTACK8
          CFI CFA_XSP16 add(XSP16, 22)
//  664     }
//  665   }
//  666 
//  667   return fillAndSend( TransSeq, dstAddr, clusterID, len );
??ZDP_ParentAnnce_4:
        ; Setup parameters for call to function fillAndSend
        MOV     R0,#?V2
        LCALL   ?PUSH_XSTACK_I_TWO
          CFI CFA_XSP16 add(XSP16, 24)
        MOV     R1,?V6
        MOV     A,R6
        MOV     R4,A
        MOV     A,R7
        MOV     R5,A
        MOV     R2,?V4
        MOV     R3,?V5
        LCALL   `??fillAndSend::?relay`; Banked call to: fillAndSend
        MOV     A,#0x2
        LJMP    ??Subroutine114_0 & 0xFFFF
//  668 }
          CFI EndBlock cfiBlock43

        RSEG BANKED_CODE:CODE:NOROOT(0)
?Subroutine45:
          CFI Block cfiCond44 Using cfiCommon0
          CFI Function ZDP_SendData
          CFI Conditional ??CrossCallReturnLabel_63
          CFI R6 load(1, XDATA, add(CFA_XSP16, literal(-12)))
          CFI VB load(1, XDATA, add(CFA_XSP16, literal(-11)))
          CFI V0 load(1, XDATA, add(CFA_XSP16, literal(-10)))
          CFI V1 load(1, XDATA, add(CFA_XSP16, literal(-9)))
          CFI V2 load(1, XDATA, add(CFA_XSP16, literal(-8)))
          CFI V3 load(1, XDATA, add(CFA_XSP16, literal(-7)))
          CFI R7 load(1, XDATA, add(CFA_XSP16, literal(-6)))
          CFI ?RET_LOW load(1, XDATA, add(CFA_XSP16, literal(-5)))
          CFI ?RET_HIGH load(1, XDATA, add(CFA_XSP16, literal(-4)))
          CFI ?BRET_EXT load(1, XDATA, add(CFA_XSP16, literal(-3)))
          CFI DPL0 load(1, XDATA, add(CFA_XSP16, literal(-2)))
          CFI DPH0 load(1, XDATA, add(CFA_XSP16, literal(-1)))
          CFI CFA_SP SP+-2
          CFI CFA_XSP16 add(XSP16, 12)
          CFI Block cfiCond45 Using cfiCommon0
          CFI (cfiCond45) Function ZDP_ParentAnnce
          CFI (cfiCond45) Conditional ??CrossCallReturnLabel_64
          CFI (cfiCond45) R6 load(1, XDATA, add(CFA_XSP16, literal(-22)))
          CFI (cfiCond45) VB load(1, XDATA, add(CFA_XSP16, literal(-21)))
          CFI (cfiCond45) V0 load(1, XDATA, add(CFA_XSP16, literal(-20)))
          CFI (cfiCond45) V1 load(1, XDATA, add(CFA_XSP16, literal(-19)))
          CFI (cfiCond45) V2 load(1, XDATA, add(CFA_XSP16, literal(-18)))
          CFI (cfiCond45) V3 load(1, XDATA, add(CFA_XSP16, literal(-17)))
          CFI (cfiCond45) V4 load(1, XDATA, add(CFA_XSP16, literal(-16)))
          CFI (cfiCond45) V5 load(1, XDATA, add(CFA_XSP16, literal(-15)))
          CFI (cfiCond45) V6 load(1, XDATA, add(CFA_XSP16, literal(-14)))
          CFI (cfiCond45) V7 load(1, XDATA, add(CFA_XSP16, literal(-13)))
          CFI (cfiCond45) V8 load(1, XDATA, add(CFA_XSP16, literal(-12)))
          CFI (cfiCond45) V9 load(1, XDATA, add(CFA_XSP16, literal(-11)))
          CFI (cfiCond45) V10 load(1, XDATA, add(CFA_XSP16, literal(-10)))
          CFI (cfiCond45) V11 load(1, XDATA, add(CFA_XSP16, literal(-9)))
          CFI (cfiCond45) V12 load(1, XDATA, add(CFA_XSP16, literal(-8)))
          CFI (cfiCond45) V13 load(1, XDATA, add(CFA_XSP16, literal(-7)))
          CFI (cfiCond45) R7 load(1, XDATA, add(CFA_XSP16, literal(-6)))
          CFI (cfiCond45) ?RET_LOW load(1, XDATA, add(CFA_XSP16, literal(-5)))
          CFI (cfiCond45) ?RET_HIGH load(1, XDATA, add(CFA_XSP16, literal(-4)))
          CFI (cfiCond45) ?BRET_EXT load(1, XDATA, add(CFA_XSP16, literal(-3)))
          CFI (cfiCond45) DPL0 load(1, XDATA, add(CFA_XSP16, literal(-2)))
          CFI (cfiCond45) DPH0 load(1, XDATA, add(CFA_XSP16, literal(-1)))
          CFI (cfiCond45) CFA_SP SP+-2
          CFI (cfiCond45) CFA_XSP16 add(XSP16, 22)
          CFI Block cfiCond46 Using cfiCommon0
          CFI (cfiCond46) Function ZDP_MgmtNwkDiscRsp
          CFI (cfiCond46) Conditional ??CrossCallReturnLabel_65
          CFI (cfiCond46) R6 load(1, XDATA, add(CFA_XSP16, literal(-22)))
          CFI (cfiCond46) VB load(1, XDATA, add(CFA_XSP16, literal(-21)))
          CFI (cfiCond46) V0 load(1, XDATA, add(CFA_XSP16, literal(-20)))
          CFI (cfiCond46) V1 load(1, XDATA, add(CFA_XSP16, literal(-19)))
          CFI (cfiCond46) V2 load(1, XDATA, add(CFA_XSP16, literal(-18)))
          CFI (cfiCond46) V3 load(1, XDATA, add(CFA_XSP16, literal(-17)))
          CFI (cfiCond46) V4 load(1, XDATA, add(CFA_XSP16, literal(-16)))
          CFI (cfiCond46) V5 load(1, XDATA, add(CFA_XSP16, literal(-15)))
          CFI (cfiCond46) V6 load(1, XDATA, add(CFA_XSP16, literal(-14)))
          CFI (cfiCond46) V7 load(1, XDATA, add(CFA_XSP16, literal(-13)))
          CFI (cfiCond46) V8 load(1, XDATA, add(CFA_XSP16, literal(-12)))
          CFI (cfiCond46) V9 load(1, XDATA, add(CFA_XSP16, literal(-11)))
          CFI (cfiCond46) V10 load(1, XDATA, add(CFA_XSP16, literal(-10)))
          CFI (cfiCond46) V11 load(1, XDATA, add(CFA_XSP16, literal(-9)))
          CFI (cfiCond46) V12 load(1, XDATA, add(CFA_XSP16, literal(-8)))
          CFI (cfiCond46) V13 load(1, XDATA, add(CFA_XSP16, literal(-7)))
          CFI (cfiCond46) R7 load(1, XDATA, add(CFA_XSP16, literal(-6)))
          CFI (cfiCond46) ?RET_LOW load(1, XDATA, add(CFA_XSP16, literal(-5)))
          CFI (cfiCond46) ?RET_HIGH load(1, XDATA, add(CFA_XSP16, literal(-4)))
          CFI (cfiCond46) ?BRET_EXT load(1, XDATA, add(CFA_XSP16, literal(-3)))
          CFI (cfiCond46) DPL0 load(1, XDATA, add(CFA_XSP16, literal(-2)))
          CFI (cfiCond46) DPH0 load(1, XDATA, add(CFA_XSP16, literal(-1)))
          CFI (cfiCond46) CFA_SP SP+-2
          CFI (cfiCond46) CFA_XSP16 add(XSP16, 23)
          CFI Block cfiCond47 Using cfiCommon0
          CFI (cfiCond47) Function ZDP_MgmtNwkDiscRsp
          CFI (cfiCond47) Conditional ??CrossCallReturnLabel_66
          CFI (cfiCond47) R6 load(1, XDATA, add(CFA_XSP16, literal(-22)))
          CFI (cfiCond47) VB load(1, XDATA, add(CFA_XSP16, literal(-21)))
          CFI (cfiCond47) V0 load(1, XDATA, add(CFA_XSP16, literal(-20)))
          CFI (cfiCond47) V1 load(1, XDATA, add(CFA_XSP16, literal(-19)))
          CFI (cfiCond47) V2 load(1, XDATA, add(CFA_XSP16, literal(-18)))
          CFI (cfiCond47) V3 load(1, XDATA, add(CFA_XSP16, literal(-17)))
          CFI (cfiCond47) V4 load(1, XDATA, add(CFA_XSP16, literal(-16)))
          CFI (cfiCond47) V5 load(1, XDATA, add(CFA_XSP16, literal(-15)))
          CFI (cfiCond47) V6 load(1, XDATA, add(CFA_XSP16, literal(-14)))
          CFI (cfiCond47) V7 load(1, XDATA, add(CFA_XSP16, literal(-13)))
          CFI (cfiCond47) V8 load(1, XDATA, add(CFA_XSP16, literal(-12)))
          CFI (cfiCond47) V9 load(1, XDATA, add(CFA_XSP16, literal(-11)))
          CFI (cfiCond47) V10 load(1, XDATA, add(CFA_XSP16, literal(-10)))
          CFI (cfiCond47) V11 load(1, XDATA, add(CFA_XSP16, literal(-9)))
          CFI (cfiCond47) V12 load(1, XDATA, add(CFA_XSP16, literal(-8)))
          CFI (cfiCond47) V13 load(1, XDATA, add(CFA_XSP16, literal(-7)))
          CFI (cfiCond47) R7 load(1, XDATA, add(CFA_XSP16, literal(-6)))
          CFI (cfiCond47) ?RET_LOW load(1, XDATA, add(CFA_XSP16, literal(-5)))
          CFI (cfiCond47) ?RET_HIGH load(1, XDATA, add(CFA_XSP16, literal(-4)))
          CFI (cfiCond47) ?BRET_EXT load(1, XDATA, add(CFA_XSP16, literal(-3)))
          CFI (cfiCond47) DPL0 load(1, XDATA, add(CFA_XSP16, literal(-2)))
          CFI (cfiCond47) DPH0 load(1, XDATA, add(CFA_XSP16, literal(-1)))
          CFI (cfiCond47) CFA_SP SP+-2
          CFI (cfiCond47) CFA_XSP16 add(XSP16, 23)
          CFI Block cfiPicker48 Using cfiCommon1
          CFI (cfiPicker48) NoFunction
          CFI (cfiPicker48) Picker
        MOVX    A,@DPTR
        MOV     ?V2,A
        INC     DPTR
        MOVX    A,@DPTR
        MOV     ?V3,A
        RET
          CFI EndBlock cfiCond44
          CFI EndBlock cfiCond45
          CFI EndBlock cfiCond46
          CFI EndBlock cfiCond47
          CFI EndBlock cfiPicker48
//  669 
//  670 /*********************************************************************
//  671  * Address Responses
//  672  */
//  673 
//  674 /*********************************************************************
//  675  * @fn      zdpProcessAddrReq
//  676  *
//  677  * @brief   Process an incoming NWK_addr_req or IEEE_addr_req message and then
//  678  *          build and send a corresponding NWK_addr_rsp or IEEE_addr_rsp msg.
//  679  *
//  680  * @param   inMsg - incoming message
//  681  *
//  682  * @return  none
//  683  */

        RSEG BANKED_CODE:CODE:NOROOT(0)
//  684 void zdpProcessAddrReq( zdoIncomingMsg_t *inMsg )
zdpProcessAddrReq:
          CFI Block cfiBlock49 Using cfiCommon0
          CFI Function zdpProcessAddrReq
        CODE
//  685 {
        FUNCALL zdpProcessAddrReq, sAddrExtCmp
        LOCFRAME ISTACK, 0, STACK
        LOCFRAME PSTACK, 0, STACK
        LOCFRAME XSTACK, 17, STACK
        LOCFRAME IOVERLAY, 0, STATIC
        LOCFRAME DOVERLAY, 0, STATIC
        ARGFRAME ISTACK, 0, STACK
        ARGFRAME PSTACK, 0, STACK
        ARGFRAME XSTACK, 17, STACK
        ARGFRAME IOVERLAY, 0, STATIC
        ARGFRAME DOVERLAY, 0, STATIC
        FUNCALL zdpProcessAddrReq, sAddrExtCpy
        LOCFRAME ISTACK, 0, STACK
        LOCFRAME PSTACK, 0, STACK
        LOCFRAME XSTACK, 17, STACK
        LOCFRAME IOVERLAY, 0, STATIC
        LOCFRAME DOVERLAY, 0, STATIC
        ARGFRAME ISTACK, 0, STACK
        ARGFRAME PSTACK, 0, STACK
        ARGFRAME XSTACK, 17, STACK
        ARGFRAME IOVERLAY, 0, STATIC
        ARGFRAME DOVERLAY, 0, STATIC
        FUNCALL zdpProcessAddrReq, fillAndSend
        LOCFRAME ISTACK, 0, STACK
        LOCFRAME PSTACK, 0, STACK
        LOCFRAME XSTACK, 19, STACK
        LOCFRAME IOVERLAY, 0, STATIC
        LOCFRAME DOVERLAY, 0, STATIC
        ARGFRAME ISTACK, 0, STACK
        ARGFRAME PSTACK, 0, STACK
        ARGFRAME XSTACK, 19, STACK
        ARGFRAME IOVERLAY, 0, STATIC
        ARGFRAME DOVERLAY, 0, STATIC
        REQUIRE ?V0
        REQUIRE ?V1
        REQUIRE ?V2
        REQUIRE ?V3
        REQUIRE ?V4
        REQUIRE ?V5
        REQUIRE ?V6
        REQUIRE ?V7
        REQUIRE ?V8
        MOV     A,#-0x11
        LCALL   ?BANKED_ENTER_XDATA
          CFI DPH0 load(1, XDATA, add(CFA_XSP16, literal(-1)))
          CFI DPL0 load(1, XDATA, add(CFA_XSP16, literal(-2)))
          CFI ?BRET_EXT load(1, XDATA, add(CFA_XSP16, literal(-3)))
          CFI ?RET_HIGH load(1, XDATA, add(CFA_XSP16, literal(-4)))
          CFI ?RET_LOW load(1, XDATA, add(CFA_XSP16, literal(-5)))
          CFI R7 load(1, XDATA, add(CFA_XSP16, literal(-6)))
          CFI V8 load(1, XDATA, add(CFA_XSP16, literal(-7)))
          CFI V7 load(1, XDATA, add(CFA_XSP16, literal(-8)))
          CFI V6 load(1, XDATA, add(CFA_XSP16, literal(-9)))
          CFI V5 load(1, XDATA, add(CFA_XSP16, literal(-10)))
          CFI V4 load(1, XDATA, add(CFA_XSP16, literal(-11)))
          CFI V3 load(1, XDATA, add(CFA_XSP16, literal(-12)))
          CFI V2 load(1, XDATA, add(CFA_XSP16, literal(-13)))
          CFI V1 load(1, XDATA, add(CFA_XSP16, literal(-14)))
          CFI V0 load(1, XDATA, add(CFA_XSP16, literal(-15)))
          CFI VB load(1, XDATA, add(CFA_XSP16, literal(-16)))
          CFI R6 load(1, XDATA, add(CFA_XSP16, literal(-17)))
          CFI CFA_SP SP+0
          CFI CFA_XSP16 add(XSP16, 17)
        ; Saved register size: 17
        ; Auto size: 0
        MOV     ?V0,R2
        MOV     ?V1,R3
//  686   associated_devices_t *pAssoc;
//  687   uint8 reqType;
//  688   uint16 aoi = INVALID_NODE_ADDR;
        MOV     R6,#-0x2
        MOV     R7,#-0x1
//  689   uint8 *ieee = NULL;
        MOV     ?V2,#0x0
        MOV     ?V3,#0x0
//  690 
//  691   reqType = inMsg->asdu[(inMsg->clusterID == NWK_addr_req) ? Z_EXTADDR_LEN : sizeof( uint16 ) ];
        MOV     A,R2
        ADD     A,#0xc
        MOV     ?V4,A
        CLR     A
        ADDC    A,?V1
        MOV     ?V5,A
        MOV     DPL,?V4
        MOV     DPH,A
        LCALL   ??Subroutine113_0 & 0xFFFF
??CrossCallReturnLabel_199:
        MOV     A,R2
        ORL     A,R3
        JNZ     ??zdpProcessAddrReq_0
        MOV     R4,#0x8
        SJMP    ??zdpProcessAddrReq_1
??zdpProcessAddrReq_0:
        MOV     R4,#0x2
??zdpProcessAddrReq_1:
        MOV     A,?V0
        ADD     A,#0x13
        MOV     DPL,A
        CLR     A
        ADDC    A,?V1
        MOV     DPH,A
        LCALL   ?Subroutine57 & 0xFFFF
??CrossCallReturnLabel_89:
        ADD     A,R4
        MOV     DPL,A
        CLR     A
        ADDC    A,R1
        MOV     DPH,A
        MOVX    A,@DPTR
        MOV     ?V8,A
//  692 
//  693   if ( inMsg->clusterID == NWK_addr_req )
        MOV     A,?V0
        ADD     A,#0xb
        MOV     ?V6,A
        CLR     A
        ADDC    A,?V1
        MOV     ?V7,A
        MOV     A,R2
        ORL     A,R3
        JNZ     ??zdpProcessAddrReq_2
//  694 
//  695   {
//  696     ieee = inMsg->asdu;
        MOV     ?V2,R0
        MOV     ?V3,R1
//  697 
//  698     if ( osal_ExtAddrEqual( saveExtAddr, ieee ) )
        ; Setup parameters for call to function sAddrExtCmp
        MOV     R4,?V2
        MOV     R5,?V3
        MOV     R2,#saveExtAddr & 0xff
        MOV     R3,#(saveExtAddr >> 8) & 0xff
        LCALL   `??sAddrExtCmp::?relay`; Banked call to: sAddrExtCmp
        MOV     A,R1
        JZ      ??zdpProcessAddrReq_3
//  699     {
//  700       aoi = ZDAppNwkAddr.addr.shortAddr;
        LCALL   ?Subroutine49 & 0xFFFF
//  701     }
//  702     // Handle response for sleeping end devices
//  703     else if ( (ZSTACK_ROUTER_BUILD)
//  704       && (((pAssoc = AssocGetWithExt( ieee )) != NULL)
//  705              && ((pAssoc->nodeRelation == CHILD_RFD) || (pAssoc->nodeRelation == CHILD_RFD_RX_IDLE)) ) )
//  706     {
//  707       aoi = pAssoc->shortAddr;
//  708       if ( reqType != ZDP_ADDR_REQTYPE_SINGLE )
//  709         reqType = 0xFF; // Force Invalid
//  710     }
//  711   }
??CrossCallReturnLabel_221:
        SJMP    ??zdpProcessAddrReq_4
//  712   else  // if ( inMsg->clusterID == IEEE_addr_req )
//  713   {
//  714     aoi = BUILD_UINT16( inMsg->asdu[0], inMsg->asdu[1] );
??zdpProcessAddrReq_2:
        MOV     DPL,R0
        MOV     DPH,R1
        MOVX    A,@DPTR
        MOV     R2,A
        INC     DPTR
        MOVX    A,@DPTR
        MOV     R0,A
        CLR     A
        XCH     A,R0
        MOV     R1,A
        MOV     A,R2
        ADD     A,R0
        MOV     R6,A
        CLR     A
        ADDC    A,R1
        MOV     R7,A
//  715 
//  716     if ( aoi == ZDAppNwkAddr.addr.shortAddr )
        MOV     DPTR,#ZDAppNwkAddr
        MOVX    A,@DPTR
        XRL     A,R6
        JNZ     ??zdpProcessAddrReq_5
        INC     DPTR
        MOVX    A,@DPTR
        XRL     A,R7
??zdpProcessAddrReq_5:
        JNZ     ??zdpProcessAddrReq_3
//  717     {
//  718       ieee = saveExtAddr;
        MOV     ?V2,#saveExtAddr & 0xff
        MOV     ?V3,#(saveExtAddr >> 8) & 0xff
//  719     }
//  720     else if ( (ZSTACK_ROUTER_BUILD)
//  721       && (((pAssoc = AssocGetWithShort( aoi )) != NULL)
//  722              && (pAssoc->nodeRelation == CHILD_RFD)) )
//  723     {
//  724       AddrMgrEntry_t addrEntry;
//  725       addrEntry.user = ADDRMGR_USER_DEFAULT;
//  726       addrEntry.index = pAssoc->addrIdx;
//  727       if ( AddrMgrEntryGet( &addrEntry ) )
//  728       {
//  729         ieee = addrEntry.extAddr;
//  730       }
//  731 
//  732       if ( reqType != ZDP_ADDR_REQTYPE_SINGLE )
//  733         reqType = 0xFF; // Force Invalid
//  734     }
//  735   }
//  736 
//  737   if ( ((aoi != INVALID_NODE_ADDR) && (ieee != NULL)) || (inMsg->wasBroadcast == FALSE) )
??zdpProcessAddrReq_4:
        MOV     A,#-0x2
        XRL     A,R6
        JNZ     ??zdpProcessAddrReq_6
        MOV     A,#-0x1
        XRL     A,R7
??zdpProcessAddrReq_6:
        JZ      ??zdpProcessAddrReq_3
        MOV     A,?V2
        ORL     A,?V3
        JNZ     ??zdpProcessAddrReq_7
??zdpProcessAddrReq_3:
        MOV     DPL,?V6
        MOV     DPH,?V7
        MOVX    A,@DPTR
        JZ      $+5
        LJMP    ??zdpProcessAddrReq_8 & 0xFFFF
//  738   {
//  739     uint8 stat;
//  740     uint8 *pBuf = ZDP_TmpBuf;
??zdpProcessAddrReq_7:
        LCALL   ??Subroutine112_0 & 0xFFFF
//  741     // Status + IEEE-Addr + Nwk-Addr.
//  742     uint8 len = 1 + Z_EXTADDR_LEN + 2;
//  743 
//  744     // If aoi and iee are both setup, we found results
//  745     if ( (aoi != INVALID_NODE_ADDR) && (ieee != NULL) )
??CrossCallReturnLabel_204:
        MOV     A,#-0x2
        XRL     A,R6
        JNZ     ??zdpProcessAddrReq_9
        MOV     A,#-0x1
        XRL     A,R7
??zdpProcessAddrReq_9:
        JZ      ??zdpProcessAddrReq_10
        MOV     A,?V2
        ORL     A,?V3
        JZ      ??zdpProcessAddrReq_10
//  746     {
//  747       stat = ((reqType == ZDP_ADDR_REQTYPE_SINGLE) || (reqType == ZDP_ADDR_REQTYPE_EXTENDED))
//  748                     ? ZDP_SUCCESS : ZDP_INVALID_REQTYPE;
        MOV     A,?V8
        JZ      ??zdpProcessAddrReq_11
        MOV     A,#0x1
        XRL     A,?V8
        JNZ     ??zdpProcessAddrReq_12
??zdpProcessAddrReq_11:
        MOV     R0,#0x0
        SJMP    ??zdpProcessAddrReq_13
??zdpProcessAddrReq_12:
        MOV     R0,#-0x80
//  749               
//  750       if(stat == ZDP_INVALID_REQTYPE)
//  751       {
//  752         //R21 Errata update CCB 2111 
//  753         if(inMsg->wasBroadcast == TRUE)
        MOV     DPL,?V6
        MOV     DPH,?V7
        MOVX    A,@DPTR
        XRL     A,#0x1
        JNZ     ??zdpProcessAddrReq_13
//  754         {
//  755           return;
        SJMP    ??zdpProcessAddrReq_8
//  756         }
//  757         
//  758         stat = ZDP_INVALID_REQTYPE;
//  759       }
//  760     }
//  761     else
//  762     {
//  763       // not found and the req was unicast to this device
//  764       stat = ZDP_DEVICE_NOT_FOUND;
??zdpProcessAddrReq_10:
        MOV     R0,#-0x7f
//  765 
//  766       // Fill in the missing field with this device's address
//  767       if ( inMsg->clusterID == NWK_addr_req )
        MOV     DPL,?V4
        MOV     DPH,?V5
        LCALL   ?Subroutine60 & 0xFFFF
??CrossCallReturnLabel_94:
        MOV     A,R4
        ORL     A,R5
        JNZ     ??zdpProcessAddrReq_14
//  768       {
//  769         aoi = ZDAppNwkAddr.addr.shortAddr;
        LCALL   ?Subroutine49 & 0xFFFF
//  770       }
??CrossCallReturnLabel_222:
        SJMP    ??zdpProcessAddrReq_13
//  771       else
//  772       {
//  773         ieee = saveExtAddr;
??zdpProcessAddrReq_14:
        MOV     ?V2,#saveExtAddr & 0xff
        MOV     ?V3,#(saveExtAddr >> 8) & 0xff
//  774       }
//  775     }
//  776 
//  777     *pBuf++ = stat;
??zdpProcessAddrReq_13:
        MOV     A,R0
        LCALL   ?Subroutine15 & 0xFFFF
//  778 
//  779     pBuf = osal_cpyExtAddr( pBuf, ieee );
??CrossCallReturnLabel_154:
        ; Setup parameters for call to function sAddrExtCpy
        MOV     R4,?V2
        MOV     R5,?V3
        LCALL   `??sAddrExtCpy::?relay`; Banked call to: sAddrExtCpy
        MOV     DPL,R2
        MOV     DPH,R3
//  780 
//  781     *pBuf++ = LO_UINT16( aoi );
        MOV     A,R6
        MOVX    @DPTR,A
//  782     *pBuf++ = HI_UINT16( aoi );
        MOV     A,R7
        INC     DPTR
        MOVX    @DPTR,A
//  783 
//  784     if ( ZSTACK_ROUTER_BUILD )
//  785     {
//  786       if ( (reqType == ZDP_ADDR_REQTYPE_EXTENDED) && (aoi == ZDAppNwkAddr.addr.shortAddr)
//  787            && (stat == ZDP_SUCCESS) )
//  788       {
//  789         uint8  cnt = 0;
//  790         
//  791         //Updated to only search for ZED devices as per R21 spec (2.4.3.1.1.2)
//  792         uint16 *list = AssocMakeList( &cnt );
//  793 
//  794         if ( list != NULL )
//  795         {
//  796           byte idx = inMsg->asdu[(((inMsg->clusterID == NWK_addr_req) ? Z_EXTADDR_LEN : sizeof( uint16 )) + 1)];
//  797           uint16 *pList = list + idx;
//  798 
//  799           // NumAssocDev field is only present on success.
//  800           if ( cnt > idx )
//  801           {
//  802             cnt -= idx;
//  803             len += (cnt * sizeof( uint16 ));
//  804           }
//  805           else
//  806           {
//  807             cnt = 0;
//  808           }
//  809           *pBuf++ = cnt;
//  810           len++;
//  811 
//  812           // StartIndex field is only present if NumAssocDev field is non-zero.
//  813           *pBuf++ = idx;
//  814           len++;
//  815 
//  816           while ( cnt != 0 )
//  817           {
//  818             *pBuf++ = LO_UINT16( *pList );
//  819             *pBuf++ = HI_UINT16( *pList );
//  820             pList++;
//  821             cnt--;
//  822           }
//  823 
//  824           osal_mem_free( (uint8 *)list );
//  825         }
//  826         else
//  827         {
//  828           // NumAssocDev field is only present on success.
//  829           *pBuf++ = 0;
//  830           len++;
//  831         }
//  832       }
//  833     }
//  834 
//  835     ZDP_TxOptions = AF_MSG_ACK_REQUEST;
        MOV     DPTR,#ZDP_TxOptions
        MOV     A,#0x10
        MOVX    @DPTR,A
//  836     fillAndSend( &(inMsg->TransSeq), &(inMsg->srcAddr), (cId_t)(inMsg->clusterID | ZDO_RESPONSE_BIT), len );
        ; Setup parameters for call to function fillAndSend
        MOV     DPL,?V4
        MOV     DPH,?V5
        MOVX    A,@DPTR
        MOV     ?V2,A
        INC     DPTR
        MOVX    A,@DPTR
        ORL     A,#0x80
        MOV     ?V3,A
        MOV     R0,#?V2
        LCALL   ?PUSH_XSTACK_I_TWO
          CFI CFA_XSP16 add(XSP16, 19)
        MOV     R1,#0xb
        MOV     A,?V0
        ADD     A,#0x2
        MOV     R4,A
        CLR     A
        ADDC    A,?V1
        MOV     R5,A
        MOV     A,?V0
        ADD     A,#0xf
        MOV     R2,A
        CLR     A
        ADDC    A,?V1
        MOV     R3,A
        LCALL   `??fillAndSend::?relay`; Banked call to: fillAndSend
        MOV     A,#0x2
        LCALL   ?DEALLOC_XSTACK8
          CFI CFA_XSP16 add(XSP16, 17)
//  837     ZDP_TxOptions = AF_TX_OPTIONS_NONE;
        MOV     DPTR,#ZDP_TxOptions
        CLR     A
        MOVX    @DPTR,A
//  838   }
//  839 }
??zdpProcessAddrReq_8:
        MOV     R7,#0x9
        LJMP    ?BANKED_LEAVE_XDATA
          CFI EndBlock cfiBlock49

        RSEG BANKED_CODE:CODE:NOROOT(0)
?Subroutine15:
          CFI Block cfiCond50 Using cfiCommon0
          CFI Function zdpProcessAddrReq
          CFI Conditional ??CrossCallReturnLabel_154
          CFI R6 load(1, XDATA, add(CFA_XSP16, literal(-17)))
          CFI VB load(1, XDATA, add(CFA_XSP16, literal(-16)))
          CFI V0 load(1, XDATA, add(CFA_XSP16, literal(-15)))
          CFI V1 load(1, XDATA, add(CFA_XSP16, literal(-14)))
          CFI V2 load(1, XDATA, add(CFA_XSP16, literal(-13)))
          CFI V3 load(1, XDATA, add(CFA_XSP16, literal(-12)))
          CFI V4 load(1, XDATA, add(CFA_XSP16, literal(-11)))
          CFI V5 load(1, XDATA, add(CFA_XSP16, literal(-10)))
          CFI V6 load(1, XDATA, add(CFA_XSP16, literal(-9)))
          CFI V7 load(1, XDATA, add(CFA_XSP16, literal(-8)))
          CFI V8 load(1, XDATA, add(CFA_XSP16, literal(-7)))
          CFI R7 load(1, XDATA, add(CFA_XSP16, literal(-6)))
          CFI ?RET_LOW load(1, XDATA, add(CFA_XSP16, literal(-5)))
          CFI ?RET_HIGH load(1, XDATA, add(CFA_XSP16, literal(-4)))
          CFI ?BRET_EXT load(1, XDATA, add(CFA_XSP16, literal(-3)))
          CFI DPL0 load(1, XDATA, add(CFA_XSP16, literal(-2)))
          CFI DPH0 load(1, XDATA, add(CFA_XSP16, literal(-1)))
          CFI CFA_SP SP+-2
          CFI CFA_XSP16 add(XSP16, 17)
          CFI Block cfiCond51 Using cfiCommon0
          CFI (cfiCond51) Function ZDP_MgmtBindRsp
          CFI (cfiCond51) Conditional ??CrossCallReturnLabel_155
          CFI (cfiCond51) R6 load(1, XDATA, add(CFA_XSP16, literal(-22)))
          CFI (cfiCond51) VB load(1, XDATA, add(CFA_XSP16, literal(-21)))
          CFI (cfiCond51) V0 load(1, XDATA, add(CFA_XSP16, literal(-20)))
          CFI (cfiCond51) V1 load(1, XDATA, add(CFA_XSP16, literal(-19)))
          CFI (cfiCond51) V2 load(1, XDATA, add(CFA_XSP16, literal(-18)))
          CFI (cfiCond51) V3 load(1, XDATA, add(CFA_XSP16, literal(-17)))
          CFI (cfiCond51) V4 load(1, XDATA, add(CFA_XSP16, literal(-16)))
          CFI (cfiCond51) V5 load(1, XDATA, add(CFA_XSP16, literal(-15)))
          CFI (cfiCond51) V6 load(1, XDATA, add(CFA_XSP16, literal(-14)))
          CFI (cfiCond51) V7 load(1, XDATA, add(CFA_XSP16, literal(-13)))
          CFI (cfiCond51) V8 load(1, XDATA, add(CFA_XSP16, literal(-12)))
          CFI (cfiCond51) V9 load(1, XDATA, add(CFA_XSP16, literal(-11)))
          CFI (cfiCond51) V10 load(1, XDATA, add(CFA_XSP16, literal(-10)))
          CFI (cfiCond51) V11 load(1, XDATA, add(CFA_XSP16, literal(-9)))
          CFI (cfiCond51) V12 load(1, XDATA, add(CFA_XSP16, literal(-8)))
          CFI (cfiCond51) V13 load(1, XDATA, add(CFA_XSP16, literal(-7)))
          CFI (cfiCond51) R7 load(1, XDATA, add(CFA_XSP16, literal(-6)))
          CFI (cfiCond51) ?RET_LOW load(1, XDATA, add(CFA_XSP16, literal(-5)))
          CFI (cfiCond51) ?RET_HIGH load(1, XDATA, add(CFA_XSP16, literal(-4)))
          CFI (cfiCond51) ?BRET_EXT load(1, XDATA, add(CFA_XSP16, literal(-3)))
          CFI (cfiCond51) DPL0 load(1, XDATA, add(CFA_XSP16, literal(-2)))
          CFI (cfiCond51) DPH0 load(1, XDATA, add(CFA_XSP16, literal(-1)))
          CFI (cfiCond51) CFA_SP SP+-2
          CFI (cfiCond51) CFA_XSP16 add(XSP16, 23)
          CFI Block cfiPicker52 Using cfiCommon1
          CFI (cfiPicker52) NoFunction
          CFI (cfiPicker52) Picker
        MOV     DPL,R2
        MOV     DPH,R3
          CFI EndBlock cfiCond50
          CFI EndBlock cfiCond51
          CFI EndBlock cfiPicker52
        REQUIRE ??Subroutine101_0
        ; // Fall through to label ??Subroutine101_0

        RSEG BANKED_CODE:CODE:NOROOT(0)
??Subroutine101_0:
          CFI Block cfiCond53 Using cfiCommon0
          CFI Function ZDP_ParentAnnce
          CFI Conditional ??CrossCallReturnLabel_151
          CFI R6 load(1, XDATA, add(CFA_XSP16, literal(-22)))
          CFI VB load(1, XDATA, add(CFA_XSP16, literal(-21)))
          CFI V0 load(1, XDATA, add(CFA_XSP16, literal(-20)))
          CFI V1 load(1, XDATA, add(CFA_XSP16, literal(-19)))
          CFI V2 load(1, XDATA, add(CFA_XSP16, literal(-18)))
          CFI V3 load(1, XDATA, add(CFA_XSP16, literal(-17)))
          CFI V4 load(1, XDATA, add(CFA_XSP16, literal(-16)))
          CFI V5 load(1, XDATA, add(CFA_XSP16, literal(-15)))
          CFI V6 load(1, XDATA, add(CFA_XSP16, literal(-14)))
          CFI V7 load(1, XDATA, add(CFA_XSP16, literal(-13)))
          CFI V8 load(1, XDATA, add(CFA_XSP16, literal(-12)))
          CFI V9 load(1, XDATA, add(CFA_XSP16, literal(-11)))
          CFI V10 load(1, XDATA, add(CFA_XSP16, literal(-10)))
          CFI V11 load(1, XDATA, add(CFA_XSP16, literal(-9)))
          CFI V12 load(1, XDATA, add(CFA_XSP16, literal(-8)))
          CFI V13 load(1, XDATA, add(CFA_XSP16, literal(-7)))
          CFI R7 load(1, XDATA, add(CFA_XSP16, literal(-6)))
          CFI ?RET_LOW load(1, XDATA, add(CFA_XSP16, literal(-5)))
          CFI ?RET_HIGH load(1, XDATA, add(CFA_XSP16, literal(-4)))
          CFI ?BRET_EXT load(1, XDATA, add(CFA_XSP16, literal(-3)))
          CFI DPL0 load(1, XDATA, add(CFA_XSP16, literal(-2)))
          CFI DPH0 load(1, XDATA, add(CFA_XSP16, literal(-1)))
          CFI CFA_SP SP+-2
          CFI CFA_XSP16 add(XSP16, 22)
          CFI Block cfiCond54 Using cfiCommon0
          CFI (cfiCond54) Function ZDP_ParentAnnce
          CFI (cfiCond54) Conditional ??CrossCallReturnLabel_152
          CFI (cfiCond54) R6 load(1, XDATA, add(CFA_XSP16, literal(-22)))
          CFI (cfiCond54) VB load(1, XDATA, add(CFA_XSP16, literal(-21)))
          CFI (cfiCond54) V0 load(1, XDATA, add(CFA_XSP16, literal(-20)))
          CFI (cfiCond54) V1 load(1, XDATA, add(CFA_XSP16, literal(-19)))
          CFI (cfiCond54) V2 load(1, XDATA, add(CFA_XSP16, literal(-18)))
          CFI (cfiCond54) V3 load(1, XDATA, add(CFA_XSP16, literal(-17)))
          CFI (cfiCond54) V4 load(1, XDATA, add(CFA_XSP16, literal(-16)))
          CFI (cfiCond54) V5 load(1, XDATA, add(CFA_XSP16, literal(-15)))
          CFI (cfiCond54) V6 load(1, XDATA, add(CFA_XSP16, literal(-14)))
          CFI (cfiCond54) V7 load(1, XDATA, add(CFA_XSP16, literal(-13)))
          CFI (cfiCond54) V8 load(1, XDATA, add(CFA_XSP16, literal(-12)))
          CFI (cfiCond54) V9 load(1, XDATA, add(CFA_XSP16, literal(-11)))
          CFI (cfiCond54) V10 load(1, XDATA, add(CFA_XSP16, literal(-10)))
          CFI (cfiCond54) V11 load(1, XDATA, add(CFA_XSP16, literal(-9)))
          CFI (cfiCond54) V12 load(1, XDATA, add(CFA_XSP16, literal(-8)))
          CFI (cfiCond54) V13 load(1, XDATA, add(CFA_XSP16, literal(-7)))
          CFI (cfiCond54) R7 load(1, XDATA, add(CFA_XSP16, literal(-6)))
          CFI (cfiCond54) ?RET_LOW load(1, XDATA, add(CFA_XSP16, literal(-5)))
          CFI (cfiCond54) ?RET_HIGH load(1, XDATA, add(CFA_XSP16, literal(-4)))
          CFI (cfiCond54) ?BRET_EXT load(1, XDATA, add(CFA_XSP16, literal(-3)))
          CFI (cfiCond54) DPL0 load(1, XDATA, add(CFA_XSP16, literal(-2)))
          CFI (cfiCond54) DPH0 load(1, XDATA, add(CFA_XSP16, literal(-1)))
          CFI (cfiCond54) CFA_SP SP+-2
          CFI (cfiCond54) CFA_XSP16 add(XSP16, 22)
          CFI Block cfiCond55 Using cfiCommon0
          CFI (cfiCond55) Function ZDP_MgmtNwkUpdateNotify
          CFI (cfiCond55) Conditional ??CrossCallReturnLabel_153
          CFI (cfiCond55) R6 load(1, XDATA, add(CFA_XSP16, literal(-18)))
          CFI (cfiCond55) VB load(1, XDATA, add(CFA_XSP16, literal(-17)))
          CFI (cfiCond55) V0 load(1, XDATA, add(CFA_XSP16, literal(-16)))
          CFI (cfiCond55) V1 load(1, XDATA, add(CFA_XSP16, literal(-15)))
          CFI (cfiCond55) V2 load(1, XDATA, add(CFA_XSP16, literal(-14)))
          CFI (cfiCond55) V3 load(1, XDATA, add(CFA_XSP16, literal(-13)))
          CFI (cfiCond55) V4 load(1, XDATA, add(CFA_XSP16, literal(-12)))
          CFI (cfiCond55) V5 load(1, XDATA, add(CFA_XSP16, literal(-11)))
          CFI (cfiCond55) V6 load(1, XDATA, add(CFA_XSP16, literal(-10)))
          CFI (cfiCond55) V7 load(1, XDATA, add(CFA_XSP16, literal(-9)))
          CFI (cfiCond55) V8 load(1, XDATA, add(CFA_XSP16, literal(-8)))
          CFI (cfiCond55) V9 load(1, XDATA, add(CFA_XSP16, literal(-7)))
          CFI (cfiCond55) R7 load(1, XDATA, add(CFA_XSP16, literal(-6)))
          CFI (cfiCond55) ?RET_LOW load(1, XDATA, add(CFA_XSP16, literal(-5)))
          CFI (cfiCond55) ?RET_HIGH load(1, XDATA, add(CFA_XSP16, literal(-4)))
          CFI (cfiCond55) ?BRET_EXT load(1, XDATA, add(CFA_XSP16, literal(-3)))
          CFI (cfiCond55) DPL0 load(1, XDATA, add(CFA_XSP16, literal(-2)))
          CFI (cfiCond55) DPH0 load(1, XDATA, add(CFA_XSP16, literal(-1)))
          CFI (cfiCond55) CFA_SP SP+-2
          CFI (cfiCond55) CFA_XSP16 add(XSP16, 19)
          CFI Block cfiCond56 Using cfiCommon0
          CFI (cfiCond56) Function zdpProcessAddrReq
          CFI (cfiCond56) Conditional ??CrossCallReturnLabel_154
          CFI (cfiCond56) R6 load(1, XDATA, add(CFA_XSP16, literal(-17)))
          CFI (cfiCond56) VB load(1, XDATA, add(CFA_XSP16, literal(-16)))
          CFI (cfiCond56) V0 load(1, XDATA, add(CFA_XSP16, literal(-15)))
          CFI (cfiCond56) V1 load(1, XDATA, add(CFA_XSP16, literal(-14)))
          CFI (cfiCond56) V2 load(1, XDATA, add(CFA_XSP16, literal(-13)))
          CFI (cfiCond56) V3 load(1, XDATA, add(CFA_XSP16, literal(-12)))
          CFI (cfiCond56) V4 load(1, XDATA, add(CFA_XSP16, literal(-11)))
          CFI (cfiCond56) V5 load(1, XDATA, add(CFA_XSP16, literal(-10)))
          CFI (cfiCond56) V6 load(1, XDATA, add(CFA_XSP16, literal(-9)))
          CFI (cfiCond56) V7 load(1, XDATA, add(CFA_XSP16, literal(-8)))
          CFI (cfiCond56) V8 load(1, XDATA, add(CFA_XSP16, literal(-7)))
          CFI (cfiCond56) R7 load(1, XDATA, add(CFA_XSP16, literal(-6)))
          CFI (cfiCond56) ?RET_LOW load(1, XDATA, add(CFA_XSP16, literal(-5)))
          CFI (cfiCond56) ?RET_HIGH load(1, XDATA, add(CFA_XSP16, literal(-4)))
          CFI (cfiCond56) ?BRET_EXT load(1, XDATA, add(CFA_XSP16, literal(-3)))
          CFI (cfiCond56) DPL0 load(1, XDATA, add(CFA_XSP16, literal(-2)))
          CFI (cfiCond56) DPH0 load(1, XDATA, add(CFA_XSP16, literal(-1)))
          CFI (cfiCond56) CFA_SP SP+-2
          CFI (cfiCond56) CFA_XSP16 add(XSP16, 17)
          CFI Block cfiCond57 Using cfiCommon0
          CFI (cfiCond57) Function ZDP_MgmtBindRsp
          CFI (cfiCond57) Conditional ??CrossCallReturnLabel_155
          CFI (cfiCond57) R6 load(1, XDATA, add(CFA_XSP16, literal(-22)))
          CFI (cfiCond57) VB load(1, XDATA, add(CFA_XSP16, literal(-21)))
          CFI (cfiCond57) V0 load(1, XDATA, add(CFA_XSP16, literal(-20)))
          CFI (cfiCond57) V1 load(1, XDATA, add(CFA_XSP16, literal(-19)))
          CFI (cfiCond57) V2 load(1, XDATA, add(CFA_XSP16, literal(-18)))
          CFI (cfiCond57) V3 load(1, XDATA, add(CFA_XSP16, literal(-17)))
          CFI (cfiCond57) V4 load(1, XDATA, add(CFA_XSP16, literal(-16)))
          CFI (cfiCond57) V5 load(1, XDATA, add(CFA_XSP16, literal(-15)))
          CFI (cfiCond57) V6 load(1, XDATA, add(CFA_XSP16, literal(-14)))
          CFI (cfiCond57) V7 load(1, XDATA, add(CFA_XSP16, literal(-13)))
          CFI (cfiCond57) V8 load(1, XDATA, add(CFA_XSP16, literal(-12)))
          CFI (cfiCond57) V9 load(1, XDATA, add(CFA_XSP16, literal(-11)))
          CFI (cfiCond57) V10 load(1, XDATA, add(CFA_XSP16, literal(-10)))
          CFI (cfiCond57) V11 load(1, XDATA, add(CFA_XSP16, literal(-9)))
          CFI (cfiCond57) V12 load(1, XDATA, add(CFA_XSP16, literal(-8)))
          CFI (cfiCond57) V13 load(1, XDATA, add(CFA_XSP16, literal(-7)))
          CFI (cfiCond57) R7 load(1, XDATA, add(CFA_XSP16, literal(-6)))
          CFI (cfiCond57) ?RET_LOW load(1, XDATA, add(CFA_XSP16, literal(-5)))
          CFI (cfiCond57) ?RET_HIGH load(1, XDATA, add(CFA_XSP16, literal(-4)))
          CFI (cfiCond57) ?BRET_EXT load(1, XDATA, add(CFA_XSP16, literal(-3)))
          CFI (cfiCond57) DPL0 load(1, XDATA, add(CFA_XSP16, literal(-2)))
          CFI (cfiCond57) DPH0 load(1, XDATA, add(CFA_XSP16, literal(-1)))
          CFI (cfiCond57) CFA_SP SP+-2
          CFI (cfiCond57) CFA_XSP16 add(XSP16, 23)
          CFI Block cfiPicker58 Using cfiCommon1
          CFI (cfiPicker58) NoFunction
          CFI (cfiPicker58) Picker
        MOVX    @DPTR,A
        INC     DPTR
        MOV     R2,DPL
        MOV     R3,DPH
        RET
          CFI EndBlock cfiCond53
          CFI EndBlock cfiCond54
          CFI EndBlock cfiCond55
          CFI EndBlock cfiCond56
          CFI EndBlock cfiCond57
          CFI EndBlock cfiPicker58
//  840 
//  841 /*********************************************************************
//  842  * @fn          ZDP_NodeDescMsg
//  843  *
//  844  * @brief       Builds and sends a Node Descriptor message, unicast to the
//  845  *              specified device.
//  846  *
//  847  * @param       inMsg - incoming message
//  848  * @param       nwkAddr - 16 bit network address for device
//  849  * @param       pNodeDesc - pointer to the node descriptor
//  850  *
//  851  * @return      afStatus_t
//  852  */

        RSEG BANKED_CODE:CODE:NOROOT(0)
//  853 afStatus_t ZDP_NodeDescMsg( zdoIncomingMsg_t *inMsg,
ZDP_NodeDescMsg:
          CFI Block cfiBlock59 Using cfiCommon0
          CFI Function ZDP_NodeDescMsg
        CODE
//  854                            uint16 nwkAddr, NodeDescriptorFormat_t *pNodeDesc )
//  855 {
        FUNCALL ZDP_NodeDescMsg, fillAndSend
        LOCFRAME ISTACK, 0, STACK
        LOCFRAME PSTACK, 0, STACK
        LOCFRAME XSTACK, 12, STACK
        LOCFRAME IOVERLAY, 0, STATIC
        LOCFRAME DOVERLAY, 0, STATIC
        ARGFRAME ISTACK, 0, STACK
        ARGFRAME PSTACK, 0, STACK
        ARGFRAME XSTACK, 12, STACK
        ARGFRAME IOVERLAY, 0, STATIC
        ARGFRAME DOVERLAY, 0, STATIC
        REQUIRE ?V0
        REQUIRE ?V1
        MOV     A,#-0xa
        LCALL   ?BANKED_ENTER_XDATA
          CFI DPH0 load(1, XDATA, add(CFA_XSP16, literal(-1)))
          CFI DPL0 load(1, XDATA, add(CFA_XSP16, literal(-2)))
          CFI ?BRET_EXT load(1, XDATA, add(CFA_XSP16, literal(-3)))
          CFI ?RET_HIGH load(1, XDATA, add(CFA_XSP16, literal(-4)))
          CFI ?RET_LOW load(1, XDATA, add(CFA_XSP16, literal(-5)))
          CFI R7 load(1, XDATA, add(CFA_XSP16, literal(-6)))
          CFI V1 load(1, XDATA, add(CFA_XSP16, literal(-7)))
          CFI V0 load(1, XDATA, add(CFA_XSP16, literal(-8)))
          CFI VB load(1, XDATA, add(CFA_XSP16, literal(-9)))
          CFI R6 load(1, XDATA, add(CFA_XSP16, literal(-10)))
          CFI CFA_SP SP+0
          CFI CFA_XSP16 add(XSP16, 10)
        ; Saved register size: 10
        ; Auto size: 0
//  856   uint8 *pBuf = ZDP_TmpBuf;
        MOV     DPTR,#ZDP_TmpBuf
        MOVX    A,@DPTR
        MOV     R6,A
        INC     DPTR
        MOVX    A,@DPTR
        LCALL   ?Subroutine21 & 0xFFFF
//  857   byte len;
//  858 
//  859   len = 1 + 2 + 13;  // Status + nwkAddr + Node descriptor
//  860 
//  861   *pBuf++ = ZDP_SUCCESS;
//  862 
//  863   *pBuf++ = LO_UINT16( nwkAddr );
//  864   *pBuf++ = HI_UINT16( nwkAddr );
??CrossCallReturnLabel_20:
        LCALL   ?XSTACK_DISP0_8
        LCALL   ?Subroutine44 & 0xFFFF
//  865 
//  866   *pBuf++ = (byte)((pNodeDesc->ComplexDescAvail << 3) |
//  867                      (pNodeDesc->UserDescAvail << 4) |
//  868                      (pNodeDesc->LogicalType & 0x07));
??CrossCallReturnLabel_61:
        ANL     A,#0x1f
        MOV     DPL,R6
        MOV     DPH,R7
        LCALL   ?Subroutine29 & 0xFFFF
//  869 
//  870   *pBuf++ = (byte)((pNodeDesc->FrequencyBand << 3) | (pNodeDesc->APSFlags & 0x07));
??CrossCallReturnLabel_227:
        LCALL   ?Subroutine47 & 0xFFFF
??CrossCallReturnLabel_69:
        LCALL   ?Subroutine29 & 0xFFFF
//  871   *pBuf++ = pNodeDesc->CapabilityFlags;
??CrossCallReturnLabel_228:
        LCALL   ?Subroutine75 & 0xFFFF
??CrossCallReturnLabel_210:
        LCALL   ?Subroutine28 & 0xFFFF
//  872   *pBuf++ = pNodeDesc->ManufacturerCode[0];
??CrossCallReturnLabel_156:
        LCALL   ?Subroutine47 & 0xFFFF
??CrossCallReturnLabel_70:
        LCALL   ?Subroutine28 & 0xFFFF
//  873   *pBuf++ = pNodeDesc->ManufacturerCode[1];
??CrossCallReturnLabel_157:
        LCALL   ?Subroutine75 & 0xFFFF
??CrossCallReturnLabel_211:
        LCALL   ?Subroutine27 & 0xFFFF
//  874   *pBuf++ = pNodeDesc->MaxBufferSize;
??CrossCallReturnLabel_33:
        LCALL   ?Subroutine47 & 0xFFFF
??CrossCallReturnLabel_71:
        LCALL   ?Subroutine27 & 0xFFFF
//  875   *pBuf++ = pNodeDesc->MaxInTransferSize[0];
??CrossCallReturnLabel_34:
        INC     DPTR
        LCALL   ?Subroutine46 & 0xFFFF
??CrossCallReturnLabel_67:
        LCALL   ?Subroutine24 & 0xFFFF
//  876   *pBuf++ = pNodeDesc->MaxInTransferSize[1];
??CrossCallReturnLabel_26:
        LCALL   ?Subroutine46 & 0xFFFF
??CrossCallReturnLabel_68:
        INC     DPTR
        MOVX    @DPTR,A
//  877 
//  878   *pBuf++ = LO_UINT16( pNodeDesc->ServerMask );
        MOV     A,R0
        ADD     A,#0x8
        MOV     R4,A
        CLR     A
        ADDC    A,R1
        MOV     R5,A
        MOV     DPL,R4
        MOV     DPH,R5
        MOVX    A,@DPTR
        MOV     ?V0,A
        MOV     A,R6
        ADD     A,#0xb
        MOV     DPL,A
        CLR     A
        ADDC    A,R7
        MOV     DPH,A
        MOV     A,?V0
        LCALL   ??Subroutine106_0 & 0xFFFF
//  879   *pBuf++ = HI_UINT16( pNodeDesc->ServerMask );
??CrossCallReturnLabel_169:
        MOVX    A,@DPTR
        PUSH    A
          CFI CFA_SP SP+-1
        MOV     A,R6
        ADD     A,#0xc
        MOV     DPL,A
        CLR     A
        ADDC    A,R7
        MOV     DPH,A
        POP     A
          CFI CFA_SP SP+0
        LCALL   ?Subroutine24 & 0xFFFF
//  880   *pBuf++ = pNodeDesc->MaxOutTransferSize[0];
??CrossCallReturnLabel_27:
        INC     DPTR
        INC     DPTR
        INC     DPTR
        MOVX    A,@DPTR
        PUSH    A
          CFI CFA_SP SP+-1
        MOV     A,R6
        ADD     A,#0xd
        MOV     DPL,A
        CLR     A
        ADDC    A,R7
        MOV     DPH,A
        POP     A
          CFI CFA_SP SP+0
        MOVX    @DPTR,A
//  881   *pBuf++ = pNodeDesc->MaxOutTransferSize[1];
        MOV     A,R0
        ADD     A,#0xb
        MOV     DPL,A
        CLR     A
        ADDC    A,R1
        MOV     DPH,A
        MOVX    A,@DPTR
        PUSH    A
          CFI CFA_SP SP+-1
        MOV     A,R6
        ADD     A,#0xe
        MOV     DPL,A
        CLR     A
        ADDC    A,R7
        MOV     DPH,A
        POP     A
          CFI CFA_SP SP+0
        MOVX    @DPTR,A
//  882   *pBuf = pNodeDesc->DescriptorCapability;
        MOV     A,R0
        ADD     A,#0xc
        MOV     DPL,A
        CLR     A
        ADDC    A,R1
        MOV     DPH,A
        MOVX    A,@DPTR
        PUSH    A
          CFI CFA_SP SP+-1
        MOV     A,R6
        ADD     A,#0xf
        MOV     DPL,A
        CLR     A
        ADDC    A,R7
        MOV     DPH,A
        POP     A
          CFI CFA_SP SP+0
        MOVX    @DPTR,A
//  883 
//  884   return fillAndSend( &(inMsg->TransSeq), &(inMsg->srcAddr), Node_Desc_rsp, len );
        ; Setup parameters for call to function fillAndSend
        MOV     ?V0,#0x2
        MOV     ?V1,#-0x80
        MOV     R0,#?V0
        LCALL   ?PUSH_XSTACK_I_TWO
          CFI CFA_XSP16 add(XSP16, 12)
        MOV     R1,#0x10
        LCALL   ?Subroutine68 & 0xFFFF
??CrossCallReturnLabel_113:
        JNC     ??ZDP_NodeDescMsg_0
        INC     R3
??ZDP_NodeDescMsg_0:
        SJMP    ??Subroutine103_0
//  885 }
          CFI EndBlock cfiBlock59

        RSEG BANKED_CODE:CODE:NOROOT(0)
?Subroutine46:
          CFI Block cfiCond60 Using cfiCommon0
          CFI Function ZDP_NodeDescMsg
          CFI Conditional ??CrossCallReturnLabel_67
          CFI R6 load(1, XDATA, add(CFA_XSP16, literal(-10)))
          CFI VB load(1, XDATA, add(CFA_XSP16, literal(-9)))
          CFI V0 load(1, XDATA, add(CFA_XSP16, literal(-8)))
          CFI V1 load(1, XDATA, add(CFA_XSP16, literal(-7)))
          CFI R7 load(1, XDATA, add(CFA_XSP16, literal(-6)))
          CFI ?RET_LOW load(1, XDATA, add(CFA_XSP16, literal(-5)))
          CFI ?RET_HIGH load(1, XDATA, add(CFA_XSP16, literal(-4)))
          CFI ?BRET_EXT load(1, XDATA, add(CFA_XSP16, literal(-3)))
          CFI DPL0 load(1, XDATA, add(CFA_XSP16, literal(-2)))
          CFI DPH0 load(1, XDATA, add(CFA_XSP16, literal(-1)))
          CFI CFA_SP SP+-2
          CFI CFA_XSP16 add(XSP16, 10)
          CFI Block cfiCond61 Using cfiCommon0
          CFI (cfiCond61) Function ZDP_NodeDescMsg
          CFI (cfiCond61) Conditional ??CrossCallReturnLabel_68
          CFI (cfiCond61) R6 load(1, XDATA, add(CFA_XSP16, literal(-10)))
          CFI (cfiCond61) VB load(1, XDATA, add(CFA_XSP16, literal(-9)))
          CFI (cfiCond61) V0 load(1, XDATA, add(CFA_XSP16, literal(-8)))
          CFI (cfiCond61) V1 load(1, XDATA, add(CFA_XSP16, literal(-7)))
          CFI (cfiCond61) R7 load(1, XDATA, add(CFA_XSP16, literal(-6)))
          CFI (cfiCond61) ?RET_LOW load(1, XDATA, add(CFA_XSP16, literal(-5)))
          CFI (cfiCond61) ?RET_HIGH load(1, XDATA, add(CFA_XSP16, literal(-4)))
          CFI (cfiCond61) ?BRET_EXT load(1, XDATA, add(CFA_XSP16, literal(-3)))
          CFI (cfiCond61) DPL0 load(1, XDATA, add(CFA_XSP16, literal(-2)))
          CFI (cfiCond61) DPH0 load(1, XDATA, add(CFA_XSP16, literal(-1)))
          CFI (cfiCond61) CFA_SP SP+-2
          CFI (cfiCond61) CFA_XSP16 add(XSP16, 10)
          CFI Block cfiPicker62 Using cfiCommon1
          CFI (cfiPicker62) NoFunction
          CFI (cfiPicker62) Picker
        LCALL   ??Subroutine115_0 & 0xFFFF
??CrossCallReturnLabel_208:
        INC     DPTR
        INC     DPTR
        INC     DPTR
        INC     DPTR
        INC     DPTR
        INC     DPTR
        INC     DPTR
        INC     DPTR
        INC     DPTR
        RET
          CFI EndBlock cfiCond60
          CFI EndBlock cfiCond61
          CFI EndBlock cfiPicker62

        RSEG BANKED_CODE:CODE:NOROOT(0)
?Subroutine44:
          CFI Block cfiCond63 Using cfiCommon0
          CFI Function ZDP_UserDescSet
          CFI Conditional ??CrossCallReturnLabel_60
          CFI R6 load(1, XDATA, add(CFA_XSP16, literal(-15)))
          CFI VB load(1, XDATA, add(CFA_XSP16, literal(-14)))
          CFI V0 load(1, XDATA, add(CFA_XSP16, literal(-13)))
          CFI V1 load(1, XDATA, add(CFA_XSP16, literal(-12)))
          CFI V2 load(1, XDATA, add(CFA_XSP16, literal(-11)))
          CFI V3 load(1, XDATA, add(CFA_XSP16, literal(-10)))
          CFI V4 load(1, XDATA, add(CFA_XSP16, literal(-9)))
          CFI V5 load(1, XDATA, add(CFA_XSP16, literal(-8)))
          CFI V6 load(1, XDATA, add(CFA_XSP16, literal(-7)))
          CFI R7 load(1, XDATA, add(CFA_XSP16, literal(-6)))
          CFI ?RET_LOW load(1, XDATA, add(CFA_XSP16, literal(-5)))
          CFI ?RET_HIGH load(1, XDATA, add(CFA_XSP16, literal(-4)))
          CFI ?BRET_EXT load(1, XDATA, add(CFA_XSP16, literal(-3)))
          CFI DPL0 load(1, XDATA, add(CFA_XSP16, literal(-2)))
          CFI DPH0 load(1, XDATA, add(CFA_XSP16, literal(-1)))
          CFI CFA_SP SP+-2
          CFI CFA_XSP16 add(XSP16, 15)
          CFI Block cfiCond64 Using cfiCommon0
          CFI (cfiCond64) Function ZDP_NodeDescMsg
          CFI (cfiCond64) Conditional ??CrossCallReturnLabel_61
          CFI (cfiCond64) R6 load(1, XDATA, add(CFA_XSP16, literal(-10)))
          CFI (cfiCond64) VB load(1, XDATA, add(CFA_XSP16, literal(-9)))
          CFI (cfiCond64) V0 load(1, XDATA, add(CFA_XSP16, literal(-8)))
          CFI (cfiCond64) V1 load(1, XDATA, add(CFA_XSP16, literal(-7)))
          CFI (cfiCond64) R7 load(1, XDATA, add(CFA_XSP16, literal(-6)))
          CFI (cfiCond64) ?RET_LOW load(1, XDATA, add(CFA_XSP16, literal(-5)))
          CFI (cfiCond64) ?RET_HIGH load(1, XDATA, add(CFA_XSP16, literal(-4)))
          CFI (cfiCond64) ?BRET_EXT load(1, XDATA, add(CFA_XSP16, literal(-3)))
          CFI (cfiCond64) DPL0 load(1, XDATA, add(CFA_XSP16, literal(-2)))
          CFI (cfiCond64) DPH0 load(1, XDATA, add(CFA_XSP16, literal(-1)))
          CFI (cfiCond64) CFA_SP SP+-2
          CFI (cfiCond64) CFA_XSP16 add(XSP16, 10)
          CFI Block cfiCond65 Using cfiCommon0
          CFI (cfiCond65) Function ZDP_PowerDescMsg
          CFI (cfiCond65) Conditional ??CrossCallReturnLabel_62
          CFI (cfiCond65) R6 load(1, XDATA, add(CFA_XSP16, literal(-10)))
          CFI (cfiCond65) VB load(1, XDATA, add(CFA_XSP16, literal(-9)))
          CFI (cfiCond65) V0 load(1, XDATA, add(CFA_XSP16, literal(-8)))
          CFI (cfiCond65) V1 load(1, XDATA, add(CFA_XSP16, literal(-7)))
          CFI (cfiCond65) R7 load(1, XDATA, add(CFA_XSP16, literal(-6)))
          CFI (cfiCond65) ?RET_LOW load(1, XDATA, add(CFA_XSP16, literal(-5)))
          CFI (cfiCond65) ?RET_HIGH load(1, XDATA, add(CFA_XSP16, literal(-4)))
          CFI (cfiCond65) ?BRET_EXT load(1, XDATA, add(CFA_XSP16, literal(-3)))
          CFI (cfiCond65) DPL0 load(1, XDATA, add(CFA_XSP16, literal(-2)))
          CFI (cfiCond65) DPH0 load(1, XDATA, add(CFA_XSP16, literal(-1)))
          CFI (cfiCond65) CFA_SP SP+-2
          CFI (cfiCond65) CFA_XSP16 add(XSP16, 10)
          CFI Block cfiPicker66 Using cfiCommon1
          CFI (cfiPicker66) NoFunction
          CFI (cfiPicker66) Picker
        LCALL   ?Subroutine74 & 0xFFFF
??CrossCallReturnLabel_251:
        MOV     DPL,R0
        MOV     DPH,R1
        MOVX    A,@DPTR
        RET
          CFI EndBlock cfiCond63
          CFI EndBlock cfiCond64
          CFI EndBlock cfiCond65
          CFI EndBlock cfiPicker66

        RSEG BANKED_CODE:CODE:NOROOT(0)
?Subroutine28:
          CFI Block cfiCond67 Using cfiCommon0
          CFI Function ZDP_NodeDescMsg
          CFI Conditional ??CrossCallReturnLabel_156
          CFI R6 load(1, XDATA, add(CFA_XSP16, literal(-10)))
          CFI VB load(1, XDATA, add(CFA_XSP16, literal(-9)))
          CFI V0 load(1, XDATA, add(CFA_XSP16, literal(-8)))
          CFI V1 load(1, XDATA, add(CFA_XSP16, literal(-7)))
          CFI R7 load(1, XDATA, add(CFA_XSP16, literal(-6)))
          CFI ?RET_LOW load(1, XDATA, add(CFA_XSP16, literal(-5)))
          CFI ?RET_HIGH load(1, XDATA, add(CFA_XSP16, literal(-4)))
          CFI ?BRET_EXT load(1, XDATA, add(CFA_XSP16, literal(-3)))
          CFI DPL0 load(1, XDATA, add(CFA_XSP16, literal(-2)))
          CFI DPH0 load(1, XDATA, add(CFA_XSP16, literal(-1)))
          CFI CFA_SP SP+-2
          CFI CFA_XSP16 add(XSP16, 10)
          CFI Block cfiCond68 Using cfiCommon0
          CFI (cfiCond68) Function ZDP_NodeDescMsg
          CFI (cfiCond68) Conditional ??CrossCallReturnLabel_157
          CFI (cfiCond68) R6 load(1, XDATA, add(CFA_XSP16, literal(-10)))
          CFI (cfiCond68) VB load(1, XDATA, add(CFA_XSP16, literal(-9)))
          CFI (cfiCond68) V0 load(1, XDATA, add(CFA_XSP16, literal(-8)))
          CFI (cfiCond68) V1 load(1, XDATA, add(CFA_XSP16, literal(-7)))
          CFI (cfiCond68) R7 load(1, XDATA, add(CFA_XSP16, literal(-6)))
          CFI (cfiCond68) ?RET_LOW load(1, XDATA, add(CFA_XSP16, literal(-5)))
          CFI (cfiCond68) ?RET_HIGH load(1, XDATA, add(CFA_XSP16, literal(-4)))
          CFI (cfiCond68) ?BRET_EXT load(1, XDATA, add(CFA_XSP16, literal(-3)))
          CFI (cfiCond68) DPL0 load(1, XDATA, add(CFA_XSP16, literal(-2)))
          CFI (cfiCond68) DPH0 load(1, XDATA, add(CFA_XSP16, literal(-1)))
          CFI (cfiCond68) CFA_SP SP+-2
          CFI (cfiCond68) CFA_XSP16 add(XSP16, 10)
          CFI Block cfiPicker69 Using cfiCommon1
          CFI (cfiPicker69) NoFunction
          CFI (cfiPicker69) Picker
        INC     DPTR
        INC     DPTR
        INC     DPTR
        INC     DPTR
        INC     DPTR
          CFI EndBlock cfiCond67
          CFI EndBlock cfiCond68
          CFI EndBlock cfiPicker69
        REQUIRE ??Subroutine102_0
        ; // Fall through to label ??Subroutine102_0

        RSEG BANKED_CODE:CODE:NOROOT(0)
??Subroutine102_0:
          CFI Block cfiCond70 Using cfiCommon0
          CFI Function ZDO_RegisterForZDOMsg
          CFI Conditional ??CrossCallReturnLabel_158
          CFI R6 load(1, XDATA, add(CFA_XSP16, literal(-14)))
          CFI VB load(1, XDATA, add(CFA_XSP16, literal(-13)))
          CFI V0 load(1, XDATA, add(CFA_XSP16, literal(-12)))
          CFI V1 load(1, XDATA, add(CFA_XSP16, literal(-11)))
          CFI V2 load(1, XDATA, add(CFA_XSP16, literal(-10)))
          CFI V3 load(1, XDATA, add(CFA_XSP16, literal(-9)))
          CFI V4 load(1, XDATA, add(CFA_XSP16, literal(-8)))
          CFI V5 load(1, XDATA, add(CFA_XSP16, literal(-7)))
          CFI R7 load(1, XDATA, add(CFA_XSP16, literal(-6)))
          CFI ?RET_LOW load(1, XDATA, add(CFA_XSP16, literal(-5)))
          CFI ?RET_HIGH load(1, XDATA, add(CFA_XSP16, literal(-4)))
          CFI ?BRET_EXT load(1, XDATA, add(CFA_XSP16, literal(-3)))
          CFI DPL0 load(1, XDATA, add(CFA_XSP16, literal(-2)))
          CFI DPH0 load(1, XDATA, add(CFA_XSP16, literal(-1)))
          CFI CFA_SP SP+-2
          CFI CFA_XSP16 add(XSP16, 14)
          CFI Block cfiCond71 Using cfiCommon0
          CFI (cfiCond71) Function ZDP_NodeDescMsg
          CFI (cfiCond71) Conditional ??CrossCallReturnLabel_156
          CFI (cfiCond71) R6 load(1, XDATA, add(CFA_XSP16, literal(-10)))
          CFI (cfiCond71) VB load(1, XDATA, add(CFA_XSP16, literal(-9)))
          CFI (cfiCond71) V0 load(1, XDATA, add(CFA_XSP16, literal(-8)))
          CFI (cfiCond71) V1 load(1, XDATA, add(CFA_XSP16, literal(-7)))
          CFI (cfiCond71) R7 load(1, XDATA, add(CFA_XSP16, literal(-6)))
          CFI (cfiCond71) ?RET_LOW load(1, XDATA, add(CFA_XSP16, literal(-5)))
          CFI (cfiCond71) ?RET_HIGH load(1, XDATA, add(CFA_XSP16, literal(-4)))
          CFI (cfiCond71) ?BRET_EXT load(1, XDATA, add(CFA_XSP16, literal(-3)))
          CFI (cfiCond71) DPL0 load(1, XDATA, add(CFA_XSP16, literal(-2)))
          CFI (cfiCond71) DPH0 load(1, XDATA, add(CFA_XSP16, literal(-1)))
          CFI (cfiCond71) CFA_SP SP+-2
          CFI (cfiCond71) CFA_XSP16 add(XSP16, 10)
          CFI Block cfiCond72 Using cfiCommon0
          CFI (cfiCond72) Function ZDP_NodeDescMsg
          CFI (cfiCond72) Conditional ??CrossCallReturnLabel_157
          CFI (cfiCond72) R6 load(1, XDATA, add(CFA_XSP16, literal(-10)))
          CFI (cfiCond72) VB load(1, XDATA, add(CFA_XSP16, literal(-9)))
          CFI (cfiCond72) V0 load(1, XDATA, add(CFA_XSP16, literal(-8)))
          CFI (cfiCond72) V1 load(1, XDATA, add(CFA_XSP16, literal(-7)))
          CFI (cfiCond72) R7 load(1, XDATA, add(CFA_XSP16, literal(-6)))
          CFI (cfiCond72) ?RET_LOW load(1, XDATA, add(CFA_XSP16, literal(-5)))
          CFI (cfiCond72) ?RET_HIGH load(1, XDATA, add(CFA_XSP16, literal(-4)))
          CFI (cfiCond72) ?BRET_EXT load(1, XDATA, add(CFA_XSP16, literal(-3)))
          CFI (cfiCond72) DPL0 load(1, XDATA, add(CFA_XSP16, literal(-2)))
          CFI (cfiCond72) DPH0 load(1, XDATA, add(CFA_XSP16, literal(-1)))
          CFI (cfiCond72) CFA_SP SP+-2
          CFI (cfiCond72) CFA_XSP16 add(XSP16, 10)
          CFI Block cfiPicker73 Using cfiCommon1
          CFI (cfiPicker73) NoFunction
          CFI (cfiPicker73) Picker
        LCALL   ?Subroutine85 & 0xFFFF
??CrossCallReturnLabel_231:
        INC     DPTR
        INC     DPTR
        RET
          CFI EndBlock cfiCond70
          CFI EndBlock cfiCond71
          CFI EndBlock cfiCond72
          CFI EndBlock cfiPicker73

        RSEG BANKED_CODE:CODE:NOROOT(0)
?Subroutine27:
          CFI Block cfiCond74 Using cfiCommon0
          CFI Function ZDP_NodeDescMsg
          CFI Conditional ??CrossCallReturnLabel_33
          CFI R6 load(1, XDATA, add(CFA_XSP16, literal(-10)))
          CFI VB load(1, XDATA, add(CFA_XSP16, literal(-9)))
          CFI V0 load(1, XDATA, add(CFA_XSP16, literal(-8)))
          CFI V1 load(1, XDATA, add(CFA_XSP16, literal(-7)))
          CFI R7 load(1, XDATA, add(CFA_XSP16, literal(-6)))
          CFI ?RET_LOW load(1, XDATA, add(CFA_XSP16, literal(-5)))
          CFI ?RET_HIGH load(1, XDATA, add(CFA_XSP16, literal(-4)))
          CFI ?BRET_EXT load(1, XDATA, add(CFA_XSP16, literal(-3)))
          CFI DPL0 load(1, XDATA, add(CFA_XSP16, literal(-2)))
          CFI DPH0 load(1, XDATA, add(CFA_XSP16, literal(-1)))
          CFI CFA_SP SP+-2
          CFI CFA_XSP16 add(XSP16, 10)
          CFI Block cfiCond75 Using cfiCommon0
          CFI (cfiCond75) Function ZDP_NodeDescMsg
          CFI (cfiCond75) Conditional ??CrossCallReturnLabel_34
          CFI (cfiCond75) R6 load(1, XDATA, add(CFA_XSP16, literal(-10)))
          CFI (cfiCond75) VB load(1, XDATA, add(CFA_XSP16, literal(-9)))
          CFI (cfiCond75) V0 load(1, XDATA, add(CFA_XSP16, literal(-8)))
          CFI (cfiCond75) V1 load(1, XDATA, add(CFA_XSP16, literal(-7)))
          CFI (cfiCond75) R7 load(1, XDATA, add(CFA_XSP16, literal(-6)))
          CFI (cfiCond75) ?RET_LOW load(1, XDATA, add(CFA_XSP16, literal(-5)))
          CFI (cfiCond75) ?RET_HIGH load(1, XDATA, add(CFA_XSP16, literal(-4)))
          CFI (cfiCond75) ?BRET_EXT load(1, XDATA, add(CFA_XSP16, literal(-3)))
          CFI (cfiCond75) DPL0 load(1, XDATA, add(CFA_XSP16, literal(-2)))
          CFI (cfiCond75) DPH0 load(1, XDATA, add(CFA_XSP16, literal(-1)))
          CFI (cfiCond75) CFA_SP SP+-2
          CFI (cfiCond75) CFA_XSP16 add(XSP16, 10)
          CFI Block cfiPicker76 Using cfiCommon1
          CFI (cfiPicker76) NoFunction
          CFI (cfiPicker76) Picker
        INC     DPTR
        INC     DPTR
        INC     DPTR
        INC     DPTR
        INC     DPTR
        INC     DPTR
        INC     DPTR
        LCALL   ?Subroutine84 & 0xFFFF
??CrossCallReturnLabel_138:
        RET
          CFI EndBlock cfiCond74
          CFI EndBlock cfiCond75
          CFI EndBlock cfiPicker76

        RSEG BANKED_CODE:CODE:NOROOT(0)
?Subroutine84:
          CFI Block cfiCond77 Using cfiCommon0
          CFI Function ZDP_NodeDescMsg
          CFI Conditional ??CrossCallReturnLabel_138, ??CrossCallReturnLabel_33
          CFI R6 load(1, XDATA, add(CFA_XSP16, literal(-10)))
          CFI VB load(1, XDATA, add(CFA_XSP16, literal(-9)))
          CFI V0 load(1, XDATA, add(CFA_XSP16, literal(-8)))
          CFI V1 load(1, XDATA, add(CFA_XSP16, literal(-7)))
          CFI R7 load(1, XDATA, add(CFA_XSP16, literal(-6)))
          CFI ?RET_LOW load(1, XDATA, add(CFA_XSP16, literal(-5)))
          CFI ?RET_HIGH load(1, XDATA, add(CFA_XSP16, literal(-4)))
          CFI ?BRET_EXT load(1, XDATA, add(CFA_XSP16, literal(-3)))
          CFI DPL0 load(1, XDATA, add(CFA_XSP16, literal(-2)))
          CFI DPH0 load(1, XDATA, add(CFA_XSP16, literal(-1)))
          CFI CFA_SP SP+-4
          CFI CFA_XSP16 add(XSP16, 10)
          CFI Block cfiCond78 Using cfiCommon0
          CFI (cfiCond78) Function ZDP_NodeDescMsg
          CFI (cfiCond78) Conditional ??CrossCallReturnLabel_138, ??CrossCallReturnLabel_34
          CFI (cfiCond78) R6 load(1, XDATA, add(CFA_XSP16, literal(-10)))
          CFI (cfiCond78) VB load(1, XDATA, add(CFA_XSP16, literal(-9)))
          CFI (cfiCond78) V0 load(1, XDATA, add(CFA_XSP16, literal(-8)))
          CFI (cfiCond78) V1 load(1, XDATA, add(CFA_XSP16, literal(-7)))
          CFI (cfiCond78) R7 load(1, XDATA, add(CFA_XSP16, literal(-6)))
          CFI (cfiCond78) ?RET_LOW load(1, XDATA, add(CFA_XSP16, literal(-5)))
          CFI (cfiCond78) ?RET_HIGH load(1, XDATA, add(CFA_XSP16, literal(-4)))
          CFI (cfiCond78) ?BRET_EXT load(1, XDATA, add(CFA_XSP16, literal(-3)))
          CFI (cfiCond78) DPL0 load(1, XDATA, add(CFA_XSP16, literal(-2)))
          CFI (cfiCond78) DPH0 load(1, XDATA, add(CFA_XSP16, literal(-1)))
          CFI (cfiCond78) CFA_SP SP+-4
          CFI (cfiCond78) CFA_XSP16 add(XSP16, 10)
          CFI Block cfiCond79 Using cfiCommon0
          CFI (cfiCond79) Function ZDP_NodeDescMsg
          CFI (cfiCond79) Conditional ??CrossCallReturnLabel_139, ??CrossCallReturnLabel_26
          CFI (cfiCond79) R6 load(1, XDATA, add(CFA_XSP16, literal(-10)))
          CFI (cfiCond79) VB load(1, XDATA, add(CFA_XSP16, literal(-9)))
          CFI (cfiCond79) V0 load(1, XDATA, add(CFA_XSP16, literal(-8)))
          CFI (cfiCond79) V1 load(1, XDATA, add(CFA_XSP16, literal(-7)))
          CFI (cfiCond79) R7 load(1, XDATA, add(CFA_XSP16, literal(-6)))
          CFI (cfiCond79) ?RET_LOW load(1, XDATA, add(CFA_XSP16, literal(-5)))
          CFI (cfiCond79) ?RET_HIGH load(1, XDATA, add(CFA_XSP16, literal(-4)))
          CFI (cfiCond79) ?BRET_EXT load(1, XDATA, add(CFA_XSP16, literal(-3)))
          CFI (cfiCond79) DPL0 load(1, XDATA, add(CFA_XSP16, literal(-2)))
          CFI (cfiCond79) DPH0 load(1, XDATA, add(CFA_XSP16, literal(-1)))
          CFI (cfiCond79) CFA_SP SP+-4
          CFI (cfiCond79) CFA_XSP16 add(XSP16, 10)
          CFI Block cfiCond80 Using cfiCommon0
          CFI (cfiCond80) Function ZDP_NodeDescMsg
          CFI (cfiCond80) Conditional ??CrossCallReturnLabel_139, ??CrossCallReturnLabel_27
          CFI (cfiCond80) R6 load(1, XDATA, add(CFA_XSP16, literal(-10)))
          CFI (cfiCond80) VB load(1, XDATA, add(CFA_XSP16, literal(-9)))
          CFI (cfiCond80) V0 load(1, XDATA, add(CFA_XSP16, literal(-8)))
          CFI (cfiCond80) V1 load(1, XDATA, add(CFA_XSP16, literal(-7)))
          CFI (cfiCond80) R7 load(1, XDATA, add(CFA_XSP16, literal(-6)))
          CFI (cfiCond80) ?RET_LOW load(1, XDATA, add(CFA_XSP16, literal(-5)))
          CFI (cfiCond80) ?RET_HIGH load(1, XDATA, add(CFA_XSP16, literal(-4)))
          CFI (cfiCond80) ?BRET_EXT load(1, XDATA, add(CFA_XSP16, literal(-3)))
          CFI (cfiCond80) DPL0 load(1, XDATA, add(CFA_XSP16, literal(-2)))
          CFI (cfiCond80) DPH0 load(1, XDATA, add(CFA_XSP16, literal(-1)))
          CFI (cfiCond80) CFA_SP SP+-4
          CFI (cfiCond80) CFA_XSP16 add(XSP16, 10)
          CFI Block cfiPicker81 Using cfiCommon1
          CFI (cfiPicker81) NoFunction
          CFI (cfiPicker81) Picker
        LCALL   ?Subroutine94 & 0xFFFF
??CrossCallReturnLabel_235:
        INC     DPTR
        INC     DPTR
        INC     DPTR
        INC     DPTR
        INC     DPTR
        RET
          CFI EndBlock cfiCond77
          CFI EndBlock cfiCond78
          CFI EndBlock cfiCond79
          CFI EndBlock cfiCond80
          CFI EndBlock cfiPicker81

        RSEG BANKED_CODE:CODE:NOROOT(0)
?Subroutine24:
          CFI Block cfiCond82 Using cfiCommon0
          CFI Function ZDP_NodeDescMsg
          CFI Conditional ??CrossCallReturnLabel_26
          CFI R6 load(1, XDATA, add(CFA_XSP16, literal(-10)))
          CFI VB load(1, XDATA, add(CFA_XSP16, literal(-9)))
          CFI V0 load(1, XDATA, add(CFA_XSP16, literal(-8)))
          CFI V1 load(1, XDATA, add(CFA_XSP16, literal(-7)))
          CFI R7 load(1, XDATA, add(CFA_XSP16, literal(-6)))
          CFI ?RET_LOW load(1, XDATA, add(CFA_XSP16, literal(-5)))
          CFI ?RET_HIGH load(1, XDATA, add(CFA_XSP16, literal(-4)))
          CFI ?BRET_EXT load(1, XDATA, add(CFA_XSP16, literal(-3)))
          CFI DPL0 load(1, XDATA, add(CFA_XSP16, literal(-2)))
          CFI DPH0 load(1, XDATA, add(CFA_XSP16, literal(-1)))
          CFI CFA_SP SP+-2
          CFI CFA_XSP16 add(XSP16, 10)
          CFI Block cfiCond83 Using cfiCommon0
          CFI (cfiCond83) Function ZDP_NodeDescMsg
          CFI (cfiCond83) Conditional ??CrossCallReturnLabel_27
          CFI (cfiCond83) R6 load(1, XDATA, add(CFA_XSP16, literal(-10)))
          CFI (cfiCond83) VB load(1, XDATA, add(CFA_XSP16, literal(-9)))
          CFI (cfiCond83) V0 load(1, XDATA, add(CFA_XSP16, literal(-8)))
          CFI (cfiCond83) V1 load(1, XDATA, add(CFA_XSP16, literal(-7)))
          CFI (cfiCond83) R7 load(1, XDATA, add(CFA_XSP16, literal(-6)))
          CFI (cfiCond83) ?RET_LOW load(1, XDATA, add(CFA_XSP16, literal(-5)))
          CFI (cfiCond83) ?RET_HIGH load(1, XDATA, add(CFA_XSP16, literal(-4)))
          CFI (cfiCond83) ?BRET_EXT load(1, XDATA, add(CFA_XSP16, literal(-3)))
          CFI (cfiCond83) DPL0 load(1, XDATA, add(CFA_XSP16, literal(-2)))
          CFI (cfiCond83) DPH0 load(1, XDATA, add(CFA_XSP16, literal(-1)))
          CFI (cfiCond83) CFA_SP SP+-2
          CFI (cfiCond83) CFA_XSP16 add(XSP16, 10)
          CFI Block cfiPicker84 Using cfiCommon1
          CFI (cfiPicker84) NoFunction
          CFI (cfiPicker84) Picker
        LCALL   ?Subroutine84 & 0xFFFF
??CrossCallReturnLabel_139:
        INC     DPTR
        INC     DPTR
        RET
          CFI EndBlock cfiCond82
          CFI EndBlock cfiCond83
          CFI EndBlock cfiPicker84

        RSEG BANKED_CODE:CODE:NOROOT(0)
?Subroutine8:
          CFI Block cfiBlock85 Using cfiCommon0
          CFI NoFunction
          CFI CFA_SP SP+0
          CFI CFA_XSP16 add(XSP16, 12)
          CFI VB load(1, XDATA, add(CFA_XSP16, literal(-9)))
          CFI DPL0 load(1, XDATA, add(CFA_XSP16, literal(-2)))
          CFI DPH0 load(1, XDATA, add(CFA_XSP16, literal(-1)))
          CFI R6 load(1, XDATA, add(CFA_XSP16, literal(-10)))
          CFI R7 load(1, XDATA, add(CFA_XSP16, literal(-6)))
          CFI V0 load(1, XDATA, add(CFA_XSP16, literal(-8)))
          CFI V1 load(1, XDATA, add(CFA_XSP16, literal(-7)))
          CFI ?BRET_EXT load(1, XDATA, add(CFA_XSP16, literal(-3)))
          CFI ?RET_HIGH load(1, XDATA, add(CFA_XSP16, literal(-4)))
          CFI ?RET_LOW load(1, XDATA, add(CFA_XSP16, literal(-5)))
        MOV     A,R2
        MOV     R4,A
        MOV     A,R3
        MOV     R5,A
        MOV     R2,#ZDP_TransID & 0xff
        MOV     R3,#(ZDP_TransID >> 8) & 0xff
          CFI EndBlock cfiBlock85
        REQUIRE ??Subroutine103_0
        ; // Fall through to label ??Subroutine103_0

        RSEG BANKED_CODE:CODE:NOROOT(0)
??Subroutine103_0:
          CFI Block cfiBlock86 Using cfiCommon0
          CFI NoFunction
          CFI CFA_SP SP+0
          CFI CFA_XSP16 add(XSP16, 12)
          CFI VB load(1, XDATA, add(CFA_XSP16, literal(-9)))
          CFI DPL0 load(1, XDATA, add(CFA_XSP16, literal(-2)))
          CFI DPH0 load(1, XDATA, add(CFA_XSP16, literal(-1)))
          CFI R6 load(1, XDATA, add(CFA_XSP16, literal(-10)))
          CFI R7 load(1, XDATA, add(CFA_XSP16, literal(-6)))
          CFI V0 load(1, XDATA, add(CFA_XSP16, literal(-8)))
          CFI V1 load(1, XDATA, add(CFA_XSP16, literal(-7)))
          CFI ?BRET_EXT load(1, XDATA, add(CFA_XSP16, literal(-3)))
          CFI ?RET_HIGH load(1, XDATA, add(CFA_XSP16, literal(-4)))
          CFI ?RET_LOW load(1, XDATA, add(CFA_XSP16, literal(-5)))
        LCALL   `??fillAndSend::?relay`; Banked call to: fillAndSend
        MOV     A,#0x2
        LJMP    ??Subroutine100_0 & 0xFFFF
          CFI EndBlock cfiBlock86
//  886 
//  887 /*********************************************************************
//  888  * @fn          ZDP_PowerDescMsg
//  889  *
//  890  * @brief       Builds and sends a Power Descriptor message, unicast to the
//  891  *              specified device.
//  892  *
//  893  * @param       inMsg - incoming message (request)
//  894  * @param       nwkAddr - 16 bit network address for device
//  895  * @param       pPowerDesc - pointer to the node descriptor
//  896  *
//  897  * @return      afStatus_t
//  898  */

        RSEG BANKED_CODE:CODE:NOROOT(0)
//  899 afStatus_t ZDP_PowerDescMsg( zdoIncomingMsg_t *inMsg,
ZDP_PowerDescMsg:
          CFI Block cfiBlock87 Using cfiCommon0
          CFI Function ZDP_PowerDescMsg
        CODE
//  900                      uint16 nwkAddr, NodePowerDescriptorFormat_t *pPowerDesc )
//  901 {
        FUNCALL ZDP_PowerDescMsg, fillAndSend
        LOCFRAME ISTACK, 0, STACK
        LOCFRAME PSTACK, 0, STACK
        LOCFRAME XSTACK, 12, STACK
        LOCFRAME IOVERLAY, 0, STATIC
        LOCFRAME DOVERLAY, 0, STATIC
        ARGFRAME ISTACK, 0, STACK
        ARGFRAME PSTACK, 0, STACK
        ARGFRAME XSTACK, 12, STACK
        ARGFRAME IOVERLAY, 0, STATIC
        ARGFRAME DOVERLAY, 0, STATIC
        REQUIRE ?V0
        REQUIRE ?V1
        MOV     A,#-0xa
        LCALL   ?BANKED_ENTER_XDATA
          CFI DPH0 load(1, XDATA, add(CFA_XSP16, literal(-1)))
          CFI DPL0 load(1, XDATA, add(CFA_XSP16, literal(-2)))
          CFI ?BRET_EXT load(1, XDATA, add(CFA_XSP16, literal(-3)))
          CFI ?RET_HIGH load(1, XDATA, add(CFA_XSP16, literal(-4)))
          CFI ?RET_LOW load(1, XDATA, add(CFA_XSP16, literal(-5)))
          CFI R7 load(1, XDATA, add(CFA_XSP16, literal(-6)))
          CFI V1 load(1, XDATA, add(CFA_XSP16, literal(-7)))
          CFI V0 load(1, XDATA, add(CFA_XSP16, literal(-8)))
          CFI VB load(1, XDATA, add(CFA_XSP16, literal(-9)))
          CFI R6 load(1, XDATA, add(CFA_XSP16, literal(-10)))
          CFI CFA_SP SP+0
          CFI CFA_XSP16 add(XSP16, 10)
        ; Saved register size: 10
        ; Auto size: 0
//  902   uint8 *pBuf = ZDP_TmpBuf;
        MOV     DPTR,#ZDP_TmpBuf
        LCALL   ?Subroutine57 & 0xFFFF
??CrossCallReturnLabel_90:
        MOV     R6,A
        MOV     A,R1
        LCALL   ?Subroutine21 & 0xFFFF
//  903   byte len = 1 + 2 + 2;  // Status + nwkAddr + Node Power descriptor.
//  904 
//  905   *pBuf++ = ZDP_SUCCESS;
//  906 
//  907   *pBuf++ = LO_UINT16( nwkAddr );
//  908   *pBuf++ = HI_UINT16( nwkAddr );
??CrossCallReturnLabel_21:
        LCALL   ?XSTACK_DISP0_8
        LCALL   ?Subroutine44 & 0xFFFF
//  909 
//  910   *pBuf++ = (byte)((pPowerDesc->AvailablePowerSources << 4)
//  911                     | (pPowerDesc->PowerMode & 0x0F));
??CrossCallReturnLabel_62:
        MOV     DPL,R6
        MOV     DPH,R7
        INC     DPTR
        LCALL   ?Subroutine34 & 0xFFFF
//  912   *pBuf++ = (byte)((pPowerDesc->CurrentPowerSourceLevel << 4)
//  913                     | (pPowerDesc->CurrentPowerSource & 0x0F));
??CrossCallReturnLabel_159:
        MOV     ?V0,A
        INC     DPTR
        MOVX    A,@DPTR
        MOV     ?V1,A
        ANL     A,#0xf
        MOV     R1,A
        MOV     A,#0xc
        MOV     R0,#?V0
        LCALL   ?US_SHR
        MOV     A,?V0
        SWAP    A
        ORL     A,R1
        MOV     DPL,R6
        MOV     DPH,R7
        INC     DPTR
        INC     DPTR
        INC     DPTR
        INC     DPTR
        MOVX    @DPTR,A
//  914 
//  915   return fillAndSend( &(inMsg->TransSeq), &(inMsg->srcAddr), Power_Desc_rsp, len );
        ; Setup parameters for call to function fillAndSend
        MOV     ?V0,#0x3
        MOV     ?V1,#-0x80
        MOV     R0,#?V0
        LCALL   ?PUSH_XSTACK_I_TWO
          CFI CFA_XSP16 add(XSP16, 12)
        MOV     R1,#0x5
        LCALL   ?Subroutine68 & 0xFFFF
??CrossCallReturnLabel_114:
        JNC     ??ZDP_PowerDescMsg_0
        INC     R3
??ZDP_PowerDescMsg_0:
        SJMP    ??Subroutine103_0
//  916 }
          CFI EndBlock cfiBlock87

        RSEG BANKED_CODE:CODE:NOROOT(0)
?Subroutine68:
          CFI Block cfiCond88 Using cfiCommon0
          CFI Function ZDP_NodeDescMsg
          CFI Conditional ??CrossCallReturnLabel_113
          CFI R6 load(1, XDATA, add(CFA_XSP16, literal(-10)))
          CFI VB load(1, XDATA, add(CFA_XSP16, literal(-9)))
          CFI V0 load(1, XDATA, add(CFA_XSP16, literal(-8)))
          CFI V1 load(1, XDATA, add(CFA_XSP16, literal(-7)))
          CFI R7 load(1, XDATA, add(CFA_XSP16, literal(-6)))
          CFI ?RET_LOW load(1, XDATA, add(CFA_XSP16, literal(-5)))
          CFI ?RET_HIGH load(1, XDATA, add(CFA_XSP16, literal(-4)))
          CFI ?BRET_EXT load(1, XDATA, add(CFA_XSP16, literal(-3)))
          CFI DPL0 load(1, XDATA, add(CFA_XSP16, literal(-2)))
          CFI DPH0 load(1, XDATA, add(CFA_XSP16, literal(-1)))
          CFI CFA_SP SP+-2
          CFI CFA_XSP16 add(XSP16, 12)
          CFI Block cfiCond89 Using cfiCommon0
          CFI (cfiCond89) Function ZDP_PowerDescMsg
          CFI (cfiCond89) Conditional ??CrossCallReturnLabel_114
          CFI (cfiCond89) R6 load(1, XDATA, add(CFA_XSP16, literal(-10)))
          CFI (cfiCond89) VB load(1, XDATA, add(CFA_XSP16, literal(-9)))
          CFI (cfiCond89) V0 load(1, XDATA, add(CFA_XSP16, literal(-8)))
          CFI (cfiCond89) V1 load(1, XDATA, add(CFA_XSP16, literal(-7)))
          CFI (cfiCond89) R7 load(1, XDATA, add(CFA_XSP16, literal(-6)))
          CFI (cfiCond89) ?RET_LOW load(1, XDATA, add(CFA_XSP16, literal(-5)))
          CFI (cfiCond89) ?RET_HIGH load(1, XDATA, add(CFA_XSP16, literal(-4)))
          CFI (cfiCond89) ?BRET_EXT load(1, XDATA, add(CFA_XSP16, literal(-3)))
          CFI (cfiCond89) DPL0 load(1, XDATA, add(CFA_XSP16, literal(-2)))
          CFI (cfiCond89) DPH0 load(1, XDATA, add(CFA_XSP16, literal(-1)))
          CFI (cfiCond89) CFA_SP SP+-2
          CFI (cfiCond89) CFA_XSP16 add(XSP16, 12)
          CFI Block cfiPicker90 Using cfiCommon1
          CFI (cfiPicker90) NoFunction
          CFI (cfiPicker90) Picker
        MOV     A,R2
        ADD     A,#0x2
        MOV     R4,A
        CLR     A
        ADDC    A,R3
        MOV     R5,A
        MOV     A,R2
        ADD     A,#0xf
        MOV     R2,A
        RET
          CFI EndBlock cfiCond88
          CFI EndBlock cfiCond89
          CFI EndBlock cfiPicker90

        RSEG BANKED_CODE:CODE:NOROOT(0)
?Subroutine57:
          CFI Block cfiCond91 Using cfiCommon0
          CFI Function zdpProcessAddrReq
          CFI Conditional ??CrossCallReturnLabel_89
          CFI R6 load(1, XDATA, add(CFA_XSP16, literal(-17)))
          CFI VB load(1, XDATA, add(CFA_XSP16, literal(-16)))
          CFI V0 load(1, XDATA, add(CFA_XSP16, literal(-15)))
          CFI V1 load(1, XDATA, add(CFA_XSP16, literal(-14)))
          CFI V2 load(1, XDATA, add(CFA_XSP16, literal(-13)))
          CFI V3 load(1, XDATA, add(CFA_XSP16, literal(-12)))
          CFI V4 load(1, XDATA, add(CFA_XSP16, literal(-11)))
          CFI V5 load(1, XDATA, add(CFA_XSP16, literal(-10)))
          CFI V6 load(1, XDATA, add(CFA_XSP16, literal(-9)))
          CFI V7 load(1, XDATA, add(CFA_XSP16, literal(-8)))
          CFI V8 load(1, XDATA, add(CFA_XSP16, literal(-7)))
          CFI R7 load(1, XDATA, add(CFA_XSP16, literal(-6)))
          CFI ?RET_LOW load(1, XDATA, add(CFA_XSP16, literal(-5)))
          CFI ?RET_HIGH load(1, XDATA, add(CFA_XSP16, literal(-4)))
          CFI ?BRET_EXT load(1, XDATA, add(CFA_XSP16, literal(-3)))
          CFI DPL0 load(1, XDATA, add(CFA_XSP16, literal(-2)))
          CFI DPH0 load(1, XDATA, add(CFA_XSP16, literal(-1)))
          CFI CFA_SP SP+-2
          CFI CFA_XSP16 add(XSP16, 17)
          CFI Block cfiCond92 Using cfiCommon0
          CFI (cfiCond92) Function ZDP_PowerDescMsg
          CFI (cfiCond92) Conditional ??CrossCallReturnLabel_90
          CFI (cfiCond92) R6 load(1, XDATA, add(CFA_XSP16, literal(-10)))
          CFI (cfiCond92) VB load(1, XDATA, add(CFA_XSP16, literal(-9)))
          CFI (cfiCond92) V0 load(1, XDATA, add(CFA_XSP16, literal(-8)))
          CFI (cfiCond92) V1 load(1, XDATA, add(CFA_XSP16, literal(-7)))
          CFI (cfiCond92) R7 load(1, XDATA, add(CFA_XSP16, literal(-6)))
          CFI (cfiCond92) ?RET_LOW load(1, XDATA, add(CFA_XSP16, literal(-5)))
          CFI (cfiCond92) ?RET_HIGH load(1, XDATA, add(CFA_XSP16, literal(-4)))
          CFI (cfiCond92) ?BRET_EXT load(1, XDATA, add(CFA_XSP16, literal(-3)))
          CFI (cfiCond92) DPL0 load(1, XDATA, add(CFA_XSP16, literal(-2)))
          CFI (cfiCond92) DPH0 load(1, XDATA, add(CFA_XSP16, literal(-1)))
          CFI (cfiCond92) CFA_SP SP+-2
          CFI (cfiCond92) CFA_XSP16 add(XSP16, 10)
          CFI Block cfiCond93 Using cfiCommon0
          CFI (cfiCond93) Function ZDO_RemoveRegisteredCB
          CFI (cfiCond93) Conditional ??CrossCallReturnLabel_88
          CFI (cfiCond93) R6 load(1, XDATA, add(CFA_XSP16, literal(-9)))
          CFI (cfiCond93) VB load(1, XDATA, add(CFA_XSP16, literal(-8)))
          CFI (cfiCond93) V0 load(1, XDATA, add(CFA_XSP16, literal(-7)))
          CFI (cfiCond93) R7 load(1, XDATA, add(CFA_XSP16, literal(-6)))
          CFI (cfiCond93) ?RET_LOW load(1, XDATA, add(CFA_XSP16, literal(-5)))
          CFI (cfiCond93) ?RET_HIGH load(1, XDATA, add(CFA_XSP16, literal(-4)))
          CFI (cfiCond93) ?BRET_EXT load(1, XDATA, add(CFA_XSP16, literal(-3)))
          CFI (cfiCond93) DPL0 load(1, XDATA, add(CFA_XSP16, literal(-2)))
          CFI (cfiCond93) DPH0 load(1, XDATA, add(CFA_XSP16, literal(-1)))
          CFI (cfiCond93) CFA_SP SP+-2
          CFI (cfiCond93) CFA_XSP16 add(XSP16, 9)
          CFI Block cfiPicker94 Using cfiCommon1
          CFI (cfiPicker94) NoFunction
          CFI (cfiPicker94) Picker
        LCALL   ?Subroutine72 & 0xFFFF
??CrossCallReturnLabel_122:
        RET
          CFI EndBlock cfiCond91
          CFI EndBlock cfiCond92
          CFI EndBlock cfiCond93
          CFI EndBlock cfiPicker94

        RSEG BANKED_CODE:CODE:NOROOT(0)
?Subroutine72:
          CFI Block cfiCond95 Using cfiCommon0
          CFI Function zdpProcessAddrReq
          CFI Conditional ??CrossCallReturnLabel_122, ??CrossCallReturnLabel_89
          CFI R6 load(1, XDATA, add(CFA_XSP16, literal(-17)))
          CFI VB load(1, XDATA, add(CFA_XSP16, literal(-16)))
          CFI V0 load(1, XDATA, add(CFA_XSP16, literal(-15)))
          CFI V1 load(1, XDATA, add(CFA_XSP16, literal(-14)))
          CFI V2 load(1, XDATA, add(CFA_XSP16, literal(-13)))
          CFI V3 load(1, XDATA, add(CFA_XSP16, literal(-12)))
          CFI V4 load(1, XDATA, add(CFA_XSP16, literal(-11)))
          CFI V5 load(1, XDATA, add(CFA_XSP16, literal(-10)))
          CFI V6 load(1, XDATA, add(CFA_XSP16, literal(-9)))
          CFI V7 load(1, XDATA, add(CFA_XSP16, literal(-8)))
          CFI V8 load(1, XDATA, add(CFA_XSP16, literal(-7)))
          CFI R7 load(1, XDATA, add(CFA_XSP16, literal(-6)))
          CFI ?RET_LOW load(1, XDATA, add(CFA_XSP16, literal(-5)))
          CFI ?RET_HIGH load(1, XDATA, add(CFA_XSP16, literal(-4)))
          CFI ?BRET_EXT load(1, XDATA, add(CFA_XSP16, literal(-3)))
          CFI DPL0 load(1, XDATA, add(CFA_XSP16, literal(-2)))
          CFI DPH0 load(1, XDATA, add(CFA_XSP16, literal(-1)))
          CFI CFA_SP SP+-4
          CFI CFA_XSP16 add(XSP16, 17)
          CFI Block cfiCond96 Using cfiCommon0
          CFI (cfiCond96) Function ZDP_PowerDescMsg
          CFI (cfiCond96) Conditional ??CrossCallReturnLabel_122, ??CrossCallReturnLabel_90
          CFI (cfiCond96) R6 load(1, XDATA, add(CFA_XSP16, literal(-10)))
          CFI (cfiCond96) VB load(1, XDATA, add(CFA_XSP16, literal(-9)))
          CFI (cfiCond96) V0 load(1, XDATA, add(CFA_XSP16, literal(-8)))
          CFI (cfiCond96) V1 load(1, XDATA, add(CFA_XSP16, literal(-7)))
          CFI (cfiCond96) R7 load(1, XDATA, add(CFA_XSP16, literal(-6)))
          CFI (cfiCond96) ?RET_LOW load(1, XDATA, add(CFA_XSP16, literal(-5)))
          CFI (cfiCond96) ?RET_HIGH load(1, XDATA, add(CFA_XSP16, literal(-4)))
          CFI (cfiCond96) ?BRET_EXT load(1, XDATA, add(CFA_XSP16, literal(-3)))
          CFI (cfiCond96) DPL0 load(1, XDATA, add(CFA_XSP16, literal(-2)))
          CFI (cfiCond96) DPH0 load(1, XDATA, add(CFA_XSP16, literal(-1)))
          CFI (cfiCond96) CFA_SP SP+-4
          CFI (cfiCond96) CFA_XSP16 add(XSP16, 10)
          CFI Block cfiCond97 Using cfiCommon0
          CFI (cfiCond97) Function ZDO_RemoveRegisteredCB
          CFI (cfiCond97) Conditional ??CrossCallReturnLabel_122, ??CrossCallReturnLabel_88
          CFI (cfiCond97) R6 load(1, XDATA, add(CFA_XSP16, literal(-9)))
          CFI (cfiCond97) VB load(1, XDATA, add(CFA_XSP16, literal(-8)))
          CFI (cfiCond97) V0 load(1, XDATA, add(CFA_XSP16, literal(-7)))
          CFI (cfiCond97) R7 load(1, XDATA, add(CFA_XSP16, literal(-6)))
          CFI (cfiCond97) ?RET_LOW load(1, XDATA, add(CFA_XSP16, literal(-5)))
          CFI (cfiCond97) ?RET_HIGH load(1, XDATA, add(CFA_XSP16, literal(-4)))
          CFI (cfiCond97) ?BRET_EXT load(1, XDATA, add(CFA_XSP16, literal(-3)))
          CFI (cfiCond97) DPL0 load(1, XDATA, add(CFA_XSP16, literal(-2)))
          CFI (cfiCond97) DPH0 load(1, XDATA, add(CFA_XSP16, literal(-1)))
          CFI (cfiCond97) CFA_SP SP+-4
          CFI (cfiCond97) CFA_XSP16 add(XSP16, 9)
          CFI Block cfiCond98 Using cfiCommon0
          CFI (cfiCond98) Function ZDP_ServerDiscRsp
          CFI (cfiCond98) Conditional ??CrossCallReturnLabel_125, ??CrossCallReturnLabel_86
          CFI (cfiCond98) R6 load(1, XDATA, add(CFA_XSP16, literal(-10)))
          CFI (cfiCond98) VB load(1, XDATA, add(CFA_XSP16, literal(-9)))
          CFI (cfiCond98) V0 load(1, XDATA, add(CFA_XSP16, literal(-8)))
          CFI (cfiCond98) V1 load(1, XDATA, add(CFA_XSP16, literal(-7)))
          CFI (cfiCond98) R7 load(1, XDATA, add(CFA_XSP16, literal(-6)))
          CFI (cfiCond98) ?RET_LOW load(1, XDATA, add(CFA_XSP16, literal(-5)))
          CFI (cfiCond98) ?RET_HIGH load(1, XDATA, add(CFA_XSP16, literal(-4)))
          CFI (cfiCond98) ?BRET_EXT load(1, XDATA, add(CFA_XSP16, literal(-3)))
          CFI (cfiCond98) DPL0 load(1, XDATA, add(CFA_XSP16, literal(-2)))
          CFI (cfiCond98) DPH0 load(1, XDATA, add(CFA_XSP16, literal(-1)))
          CFI (cfiCond98) CFA_SP SP+-4
          CFI (cfiCond98) CFA_XSP16 add(XSP16, 11)
          CFI Block cfiCond99 Using cfiCommon0
          CFI (cfiCond99) Function ZDP_EndDeviceBindReq
          CFI (cfiCond99) Conditional ??CrossCallReturnLabel_125, ??CrossCallReturnLabel_87
          CFI (cfiCond99) R6 load(1, XDATA, add(CFA_XSP16, literal(-18)))
          CFI (cfiCond99) VB load(1, XDATA, add(CFA_XSP16, literal(-17)))
          CFI (cfiCond99) V0 load(1, XDATA, add(CFA_XSP16, literal(-16)))
          CFI (cfiCond99) V1 load(1, XDATA, add(CFA_XSP16, literal(-15)))
          CFI (cfiCond99) V2 load(1, XDATA, add(CFA_XSP16, literal(-14)))
          CFI (cfiCond99) V3 load(1, XDATA, add(CFA_XSP16, literal(-13)))
          CFI (cfiCond99) V4 load(1, XDATA, add(CFA_XSP16, literal(-12)))
          CFI (cfiCond99) V5 load(1, XDATA, add(CFA_XSP16, literal(-11)))
          CFI (cfiCond99) V6 load(1, XDATA, add(CFA_XSP16, literal(-10)))
          CFI (cfiCond99) V7 load(1, XDATA, add(CFA_XSP16, literal(-9)))
          CFI (cfiCond99) V8 load(1, XDATA, add(CFA_XSP16, literal(-8)))
          CFI (cfiCond99) V9 load(1, XDATA, add(CFA_XSP16, literal(-7)))
          CFI (cfiCond99) R7 load(1, XDATA, add(CFA_XSP16, literal(-6)))
          CFI (cfiCond99) ?RET_LOW load(1, XDATA, add(CFA_XSP16, literal(-5)))
          CFI (cfiCond99) ?RET_HIGH load(1, XDATA, add(CFA_XSP16, literal(-4)))
          CFI (cfiCond99) ?BRET_EXT load(1, XDATA, add(CFA_XSP16, literal(-3)))
          CFI (cfiCond99) DPL0 load(1, XDATA, add(CFA_XSP16, literal(-2)))
          CFI (cfiCond99) DPH0 load(1, XDATA, add(CFA_XSP16, literal(-1)))
          CFI (cfiCond99) CFA_SP SP+-4
          CFI (cfiCond99) CFA_XSP16 add(XSP16, 18)
          CFI Block cfiCond100 Using cfiCommon0
          CFI (cfiCond100) Function ZDP_EPRsp
          CFI (cfiCond100) Conditional ??CrossCallReturnLabel_124, ??CrossCallReturnLabel_84
          CFI (cfiCond100) R6 load(1, XDATA, add(CFA_XSP16, literal(-15)))
          CFI (cfiCond100) VB load(1, XDATA, add(CFA_XSP16, literal(-14)))
          CFI (cfiCond100) V0 load(1, XDATA, add(CFA_XSP16, literal(-13)))
          CFI (cfiCond100) V1 load(1, XDATA, add(CFA_XSP16, literal(-12)))
          CFI (cfiCond100) V2 load(1, XDATA, add(CFA_XSP16, literal(-11)))
          CFI (cfiCond100) V3 load(1, XDATA, add(CFA_XSP16, literal(-10)))
          CFI (cfiCond100) V4 load(1, XDATA, add(CFA_XSP16, literal(-9)))
          CFI (cfiCond100) V5 load(1, XDATA, add(CFA_XSP16, literal(-8)))
          CFI (cfiCond100) V6 load(1, XDATA, add(CFA_XSP16, literal(-7)))
          CFI (cfiCond100) R7 load(1, XDATA, add(CFA_XSP16, literal(-6)))
          CFI (cfiCond100) ?RET_LOW load(1, XDATA, add(CFA_XSP16, literal(-5)))
          CFI (cfiCond100) ?RET_HIGH load(1, XDATA, add(CFA_XSP16, literal(-4)))
          CFI (cfiCond100) ?BRET_EXT load(1, XDATA, add(CFA_XSP16, literal(-3)))
          CFI (cfiCond100) DPL0 load(1, XDATA, add(CFA_XSP16, literal(-2)))
          CFI (cfiCond100) DPH0 load(1, XDATA, add(CFA_XSP16, literal(-1)))
          CFI (cfiCond100) CFA_SP SP+-4
          CFI (cfiCond100) CFA_XSP16 add(XSP16, 16)
          CFI Block cfiCond101 Using cfiCommon0
          CFI (cfiCond101) Function ZDP_EndDeviceBindReq
          CFI (cfiCond101) Conditional ??CrossCallReturnLabel_124, ??CrossCallReturnLabel_85
          CFI (cfiCond101) R6 load(1, XDATA, add(CFA_XSP16, literal(-18)))
          CFI (cfiCond101) VB load(1, XDATA, add(CFA_XSP16, literal(-17)))
          CFI (cfiCond101) V0 load(1, XDATA, add(CFA_XSP16, literal(-16)))
          CFI (cfiCond101) V1 load(1, XDATA, add(CFA_XSP16, literal(-15)))
          CFI (cfiCond101) V2 load(1, XDATA, add(CFA_XSP16, literal(-14)))
          CFI (cfiCond101) V3 load(1, XDATA, add(CFA_XSP16, literal(-13)))
          CFI (cfiCond101) V4 load(1, XDATA, add(CFA_XSP16, literal(-12)))
          CFI (cfiCond101) V5 load(1, XDATA, add(CFA_XSP16, literal(-11)))
          CFI (cfiCond101) V6 load(1, XDATA, add(CFA_XSP16, literal(-10)))
          CFI (cfiCond101) V7 load(1, XDATA, add(CFA_XSP16, literal(-9)))
          CFI (cfiCond101) V8 load(1, XDATA, add(CFA_XSP16, literal(-8)))
          CFI (cfiCond101) V9 load(1, XDATA, add(CFA_XSP16, literal(-7)))
          CFI (cfiCond101) R7 load(1, XDATA, add(CFA_XSP16, literal(-6)))
          CFI (cfiCond101) ?RET_LOW load(1, XDATA, add(CFA_XSP16, literal(-5)))
          CFI (cfiCond101) ?RET_HIGH load(1, XDATA, add(CFA_XSP16, literal(-4)))
          CFI (cfiCond101) ?BRET_EXT load(1, XDATA, add(CFA_XSP16, literal(-3)))
          CFI (cfiCond101) DPL0 load(1, XDATA, add(CFA_XSP16, literal(-2)))
          CFI (cfiCond101) DPH0 load(1, XDATA, add(CFA_XSP16, literal(-1)))
          CFI (cfiCond101) CFA_SP SP+-4
          CFI (cfiCond101) CFA_XSP16 add(XSP16, 18)
          CFI Block cfiCond102 Using cfiCommon0
          CFI (cfiCond102) Function ZDP_ServerDiscRsp
          CFI (cfiCond102) Conditional ??CrossCallReturnLabel_123, ??CrossCallReturnLabel_78
          CFI (cfiCond102) R6 load(1, XDATA, add(CFA_XSP16, literal(-10)))
          CFI (cfiCond102) VB load(1, XDATA, add(CFA_XSP16, literal(-9)))
          CFI (cfiCond102) V0 load(1, XDATA, add(CFA_XSP16, literal(-8)))
          CFI (cfiCond102) V1 load(1, XDATA, add(CFA_XSP16, literal(-7)))
          CFI (cfiCond102) R7 load(1, XDATA, add(CFA_XSP16, literal(-6)))
          CFI (cfiCond102) ?RET_LOW load(1, XDATA, add(CFA_XSP16, literal(-5)))
          CFI (cfiCond102) ?RET_HIGH load(1, XDATA, add(CFA_XSP16, literal(-4)))
          CFI (cfiCond102) ?BRET_EXT load(1, XDATA, add(CFA_XSP16, literal(-3)))
          CFI (cfiCond102) DPL0 load(1, XDATA, add(CFA_XSP16, literal(-2)))
          CFI (cfiCond102) DPH0 load(1, XDATA, add(CFA_XSP16, literal(-1)))
          CFI (cfiCond102) CFA_SP SP+-4
          CFI (cfiCond102) CFA_XSP16 add(XSP16, 11)
          CFI Block cfiCond103 Using cfiCommon0
          CFI (cfiCond103) Function ZDP_MgmtNwkUpdateReq
          CFI (cfiCond103) Conditional ??CrossCallReturnLabel_123, ??CrossCallReturnLabel_79
          CFI (cfiCond103) R6 load(1, XDATA, add(CFA_XSP16, literal(-14)))
          CFI (cfiCond103) VB load(1, XDATA, add(CFA_XSP16, literal(-13)))
          CFI (cfiCond103) V0 load(1, XDATA, add(CFA_XSP16, literal(-12)))
          CFI (cfiCond103) V1 load(1, XDATA, add(CFA_XSP16, literal(-11)))
          CFI (cfiCond103) V2 load(1, XDATA, add(CFA_XSP16, literal(-10)))
          CFI (cfiCond103) V3 load(1, XDATA, add(CFA_XSP16, literal(-9)))
          CFI (cfiCond103) V4 load(1, XDATA, add(CFA_XSP16, literal(-8)))
          CFI (cfiCond103) V5 load(1, XDATA, add(CFA_XSP16, literal(-7)))
          CFI (cfiCond103) R7 load(1, XDATA, add(CFA_XSP16, literal(-6)))
          CFI (cfiCond103) ?RET_LOW load(1, XDATA, add(CFA_XSP16, literal(-5)))
          CFI (cfiCond103) ?RET_HIGH load(1, XDATA, add(CFA_XSP16, literal(-4)))
          CFI (cfiCond103) ?BRET_EXT load(1, XDATA, add(CFA_XSP16, literal(-3)))
          CFI (cfiCond103) DPL0 load(1, XDATA, add(CFA_XSP16, literal(-2)))
          CFI (cfiCond103) DPH0 load(1, XDATA, add(CFA_XSP16, literal(-1)))
          CFI (cfiCond103) CFA_SP SP+-4
          CFI (cfiCond103) CFA_XSP16 add(XSP16, 14)
          CFI Block cfiPicker104 Using cfiCommon1
          CFI (cfiPicker104) NoFunction
          CFI (cfiPicker104) Picker
        LCALL   ??Subroutine123_0 & 0xFFFF
??CrossCallReturnLabel_257:
        MOV     R1,A
        MOV     A,R0
        RET
          CFI EndBlock cfiCond95
          CFI EndBlock cfiCond96
          CFI EndBlock cfiCond97
          CFI EndBlock cfiCond98
          CFI EndBlock cfiCond99
          CFI EndBlock cfiCond100
          CFI EndBlock cfiCond101
          CFI EndBlock cfiCond102
          CFI EndBlock cfiCond103
          CFI EndBlock cfiPicker104

        RSEG BANKED_CODE:CODE:NOROOT(0)
?Subroutine34:
          CFI Block cfiCond105 Using cfiCommon0
          CFI Function ZDP_PowerDescMsg
          CFI Conditional ??CrossCallReturnLabel_159
          CFI R6 load(1, XDATA, add(CFA_XSP16, literal(-10)))
          CFI VB load(1, XDATA, add(CFA_XSP16, literal(-9)))
          CFI V0 load(1, XDATA, add(CFA_XSP16, literal(-8)))
          CFI V1 load(1, XDATA, add(CFA_XSP16, literal(-7)))
          CFI R7 load(1, XDATA, add(CFA_XSP16, literal(-6)))
          CFI ?RET_LOW load(1, XDATA, add(CFA_XSP16, literal(-5)))
          CFI ?RET_HIGH load(1, XDATA, add(CFA_XSP16, literal(-4)))
          CFI ?BRET_EXT load(1, XDATA, add(CFA_XSP16, literal(-3)))
          CFI DPL0 load(1, XDATA, add(CFA_XSP16, literal(-2)))
          CFI DPH0 load(1, XDATA, add(CFA_XSP16, literal(-1)))
          CFI CFA_SP SP+-2
          CFI CFA_XSP16 add(XSP16, 10)
          CFI Block cfiCond106 Using cfiCommon0
          CFI (cfiCond106) Function ZDP_UserDescRsp
          CFI (cfiCond106) Conditional ??CrossCallReturnLabel_160
          CFI (cfiCond106) R6 load(1, XDATA, add(CFA_XSP16, literal(-18)))
          CFI (cfiCond106) VB load(1, XDATA, add(CFA_XSP16, literal(-17)))
          CFI (cfiCond106) V0 load(1, XDATA, add(CFA_XSP16, literal(-16)))
          CFI (cfiCond106) V1 load(1, XDATA, add(CFA_XSP16, literal(-15)))
          CFI (cfiCond106) V2 load(1, XDATA, add(CFA_XSP16, literal(-14)))
          CFI (cfiCond106) V3 load(1, XDATA, add(CFA_XSP16, literal(-13)))
          CFI (cfiCond106) V4 load(1, XDATA, add(CFA_XSP16, literal(-12)))
          CFI (cfiCond106) V5 load(1, XDATA, add(CFA_XSP16, literal(-11)))
          CFI (cfiCond106) V6 load(1, XDATA, add(CFA_XSP16, literal(-10)))
          CFI (cfiCond106) V7 load(1, XDATA, add(CFA_XSP16, literal(-9)))
          CFI (cfiCond106) V8 load(1, XDATA, add(CFA_XSP16, literal(-8)))
          CFI (cfiCond106) V9 load(1, XDATA, add(CFA_XSP16, literal(-7)))
          CFI (cfiCond106) R7 load(1, XDATA, add(CFA_XSP16, literal(-6)))
          CFI (cfiCond106) ?RET_LOW load(1, XDATA, add(CFA_XSP16, literal(-5)))
          CFI (cfiCond106) ?RET_HIGH load(1, XDATA, add(CFA_XSP16, literal(-4)))
          CFI (cfiCond106) ?BRET_EXT load(1, XDATA, add(CFA_XSP16, literal(-3)))
          CFI (cfiCond106) DPL0 load(1, XDATA, add(CFA_XSP16, literal(-2)))
          CFI (cfiCond106) DPH0 load(1, XDATA, add(CFA_XSP16, literal(-1)))
          CFI (cfiCond106) CFA_SP SP+-2
          CFI (cfiCond106) CFA_XSP16 add(XSP16, 19)
          CFI Block cfiPicker107 Using cfiCommon1
          CFI (cfiPicker107) NoFunction
          CFI (cfiPicker107) Picker
        INC     DPTR
        INC     DPTR
          CFI EndBlock cfiCond105
          CFI EndBlock cfiCond106
          CFI EndBlock cfiPicker107
        REQUIRE ??Subroutine104_0
        ; // Fall through to label ??Subroutine104_0

        RSEG BANKED_CODE:CODE:NOROOT(0)
??Subroutine104_0:
          CFI Block cfiCond108 Using cfiCommon0
          CFI Function ZDP_IncomingData
          CFI Conditional ??CrossCallReturnLabel_161
          CFI R6 load(1, XDATA, add(CFA_XSP16, literal(-10)))
          CFI VB load(1, XDATA, add(CFA_XSP16, literal(-9)))
          CFI V0 load(1, XDATA, add(CFA_XSP16, literal(-8)))
          CFI V1 load(1, XDATA, add(CFA_XSP16, literal(-7)))
          CFI R7 load(1, XDATA, add(CFA_XSP16, literal(-6)))
          CFI ?RET_LOW load(1, XDATA, add(CFA_XSP16, literal(-5)))
          CFI ?RET_HIGH load(1, XDATA, add(CFA_XSP16, literal(-4)))
          CFI ?BRET_EXT load(1, XDATA, add(CFA_XSP16, literal(-3)))
          CFI DPL0 load(1, XDATA, add(CFA_XSP16, literal(-2)))
          CFI DPH0 load(1, XDATA, add(CFA_XSP16, literal(-1)))
          CFI CFA_SP SP+-2
          CFI CFA_XSP16 add(XSP16, 33)
          CFI Block cfiCond109 Using cfiCommon0
          CFI (cfiCond109) Function ZDP_PowerDescMsg
          CFI (cfiCond109) Conditional ??CrossCallReturnLabel_159
          CFI (cfiCond109) R6 load(1, XDATA, add(CFA_XSP16, literal(-10)))
          CFI (cfiCond109) VB load(1, XDATA, add(CFA_XSP16, literal(-9)))
          CFI (cfiCond109) V0 load(1, XDATA, add(CFA_XSP16, literal(-8)))
          CFI (cfiCond109) V1 load(1, XDATA, add(CFA_XSP16, literal(-7)))
          CFI (cfiCond109) R7 load(1, XDATA, add(CFA_XSP16, literal(-6)))
          CFI (cfiCond109) ?RET_LOW load(1, XDATA, add(CFA_XSP16, literal(-5)))
          CFI (cfiCond109) ?RET_HIGH load(1, XDATA, add(CFA_XSP16, literal(-4)))
          CFI (cfiCond109) ?BRET_EXT load(1, XDATA, add(CFA_XSP16, literal(-3)))
          CFI (cfiCond109) DPL0 load(1, XDATA, add(CFA_XSP16, literal(-2)))
          CFI (cfiCond109) DPH0 load(1, XDATA, add(CFA_XSP16, literal(-1)))
          CFI (cfiCond109) CFA_SP SP+-2
          CFI (cfiCond109) CFA_XSP16 add(XSP16, 10)
          CFI Block cfiCond110 Using cfiCommon0
          CFI (cfiCond110) Function ZDP_UserDescRsp
          CFI (cfiCond110) Conditional ??CrossCallReturnLabel_160
          CFI (cfiCond110) R6 load(1, XDATA, add(CFA_XSP16, literal(-18)))
          CFI (cfiCond110) VB load(1, XDATA, add(CFA_XSP16, literal(-17)))
          CFI (cfiCond110) V0 load(1, XDATA, add(CFA_XSP16, literal(-16)))
          CFI (cfiCond110) V1 load(1, XDATA, add(CFA_XSP16, literal(-15)))
          CFI (cfiCond110) V2 load(1, XDATA, add(CFA_XSP16, literal(-14)))
          CFI (cfiCond110) V3 load(1, XDATA, add(CFA_XSP16, literal(-13)))
          CFI (cfiCond110) V4 load(1, XDATA, add(CFA_XSP16, literal(-12)))
          CFI (cfiCond110) V5 load(1, XDATA, add(CFA_XSP16, literal(-11)))
          CFI (cfiCond110) V6 load(1, XDATA, add(CFA_XSP16, literal(-10)))
          CFI (cfiCond110) V7 load(1, XDATA, add(CFA_XSP16, literal(-9)))
          CFI (cfiCond110) V8 load(1, XDATA, add(CFA_XSP16, literal(-8)))
          CFI (cfiCond110) V9 load(1, XDATA, add(CFA_XSP16, literal(-7)))
          CFI (cfiCond110) R7 load(1, XDATA, add(CFA_XSP16, literal(-6)))
          CFI (cfiCond110) ?RET_LOW load(1, XDATA, add(CFA_XSP16, literal(-5)))
          CFI (cfiCond110) ?RET_HIGH load(1, XDATA, add(CFA_XSP16, literal(-4)))
          CFI (cfiCond110) ?BRET_EXT load(1, XDATA, add(CFA_XSP16, literal(-3)))
          CFI (cfiCond110) DPL0 load(1, XDATA, add(CFA_XSP16, literal(-2)))
          CFI (cfiCond110) DPH0 load(1, XDATA, add(CFA_XSP16, literal(-1)))
          CFI (cfiCond110) CFA_SP SP+-2
          CFI (cfiCond110) CFA_XSP16 add(XSP16, 19)
          CFI Block cfiPicker111 Using cfiCommon1
          CFI (cfiPicker111) NoFunction
          CFI (cfiPicker111) Picker
        LCALL   ?Subroutine94 & 0xFFFF
??CrossCallReturnLabel_236:
        MOVX    A,@DPTR
        RET
          CFI EndBlock cfiCond108
          CFI EndBlock cfiCond109
          CFI EndBlock cfiCond110
          CFI EndBlock cfiPicker111

        RSEG BANKED_CODE:CODE:NOROOT(0)
?Subroutine21:
          CFI Block cfiCond112 Using cfiCommon0
          CFI Function ZDP_NodeDescMsg
          CFI Conditional ??CrossCallReturnLabel_20
          CFI R6 load(1, XDATA, add(CFA_XSP16, literal(-10)))
          CFI VB load(1, XDATA, add(CFA_XSP16, literal(-9)))
          CFI V0 load(1, XDATA, add(CFA_XSP16, literal(-8)))
          CFI V1 load(1, XDATA, add(CFA_XSP16, literal(-7)))
          CFI R7 load(1, XDATA, add(CFA_XSP16, literal(-6)))
          CFI ?RET_LOW load(1, XDATA, add(CFA_XSP16, literal(-5)))
          CFI ?RET_HIGH load(1, XDATA, add(CFA_XSP16, literal(-4)))
          CFI ?BRET_EXT load(1, XDATA, add(CFA_XSP16, literal(-3)))
          CFI DPL0 load(1, XDATA, add(CFA_XSP16, literal(-2)))
          CFI DPH0 load(1, XDATA, add(CFA_XSP16, literal(-1)))
          CFI CFA_SP SP+-2
          CFI CFA_XSP16 add(XSP16, 10)
          CFI Block cfiCond113 Using cfiCommon0
          CFI (cfiCond113) Function ZDP_PowerDescMsg
          CFI (cfiCond113) Conditional ??CrossCallReturnLabel_21
          CFI (cfiCond113) R6 load(1, XDATA, add(CFA_XSP16, literal(-10)))
          CFI (cfiCond113) VB load(1, XDATA, add(CFA_XSP16, literal(-9)))
          CFI (cfiCond113) V0 load(1, XDATA, add(CFA_XSP16, literal(-8)))
          CFI (cfiCond113) V1 load(1, XDATA, add(CFA_XSP16, literal(-7)))
          CFI (cfiCond113) R7 load(1, XDATA, add(CFA_XSP16, literal(-6)))
          CFI (cfiCond113) ?RET_LOW load(1, XDATA, add(CFA_XSP16, literal(-5)))
          CFI (cfiCond113) ?RET_HIGH load(1, XDATA, add(CFA_XSP16, literal(-4)))
          CFI (cfiCond113) ?BRET_EXT load(1, XDATA, add(CFA_XSP16, literal(-3)))
          CFI (cfiCond113) DPL0 load(1, XDATA, add(CFA_XSP16, literal(-2)))
          CFI (cfiCond113) DPH0 load(1, XDATA, add(CFA_XSP16, literal(-1)))
          CFI (cfiCond113) CFA_SP SP+-2
          CFI (cfiCond113) CFA_XSP16 add(XSP16, 10)
          CFI Block cfiPicker114 Using cfiCommon1
          CFI (cfiPicker114) NoFunction
          CFI (cfiPicker114) Picker
        MOV     R7,A
        MOV     DPL,R6
        MOV     DPH,R7
        CLR     A
        MOVX    @DPTR,A
        MOV     A,R4
        INC     DPTR
        MOVX    @DPTR,A
        MOV     A,R5
        MOV     DPL,R6
        MOV     DPH,R7
        INC     DPTR
        INC     DPTR
        MOVX    @DPTR,A
        MOV     A,#0xa
        RET
          CFI EndBlock cfiCond112
          CFI EndBlock cfiCond113
          CFI EndBlock cfiPicker114
//  917 
//  918 /*********************************************************************
//  919  * @fn          ZDP_SimpleDescMsg
//  920  *
//  921  * @brief       Builds and sends a Simple Descriptor message, unicast to the
//  922  *              specified device.
//  923  *
//  924  * @param       inMsg - incoming message (request)
//  925  * @param       Status - message status (ZDP_SUCCESS or other)
//  926  * @param       pSimpleDesc - pointer to the node descriptor
//  927  *
//  928  * @return      afStatus_t
//  929  */

        RSEG BANKED_CODE:CODE:NOROOT(0)
//  930 afStatus_t ZDP_SimpleDescMsg( zdoIncomingMsg_t *inMsg, byte Status,
ZDP_SimpleDescMsg:
          CFI Block cfiBlock115 Using cfiCommon0
          CFI Function ZDP_SimpleDescMsg
        CODE
//  931                               SimpleDescriptionFormat_t *pSimpleDesc )
//  932 {
        FUNCALL ZDP_SimpleDescMsg, fillAndSend
        LOCFRAME ISTACK, 0, STACK
        LOCFRAME PSTACK, 0, STACK
        LOCFRAME XSTACK, 22, STACK
        LOCFRAME IOVERLAY, 0, STATIC
        LOCFRAME DOVERLAY, 0, STATIC
        ARGFRAME ISTACK, 0, STACK
        ARGFRAME PSTACK, 0, STACK
        ARGFRAME XSTACK, 22, STACK
        ARGFRAME IOVERLAY, 0, STATIC
        ARGFRAME DOVERLAY, 0, STATIC
        REQUIRE ?V0
        REQUIRE ?V1
        REQUIRE ?V2
        REQUIRE ?V3
        REQUIRE ?V4
        REQUIRE ?V5
        REQUIRE ?V6
        REQUIRE ?V7
        REQUIRE ?V8
        REQUIRE ?V9
        REQUIRE ?V10
        REQUIRE ?V11
        MOV     A,#-0x14
        LCALL   ?BANKED_ENTER_XDATA
          CFI DPH0 load(1, XDATA, add(CFA_XSP16, literal(-1)))
          CFI DPL0 load(1, XDATA, add(CFA_XSP16, literal(-2)))
          CFI ?BRET_EXT load(1, XDATA, add(CFA_XSP16, literal(-3)))
          CFI ?RET_HIGH load(1, XDATA, add(CFA_XSP16, literal(-4)))
          CFI ?RET_LOW load(1, XDATA, add(CFA_XSP16, literal(-5)))
          CFI R7 load(1, XDATA, add(CFA_XSP16, literal(-6)))
          CFI V11 load(1, XDATA, add(CFA_XSP16, literal(-7)))
          CFI V10 load(1, XDATA, add(CFA_XSP16, literal(-8)))
          CFI V9 load(1, XDATA, add(CFA_XSP16, literal(-9)))
          CFI V8 load(1, XDATA, add(CFA_XSP16, literal(-10)))
          CFI V7 load(1, XDATA, add(CFA_XSP16, literal(-11)))
          CFI V6 load(1, XDATA, add(CFA_XSP16, literal(-12)))
          CFI V5 load(1, XDATA, add(CFA_XSP16, literal(-13)))
          CFI V4 load(1, XDATA, add(CFA_XSP16, literal(-14)))
          CFI V3 load(1, XDATA, add(CFA_XSP16, literal(-15)))
          CFI V2 load(1, XDATA, add(CFA_XSP16, literal(-16)))
          CFI V1 load(1, XDATA, add(CFA_XSP16, literal(-17)))
          CFI V0 load(1, XDATA, add(CFA_XSP16, literal(-18)))
          CFI VB load(1, XDATA, add(CFA_XSP16, literal(-19)))
          CFI R6 load(1, XDATA, add(CFA_XSP16, literal(-20)))
          CFI CFA_SP SP+0
          CFI CFA_XSP16 add(XSP16, 20)
        ; Saved register size: 20
        ; Auto size: 0
        MOV     ?V2,R2
        MOV     ?V3,R3
        MOV     A,R1
        MOV     R6,A
//  933   uint8 *pBuf = ZDP_TmpBuf;
        LCALL   ?Subroutine42 & 0xFFFF
//  934   uint8 i, len;
//  935 
//  936   if ( Status == ZDP_SUCCESS && pSimpleDesc )
??CrossCallReturnLabel_165:
        MOV     A,R4
        ADD     A,#0x9
        MOV     R0,A
        CLR     A
        ADDC    A,R5
        MOV     R1,A
        MOV     ?V4,R0
        MOV     ?V5,R1
        MOV     A,R4
        ADD     A,#0x6
        MOV     R0,A
        CLR     A
        ADDC    A,R5
        MOV     R1,A
        MOV     ?V6,R0
        MOV     ?V7,R1
        MOV     A,R6
        JNZ     ??ZDP_SimpleDescMsg_0
        MOV     A,R4
        ORL     A,R5
        JZ      ??ZDP_SimpleDescMsg_0
//  937   {
//  938     // Status + NWKAddrOfInterest + desc length + empty simple descriptor.
//  939     len = 1 + 2 + 1 + 8;
//  940     len += (pSimpleDesc->AppNumInClusters + pSimpleDesc->AppNumOutClusters) * sizeof ( uint16 );
        MOV     DPL,?V4
        MOV     DPH,?V5
        MOVX    A,@DPTR
        MOV     R0,A
        MOV     DPL,?V6
        MOV     DPH,R1
        MOVX    A,@DPTR
        ADD     A,R0
        CLR     C
        RLC     A
        ADD     A,#0xc
        MOV     R2,A
//  941   }
//  942   else
//  943   {
//  944     len = 1 + 2 + 1; // Status + desc length
//  945   }
//  946   if ( len >= ZDP_BUF_SZ-1 )
        CLR     C
        SUBB    A,#0x4f
        JC      ??ZDP_SimpleDescMsg_1
//  947   {
//  948     return afStatus_MEM_FAIL;
        MOV     R1,#0x10
        LJMP    ??ZDP_SimpleDescMsg_2 & 0xFFFF
//  949   }
??ZDP_SimpleDescMsg_0:
        MOV     R2,#0x4
//  950 
//  951   *pBuf++ = Status;
??ZDP_SimpleDescMsg_1:
        MOV     A,R6
        MOV     DPL,?V0
        MOV     DPH,?V1
        MOVX    @DPTR,A
//  952 
//  953   *pBuf++ = LO_UINT16( ZDAppNwkAddr.addr.shortAddr );
        MOV     DPTR,#ZDAppNwkAddr
        LCALL   ?Subroutine63 & 0xFFFF
??CrossCallReturnLabel_102:
        MOVX    @DPTR,A
//  954   *pBuf++ = HI_UINT16( ZDAppNwkAddr.addr.shortAddr );
        MOV     DPTR,#ZDAppNwkAddr + 1
        LCALL   ?Subroutine41 & 0xFFFF
??CrossCallReturnLabel_54:
        MOVX    @DPTR,A
//  955 
//  956   if ( len > 4 )
        MOV     A,?V0
        ADD     A,#0x3
        MOV     DPL,A
        CLR     A
        ADDC    A,?V1
        MOV     DPH,A
        MOV     A,R2
        CLR     C
        SUBB    A,#0x5
        JNC     $+5
        LJMP    ??ZDP_SimpleDescMsg_3 & 0xFFFF
//  957   {
//  958     *pBuf++ = len - 4;   // Simple descriptor length
        MOV     A,#-0x4
        ADD     A,R2
        LCALL   ?Subroutine86 & 0xFFFF
//  959 
//  960     *pBuf++ = pSimpleDesc->EndPoint;
??CrossCallReturnLabel_171:
        LCALL   ?Subroutine41 & 0xFFFF
??CrossCallReturnLabel_55:
        LCALL   ?Subroutine33 & 0xFFFF
//  961     *pBuf++ = LO_UINT16( pSimpleDesc->AppProfId );
??CrossCallReturnLabel_167:
        MOV     R0,DPL
        MOV     R1,DPH
        LCALL   ?Subroutine93 & 0xFFFF
??CrossCallReturnLabel_148:
        LCALL   ?Subroutine11 & 0xFFFF
//  962     *pBuf++ = HI_UINT16( pSimpleDesc->AppProfId );
??CrossCallReturnLabel_2:
        MOVX    @DPTR,A
//  963     *pBuf++ = LO_UINT16( pSimpleDesc->AppDeviceId );
        MOV     A,R4
        ADD     A,#0x3
        MOV     R0,A
        CLR     A
        ADDC    A,R5
        MOV     R1,A
        MOV     DPL,R0
        MOV     DPH,R1
        LCALL   ?Subroutine41 & 0xFFFF
??CrossCallReturnLabel_56:
        LCALL   ?Subroutine11 & 0xFFFF
//  964     *pBuf++ = HI_UINT16( pSimpleDesc->AppDeviceId );
??CrossCallReturnLabel_3:
        LCALL   ?Subroutine33 & 0xFFFF
//  965 
//  966     *pBuf++ = (byte)(pSimpleDesc->AppDevVer & 0x0F);
??CrossCallReturnLabel_168:
        INC     DPTR
        INC     DPTR
        INC     DPTR
        INC     DPTR
        MOVX    A,@DPTR
        ANL     A,#0xf
        MOV     DPL,?V0
        MOV     DPH,?V1
        INC     DPTR
        INC     DPTR
        INC     DPTR
        INC     DPTR
        INC     DPTR
        INC     DPTR
        INC     DPTR
        INC     DPTR
        INC     DPTR
        MOVX    @DPTR,A
//  967 
//  968     *pBuf++ = pSimpleDesc->AppNumInClusters;
        MOV     DPL,?V6
        MOV     DPH,?V7
        LCALL   ?Subroutine41 & 0xFFFF
??CrossCallReturnLabel_57:
        INC     DPTR
        INC     DPTR
        INC     DPTR
        INC     DPTR
        INC     DPTR
        INC     DPTR
        INC     DPTR
        INC     DPTR
        MOVX    @DPTR,A
        MOV     A,?V0
        ADD     A,#0xb
        MOV     ?V0,A
        JNC     ??ZDP_SimpleDescMsg_4
        INC     ?V1
//  969     if ( pSimpleDesc->AppNumInClusters )
??ZDP_SimpleDescMsg_4:
        MOV     DPL,?V6
        MOV     DPH,?V7
        MOVX    A,@DPTR
        JZ      ??ZDP_SimpleDescMsg_5
//  970     {
//  971       for (i=0; i<pSimpleDesc->AppNumInClusters; ++i)
        MOV     R3,#0x0
        MOV     A,R4
        ADD     A,#0x7
        MOV     R0,A
        CLR     A
        ADDC    A,R5
        MOV     R1,A
        MOV     ?V8,R0
        MOV     ?V9,R1
        SJMP    ??ZDP_SimpleDescMsg_6
//  972       {
//  973         *pBuf++ = LO_UINT16( pSimpleDesc->pAppInClusterList[i] );
??ZDP_SimpleDescMsg_7:
        MOV     A,R3
        ADD     A,0xE0 /* A   */
        MOV     R0,A
        CLR     A
        RLC     A
        MOV     R1,A
        MOV     DPL,?V8
        MOV     DPH,?V9
        LCALL   ?Subroutine43 & 0xFFFF
//  974         *pBuf++ = HI_UINT16( pSimpleDesc->pAppInClusterList[i] );
??CrossCallReturnLabel_58:
        MOV     DPL,?V8
        MOV     DPH,?V9
        LCALL   ?Subroutine16 & 0xFFFF
//  975       }
??CrossCallReturnLabel_180:
        JNC     ??ZDP_SimpleDescMsg_8
        INC     ?V1
??ZDP_SimpleDescMsg_8:
        INC     R3
??ZDP_SimpleDescMsg_6:
        MOV     DPL,?V6
        MOV     DPH,?V7
        MOVX    A,@DPTR
        MOV     R0,A
        MOV     A,R3
        CLR     C
        SUBB    A,R0
        JC      ??ZDP_SimpleDescMsg_7
//  976     }
//  977 
//  978     *pBuf++ = pSimpleDesc->AppNumOutClusters;
??ZDP_SimpleDescMsg_5:
        MOV     DPL,?V4
        MOV     DPH,?V5
        LCALL   ?Subroutine64 & 0xFFFF
??CrossCallReturnLabel_104:
        INC     DPTR
        MOV     ?V0,DPL
        MOV     ?V1,DPH
//  979     if ( pSimpleDesc->AppNumOutClusters )
        MOV     DPL,?V4
        MOV     DPH,?V5
        MOVX    A,@DPTR
        JZ      ??ZDP_SimpleDescMsg_9
//  980     {
//  981       for (i=0; i<pSimpleDesc->AppNumOutClusters; ++i)
        MOV     R3,#0x0
        MOV     A,R4
        ADD     A,#0xa
        MOV     R0,A
        CLR     A
        ADDC    A,R5
        MOV     R1,A
        MOV     A,R0
        MOV     R4,A
        MOV     A,R1
        MOV     R5,A
??ZDP_SimpleDescMsg_10:
        MOV     DPL,?V4
        MOV     DPH,?V5
        MOVX    A,@DPTR
        MOV     R0,A
        MOV     A,R3
        CLR     C
        SUBB    A,R0
        JNC     ??ZDP_SimpleDescMsg_9
//  982       {
//  983         *pBuf++ = LO_UINT16( pSimpleDesc->pAppOutClusterList[i] );
        MOV     A,R3
        ADD     A,0xE0 /* A   */
        MOV     R0,A
        CLR     A
        RLC     A
        MOV     R1,A
        MOV     DPL,R4
        MOV     DPH,R5
        LCALL   ?Subroutine43 & 0xFFFF
//  984         *pBuf++ = HI_UINT16( pSimpleDesc->pAppOutClusterList[i] );
??CrossCallReturnLabel_59:
        MOV     DPL,R4
        MOV     DPH,R5
        LCALL   ?Subroutine16 & 0xFFFF
//  985       }
??CrossCallReturnLabel_181:
        JNC     ??ZDP_SimpleDescMsg_11
        INC     ?V1
??ZDP_SimpleDescMsg_11:
        INC     R3
        SJMP    ??ZDP_SimpleDescMsg_10
//  986     }
//  987   }
//  988 
//  989   else
//  990   {
//  991     *pBuf = 0; // Description Length = 0;
??ZDP_SimpleDescMsg_3:
        CLR     A
        MOVX    @DPTR,A
//  992   }
//  993 
//  994   return fillAndSend( &(inMsg->TransSeq), &(inMsg->srcAddr), Simple_Desc_rsp, len );
??ZDP_SimpleDescMsg_9:
        ; Setup parameters for call to function fillAndSend
        MOV     ?V0,#0x4
        MOV     ?V1,#-0x80
        MOV     R0,#?V0
        LCALL   ?PUSH_XSTACK_I_TWO
          CFI CFA_XSP16 add(XSP16, 22)
        MOV     A,R2
        MOV     R1,A
        MOV     A,?V2
        ADD     A,#0x2
        MOV     R4,A
        CLR     A
        ADDC    A,?V3
        MOV     R5,A
        MOV     A,?V2
        ADD     A,#0xf
        MOV     R2,A
        CLR     A
        ADDC    A,?V3
        MOV     R3,A
        LCALL   `??fillAndSend::?relay`; Banked call to: fillAndSend
        MOV     A,#0x2
        LCALL   ?DEALLOC_XSTACK8
          CFI CFA_XSP16 add(XSP16, 20)
??ZDP_SimpleDescMsg_2:
          CFI EndBlock cfiBlock115
        REQUIRE ?Subroutine5
        ; // Fall through to label ?Subroutine5
//  995 }

        RSEG BANKED_CODE:CODE:NOROOT(0)
?Subroutine5:
          CFI Block cfiBlock116 Using cfiCommon0
          CFI NoFunction
          CFI CFA_SP SP+0
          CFI CFA_XSP16 add(XSP16, 20)
          CFI VB load(1, XDATA, add(CFA_XSP16, literal(-19)))
          CFI DPL0 load(1, XDATA, add(CFA_XSP16, literal(-2)))
