///////////////////////////////////////////////////////////////////////////////
//
// IAR C/C++ Compiler V9.30.1.3056 for 8051               03/Nov/2017  19:06:24
// Copyright 2004-2015 IAR Systems AB.
// Standalone license - IAR Embedded Workbench for 8051
//
//    Core               =  plain
//    Code model         =  banked
//    Data model         =  large
//    Calling convention =  xdata reentrant
//    Constant location  =  data_rom
//    Dptr setup         =  1,16
//                          
//    Source file        =  
//        C:\Texas Instruments\Z-Stack 3.0.0\Components\stack\zdo\ZDSecMgr.c
//    Command line       =  
//        -f "C:\Texas Instruments\Z-Stack
//        3.0.0\Projects\zstack\HomeAutomation\GenericApp\CC2530DB\..\..\..\Tools\CC2530DB\f8wEndev.cfg"
//        (-DCPU32MHZ -DROOT=__near_func -DMAC_CFG_TX_DATA_MAX=3
//        -DMAC_CFG_TX_MAX=6 -DMAC_CFG_RX_MAX=3) -f "C:\Texas
//        Instruments\Z-Stack
//        3.0.0\Projects\zstack\HomeAutomation\GenericApp\CC2530DB\..\..\..\Tools\CC2530DB\f8wConfig.cfg"
//        (-DZIGBEEPRO -DSECURE=1 -DZG_SECURE_DYNAMIC=0 -DREFLECTOR
//        -DDEFAULT_CHANLIST=0x00000800 -DZDAPP_CONFIG_PAN_ID=0xFFFF
//        -DNWK_START_DELAY=100 -DEXTENDED_JOINING_RANDOM_MASK=0x007F
//        -DBEACON_REQUEST_DELAY=100 -DBEACON_REQ_DELAY_MASK=0x00FF
//        -DLINK_STATUS_JITTER_MASK=0x007F -DROUTE_EXPIRY_TIME=30
//        -DAPSC_ACK_WAIT_DURATION_POLLED=3000 -DNWK_INDIRECT_MSG_TIMEOUT=7
//        -DMAX_RREQ_ENTRIES=8 -DAPSC_MAX_FRAME_RETRIES=3
//        -DNWK_MAX_DATA_RETRIES=2 -DMAX_POLL_FAILURE_RETRIES=2 -DMAX_BCAST=9
//        -DAPS_MAX_GROUPS=16 -DMAX_RTG_ENTRIES=40 -DNWK_MAX_BINDING_ENTRIES=4
//        -DMAX_BINDING_CLUSTER_IDS=4 -DDEFAULT_KEY={0}
//        -DMAC_MAX_FRAME_SIZE=116 -DZDNWKMGR_MIN_TRANSMISSIONS=20
//        "-DCONST=const __code" -DGENERIC=__generic -DRFD_RCVC_ALWAYS_ON=FALSE
//        -DPOLL_RATE=1000 -DQUEUED_POLL_RATE=100 -DRESPONSE_POLL_RATE=100
//        -DREJOIN_POLL_RATE=440 -DREJOIN_BACKOFF=900000 -DREJOIN_SCAN=900000
//        -DENABLE_LED4_DISABLE_S1) -f "C:\Texas Instruments\Z-Stack
//        3.0.0\Projects\zstack\HomeAutomation\GenericApp\CC2530DB\..\..\..\Tools\CC2530DB\f8wZCL.cfg"
//        "C:\Texas Instruments\Z-Stack 3.0.0\Components\stack\zdo\ZDSecMgr.c"
//        -D SECURE=1 -D TC_LINKKEY_JOIN -D NV_INIT -D NV_RESTORE -D
//        xPOWER_SAVING -D NWK_AUTO_POLL -D xZTOOL_P1 -D xMT_TASK -D
//        xMT_APP_FUNC -D xMT_SYS_FUNC -D xMT_ZDO_FUNC -D xMT_ZDO_MGMT -D
//        xMT_APP_CNF_FUNC -D LEGACY_LCD_DEBUG -D LCD_SUPPORTED=DEBUG -D
//        MULTICAST_ENABLED=FALSE -D ZCL_READ -D ZCL_WRITE -D ZCL_BASIC -D
//        ZCL_IDENTIFY -D ZCL_SCENES -D ZCL_GROUPS -lC "C:\Texas
//        Instruments\Z-Stack
//        3.0.0\Projects\zstack\HomeAutomation\GenericApp\CC2530DB\EndDeviceEB\List"
//        -lA "C:\Texas Instruments\Z-Stack
//        3.0.0\Projects\zstack\HomeAutomation\GenericApp\CC2530DB\EndDeviceEB\List"
//        --diag_suppress Pe001,Pa010 -o "C:\Texas Instruments\Z-Stack
//        3.0.0\Projects\zstack\HomeAutomation\GenericApp\CC2530DB\EndDeviceEB\Obj"
//        -e --debug --core=plain --dptr=16,1 --data_model=large
//        --code_model=banked --calling_convention=xdata_reentrant
//        --place_constants=data_rom --nr_virtual_regs 16 -I "C:\Texas
//        Instruments\Z-Stack
//        3.0.0\Projects\zstack\HomeAutomation\GenericApp\CC2530DB\" -I
//        "C:\Texas Instruments\Z-Stack
//        3.0.0\Projects\zstack\HomeAutomation\GenericApp\CC2530DB\..\Source\"
//        -I "C:\Texas Instruments\Z-Stack
//        3.0.0\Projects\zstack\HomeAutomation\GenericApp\CC2530DB\..\..\Source\"
//        -I "C:\Texas Instruments\Z-Stack
//        3.0.0\Projects\zstack\HomeAutomation\GenericApp\CC2530DB\..\..\..\ZMain\TI2530DB\"
//        -I "C:\Texas Instruments\Z-Stack
//        3.0.0\Projects\zstack\HomeAutomation\GenericApp\CC2530DB\..\..\..\..\..\Components\hal\include\"
//        -I "C:\Texas Instruments\Z-Stack
//        3.0.0\Projects\zstack\HomeAutomation\GenericApp\CC2530DB\..\..\..\..\..\Components\hal\target\CC2530EB\"
//        -I "C:\Texas Instruments\Z-Stack
//        3.0.0\Projects\zstack\HomeAutomation\GenericApp\CC2530DB\..\..\..\..\..\Components\mac\include\"
//        -I "C:\Texas Instruments\Z-Stack
//        3.0.0\Projects\zstack\HomeAutomation\GenericApp\CC2530DB\..\..\..\..\..\Components\mac\high_level\"
//        -I "C:\Texas Instruments\Z-Stack
//        3.0.0\Projects\zstack\HomeAutomation\GenericApp\CC2530DB\..\..\..\..\..\Components\mac\low_level\srf04\"
//        -I "C:\Texas Instruments\Z-Stack
//        3.0.0\Projects\zstack\HomeAutomation\GenericApp\CC2530DB\..\..\..\..\..\Components\mac\low_level\srf04\single_chip\"
//        -I "C:\Texas Instruments\Z-Stack
//        3.0.0\Projects\zstack\HomeAutomation\GenericApp\CC2530DB\..\..\..\..\..\Components\mt\"
//        -I "C:\Texas Instruments\Z-Stack
//        3.0.0\Projects\zstack\HomeAutomation\GenericApp\CC2530DB\..\..\..\..\..\Components\osal\include\"
//        -I "C:\Texas Instruments\Z-Stack
//        3.0.0\Projects\zstack\HomeAutomation\GenericApp\CC2530DB\..\..\..\..\..\Components\services\saddr\"
//        -I "C:\Texas Instruments\Z-Stack
//        3.0.0\Projects\zstack\HomeAutomation\GenericApp\CC2530DB\..\..\..\..\..\Components\services\sdata\"
//        -I "C:\Texas Instruments\Z-Stack
//        3.0.0\Projects\zstack\HomeAutomation\GenericApp\CC2530DB\..\..\..\..\..\Components\stack\af\"
//        -I "C:\Texas Instruments\Z-Stack
//        3.0.0\Projects\zstack\HomeAutomation\GenericApp\CC2530DB\..\..\..\..\..\Components\stack\bdb\"
//        -I "C:\Texas Instruments\Z-Stack
//        3.0.0\Projects\zstack\HomeAutomation\GenericApp\CC2530DB\..\..\..\..\..\Components\stack\gp\"
//        -I "C:\Texas Instruments\Z-Stack
//        3.0.0\Projects\zstack\HomeAutomation\GenericApp\CC2530DB\..\..\..\..\..\Components\stack\nwk\"
//        -I "C:\Texas Instruments\Z-Stack
//        3.0.0\Projects\zstack\HomeAutomation\GenericApp\CC2530DB\..\..\..\..\..\Components\stack\sapi\"
//        -I "C:\Texas Instruments\Z-Stack
//        3.0.0\Projects\zstack\HomeAutomation\GenericApp\CC2530DB\..\..\..\..\..\Components\stack\sec\"
//        -I "C:\Texas Instruments\Z-Stack
//        3.0.0\Projects\zstack\HomeAutomation\GenericApp\CC2530DB\..\..\..\..\..\Components\stack\sys\"
//        -I "C:\Texas Instruments\Z-Stack
//        3.0.0\Projects\zstack\HomeAutomation\GenericApp\CC2530DB\..\..\..\..\..\Components\stack\zcl\"
//        -I "C:\Texas Instruments\Z-Stack
//        3.0.0\Projects\zstack\HomeAutomation\GenericApp\CC2530DB\..\..\..\..\..\Components\stack\zdo\"
//        -I "C:\Texas Instruments\Z-Stack
//        3.0.0\Projects\zstack\HomeAutomation\GenericApp\CC2530DB\..\..\..\..\..\Components\zmac\"
//        -I "C:\Texas Instruments\Z-Stack
//        3.0.0\Projects\zstack\HomeAutomation\GenericApp\CC2530DB\..\..\..\..\..\Components\zmac\f8w\"
//        -Ohz --require_prototypes
//    List file          =  
//        C:\Texas Instruments\Z-Stack
//        3.0.0\Projects\zstack\HomeAutomation\GenericApp\CC2530DB\EndDeviceEB\List\ZDSecMgr.s51
//
///////////////////////////////////////////////////////////////////////////////

        NAME ZDSecMgr

        RTMODEL "__SystemLibrary", "CLib"
        RTMODEL "__calling_convention", "xdata_reentrant"
        RTMODEL "__code_model", "banked"
        RTMODEL "__core", "plain"
        RTMODEL "__data_model", "large"
        RTMODEL "__dptr_size", "16"
        RTMODEL "__extended_stack", "disabled"
        RTMODEL "__location_for_constants", "data"
        RTMODEL "__number_of_dptrs", "1"
        RTMODEL "__rt_version", "1"

        RSEG DOVERLAY:DATA:NOROOT(0)
        RSEG IOVERLAY:IDATA:NOROOT(0)
        RSEG ISTACK:IDATA:NOROOT(0)
        RSEG PSTACK:XDATA:NOROOT(0)
        RSEG XSTACK:XDATA:NOROOT(0)

        EXTERN ?V0
        EXTERN ?V1
        EXTERN ?V2
        EXTERN ?V4
        EXTERN ?V5
        EXTERN ?V6
        EXTERN ?V7
        EXTERN ?V3
        EXTERN ?V8
        EXTERN ?V9
        EXTERN ?ALLOC_XSTACK8
        EXTERN ?BANKED_ENTER_XDATA
        EXTERN ?BANKED_LEAVE_XDATA
        EXTERN ?BDISPATCH
        EXTERN ?BRET
        EXTERN ?CALL_IND
        EXTERN ?DEALLOC_XSTACK8
        EXTERN ?L_ADD_TO_X
        EXTERN ?L_ADD_X
        EXTERN ?L_MOV_TO_X
        EXTERN ?L_MOV_X
        EXTERN ?MOVE_LONG8_XDATA_XDATA
        EXTERN ?PUSH_XSTACK8_X_TWO
        EXTERN ?PUSH_XSTACK_I_THREE
        EXTERN ?PUSH_XSTACK_I_TWO
        EXTERN ?UL_DIV_MOD
        EXTERN ?UL_GE_X
        EXTERN ?VB
        EXTERN ?XLOAD_R0123
        EXTERN ?XSP
        EXTERN ?XSTACK_DISP0_8
        EXTERN ?XSTACK_DISP100_8
        EXTERN ?XSTACK_DISP101_8
        EXTERN ?XSTACK_DISP102_8
        EXTERN ?XSTORE_R0123
        EXTERN __INIT_XDATA_I
        EXTERN __INIT_XDATA_Z

        PUBLIC `??APSME_IsDefaultTCLK::?relay`
        FUNCTION `??APSME_IsDefaultTCLK::?relay`,0203H
        PUBLIC `??APSME_IsLinkKeyValid::?relay`
        FUNCTION `??APSME_IsLinkKeyValid::?relay`,0203H
        PUBLIC `??APSME_KeyFwdToChild::?relay`
        FUNCTION `??APSME_KeyFwdToChild::?relay`,0203H
        PUBLIC `??APSME_LinkKeyNVIdGet::?relay`
        FUNCTION `??APSME_LinkKeyNVIdGet::?relay`,0203H
        PUBLIC `??APSME_LinkKeySet::?relay`
        FUNCTION `??APSME_LinkKeySet::?relay`,0203H
        PUBLIC `??APSME_TCLinkKeyInit::?relay`
        FUNCTION `??APSME_TCLinkKeyInit::?relay`,0203H
        PUBLIC `??APSME_TCLinkKeyLoad::?relay`
        FUNCTION `??APSME_TCLinkKeyLoad::?relay`,0203H
        PUBLIC `??APSME_TCLinkKeySync::?relay`
        FUNCTION `??APSME_TCLinkKeySync::?relay`,0203H
        PUBLIC `??ZDSecMgrAPSRemove::?relay`
        FUNCTION `??ZDSecMgrAPSRemove::?relay`,0203H
        PUBLIC `??ZDSecMgrAddLinkKey::?relay`
        FUNCTION `??ZDSecMgrAddLinkKey::?relay`,0203H
        PUBLIC `??ZDSecMgrAddrClear::?relay`
        FUNCTION `??ZDSecMgrAddrClear::?relay`,0203H
        PUBLIC `??ZDSecMgrAddrStore::?relay`
        FUNCTION `??ZDSecMgrAddrStore::?relay`,0203H
        PUBLIC `??ZDSecMgrAppConfKeyReq::?relay`
        FUNCTION `??ZDSecMgrAppConfKeyReq::?relay`,0203H
        PUBLIC `??ZDSecMgrAppKeyGet::?relay`
        FUNCTION `??ZDSecMgrAppKeyGet::?relay`,0203H
        PUBLIC `??ZDSecMgrAppKeyReq::?relay`
        FUNCTION `??ZDSecMgrAppKeyReq::?relay`,0203H
        PUBLIC `??ZDSecMgrApsLinkKeyInit::?relay`
        FUNCTION `??ZDSecMgrApsLinkKeyInit::?relay`,0203H
        PUBLIC `??ZDSecMgrAssocDeviceAuth::?relay`
        FUNCTION `??ZDSecMgrAssocDeviceAuth::?relay`,0203H
        PUBLIC `??ZDSecMgrAuthNwkKey::?relay`
        FUNCTION `??ZDSecMgrAuthNwkKey::?relay`,0203H
        PUBLIC `??ZDSecMgrAuthenticationCheck::?relay`
        FUNCTION `??ZDSecMgrAuthenticationCheck::?relay`,0203H
        PUBLIC `??ZDSecMgrAuthenticationSet::?relay`
        FUNCTION `??ZDSecMgrAuthenticationSet::?relay`,0203H
        PUBLIC `??ZDSecMgrClearNVKeyValues::?relay`
        FUNCTION `??ZDSecMgrClearNVKeyValues::?relay`,0203H
        PUBLIC `??ZDSecMgrConfig::?relay`
        FUNCTION `??ZDSecMgrConfig::?relay`,0203H
        PUBLIC `??ZDSecMgrDeviceJoin::?relay`
        FUNCTION `??ZDSecMgrDeviceJoin::?relay`,0203H
        PUBLIC `??ZDSecMgrDeviceJoinDirect::?relay`
        FUNCTION `??ZDSecMgrDeviceJoinDirect::?relay`,0203H
        PUBLIC `??ZDSecMgrDeviceJoinFwd::?relay`
        FUNCTION `??ZDSecMgrDeviceJoinFwd::?relay`,0203H
        PUBLIC `??ZDSecMgrDeviceNew::?relay`
        FUNCTION `??ZDSecMgrDeviceNew::?relay`,0203H
        PUBLIC `??ZDSecMgrDeviceRemove::?relay`
        FUNCTION `??ZDSecMgrDeviceRemove::?relay`,0203H
        PUBLIC `??ZDSecMgrDeviceRemoveByExtAddr::?relay`
        FUNCTION `??ZDSecMgrDeviceRemoveByExtAddr::?relay`,0203H
        PUBLIC `??ZDSecMgrDeviceValidate::?relay`
        FUNCTION `??ZDSecMgrDeviceValidate::?relay`,0203H
        PUBLIC `??ZDSecMgrDeviceValidateRM::?relay`
        FUNCTION `??ZDSecMgrDeviceValidateRM::?relay`,0203H
        PUBLIC `??ZDSecMgrEntryFree::?relay`
        FUNCTION `??ZDSecMgrEntryFree::?relay`,0203H
        PUBLIC `??ZDSecMgrEntryInit::?relay`
        FUNCTION `??ZDSecMgrEntryInit::?relay`,0203H
        PUBLIC `??ZDSecMgrEntryLookup::?relay`
        FUNCTION `??ZDSecMgrEntryLookup::?relay`,0203H
        PUBLIC `??ZDSecMgrEntryLookupAMI::?relay`
        FUNCTION `??ZDSecMgrEntryLookupAMI::?relay`,0203H
        PUBLIC `??ZDSecMgrEntryLookupAMIGetIndex::?relay`
        FUNCTION `??ZDSecMgrEntryLookupAMIGetIndex::?relay`,0203H
        PUBLIC `??ZDSecMgrEntryLookupExt::?relay`
        FUNCTION `??ZDSecMgrEntryLookupExt::?relay`,0203H
        PUBLIC `??ZDSecMgrEntryLookupExtGetIndex::?relay`
        FUNCTION `??ZDSecMgrEntryLookupExtGetIndex::?relay`,0203H
        PUBLIC `??ZDSecMgrEntryNew::?relay`
        FUNCTION `??ZDSecMgrEntryNew::?relay`,0203H
        PUBLIC `??ZDSecMgrExtAddrLookup::?relay`
        FUNCTION `??ZDSecMgrExtAddrLookup::?relay`,0203H
        PUBLIC `??ZDSecMgrExtAddrStore::?relay`
        FUNCTION `??ZDSecMgrExtAddrStore::?relay`,0203H
        PUBLIC `??ZDSecMgrGenerateKeyFromSeed::?relay`
        FUNCTION `??ZDSecMgrGenerateKeyFromSeed::?relay`,0203H
        PUBLIC `??ZDSecMgrGenerateRndKey::?relay`
        FUNCTION `??ZDSecMgrGenerateRndKey::?relay`,0203H
        PUBLIC `??ZDSecMgrGenerateSeed::?relay`
        FUNCTION `??ZDSecMgrGenerateSeed::?relay`,0203H
        PUBLIC `??ZDSecMgrInit::?relay`
        FUNCTION `??ZDSecMgrInit::?relay`,0203H
        PUBLIC `??ZDSecMgrInitNV::?relay`
        FUNCTION `??ZDSecMgrInitNV::?relay`,0203H
        PUBLIC `??ZDSecMgrInitNVKeyTables::?relay`
        FUNCTION `??ZDSecMgrInitNVKeyTables::?relay`,0203H
        PUBLIC `??ZDSecMgrNewDeviceEvent::?relay`
        FUNCTION `??ZDSecMgrNewDeviceEvent::?relay`,0203H
        PUBLIC `??ZDSecMgrNwkKeyInit::?relay`
        FUNCTION `??ZDSecMgrNwkKeyInit::?relay`,0203H
        PUBLIC `??ZDSecMgrPermitJoining::?relay`
        FUNCTION `??ZDSecMgrPermitJoining::?relay`,0203H
        PUBLIC `??ZDSecMgrPermitJoiningTimeout::?relay`
        FUNCTION `??ZDSecMgrPermitJoiningTimeout::?relay`,0203H
        PUBLIC `??ZDSecMgrReadKeyFromNv::?relay`
        FUNCTION `??ZDSecMgrReadKeyFromNv::?relay`,0203H
        PUBLIC `??ZDSecMgrRemoveDeviceInd::?relay`
        FUNCTION `??ZDSecMgrRemoveDeviceInd::?relay`,0203H
        PUBLIC `??ZDSecMgrRequestAppKey::?relay`
        FUNCTION `??ZDSecMgrRequestAppKey::?relay`,0203H
        PUBLIC `??ZDSecMgrRequestKeyInd::?relay`
        FUNCTION `??ZDSecMgrRequestKeyInd::?relay`,0203H
        FUNCTION `??ZDSecMgrRestoreFromNV::?relay`,0203H
        PUBLIC `??ZDSecMgrSaveApsLinkKey::?relay`
        FUNCTION `??ZDSecMgrSaveApsLinkKey::?relay`,0203H
        PUBLIC `??ZDSecMgrSaveTCLinkKey::?relay`
        FUNCTION `??ZDSecMgrSaveTCLinkKey::?relay`,0203H
        PUBLIC `??ZDSecMgrSendNwkKey::?relay`
        FUNCTION `??ZDSecMgrSendNwkKey::?relay`,0203H
        PUBLIC `??ZDSecMgrSetDefaultNV::?relay`
        FUNCTION `??ZDSecMgrSetDefaultNV::?relay`,0203H
        PUBLIC `??ZDSecMgrSetupPartner::?relay`
        FUNCTION `??ZDSecMgrSetupPartner::?relay`,0203H
        PUBLIC `??ZDSecMgrSwitchKeyInd::?relay`
        FUNCTION `??ZDSecMgrSwitchKeyInd::?relay`,0203H
        PUBLIC `??ZDSecMgrTCDataLoad::?relay`
        FUNCTION `??ZDSecMgrTCDataLoad::?relay`,0203H
        PUBLIC `??ZDSecMgrTCExtAddrCheck::?relay`
        FUNCTION `??ZDSecMgrTCExtAddrCheck::?relay`,0203H
        PUBLIC `??ZDSecMgrTclkReq::?relay`
        FUNCTION `??ZDSecMgrTclkReq::?relay`,0203H
        PUBLIC `??ZDSecMgrTransportKeyInd::?relay`
        FUNCTION `??ZDSecMgrTransportKeyInd::?relay`,0203H
        PUBLIC `??ZDSecMgrUpdateDeviceInd::?relay`
        FUNCTION `??ZDSecMgrUpdateDeviceInd::?relay`,0203H
        PUBLIC `??ZDSecMgrUpdateTCAddress::?relay`
        FUNCTION `??ZDSecMgrUpdateTCAddress::?relay`,0203H
        PUBLIC `??ZDSecMgrVerifyKeyInd::?relay`
        FUNCTION `??ZDSecMgrVerifyKeyInd::?relay`,0203H
        FUNCTION `??ZDSecMgrWriteNV::?relay`,0203H
        PUBLIC APSME_IsDefaultTCLK
        FUNCTION APSME_IsDefaultTCLK,021203H
        ARGFRAME XSTACK, 0, STACK
        LOCFRAME ISTACK, 2, STACK
        PUBLIC APSME_IsLinkKeyValid
        FUNCTION APSME_IsLinkKeyValid,0a1203H
        ARGFRAME XSTACK, 0, STACK
        LOCFRAME XSTACK, 37, STACK
        PUBLIC APSME_KeyFwdToChild
        FUNCTION APSME_KeyFwdToChild,0a1203H
        ARGFRAME XSTACK, 0, STACK
        LOCFRAME XSTACK, 10, STACK
        PUBLIC APSME_LinkKeyNVIdGet
        FUNCTION APSME_LinkKeyNVIdGet,021203H
        ARGFRAME XSTACK, 33, STACK
        ARGFRAME IOVERLAY, 0, STATIC
        ARGFRAME DOVERLAY, 0, STATIC
        LOCFRAME XSTACK, 11, STACK
        PUBLIC APSME_LinkKeySet
        FUNCTION APSME_LinkKeySet,0a1203H
        ARGFRAME XSTACK, 54, STACK
        ARGFRAME IOVERLAY, 0, STATIC
        ARGFRAME DOVERLAY, 0, STATIC
        LOCFRAME XSTACK, 23, STACK
        PUBLIC APSME_TCLinkKeyInit
        FUNCTION APSME_TCLinkKeyInit,0a1203H
        ARGFRAME XSTACK, 9, STACK
        ARGFRAME IOVERLAY, 0, STATIC
        ARGFRAME DOVERLAY, 0, STATIC
        LOCFRAME XSTACK, 41, STACK
        PUBLIC APSME_TCLinkKeyLoad
        FUNCTION APSME_TCLinkKeyLoad,0a1203H
        ARGFRAME XSTACK, 0, STACK
        LOCFRAME ISTACK, 1, STACK
        LOCFRAME XSTACK, 55, STACK
        PUBLIC APSME_TCLinkKeySync
        FUNCTION APSME_TCLinkKeySync,0a1203H
        ARGFRAME XSTACK, 0, STACK
        LOCFRAME XSTACK, 45, STACK
        PUBLIC ApsLinkKeyFrmCntr
        PUBLIC TCLinkKeyFrmCntr
        PUBLIC TrustCenterLinkKey
        PUBLIC ZDSecMgrAPSRemove
        FUNCTION ZDSecMgrAPSRemove,021203H
        ARGFRAME XSTACK, 2, STACK
        LOCFRAME ISTACK, 2, STACK
        LOCFRAME XSTACK, 8, STACK
        PUBLIC ZDSecMgrAddLinkKey
        FUNCTION ZDSecMgrAddLinkKey,0a1203H
        ARGFRAME XSTACK, 2, STACK
        LOCFRAME XSTACK, 16, STACK
        PUBLIC ZDSecMgrAddrClear
        FUNCTION ZDSecMgrAddrClear,021203H
        ARGFRAME XSTACK, 33, STACK
        ARGFRAME IOVERLAY, 0, STATIC
        ARGFRAME DOVERLAY, 0, STATIC
        LOCFRAME XSTACK, 24, STACK
        PUBLIC ZDSecMgrAddrStore
        FUNCTION ZDSecMgrAddrStore,021203H
        ARGFRAME XSTACK, 56, STACK
        ARGFRAME IOVERLAY, 0, STATIC
        ARGFRAME DOVERLAY, 0, STATIC
        LOCFRAME XSTACK, 22, STACK
        PUBLIC ZDSecMgrAppConfKeyReq
        FUNCTION ZDSecMgrAppConfKeyReq,0203H
        ARGFRAME XSTACK, 0, STACK
        PUBLIC ZDSecMgrAppKeyGet
        FUNCTION ZDSecMgrAppKeyGet,021203H
        ARGFRAME XSTACK, 59, STACK
        ARGFRAME IOVERLAY, 0, STATIC
        ARGFRAME DOVERLAY, 0, STATIC
        LOCFRAME ISTACK, 3, STACK
        PUBLIC ZDSecMgrAppKeyReq
        FUNCTION ZDSecMgrAppKeyReq,0a1203H
        ARGFRAME XSTACK, 0, STACK
        ARGFRAME IOVERLAY, 0, STATIC
        ARGFRAME DOVERLAY, 0, STATIC
        LOCFRAME XSTACK, 59, STACK
        PUBLIC ZDSecMgrAppKeyType
        PUBLIC ZDSecMgrApsLinkKeyInit
        FUNCTION ZDSecMgrApsLinkKeyInit,0a1203H
        ARGFRAME XSTACK, 9, STACK
        ARGFRAME IOVERLAY, 0, STATIC
        ARGFRAME DOVERLAY, 0, STATIC
        LOCFRAME XSTACK, 40, STACK
        PUBLIC ZDSecMgrAssocDeviceAuth
        FUNCTION ZDSecMgrAssocDeviceAuth,0203H
        ARGFRAME XSTACK, 33, STACK
        ARGFRAME IOVERLAY, 0, STATIC
        ARGFRAME DOVERLAY, 0, STATIC
        LOCFRAME ISTACK, 2, STACK
        PUBLIC ZDSecMgrAuthNwkKey
        FUNCTION ZDSecMgrAuthNwkKey,021203H
        ARGFRAME XSTACK, 54, STACK
        ARGFRAME IOVERLAY, 0, STATIC
        ARGFRAME DOVERLAY, 0, STATIC
        LOCFRAME ISTACK, 2, STACK
        PUBLIC ZDSecMgrAuthenticationCheck
        FUNCTION ZDSecMgrAuthenticationCheck,0a1203H
        ARGFRAME XSTACK, 0, STACK
        LOCFRAME XSTACK, 22, STACK
        PUBLIC ZDSecMgrAuthenticationSet
        FUNCTION ZDSecMgrAuthenticationSet,021203H
        ARGFRAME XSTACK, 14, STACK
        ARGFRAME IOVERLAY, 0, STATIC
        ARGFRAME DOVERLAY, 0, STATIC
        LOCFRAME ISTACK, 1, STACK
        LOCFRAME XSTACK, 11, STACK
        PUBLIC ZDSecMgrClearNVKeyValues
        FUNCTION ZDSecMgrClearNVKeyValues,0a1203H
        ARGFRAME XSTACK, 0, STACK
        LOCFRAME XSTACK, 52, STACK
        PUBLIC ZDSecMgrConfig
        FUNCTION ZDSecMgrConfig,021203H
        ARGFRAME XSTACK, 0, STACK
        LOCFRAME ISTACK, 2, STACK
        PUBLIC ZDSecMgrDeviceJoin
        FUNCTION ZDSecMgrDeviceJoin,0a1203H
        ARGFRAME XSTACK, 32, STACK
        ARGFRAME IOVERLAY, 0, STATIC
        ARGFRAME DOVERLAY, 0, STATIC
        LOCFRAME XSTACK, 33, STACK
        PUBLIC ZDSecMgrDeviceJoinDirect
        FUNCTION ZDSecMgrDeviceJoinDirect,0a1203H
        ARGFRAME XSTACK, 0, STACK
        LOCFRAME XSTACK, 36, STACK
        PUBLIC ZDSecMgrDeviceJoinFwd
        FUNCTION ZDSecMgrDeviceJoinFwd,0a1203H
        ARGFRAME XSTACK, 0, STACK
        ARGFRAME IOVERLAY, 0, STATIC
        ARGFRAME DOVERLAY, 0, STATIC
        LOCFRAME XSTACK, 29, STACK
        PUBLIC ZDSecMgrDeviceNew
        FUNCTION ZDSecMgrDeviceNew,021203H
        ARGFRAME XSTACK, 33, STACK
        ARGFRAME IOVERLAY, 0, STATIC
        ARGFRAME DOVERLAY, 0, STATIC
        LOCFRAME ISTACK, 2, STACK
        PUBLIC ZDSecMgrDeviceRemove
        FUNCTION ZDSecMgrDeviceRemove,0a1203H
        ARGFRAME XSTACK, 30, STACK
        ARGFRAME IOVERLAY, 0, STATIC
        ARGFRAME DOVERLAY, 0, STATIC
        LOCFRAME XSTACK, 31, STACK
        PUBLIC ZDSecMgrDeviceRemoveByExtAddr
        FUNCTION ZDSecMgrDeviceRemoveByExtAddr,021203H
        ARGFRAME XSTACK, 0, STACK
        LOCFRAME XSTACK, 11, STACK
        PUBLIC ZDSecMgrDeviceValidate
        FUNCTION ZDSecMgrDeviceValidate,021203H
        ARGFRAME XSTACK, 30, STACK
        ARGFRAME IOVERLAY, 0, STATIC
        ARGFRAME DOVERLAY, 0, STATIC
        LOCFRAME ISTACK, 2, STACK
        PUBLIC ZDSecMgrDeviceValidateRM
        FUNCTION ZDSecMgrDeviceValidateRM,0203H
        ARGFRAME XSTACK, 0, STACK
        ARGFRAME IOVERLAY, 0, STATIC
        ARGFRAME DOVERLAY, 0, STATIC
        LOCFRAME ISTACK, 2, STACK
        PUBLIC ZDSecMgrEntries
        PUBLIC ZDSecMgrEntryFree
        FUNCTION ZDSecMgrEntryFree,0a1203H
        ARGFRAME XSTACK, 11, STACK
        ARGFRAME IOVERLAY, 0, STATIC
        ARGFRAME DOVERLAY, 0, STATIC
        LOCFRAME XSTACK, 24, STACK
        PUBLIC ZDSecMgrEntryInit
        FUNCTION ZDSecMgrEntryInit,021203H
        ARGFRAME XSTACK, 9, STACK
        ARGFRAME IOVERLAY, 0, STATIC
        ARGFRAME DOVERLAY, 0, STATIC
        LOCFRAME XSTACK, 9, STACK
        PUBLIC ZDSecMgrEntryLookup
        FUNCTION ZDSecMgrEntryLookup,0a1203H
        ARGFRAME XSTACK, 0, STACK
        LOCFRAME XSTACK, 22, STACK
        PUBLIC ZDSecMgrEntryLookupAMI
        FUNCTION ZDSecMgrEntryLookupAMI,080203H
        ARGFRAME XSTACK, 54, STACK
        ARGFRAME IOVERLAY, 0, STATIC
        ARGFRAME DOVERLAY, 0, STATIC
        LOCFRAME XSTACK, 9, STACK
        PUBLIC ZDSecMgrEntryLookupAMIGetIndex
        FUNCTION ZDSecMgrEntryLookupAMIGetIndex,080203H
        ARGFRAME XSTACK, 20, STACK
        ARGFRAME IOVERLAY, 0, STATIC
        ARGFRAME DOVERLAY, 0, STATIC
        LOCFRAME XSTACK, 9, STACK
        PUBLIC ZDSecMgrEntryLookupExt
        FUNCTION ZDSecMgrEntryLookupExt,0a1203H
        ARGFRAME XSTACK, 22, STACK
        ARGFRAME IOVERLAY, 0, STATIC
        ARGFRAME DOVERLAY, 0, STATIC
        LOCFRAME XSTACK, 11, STACK
        PUBLIC ZDSecMgrEntryLookupExtGetIndex
        FUNCTION ZDSecMgrEntryLookupExtGetIndex,021203H
        ARGFRAME XSTACK, 21, STACK
        ARGFRAME IOVERLAY, 0, STATIC
        ARGFRAME DOVERLAY, 0, STATIC
        LOCFRAME XSTACK, 11, STACK
        PUBLIC ZDSecMgrEntryNew
        FUNCTION ZDSecMgrEntryNew,080203H
        ARGFRAME XSTACK, 54, STACK
        ARGFRAME IOVERLAY, 0, STATIC
        ARGFRAME DOVERLAY, 0, STATIC
        LOCFRAME XSTACK, 9, STACK
        PUBLIC ZDSecMgrExtAddrLookup
        FUNCTION ZDSecMgrExtAddrLookup,021203H
        ARGFRAME XSTACK, 54, STACK
        ARGFRAME IOVERLAY, 0, STATIC
        ARGFRAME DOVERLAY, 0, STATIC
        LOCFRAME XSTACK, 22, STACK
        PUBLIC ZDSecMgrExtAddrStore
        FUNCTION ZDSecMgrExtAddrStore,021203H
        ARGFRAME XSTACK, 2, STACK
        LOCFRAME XSTACK, 22, STACK
        PUBLIC ZDSecMgrGenerateKeyFromSeed
        FUNCTION ZDSecMgrGenerateKeyFromSeed,0a1203H
        ARGFRAME XSTACK, 69, STACK
        ARGFRAME IOVERLAY, 0, STATIC
        ARGFRAME DOVERLAY, 0, STATIC
        LOCFRAME XSTACK, 38, STACK
        PUBLIC ZDSecMgrGenerateRndKey
        FUNCTION ZDSecMgrGenerateRndKey,0a1203H
        ARGFRAME XSTACK, 26, STACK
        ARGFRAME IOVERLAY, 0, STATIC
        ARGFRAME DOVERLAY, 0, STATIC
        LOCFRAME ISTACK, 1, STACK
        LOCFRAME XSTACK, 12, STACK
        PUBLIC ZDSecMgrGenerateSeed
        FUNCTION ZDSecMgrGenerateSeed,0a1203H
        ARGFRAME XSTACK, 0, STACK
        LOCFRAME XSTACK, 30, STACK
        PUBLIC ZDSecMgrInit
        FUNCTION ZDSecMgrInit,021203H
        ARGFRAME XSTACK, 0, STACK
        LOCFRAME XSTACK, 9, STACK
        PUBLIC ZDSecMgrInitNV
        FUNCTION ZDSecMgrInitNV,0a1203H
        ARGFRAME XSTACK, 0, STACK
        LOCFRAME XSTACK, 16, STACK
        PUBLIC ZDSecMgrInitNVKeyTables
        FUNCTION ZDSecMgrInitNVKeyTables,021203H
        ARGFRAME XSTACK, 0, STACK
        LOCFRAME XSTACK, 9, STACK
        PUBLIC ZDSecMgrNewDeviceEvent
        FUNCTION ZDSecMgrNewDeviceEvent,0a1203H
        ARGFRAME XSTACK, 0, STACK
        LOCFRAME ISTACK, 1, STACK
        LOCFRAME XSTACK, 33, STACK
        PUBLIC ZDSecMgrNwkKeyInit
        FUNCTION ZDSecMgrNwkKeyInit,0a1203H
        ARGFRAME XSTACK, 9, STACK
        ARGFRAME IOVERLAY, 0, STATIC
        ARGFRAME DOVERLAY, 0, STATIC
        LOCFRAME XSTACK, 66, STACK
        PUBLIC ZDSecMgrPermitJoining
        FUNCTION ZDSecMgrPermitJoining,0203H
        ARGFRAME XSTACK, 0, STACK
        LOCFRAME ISTACK, 2, STACK
        PUBLIC ZDSecMgrPermitJoiningEnabled
        PUBLIC ZDSecMgrPermitJoiningTimed
        PUBLIC ZDSecMgrPermitJoiningTimeout
        FUNCTION ZDSecMgrPermitJoiningTimeout,0203H
        ARGFRAME XSTACK, 0, STACK
        LOCFRAME ISTACK, 2, STACK
        PUBLIC ZDSecMgrReadKeyFromNv
        FUNCTION ZDSecMgrReadKeyFromNv,0a1203H
        ARGFRAME XSTACK, 54, STACK
        ARGFRAME IOVERLAY, 0, STATIC
        ARGFRAME DOVERLAY, 0, STATIC
        LOCFRAME XSTACK, 19, STACK
        PUBLIC ZDSecMgrRemoveDeviceInd
        FUNCTION ZDSecMgrRemoveDeviceInd,021203H
        ARGFRAME XSTACK, 0, STACK
        LOCFRAME XSTACK, 17, STACK
        PUBLIC ZDSecMgrRequestAppKey
        FUNCTION ZDSecMgrRequestAppKey,021203H
        ARGFRAME XSTACK, 0, STACK
        LOCFRAME ISTACK, 2, STACK
        LOCFRAME XSTACK, 4, STACK
        PUBLIC ZDSecMgrRequestKeyInd
        FUNCTION ZDSecMgrRequestKeyInd,021203H
        ARGFRAME XSTACK, 0, STACK
        LOCFRAME ISTACK, 2, STACK
        FUNCTION ZDSecMgrRestoreFromNV,0a1203H
        ARGFRAME XSTACK, 9, STACK
        ARGFRAME IOVERLAY, 0, STATIC
        ARGFRAME DOVERLAY, 0, STATIC
        LOCFRAME XSTACK, 24, STACK
        PUBLIC ZDSecMgrSaveApsLinkKey
        FUNCTION ZDSecMgrSaveApsLinkKey,0a1203H
        ARGFRAME XSTACK, 0, STACK
        LOCFRAME XSTACK, 22, STACK
        PUBLIC ZDSecMgrSaveTCLinkKey
        FUNCTION ZDSecMgrSaveTCLinkKey,0a1203H
        ARGFRAME XSTACK, 0, STACK
        LOCFRAME XSTACK, 22, STACK
        PUBLIC ZDSecMgrSendNwkKey
        FUNCTION ZDSecMgrSendNwkKey,0a1203H
        ARGFRAME XSTACK, 30, STACK
        ARGFRAME IOVERLAY, 0, STATIC
        ARGFRAME DOVERLAY, 0, STATIC
        LOCFRAME ISTACK, 1, STACK
        LOCFRAME XSTACK, 50, STACK
        PUBLIC ZDSecMgrSetDefaultNV
        FUNCTION ZDSecMgrSetDefaultNV,0a1203H
        ARGFRAME XSTACK, 0, STACK
        LOCFRAME XSTACK, 23, STACK
        PUBLIC ZDSecMgrSetupPartner
        FUNCTION ZDSecMgrSetupPartner,0a1203H
        ARGFRAME XSTACK, 0, STACK
        LOCFRAME XSTACK, 25, STACK
        PUBLIC ZDSecMgrSwitchKeyInd
        FUNCTION ZDSecMgrSwitchKeyInd,021203H
        ARGFRAME XSTACK, 0, STACK
        LOCFRAME ISTACK, 2, STACK
        PUBLIC ZDSecMgrTCAuthenticated
        PUBLIC ZDSecMgrTCDataLoad
        FUNCTION ZDSecMgrTCDataLoad,0a1203H
        ARGFRAME XSTACK, 54, STACK
        ARGFRAME IOVERLAY, 0, STATIC
        ARGFRAME DOVERLAY, 0, STATIC
        LOCFRAME XSTACK, 27, STACK
        PUBLIC ZDSecMgrTCExtAddr
        PUBLIC ZDSecMgrTCExtAddrCheck
        FUNCTION ZDSecMgrTCExtAddrCheck,021203H
        ARGFRAME XSTACK, 0, STACK
        LOCFRAME XSTACK, 17, STACK
        PUBLIC ZDSecMgrTclkReq
        FUNCTION ZDSecMgrTclkReq,0a1203H
        ARGFRAME XSTACK, 0, STACK
        ARGFRAME IOVERLAY, 0, STATIC
        ARGFRAME DOVERLAY, 0, STATIC
        LOCFRAME XSTACK, 71, STACK
        PUBLIC ZDSecMgrTransportKeyInd
        FUNCTION ZDSecMgrTransportKeyInd,0a1203H
        ARGFRAME XSTACK, 0, STACK
        LOCFRAME XSTACK, 58, STACK
        PUBLIC ZDSecMgrUpdateDeviceInd
        FUNCTION ZDSecMgrUpdateDeviceInd,021203H
        ARGFRAME XSTACK, 0, STACK
        LOCFRAME ISTACK, 2, STACK
        LOCFRAME XSTACK, 8, STACK
        PUBLIC ZDSecMgrUpdateTCAddress
        FUNCTION ZDSecMgrUpdateTCAddress,0a1203H
        ARGFRAME XSTACK, 54, STACK
        ARGFRAME IOVERLAY, 0, STATIC
        ARGFRAME DOVERLAY, 0, STATIC
        LOCFRAME XSTACK, 22, STACK
        PUBLIC ZDSecMgrVerifyKeyInd
        FUNCTION ZDSecMgrVerifyKeyInd,0203H
        ARGFRAME XSTACK, 0, STACK
        FUNCTION ZDSecMgrWriteNV,0a1203H
        ARGFRAME XSTACK, 54, STACK
        ARGFRAME IOVERLAY, 0, STATIC
        ARGFRAME DOVERLAY, 0, STATIC
        LOCFRAME XSTACK, 18, STACK
        PUBWEAK __Constant_1
        PUBWEAK __Constant_3e9
        PUBWEAK __Constant_a
        PUBWEAK __Constant_b
        PUBLIC gZDSECMGR_TC_DEVICE_IC_MAX
        PUBLIC gZDSECMGR_TC_DEVICE_MAX
        PUBLIC requestLinkKeyTimeout
        PUBLIC requestNewTrustCenterLinkKey
        
          CFI Names cfiNames0
          CFI StackFrame CFA_SP SP IDATA
          CFI StackFrame CFA_PSP16 PSP16 XDATA
          CFI StackFrame CFA_XSP16 XSP16 XDATA
          CFI StaticOverlayFrame CFA_IOVERLAY IOVERLAY
          CFI StaticOverlayFrame CFA_DOVERLAY DOVERLAY
          CFI Resource `PSW.CY`:1, `B.BR0`:1, `B.BR1`:1, `B.BR2`:1, `B.BR3`:1
          CFI Resource `B.BR4`:1, `B.BR5`:1, `B.BR6`:1, `B.BR7`:1, `VB.BR8`:1
          CFI Resource `VB.BR9`:1, `VB.BR10`:1, `VB.BR11`:1, `VB.BR12`:1
          CFI Resource `VB.BR13`:1, `VB.BR14`:1, `VB.BR15`:1, VB:8, B:8, A:8
          CFI Resource PSW:8, DPL0:8, DPH0:8, R0:8, R1:8, R2:8, R3:8, R4:8, R5:8
          CFI Resource R6:8, R7:8, V0:8, V1:8, V2:8, V3:8, V4:8, V5:8, V6:8, V7:8
          CFI Resource V8:8, V9:8, V10:8, V11:8, V12:8, V13:8, V14:8, V15:8, SP:8
          CFI Resource PSPH:8, PSPL:8, PSP16:16, XSPH:8, XSPL:8, XSP16:16
          CFI VirtualResource ?RET:24
          CFI Resource ?BRET_EXT:8
          CFI VirtualResource ?RET_HIGH:8, ?RET_LOW:8
          CFI ResourceParts PSP16 PSPH, PSPL
          CFI ResourceParts XSP16 XSPH, XSPL
          CFI ResourceParts ?RET ?BRET_EXT, ?RET_HIGH, ?RET_LOW
          CFI EndNames cfiNames0
        
          CFI Common cfiCommon0 Using cfiNames0
          CFI CodeAlign 1
          CFI DataAlign -1
          CFI ReturnAddress ?RET CODE
          CFI CFA_DOVERLAY Used
          CFI CFA_IOVERLAY Used
          CFI CFA_SP SP+-3
          CFI CFA_PSP16 PSP16+0
          CFI CFA_XSP16 XSP16+0
          CFI `PSW.CY` SameValue
          CFI `B.BR0` SameValue
          CFI `B.BR1` SameValue
          CFI `B.BR2` SameValue
          CFI `B.BR3` SameValue
          CFI `B.BR4` SameValue
          CFI `B.BR5` SameValue
          CFI `B.BR6` SameValue
          CFI `B.BR7` SameValue
          CFI `VB.BR8` SameValue
          CFI `VB.BR9` SameValue
          CFI `VB.BR10` SameValue
          CFI `VB.BR11` SameValue
          CFI `VB.BR12` SameValue
          CFI `VB.BR13` SameValue
          CFI `VB.BR14` SameValue
          CFI `VB.BR15` SameValue
          CFI VB SameValue
          CFI B Undefined
          CFI A Undefined
          CFI PSW SameValue
          CFI DPL0 SameValue
          CFI DPH0 SameValue
          CFI R0 Undefined
          CFI R1 Undefined
          CFI R2 Undefined
          CFI R3 Undefined
          CFI R4 Undefined
          CFI R5 Undefined
          CFI R6 SameValue
          CFI R7 SameValue
          CFI V0 SameValue
          CFI V1 SameValue
          CFI V2 SameValue
          CFI V3 SameValue
          CFI V4 SameValue
          CFI V5 SameValue
          CFI V6 SameValue
          CFI V7 SameValue
          CFI V8 SameValue
          CFI V9 SameValue
          CFI V10 SameValue
          CFI V11 SameValue
          CFI V12 SameValue
          CFI V13 SameValue
          CFI V14 SameValue
          CFI V15 SameValue
          CFI PSPH Undefined
          CFI PSPL Undefined
          CFI XSPH Undefined
          CFI XSPL Undefined
          CFI ?RET Concat
          CFI ?BRET_EXT Frame(CFA_SP, 3)
          CFI ?RET_HIGH Frame(CFA_SP, 2)
          CFI ?RET_LOW Frame(CFA_SP, 1)
          CFI EndCommon cfiCommon0
        
        
          CFI Common cfiCommon1 Using cfiNames0
          CFI CodeAlign 1
          CFI DataAlign -1
          CFI ReturnAddress ?RET CODE
          CFI CFA_DOVERLAY Used
          CFI CFA_IOVERLAY Used
          CFI CFA_SP SP+-2
          CFI CFA_PSP16 PSP16+0
          CFI CFA_XSP16 XSP16+0
          CFI `PSW.CY` SameValue
          CFI `B.BR0` SameValue
          CFI `B.BR1` SameValue
          CFI `B.BR2` SameValue
          CFI `B.BR3` SameValue
          CFI `B.BR4` SameValue
          CFI `B.BR5` SameValue
          CFI `B.BR6` SameValue
          CFI `B.BR7` SameValue
          CFI `VB.BR8` SameValue
          CFI `VB.BR9` SameValue
          CFI `VB.BR10` SameValue
          CFI `VB.BR11` SameValue
          CFI `VB.BR12` SameValue
          CFI `VB.BR13` SameValue
          CFI `VB.BR14` SameValue
          CFI `VB.BR15` SameValue
          CFI VB SameValue
          CFI B SameValue
          CFI A SameValue
          CFI PSW SameValue
          CFI DPL0 SameValue
          CFI DPH0 SameValue
          CFI R0 SameValue
          CFI R1 SameValue
          CFI R2 SameValue
          CFI R3 SameValue
          CFI R4 SameValue
          CFI R5 SameValue
          CFI R6 SameValue
          CFI R7 SameValue
          CFI V0 SameValue
          CFI V1 SameValue
          CFI V2 SameValue
          CFI V3 SameValue
          CFI V4 SameValue
          CFI V5 SameValue
          CFI V6 SameValue
          CFI V7 SameValue
          CFI V8 SameValue
          CFI V9 SameValue
          CFI V10 SameValue
          CFI V11 SameValue
          CFI V12 SameValue
          CFI V13 SameValue
          CFI V14 SameValue
          CFI V15 SameValue
          CFI PSPH Undefined
          CFI PSPL Undefined
          CFI XSPH Undefined
          CFI XSPL Undefined
          CFI ?RET Concat
          CFI ?BRET_EXT SameValue
          CFI ?RET_HIGH Frame(CFA_SP, 2)
          CFI ?RET_LOW Frame(CFA_SP, 1)
          CFI EndCommon cfiCommon1
        
APSME_EraseICEntry  SYMBOL "APSME_EraseICEntry"
`??APSME_EraseICEntry::?relay` SYMBOL "?relay", APSME_EraseICEntry
APSME_GetRequest    SYMBOL "APSME_GetRequest"
`??APSME_GetRequest::?relay` SYMBOL "?relay", APSME_GetRequest
APSME_IsDistributedSecurity SYMBOL "APSME_IsDistributedSecurity"
`??APSME_IsDistributedSecurity::?relay` SYMBOL "?relay", APSME_IsDistributedSecurity
APSME_LookupExtAddr SYMBOL "APSME_LookupExtAddr"
`??APSME_LookupExtAddr::?relay` SYMBOL "?relay", APSME_LookupExtAddr
APSME_LookupNwkAddr SYMBOL "APSME_LookupNwkAddr"
`??APSME_LookupNwkAddr::?relay` SYMBOL "?relay", APSME_LookupNwkAddr
APSME_RemoveDeviceReq SYMBOL "APSME_RemoveDeviceReq"
`??APSME_RemoveDeviceReq::?relay` SYMBOL "?relay", APSME_RemoveDeviceReq
APSME_RequestKeyReq SYMBOL "APSME_RequestKeyReq"
`??APSME_RequestKeyReq::?relay` SYMBOL "?relay", APSME_RequestKeyReq
APSME_SearchTCLinkKeyEntry SYMBOL "APSME_SearchTCLinkKeyEntry"
`??APSME_SearchTCLinkKeyEntry::?relay` SYMBOL "?relay", APSME_SearchTCLinkKeyEntry
APSME_SecurityCM_ED SYMBOL "APSME_SecurityCM_ED"
`??APSME_SecurityCM_ED::?relay` SYMBOL "?relay", APSME_SecurityCM_ED
APSME_SetRequest    SYMBOL "APSME_SetRequest"
`??APSME_SetRequest::?relay` SYMBOL "?relay", APSME_SetRequest
APSME_TransportKeyReq SYMBOL "APSME_TransportKeyReq"
`??APSME_TransportKeyReq::?relay` SYMBOL "?relay", APSME_TransportKeyReq
APSME_UpdateDeviceReq SYMBOL "APSME_UpdateDeviceReq"
`??APSME_UpdateDeviceReq::?relay` SYMBOL "?relay", APSME_UpdateDeviceReq
AddrMgrEntryGet     SYMBOL "AddrMgrEntryGet"
`??AddrMgrEntryGet::?relay` SYMBOL "?relay", AddrMgrEntryGet
AddrMgrEntryLookupExt SYMBOL "AddrMgrEntryLookupExt"
`??AddrMgrEntryLookupExt::?relay` SYMBOL "?relay", AddrMgrEntryLookupExt
AddrMgrEntryLookupNwk SYMBOL "AddrMgrEntryLookupNwk"
`??AddrMgrEntryLookupNwk::?relay` SYMBOL "?relay", AddrMgrEntryLookupNwk
AddrMgrEntryRelease SYMBOL "AddrMgrEntryRelease"
`??AddrMgrEntryRelease::?relay` SYMBOL "?relay", AddrMgrEntryRelease
AddrMgrEntryUpdate  SYMBOL "AddrMgrEntryUpdate"
`??AddrMgrEntryUpdate::?relay` SYMBOL "?relay", AddrMgrEntryUpdate
AddrMgrExtAddrLookup SYMBOL "AddrMgrExtAddrLookup"
`??AddrMgrExtAddrLookup::?relay` SYMBOL "?relay", AddrMgrExtAddrLookup
AddrMgrExtAddrSet   SYMBOL "AddrMgrExtAddrSet"
`??AddrMgrExtAddrSet::?relay` SYMBOL "?relay", AddrMgrExtAddrSet
AddrMgrExtAddrValid SYMBOL "AddrMgrExtAddrValid"
`??AddrMgrExtAddrValid::?relay` SYMBOL "?relay", AddrMgrExtAddrValid
AssocGetWithExt     SYMBOL "AssocGetWithExt"
`??AssocGetWithExt::?relay` SYMBOL "?relay", AssocGetWithExt
AssocGetWithShort   SYMBOL "AssocGetWithShort"
`??AssocGetWithShort::?relay` SYMBOL "?relay", AssocGetWithShort
AssocRemove         SYMBOL "AssocRemove"
`??AssocRemove::?relay` SYMBOL "?relay", AssocRemove
NLME_GetExtAddr     SYMBOL "NLME_GetExtAddr"
`??NLME_GetExtAddr::?relay` SYMBOL "?relay", NLME_GetExtAddr
NLME_GetShortAddr   SYMBOL "NLME_GetShortAddr"
`??NLME_GetShortAddr::?relay` SYMBOL "?relay", NLME_GetShortAddr
NLME_LeaveReq       SYMBOL "NLME_LeaveReq"
`??NLME_LeaveReq::?relay` SYMBOL "?relay", NLME_LeaveReq
NLME_ReadNwkKeyInfo SYMBOL "NLME_ReadNwkKeyInfo"
`??NLME_ReadNwkKeyInfo::?relay` SYMBOL "?relay", NLME_ReadNwkKeyInfo
SSP_GetTrueRand     SYMBOL "SSP_GetTrueRand"
`??SSP_GetTrueRand::?relay` SYMBOL "?relay", SSP_GetTrueRand
SSP_Init            SYMBOL "SSP_Init"
`??SSP_Init::?relay` SYMBOL "?relay", SSP_Init
SSP_SwitchNwkKey    SYMBOL "SSP_SwitchNwkKey"
`??SSP_SwitchNwkKey::?relay` SYMBOL "?relay", SSP_SwitchNwkKey
SSP_UpdateNwkKey    SYMBOL "SSP_UpdateNwkKey"
`??SSP_UpdateNwkKey::?relay` SYMBOL "?relay", SSP_UpdateNwkKey
ZDApp_NVUpdate      SYMBOL "ZDApp_NVUpdate"
`??ZDApp_NVUpdate::?relay` SYMBOL "?relay", ZDApp_NVUpdate
ZDP_IEEEAddrReq     SYMBOL "ZDP_IEEEAddrReq"
`??ZDP_IEEEAddrReq::?relay` SYMBOL "?relay", ZDP_IEEEAddrReq
ZDP_NwkAddrReq      SYMBOL "ZDP_NwkAddrReq"
`??ZDP_NwkAddrReq::?relay` SYMBOL "?relay", ZDP_NwkAddrReq
bdb_tcLinkKeyExchangeAttempt SYMBOL "bdb_tcLinkKeyExchangeAttempt"
`??bdb_tcLinkKeyExchangeAttempt::?relay` SYMBOL "?relay", bdb_tcLinkKeyExchangeAttempt
osal_isbufset       SYMBOL "osal_isbufset"
`??osal_isbufset::?relay` SYMBOL "?relay", osal_isbufset
osal_mem_alloc      SYMBOL "osal_mem_alloc"
`??osal_mem_alloc::?relay` SYMBOL "?relay", osal_mem_alloc
osal_mem_free       SYMBOL "osal_mem_free"
`??osal_mem_free::?relay` SYMBOL "?relay", osal_mem_free
osal_memcmp         SYMBOL "osal_memcmp"
`??osal_memcmp::?relay` SYMBOL "?relay", osal_memcmp
osal_memcpy         SYMBOL "osal_memcpy"
`??osal_memcpy::?relay` SYMBOL "?relay", osal_memcpy
osal_memset         SYMBOL "osal_memset"
`??osal_memset::?relay` SYMBOL "?relay", osal_memset
osal_nv_item_init   SYMBOL "osal_nv_item_init"
`??osal_nv_item_init::?relay` SYMBOL "?relay", osal_nv_item_init
osal_nv_read        SYMBOL "osal_nv_read"
`??osal_nv_read::?relay` SYMBOL "?relay", osal_nv_read
osal_nv_write       SYMBOL "osal_nv_write"
`??osal_nv_write::?relay` SYMBOL "?relay", osal_nv_write
osal_rand           SYMBOL "osal_rand"
`??osal_rand::?relay` SYMBOL "?relay", osal_rand
osal_set_event      SYMBOL "osal_set_event"
`??osal_set_event::?relay` SYMBOL "?relay", osal_set_event
sAddrExtCmp         SYMBOL "sAddrExtCmp"
`??sAddrExtCmp::?relay` SYMBOL "?relay", sAddrExtCmp
sAddrExtCpy         SYMBOL "sAddrExtCpy"
`??sAddrExtCpy::?relay` SYMBOL "?relay", sAddrExtCpy
zgReadStartupOptions SYMBOL "zgReadStartupOptions"
`??zgReadStartupOptions::?relay` SYMBOL "?relay", zgReadStartupOptions
APSME_IsDefaultTCLK SYMBOL "APSME_IsDefaultTCLK"
`??APSME_IsDefaultTCLK::?relay` SYMBOL "?relay", APSME_IsDefaultTCLK
APSME_IsLinkKeyValid SYMBOL "APSME_IsLinkKeyValid"
`??APSME_IsLinkKeyValid::?relay` SYMBOL "?relay", APSME_IsLinkKeyValid
APSME_KeyFwdToChild SYMBOL "APSME_KeyFwdToChild"
`??APSME_KeyFwdToChild::?relay` SYMBOL "?relay", APSME_KeyFwdToChild
APSME_LinkKeyNVIdGet SYMBOL "APSME_LinkKeyNVIdGet"
`??APSME_LinkKeyNVIdGet::?relay` SYMBOL "?relay", APSME_LinkKeyNVIdGet
APSME_LinkKeySet    SYMBOL "APSME_LinkKeySet"
`??APSME_LinkKeySet::?relay` SYMBOL "?relay", APSME_LinkKeySet
APSME_TCLinkKeyInit SYMBOL "APSME_TCLinkKeyInit"
`??APSME_TCLinkKeyInit::?relay` SYMBOL "?relay", APSME_TCLinkKeyInit
APSME_TCLinkKeyLoad SYMBOL "APSME_TCLinkKeyLoad"
`??APSME_TCLinkKeyLoad::?relay` SYMBOL "?relay", APSME_TCLinkKeyLoad
APSME_TCLinkKeySync SYMBOL "APSME_TCLinkKeySync"
`??APSME_TCLinkKeySync::?relay` SYMBOL "?relay", APSME_TCLinkKeySync
ZDSecMgrAPSRemove   SYMBOL "ZDSecMgrAPSRemove"
`??ZDSecMgrAPSRemove::?relay` SYMBOL "?relay", ZDSecMgrAPSRemove
ZDSecMgrAddLinkKey  SYMBOL "ZDSecMgrAddLinkKey"
`??ZDSecMgrAddLinkKey::?relay` SYMBOL "?relay", ZDSecMgrAddLinkKey
ZDSecMgrAddrClear   SYMBOL "ZDSecMgrAddrClear"
`??ZDSecMgrAddrClear::?relay` SYMBOL "?relay", ZDSecMgrAddrClear
ZDSecMgrAddrStore   SYMBOL "ZDSecMgrAddrStore"
`??ZDSecMgrAddrStore::?relay` SYMBOL "?relay", ZDSecMgrAddrStore
ZDSecMgrAppConfKeyReq SYMBOL "ZDSecMgrAppConfKeyReq"
`??ZDSecMgrAppConfKeyReq::?relay` SYMBOL "?relay", ZDSecMgrAppConfKeyReq
ZDSecMgrAppKeyGet   SYMBOL "ZDSecMgrAppKeyGet"
`??ZDSecMgrAppKeyGet::?relay` SYMBOL "?relay", ZDSecMgrAppKeyGet
ZDSecMgrAppKeyReq   SYMBOL "ZDSecMgrAppKeyReq"
`??ZDSecMgrAppKeyReq::?relay` SYMBOL "?relay", ZDSecMgrAppKeyReq
ZDSecMgrApsLinkKeyInit SYMBOL "ZDSecMgrApsLinkKeyInit"
`??ZDSecMgrApsLinkKeyInit::?relay` SYMBOL "?relay", ZDSecMgrApsLinkKeyInit
ZDSecMgrAssocDeviceAuth SYMBOL "ZDSecMgrAssocDeviceAuth"
`??ZDSecMgrAssocDeviceAuth::?relay` SYMBOL "?relay", ZDSecMgrAssocDeviceAuth
ZDSecMgrAuthNwkKey  SYMBOL "ZDSecMgrAuthNwkKey"
`??ZDSecMgrAuthNwkKey::?relay` SYMBOL "?relay", ZDSecMgrAuthNwkKey
ZDSecMgrAuthenticationCheck SYMBOL "ZDSecMgrAuthenticationCheck"
`??ZDSecMgrAuthenticationCheck::?relay` SYMBOL "?relay", ZDSecMgrAuthenticationCheck
ZDSecMgrAuthenticationSet SYMBOL "ZDSecMgrAuthenticationSet"
`??ZDSecMgrAuthenticationSet::?relay` SYMBOL "?relay", ZDSecMgrAuthenticationSet
ZDSecMgrClearNVKeyValues SYMBOL "ZDSecMgrClearNVKeyValues"
`??ZDSecMgrClearNVKeyValues::?relay` SYMBOL "?relay", ZDSecMgrClearNVKeyValues
ZDSecMgrConfig      SYMBOL "ZDSecMgrConfig"
`??ZDSecMgrConfig::?relay` SYMBOL "?relay", ZDSecMgrConfig
ZDSecMgrDeviceJoin  SYMBOL "ZDSecMgrDeviceJoin"
`??ZDSecMgrDeviceJoin::?relay` SYMBOL "?relay", ZDSecMgrDeviceJoin
ZDSecMgrDeviceJoinDirect SYMBOL "ZDSecMgrDeviceJoinDirect"
`??ZDSecMgrDeviceJoinDirect::?relay` SYMBOL "?relay", ZDSecMgrDeviceJoinDirect
ZDSecMgrDeviceJoinFwd SYMBOL "ZDSecMgrDeviceJoinFwd"
`??ZDSecMgrDeviceJoinFwd::?relay` SYMBOL "?relay", ZDSecMgrDeviceJoinFwd
ZDSecMgrDeviceNew   SYMBOL "ZDSecMgrDeviceNew"
`??ZDSecMgrDeviceNew::?relay` SYMBOL "?relay", ZDSecMgrDeviceNew
ZDSecMgrDeviceRemove SYMBOL "ZDSecMgrDeviceRemove"
`??ZDSecMgrDeviceRemove::?relay` SYMBOL "?relay", ZDSecMgrDeviceRemove
ZDSecMgrDeviceRemoveByExtAddr SYMBOL "ZDSecMgrDeviceRemoveByExtAddr"
`??ZDSecMgrDeviceRemoveByExtAddr::?relay` SYMBOL "?relay", ZDSecMgrDeviceRemoveByExtAddr
ZDSecMgrDeviceValidate SYMBOL "ZDSecMgrDeviceValidate"
`??ZDSecMgrDeviceValidate::?relay` SYMBOL "?relay", ZDSecMgrDeviceValidate
ZDSecMgrDeviceValidateRM SYMBOL "ZDSecMgrDeviceValidateRM"
`??ZDSecMgrDeviceValidateRM::?relay` SYMBOL "?relay", ZDSecMgrDeviceValidateRM
ZDSecMgrEntryFree   SYMBOL "ZDSecMgrEntryFree"
`??ZDSecMgrEntryFree::?relay` SYMBOL "?relay", ZDSecMgrEntryFree
ZDSecMgrEntryInit   SYMBOL "ZDSecMgrEntryInit"
`??ZDSecMgrEntryInit::?relay` SYMBOL "?relay", ZDSecMgrEntryInit
ZDSecMgrEntryLookup SYMBOL "ZDSecMgrEntryLookup"
`??ZDSecMgrEntryLookup::?relay` SYMBOL "?relay", ZDSecMgrEntryLookup
ZDSecMgrEntryLookupAMI SYMBOL "ZDSecMgrEntryLookupAMI"
`??ZDSecMgrEntryLookupAMI::?relay` SYMBOL "?relay", ZDSecMgrEntryLookupAMI
ZDSecMgrEntryLookupAMIGetIndex SYMBOL "ZDSecMgrEntryLookupAMIGetIndex"
`??ZDSecMgrEntryLookupAMIGetIndex::?relay` SYMBOL "?relay", ZDSecMgrEntryLookupAMIGetIndex
ZDSecMgrEntryLookupExt SYMBOL "ZDSecMgrEntryLookupExt"
`??ZDSecMgrEntryLookupExt::?relay` SYMBOL "?relay", ZDSecMgrEntryLookupExt
ZDSecMgrEntryLookupExtGetIndex SYMBOL "ZDSecMgrEntryLookupExtGetIndex"
`??ZDSecMgrEntryLookupExtGetIndex::?relay` SYMBOL "?relay", ZDSecMgrEntryLookupExtGetIndex
ZDSecMgrEntryNew    SYMBOL "ZDSecMgrEntryNew"
`??ZDSecMgrEntryNew::?relay` SYMBOL "?relay", ZDSecMgrEntryNew
ZDSecMgrExtAddrLookup SYMBOL "ZDSecMgrExtAddrLookup"
`??ZDSecMgrExtAddrLookup::?relay` SYMBOL "?relay", ZDSecMgrExtAddrLookup
ZDSecMgrExtAddrStore SYMBOL "ZDSecMgrExtAddrStore"
`??ZDSecMgrExtAddrStore::?relay` SYMBOL "?relay", ZDSecMgrExtAddrStore
ZDSecMgrGenerateKeyFromSeed SYMBOL "ZDSecMgrGenerateKeyFromSeed"
`??ZDSecMgrGenerateKeyFromSeed::?relay` SYMBOL "?relay", ZDSecMgrGenerateKeyFromSeed
ZDSecMgrGenerateRndKey SYMBOL "ZDSecMgrGenerateRndKey"
`??ZDSecMgrGenerateRndKey::?relay` SYMBOL "?relay", ZDSecMgrGenerateRndKey
ZDSecMgrGenerateSeed SYMBOL "ZDSecMgrGenerateSeed"
`??ZDSecMgrGenerateSeed::?relay` SYMBOL "?relay", ZDSecMgrGenerateSeed
ZDSecMgrInit        SYMBOL "ZDSecMgrInit"
`??ZDSecMgrInit::?relay` SYMBOL "?relay", ZDSecMgrInit
ZDSecMgrInitNV      SYMBOL "ZDSecMgrInitNV"
`??ZDSecMgrInitNV::?relay` SYMBOL "?relay", ZDSecMgrInitNV
ZDSecMgrInitNVKeyTables SYMBOL "ZDSecMgrInitNVKeyTables"
`??ZDSecMgrInitNVKeyTables::?relay` SYMBOL "?relay", ZDSecMgrInitNVKeyTables
ZDSecMgrNewDeviceEvent SYMBOL "ZDSecMgrNewDeviceEvent"
`??ZDSecMgrNewDeviceEvent::?relay` SYMBOL "?relay", ZDSecMgrNewDeviceEvent
ZDSecMgrNwkKeyInit  SYMBOL "ZDSecMgrNwkKeyInit"
`??ZDSecMgrNwkKeyInit::?relay` SYMBOL "?relay", ZDSecMgrNwkKeyInit
ZDSecMgrPermitJoining SYMBOL "ZDSecMgrPermitJoining"
`??ZDSecMgrPermitJoining::?relay` SYMBOL "?relay", ZDSecMgrPermitJoining
ZDSecMgrPermitJoiningTimeout SYMBOL "ZDSecMgrPermitJoiningTimeout"
`??ZDSecMgrPermitJoiningTimeout::?relay` SYMBOL "?relay", ZDSecMgrPermitJoiningTimeout
ZDSecMgrReadKeyFromNv SYMBOL "ZDSecMgrReadKeyFromNv"
`??ZDSecMgrReadKeyFromNv::?relay` SYMBOL "?relay", ZDSecMgrReadKeyFromNv
ZDSecMgrRemoveDeviceInd SYMBOL "ZDSecMgrRemoveDeviceInd"
`??ZDSecMgrRemoveDeviceInd::?relay` SYMBOL "?relay", ZDSecMgrRemoveDeviceInd
ZDSecMgrRequestAppKey SYMBOL "ZDSecMgrRequestAppKey"
`??ZDSecMgrRequestAppKey::?relay` SYMBOL "?relay", ZDSecMgrRequestAppKey
ZDSecMgrRequestKeyInd SYMBOL "ZDSecMgrRequestKeyInd"
`??ZDSecMgrRequestKeyInd::?relay` SYMBOL "?relay", ZDSecMgrRequestKeyInd
ZDSecMgrSaveApsLinkKey SYMBOL "ZDSecMgrSaveApsLinkKey"
`??ZDSecMgrSaveApsLinkKey::?relay` SYMBOL "?relay", ZDSecMgrSaveApsLinkKey
ZDSecMgrSaveTCLinkKey SYMBOL "ZDSecMgrSaveTCLinkKey"
`??ZDSecMgrSaveTCLinkKey::?relay` SYMBOL "?relay", ZDSecMgrSaveTCLinkKey
ZDSecMgrSendNwkKey  SYMBOL "ZDSecMgrSendNwkKey"
`??ZDSecMgrSendNwkKey::?relay` SYMBOL "?relay", ZDSecMgrSendNwkKey
ZDSecMgrSetDefaultNV SYMBOL "ZDSecMgrSetDefaultNV"
`??ZDSecMgrSetDefaultNV::?relay` SYMBOL "?relay", ZDSecMgrSetDefaultNV
ZDSecMgrSetupPartner SYMBOL "ZDSecMgrSetupPartner"
`??ZDSecMgrSetupPartner::?relay` SYMBOL "?relay", ZDSecMgrSetupPartner
ZDSecMgrSwitchKeyInd SYMBOL "ZDSecMgrSwitchKeyInd"
`??ZDSecMgrSwitchKeyInd::?relay` SYMBOL "?relay", ZDSecMgrSwitchKeyInd
ZDSecMgrTCDataLoad  SYMBOL "ZDSecMgrTCDataLoad"
`??ZDSecMgrTCDataLoad::?relay` SYMBOL "?relay", ZDSecMgrTCDataLoad
ZDSecMgrTCExtAddrCheck SYMBOL "ZDSecMgrTCExtAddrCheck"
`??ZDSecMgrTCExtAddrCheck::?relay` SYMBOL "?relay", ZDSecMgrTCExtAddrCheck
ZDSecMgrTclkReq     SYMBOL "ZDSecMgrTclkReq"
`??ZDSecMgrTclkReq::?relay` SYMBOL "?relay", ZDSecMgrTclkReq
ZDSecMgrTransportKeyInd SYMBOL "ZDSecMgrTransportKeyInd"
`??ZDSecMgrTransportKeyInd::?relay` SYMBOL "?relay", ZDSecMgrTransportKeyInd
ZDSecMgrUpdateDeviceInd SYMBOL "ZDSecMgrUpdateDeviceInd"
`??ZDSecMgrUpdateDeviceInd::?relay` SYMBOL "?relay", ZDSecMgrUpdateDeviceInd
ZDSecMgrUpdateTCAddress SYMBOL "ZDSecMgrUpdateTCAddress"
`??ZDSecMgrUpdateTCAddress::?relay` SYMBOL "?relay", ZDSecMgrUpdateTCAddress
ZDSecMgrVerifyKeyInd SYMBOL "ZDSecMgrVerifyKeyInd"
`??ZDSecMgrVerifyKeyInd::?relay` SYMBOL "?relay", ZDSecMgrVerifyKeyInd

        EXTERN `??APSME_EraseICEntry::?relay`
        FUNCTION `??APSME_EraseICEntry::?relay`,00H
        EXTERN `??APSME_GetRequest::?relay`
        FUNCTION `??APSME_GetRequest::?relay`,00H
        EXTERN `??APSME_IsDistributedSecurity::?relay`
        FUNCTION `??APSME_IsDistributedSecurity::?relay`,00H
        EXTERN `??APSME_LookupExtAddr::?relay`
        FUNCTION `??APSME_LookupExtAddr::?relay`,00H
        EXTERN `??APSME_LookupNwkAddr::?relay`
        FUNCTION `??APSME_LookupNwkAddr::?relay`,00H
        EXTERN `??APSME_RemoveDeviceReq::?relay`
        FUNCTION `??APSME_RemoveDeviceReq::?relay`,00H
        EXTERN `??APSME_RequestKeyReq::?relay`
        FUNCTION `??APSME_RequestKeyReq::?relay`,00H
        EXTERN `??APSME_SearchTCLinkKeyEntry::?relay`
        FUNCTION `??APSME_SearchTCLinkKeyEntry::?relay`,00H
        EXTERN `??APSME_SecurityCM_ED::?relay`
        FUNCTION `??APSME_SecurityCM_ED::?relay`,00H
        EXTERN `??APSME_SetRequest::?relay`
        FUNCTION `??APSME_SetRequest::?relay`,00H
        EXTERN `??APSME_TransportKeyReq::?relay`
        FUNCTION `??APSME_TransportKeyReq::?relay`,00H
        EXTERN `??APSME_UpdateDeviceReq::?relay`
        FUNCTION `??APSME_UpdateDeviceReq::?relay`,00H
        EXTERN `??AddrMgrEntryGet::?relay`
        FUNCTION `??AddrMgrEntryGet::?relay`,00H
        EXTERN `??AddrMgrEntryLookupExt::?relay`
        FUNCTION `??AddrMgrEntryLookupExt::?relay`,00H
        EXTERN `??AddrMgrEntryLookupNwk::?relay`
        FUNCTION `??AddrMgrEntryLookupNwk::?relay`,00H
        EXTERN `??AddrMgrEntryRelease::?relay`
        FUNCTION `??AddrMgrEntryRelease::?relay`,00H
        EXTERN `??AddrMgrEntryUpdate::?relay`
        FUNCTION `??AddrMgrEntryUpdate::?relay`,00H
        EXTERN `??AddrMgrExtAddrLookup::?relay`
        FUNCTION `??AddrMgrExtAddrLookup::?relay`,00H
        EXTERN `??AddrMgrExtAddrSet::?relay`
        FUNCTION `??AddrMgrExtAddrSet::?relay`,00H
        EXTERN `??AddrMgrExtAddrValid::?relay`
        FUNCTION `??AddrMgrExtAddrValid::?relay`,00H
        EXTERN `??AssocGetWithExt::?relay`
        FUNCTION `??AssocGetWithExt::?relay`,00H
        EXTERN `??AssocGetWithShort::?relay`
        FUNCTION `??AssocGetWithShort::?relay`,00H
        EXTERN `??AssocRemove::?relay`
        FUNCTION `??AssocRemove::?relay`,00H
        EXTERN `??NLME_GetExtAddr::?relay`
        FUNCTION `??NLME_GetExtAddr::?relay`,00H
        EXTERN `??NLME_GetShortAddr::?relay`
        FUNCTION `??NLME_GetShortAddr::?relay`,00H
        EXTERN `??NLME_LeaveReq::?relay`
        FUNCTION `??NLME_LeaveReq::?relay`,00H
        EXTERN `??NLME_ReadNwkKeyInfo::?relay`
        FUNCTION `??NLME_ReadNwkKeyInfo::?relay`,00H
        EXTERN `??SSP_GetTrueRand::?relay`
        FUNCTION `??SSP_GetTrueRand::?relay`,00H
        EXTERN `??SSP_Init::?relay`
        FUNCTION `??SSP_Init::?relay`,00H
        EXTERN `??SSP_SwitchNwkKey::?relay`
        FUNCTION `??SSP_SwitchNwkKey::?relay`,00H
        EXTERN `??SSP_UpdateNwkKey::?relay`
        FUNCTION `??SSP_UpdateNwkKey::?relay`,00H
        EXTERN `??ZDApp_NVUpdate::?relay`
        FUNCTION `??ZDApp_NVUpdate::?relay`,00H
        EXTERN `??ZDP_IEEEAddrReq::?relay`
        FUNCTION `??ZDP_IEEEAddrReq::?relay`,00H
        EXTERN `??ZDP_NwkAddrReq::?relay`
        FUNCTION `??ZDP_NwkAddrReq::?relay`,00H
        EXTERN `??bdb_tcLinkKeyExchangeAttempt::?relay`
        FUNCTION `??bdb_tcLinkKeyExchangeAttempt::?relay`,00H
        EXTERN `??osal_isbufset::?relay`
        FUNCTION `??osal_isbufset::?relay`,00H
        EXTERN `??osal_mem_alloc::?relay`
        FUNCTION `??osal_mem_alloc::?relay`,00H
        EXTERN `??osal_mem_free::?relay`
        FUNCTION `??osal_mem_free::?relay`,00H
        EXTERN `??osal_memcmp::?relay`
        FUNCTION `??osal_memcmp::?relay`,00H
        EXTERN `??osal_memcpy::?relay`
        FUNCTION `??osal_memcpy::?relay`,00H
        EXTERN `??osal_memset::?relay`
        FUNCTION `??osal_memset::?relay`,00H
        EXTERN `??osal_nv_item_init::?relay`
        FUNCTION `??osal_nv_item_init::?relay`,00H
        EXTERN `??osal_nv_read::?relay`
        FUNCTION `??osal_nv_read::?relay`,00H
        EXTERN `??osal_nv_write::?relay`
        FUNCTION `??osal_nv_write::?relay`,00H
        EXTERN `??osal_rand::?relay`
        FUNCTION `??osal_rand::?relay`,00H
        EXTERN `??osal_set_event::?relay`
        FUNCTION `??osal_set_event::?relay`,00H
        EXTERN `??sAddrExtCmp::?relay`
        FUNCTION `??sAddrExtCmp::?relay`,00H
        EXTERN `??sAddrExtCpy::?relay`
        FUNCTION `??sAddrExtCpy::?relay`,00H
        EXTERN `??zgReadStartupOptions::?relay`
        FUNCTION `??zgReadStartupOptions::?relay`,00H
        EXTERN APSME_EraseICEntry
        FUNCTION APSME_EraseICEntry,0202H
        ARGFRAME ISTACK, 0, STACK
        ARGFRAME PSTACK, 0, STACK
        ARGFRAME XSTACK, 54, STACK
        ARGFRAME IOVERLAY, 0, STATIC
        ARGFRAME DOVERLAY, 0, STATIC
        EXTERN APSME_GetRequest
        FUNCTION APSME_GetRequest,0202H
        ARGFRAME ISTACK, 0, STACK
        ARGFRAME PSTACK, 0, STACK
        ARGFRAME XSTACK, 29, STACK
        ARGFRAME IOVERLAY, 0, STATIC
        ARGFRAME DOVERLAY, 0, STATIC
        EXTERN APSME_IsDistributedSecurity
        FUNCTION APSME_IsDistributedSecurity,0202H
        ARGFRAME ISTACK, 0, STACK
        ARGFRAME PSTACK, 0, STACK
        ARGFRAME XSTACK, 25, STACK
        ARGFRAME IOVERLAY, 0, STATIC
        ARGFRAME DOVERLAY, 0, STATIC
        EXTERN APSME_LookupExtAddr
        FUNCTION APSME_LookupExtAddr,0202H
        ARGFRAME ISTACK, 0, STACK
        ARGFRAME PSTACK, 0, STACK
        ARGFRAME XSTACK, 69, STACK
        ARGFRAME IOVERLAY, 0, STATIC
        ARGFRAME DOVERLAY, 0, STATIC
        EXTERN APSME_LookupNwkAddr
        FUNCTION APSME_LookupNwkAddr,0202H
        ARGFRAME ISTACK, 0, STACK
        ARGFRAME PSTACK, 0, STACK
        ARGFRAME XSTACK, 69, STACK
        ARGFRAME IOVERLAY, 0, STATIC
        ARGFRAME DOVERLAY, 0, STATIC
        EXTERN APSME_RemoveDeviceReq
        FUNCTION APSME_RemoveDeviceReq,0202H
        ARGFRAME ISTACK, 0, STACK
        ARGFRAME PSTACK, 0, STACK
        ARGFRAME XSTACK, 29, STACK
        ARGFRAME IOVERLAY, 0, STATIC
        ARGFRAME DOVERLAY, 0, STATIC
        EXTERN APSME_RequestKeyReq
        FUNCTION APSME_RequestKeyReq,0202H
        ARGFRAME ISTACK, 2, STACK
        ARGFRAME PSTACK, 0, STACK
        ARGFRAME XSTACK, 4, STACK
        ARGFRAME IOVERLAY, 0, STATIC
        ARGFRAME DOVERLAY, 0, STATIC
        EXTERN APSME_SearchTCLinkKeyEntry
        FUNCTION APSME_SearchTCLinkKeyEntry,0202H
        ARGFRAME ISTACK, 0, STACK
        ARGFRAME PSTACK, 0, STACK
        ARGFRAME XSTACK, 71, STACK
        ARGFRAME IOVERLAY, 0, STATIC
        ARGFRAME DOVERLAY, 0, STATIC
        EXTERN APSME_SecurityCM_ED
        FUNCTION APSME_SecurityCM_ED,0202H
        ARGFRAME ISTACK, 2, STACK
        ARGFRAME PSTACK, 0, STACK
        ARGFRAME XSTACK, 9, STACK
        ARGFRAME IOVERLAY, 0, STATIC
        ARGFRAME DOVERLAY, 0, STATIC
        EXTERN APSME_SetRequest
        FUNCTION APSME_SetRequest,0202H
        ARGFRAME ISTACK, 0, STACK
        ARGFRAME PSTACK, 0, STACK
        ARGFRAME XSTACK, 18, STACK
        ARGFRAME IOVERLAY, 0, STATIC
        ARGFRAME DOVERLAY, 0, STATIC
        EXTERN APSME_TransportKeyReq
        FUNCTION APSME_TransportKeyReq,0202H
        ARGFRAME ISTACK, 0, STACK
        ARGFRAME PSTACK, 0, STACK
        ARGFRAME XSTACK, 69, STACK
        ARGFRAME IOVERLAY, 0, STATIC
        ARGFRAME DOVERLAY, 0, STATIC
        EXTERN APSME_UpdateDeviceReq
        FUNCTION APSME_UpdateDeviceReq,0202H
        ARGFRAME ISTACK, 0, STACK
        ARGFRAME PSTACK, 0, STACK
        ARGFRAME XSTACK, 27, STACK
        ARGFRAME IOVERLAY, 0, STATIC
        ARGFRAME DOVERLAY, 0, STATIC
        EXTERN AddrMgrEntryGet
        FUNCTION AddrMgrEntryGet,0202H
        ARGFRAME ISTACK, 0, STACK
        ARGFRAME PSTACK, 0, STACK
        ARGFRAME XSTACK, 33, STACK
        ARGFRAME IOVERLAY, 0, STATIC
        ARGFRAME DOVERLAY, 0, STATIC
        EXTERN AddrMgrEntryLookupExt
        FUNCTION AddrMgrEntryLookupExt,0202H
        ARGFRAME ISTACK, 0, STACK
        ARGFRAME PSTACK, 0, STACK
        ARGFRAME XSTACK, 25, STACK
        ARGFRAME IOVERLAY, 0, STATIC
        ARGFRAME DOVERLAY, 0, STATIC
        EXTERN AddrMgrEntryLookupNwk
        FUNCTION AddrMgrEntryLookupNwk,0202H
        ARGFRAME ISTACK, 0, STACK
        ARGFRAME PSTACK, 0, STACK
        ARGFRAME XSTACK, 51, STACK
        ARGFRAME IOVERLAY, 0, STATIC
        ARGFRAME DOVERLAY, 0, STATIC
        EXTERN AddrMgrEntryRelease
        FUNCTION AddrMgrEntryRelease,0202H
        ARGFRAME ISTACK, 0, STACK
        ARGFRAME PSTACK, 0, STACK
        ARGFRAME XSTACK, 51, STACK
        ARGFRAME IOVERLAY, 0, STATIC
        ARGFRAME DOVERLAY, 0, STATIC
        EXTERN AddrMgrEntryUpdate
        FUNCTION AddrMgrEntryUpdate,0202H
        ARGFRAME ISTACK, 0, STACK
        ARGFRAME PSTACK, 0, STACK
        ARGFRAME XSTACK, 25, STACK
        ARGFRAME IOVERLAY, 0, STATIC
        ARGFRAME DOVERLAY, 0, STATIC
        EXTERN AddrMgrExtAddrLookup
        FUNCTION AddrMgrExtAddrLookup,0202H
        ARGFRAME ISTACK, 0, STACK
        ARGFRAME PSTACK, 0, STACK
        ARGFRAME XSTACK, 22, STACK
        ARGFRAME IOVERLAY, 0, STATIC
        ARGFRAME DOVERLAY, 0, STATIC
        EXTERN AddrMgrExtAddrSet
        FUNCTION AddrMgrExtAddrSet,0202H
        ARGFRAME ISTACK, 0, STACK
        ARGFRAME PSTACK, 0, STACK
        ARGFRAME XSTACK, 25, STACK
        ARGFRAME IOVERLAY, 0, STATIC
        ARGFRAME DOVERLAY, 0, STATIC
        EXTERN AddrMgrExtAddrValid
        FUNCTION AddrMgrExtAddrValid,0202H
        ARGFRAME ISTACK, 0, STACK
        ARGFRAME PSTACK, 0, STACK
        ARGFRAME XSTACK, 51, STACK
        ARGFRAME IOVERLAY, 0, STATIC
        ARGFRAME DOVERLAY, 0, STATIC
        EXTERN AssocGetWithExt
        FUNCTION AssocGetWithExt,0202H
        ARGFRAME ISTACK, 0, STACK
        ARGFRAME PSTACK, 0, STACK
        ARGFRAME XSTACK, 29, STACK
        ARGFRAME IOVERLAY, 0, STATIC
        ARGFRAME DOVERLAY, 0, STATIC
        EXTERN AssocGetWithShort
        FUNCTION AssocGetWithShort,0202H
        ARGFRAME ISTACK, 0, STACK
        ARGFRAME PSTACK, 0, STACK
        ARGFRAME XSTACK, 33, STACK
        ARGFRAME IOVERLAY, 0, STATIC
        ARGFRAME DOVERLAY, 0, STATIC
        EXTERN AssocRemove
        FUNCTION AssocRemove,0202H
        ARGFRAME ISTACK, 0, STACK
        ARGFRAME PSTACK, 0, STACK
        ARGFRAME XSTACK, 33, STACK
        ARGFRAME IOVERLAY, 0, STATIC
        ARGFRAME DOVERLAY, 0, STATIC
        EXTERN NLME_GetExtAddr
        FUNCTION NLME_GetExtAddr,0202H
        ARGFRAME ISTACK, 0, STACK
        ARGFRAME PSTACK, 0, STACK
        ARGFRAME XSTACK, 22, STACK
        ARGFRAME IOVERLAY, 0, STATIC
        ARGFRAME DOVERLAY, 0, STATIC
        EXTERN NLME_GetShortAddr
        FUNCTION NLME_GetShortAddr,0202H
        ARGFRAME ISTACK, 0, STACK
        ARGFRAME PSTACK, 0, STACK
        ARGFRAME XSTACK, 46, STACK
        ARGFRAME IOVERLAY, 0, STATIC
        ARGFRAME DOVERLAY, 0, STATIC
        EXTERN NLME_LeaveReq
        FUNCTION NLME_LeaveReq,0202H
        ARGFRAME ISTACK, 0, STACK
        ARGFRAME PSTACK, 0, STACK
        ARGFRAME XSTACK, 29, STACK
        ARGFRAME IOVERLAY, 0, STATIC
        ARGFRAME DOVERLAY, 0, STATIC
        EXTERN NLME_ReadNwkKeyInfo
        FUNCTION NLME_ReadNwkKeyInfo,0202H
        ARGFRAME ISTACK, 0, STACK
        ARGFRAME PSTACK, 0, STACK
        ARGFRAME XSTACK, 50, STACK
        ARGFRAME IOVERLAY, 0, STATIC
        ARGFRAME DOVERLAY, 0, STATIC
        EXTERN SSP_GetTrueRand
        FUNCTION SSP_GetTrueRand,0202H
        ARGFRAME ISTACK, 2, STACK
        ARGFRAME PSTACK, 0, STACK
        ARGFRAME XSTACK, 0, STACK
        ARGFRAME IOVERLAY, 0, STATIC
        ARGFRAME DOVERLAY, 0, STATIC
        EXTERN SSP_Init
        FUNCTION SSP_Init,0202H
        ARGFRAME ISTACK, 2, STACK
        ARGFRAME PSTACK, 0, STACK
        ARGFRAME XSTACK, 9, STACK
        ARGFRAME IOVERLAY, 0, STATIC
        ARGFRAME DOVERLAY, 0, STATIC
        EXTERN SSP_SwitchNwkKey
        FUNCTION SSP_SwitchNwkKey,0202H
        ARGFRAME ISTACK, 2, STACK
        ARGFRAME PSTACK, 0, STACK
        ARGFRAME XSTACK, 54, STACK
        ARGFRAME IOVERLAY, 0, STATIC
        ARGFRAME DOVERLAY, 0, STATIC
        EXTERN SSP_UpdateNwkKey
        FUNCTION SSP_UpdateNwkKey,0202H
        ARGFRAME ISTACK, 0, STACK
        ARGFRAME PSTACK, 0, STACK
        ARGFRAME XSTACK, 54, STACK
        ARGFRAME IOVERLAY, 0, STATIC
        ARGFRAME DOVERLAY, 0, STATIC
        EXTERN ZDAppTaskID
        EXTERN ZDApp_NVUpdate
        FUNCTION ZDApp_NVUpdate,0202H
        ARGFRAME ISTACK, 2, STACK
        ARGFRAME PSTACK, 0, STACK
        ARGFRAME XSTACK, 0, STACK
        ARGFRAME IOVERLAY, 0, STATIC
        ARGFRAME DOVERLAY, 0, STATIC
        EXTERN ZDP_IEEEAddrReq
        FUNCTION ZDP_IEEEAddrReq,0202H
        ARGFRAME ISTACK, 0, STACK
        ARGFRAME PSTACK, 0, STACK
        ARGFRAME XSTACK, 25, STACK
        ARGFRAME IOVERLAY, 0, STATIC
        ARGFRAME DOVERLAY, 0, STATIC
        EXTERN ZDP_NwkAddrReq
        FUNCTION ZDP_NwkAddrReq,0202H
        ARGFRAME ISTACK, 0, STACK
        ARGFRAME PSTACK, 0, STACK
        ARGFRAME XSTACK, 54, STACK
        ARGFRAME IOVERLAY, 0, STATIC
        ARGFRAME DOVERLAY, 0, STATIC
        EXTERN _NIB
        EXTERN bdb_tcLinkKeyExchangeAttempt
        FUNCTION bdb_tcLinkKeyExchangeAttempt,0202H
        ARGFRAME ISTACK, 0, STACK
        ARGFRAME PSTACK, 0, STACK
        ARGFRAME XSTACK, 54, STACK
        ARGFRAME IOVERLAY, 0, STATIC
        ARGFRAME DOVERLAY, 0, STATIC
        EXTERN defaultTCLinkKey
        EXTERN devState
        EXTERN distributedDefaultKey
        EXTERN gMAX_NWK_SEC_MATERIAL_TABLE_ENTRIES
        EXTERN osal_isbufset
        FUNCTION osal_isbufset,0202H
        ARGFRAME ISTACK, 2, STACK
        ARGFRAME PSTACK, 0, STACK
        ARGFRAME XSTACK, 0, STACK
        ARGFRAME IOVERLAY, 0, STATIC
        ARGFRAME DOVERLAY, 0, STATIC
        EXTERN osal_mem_alloc
        FUNCTION osal_mem_alloc,0202H
        ARGFRAME ISTACK, 0, STACK
        ARGFRAME PSTACK, 0, STACK
        ARGFRAME XSTACK, 33, STACK
        ARGFRAME IOVERLAY, 0, STATIC
        ARGFRAME DOVERLAY, 0, STATIC
        EXTERN osal_mem_free
        FUNCTION osal_mem_free,0202H
        ARGFRAME ISTACK, 0, STACK
        ARGFRAME PSTACK, 0, STACK
        ARGFRAME XSTACK, 33, STACK
        ARGFRAME IOVERLAY, 0, STATIC
        ARGFRAME DOVERLAY, 0, STATIC
        EXTERN osal_memcmp
        FUNCTION osal_memcmp,0202H
        ARGFRAME ISTACK, 0, STACK
        ARGFRAME PSTACK, 0, STACK
        ARGFRAME XSTACK, 36, STACK
        ARGFRAME IOVERLAY, 0, STATIC
        ARGFRAME DOVERLAY, 0, STATIC
        EXTERN osal_memcpy
        FUNCTION osal_memcpy,0202H
        ARGFRAME ISTACK, 0, STACK
        ARGFRAME PSTACK, 0, STACK
        ARGFRAME XSTACK, 54, STACK
        ARGFRAME IOVERLAY, 0, STATIC
        ARGFRAME DOVERLAY, 0, STATIC
        EXTERN osal_memset
        FUNCTION osal_memset,0202H
        ARGFRAME ISTACK, 0, STACK
        ARGFRAME PSTACK, 0, STACK
        ARGFRAME XSTACK, 69, STACK
        ARGFRAME IOVERLAY, 0, STATIC
        ARGFRAME DOVERLAY, 0, STATIC
        EXTERN osal_nv_item_init
        FUNCTION osal_nv_item_init,0202H
        ARGFRAME ISTACK, 0, STACK
        ARGFRAME PSTACK, 0, STACK
        ARGFRAME XSTACK, 64, STACK
        ARGFRAME IOVERLAY, 0, STATIC
        ARGFRAME DOVERLAY, 0, STATIC
        EXTERN osal_nv_read
        FUNCTION osal_nv_read,0202H
        ARGFRAME ISTACK, 0, STACK
        ARGFRAME PSTACK, 0, STACK
        ARGFRAME XSTACK, 41, STACK
        ARGFRAME IOVERLAY, 0, STATIC
        ARGFRAME DOVERLAY, 0, STATIC
        EXTERN osal_nv_write
        FUNCTION osal_nv_write,0202H
        ARGFRAME ISTACK, 0, STACK
        ARGFRAME PSTACK, 0, STACK
        ARGFRAME XSTACK, 66, STACK
        ARGFRAME IOVERLAY, 0, STATIC
        ARGFRAME DOVERLAY, 0, STATIC
        EXTERN osal_rand
        FUNCTION osal_rand,0202H
        ARGFRAME ISTACK, 0, STACK
        ARGFRAME PSTACK, 0, STACK
        ARGFRAME XSTACK, 51, STACK
        ARGFRAME IOVERLAY, 0, STATIC
        ARGFRAME DOVERLAY, 0, STATIC
        EXTERN osal_set_event
        FUNCTION osal_set_event,0202H
        ARGFRAME ISTACK, 2, STACK
        ARGFRAME PSTACK, 0, STACK
        ARGFRAME XSTACK, 51, STACK
        ARGFRAME IOVERLAY, 0, STATIC
        ARGFRAME DOVERLAY, 0, STATIC
        EXTERN sAddrExtCmp
        FUNCTION sAddrExtCmp,0202H
        ARGFRAME ISTACK, 0, STACK
        ARGFRAME PSTACK, 0, STACK
        ARGFRAME XSTACK, 22, STACK
        ARGFRAME IOVERLAY, 0, STATIC
        ARGFRAME DOVERLAY, 0, STATIC
        EXTERN sAddrExtCpy
        FUNCTION sAddrExtCpy,0202H
        ARGFRAME ISTACK, 0, STACK
        ARGFRAME PSTACK, 0, STACK
        ARGFRAME XSTACK, 25, STACK
        ARGFRAME IOVERLAY, 0, STATIC
        ARGFRAME DOVERLAY, 0, STATIC
        EXTERN zdoCBFunc
        EXTERN zgApsLinkKeyType
        EXTERN zgApsTrustCenterAddr
        EXTERN zgDeviceLogicalType
        EXTERN zgPreConfigKeys
        EXTERN zgReadStartupOptions
        FUNCTION zgReadStartupOptions,0202H
        ARGFRAME ISTACK, 0, STACK
        ARGFRAME PSTACK, 0, STACK
        ARGFRAME XSTACK, 62, STACK
        ARGFRAME IOVERLAY, 0, STATIC
        ARGFRAME DOVERLAY, 0, STATIC
        EXTERN zgSecurePermitJoin

// C:\Texas Instruments\Z-Stack 3.0.0\Components\stack\zdo\ZDSecMgr.c
//    1 /******************************************************************************
//    2   Filename:       ZDSecMgr.c
//    3   Revised:        $Date: 2014-06-05 11:25:00 -0700 (Thu, 05 Jun 2014) $
//    4   Revision:       $Revision: 38833 $
//    5 
//    6   Description:    The ZigBee Device Security Manager.
//    7 
//    8 
//    9   Copyright 2005-2014 Texas Instruments Incorporated. All rights reserved.
//   10 
//   11   IMPORTANT: Your use of this Software is limited to those specific rights
//   12   granted under the terms of a software license agreement between the user
//   13   who downloaded the software, his/her employer (which must be your employer)
//   14   and Texas Instruments Incorporated (the "License"). You may not use this
//   15   Software unless you agree to abide by the terms of the License. The License
//   16   limits your use, and you acknowledge, that the Software may not be modified,
//   17   copied or distributed unless embedded on a Texas Instruments microcontroller
//   18   or used solely and exclusively in conjunction with a Texas Instruments radio
//   19   frequency transceiver, which is integrated into your product. Other than for
//   20   the foregoing purpose, you may not use, reproduce, copy, prepare derivative
//   21   works of, modify, distribute, perform, display or sell this Software and/or
//   22   its documentation for any purpose.
//   23 
//   24   YOU FURTHER ACKNOWLEDGE AND AGREE THAT THE SOFTWARE AND DOCUMENTATION ARE
//   25   PROVIDED "AS IS" WITHOUT WARRANTY OF ANY KIND, EITHER EXPRESS OR IMPLIED,
//   26   INCLUDING WITHOUT LIMITATION, ANY WARRANTY OF MERCHANTABILITY, TITLE,
//   27   NON-INFRINGEMENT AND FITNESS FOR A PARTICULAR PURPOSE. IN NO EVENT SHALL
//   28   TEXAS INSTRUMENTS OR ITS LICENSORS BE LIABLE OR OBLIGATED UNDER CONTRACT,
//   29   NEGLIGENCE, STRICT LIABILITY, CONTRIBUTION, BREACH OF WARRANTY, OR OTHER
//   30   LEGAL EQUITABLE THEORY ANY DIRECT OR INDIRECT DAMAGES OR EXPENSES
//   31   INCLUDING BUT NOT LIMITED TO ANY INCIDENTAL, SPECIAL, INDIRECT, PUNITIVE
//   32   OR CONSEQUENTIAL DAMAGES, LOST PROFITS OR LOST DATA, COST OF PROCUREMENT
//   33   OF SUBSTITUTE GOODS, TECHNOLOGY, SERVICES, OR ANY CLAIMS BY THIRD PARTIES
//   34   (INCLUDING BUT NOT LIMITED TO ANY DEFENSE THEREOF), OR OTHER SIMILAR COSTS.
//   35 
//   36   Should you have any questions regarding your right to use this Software,
//   37   contact Texas Instruments Incorporated at www.TI.com.
//   38 ******************************************************************************/
//   39 
//   40 #ifdef __cplusplus
//   41 extern "C"
//   42 {
//   43 #endif
//   44 
//   45 /******************************************************************************
//   46  * INCLUDES
//   47  */
//   48 #include "ZComDef.h"
//   49 #include "OSAL.h"
//   50 #include "OSAL_Nv.h"
//   51 #include "ZGlobals.h"
//   52 #include "ssp.h"
//   53 #include "nwk_globals.h"
//   54 #include "nwk.h"
//   55 #include "NLMEDE.h"
//   56 #include "AddrMgr.h"
//   57 #include "AssocList.h"
//   58 #include "APSMEDE.h"
//   59 #include "ZDConfig.h"
//   60 #include "ZDSecMgr.h"
//   61   
//   62 #include "bdb.h"
//   63 #include "bdb_interface.h"
//   64 
//   65 /******************************************************************************
//   66  * CONSTANTS
//   67  */
//   68 // maximum number of devices managed by this Security Manager
//   69 #if !defined ( ZDSECMGR_DEVICE_MAX )
//   70   #define ZDSECMGR_DEVICE_MAX 3
//   71 #endif
//   72 
//   73 // maximum number of LINK keys this device may store
//   74 #define ZDSECMGR_ENTRY_MAX ZDSECMGR_DEVICE_MAX
//   75 
//   76 // total number of stored devices
//   77 #if !defined ( ZDSECMGR_STORED_DEVICES )
//   78   #define ZDSECMGR_STORED_DEVICES 3
//   79 #endif
//   80 
//   81 // Joining Device Policies: r21 spec 4.9.1
//   82 // This boolean indicates whether the device will request a new Trust Center Link key after joining.
//   83 // TC link key cannot be requested if join is performed on distributed nwk

        RSEG XDATA_I:XDATA:NOROOT(0)
//   84 bool  requestNewTrustCenterLinkKey = TRUE;  
requestNewTrustCenterLinkKey:
        DATA8
        DS 1
        REQUIRE `?<Initializer for requestNewTrustCenterLinkKey`
        REQUIRE __INIT_XDATA_I
//   85 //This integer indicates the maximum time in seconds that a device will wait for a response to a 
//   86 //request for a Trust Center link key.

        RSEG XDATA_I:XDATA:NOROOT(0)
//   87 uint32  requestLinkKeyTimeout = BDBC_TC_LINK_KEY_EXANGE_TIMEOUT;
requestLinkKeyTimeout:
        DATA32
        DS 4
        REQUIRE `?<Initializer for requestLinkKeyTimeout>`
        REQUIRE __INIT_XDATA_I
//   88  //bool acceptNewUnsolicitedApplicationLinkKey;   
//   89 
//   90 #if ( ZDSECMGR_TC_DEVICE_MAX < 1 ) || ( ZDSECMGR_TC_DEVICE_MAX > 255 )
//   91   #error "ZDSECMGR_TC_DEVICE_MAX shall be between 1 and 255 !"
//   92 #endif
//   93 
//   94 // APSME Stub Implementations
//   95 #define ZDSecMgrLinkKeySet       APSME_LinkKeySet
//   96 #define ZDSecMgrLinkKeyNVIdGet   APSME_LinkKeyNVIdGet
//   97 #define ZDSecMgrKeyFwdToChild    APSME_KeyFwdToChild
//   98 #define ZDSecMgrIsLinkKeyValid   APSME_IsLinkKeyValid
//   99 
//  100 
//  101 #define TCLK_DEV_ENTRY_MAX_SEED_SHIFTS     15
//  102 /******************************************************************************
//  103  * TYPEDEFS
//  104  */
//  105 typedef struct
//  106 {
//  107   uint16            ami;
//  108   uint16            keyNvId;   // index to the Link Key table in NV
//  109   ZDSecMgr_Authentication_Option authenticateOption;
//  110 } ZDSecMgrEntry_t;
//  111 
//  112 typedef struct
//  113 {
//  114   uint16          nwkAddr;
//  115   uint8*          extAddr;
//  116   uint16          parentAddr;
//  117   uint8           secure;
//  118   uint8           devStatus;
//  119 } ZDSecMgrDevice_t;
//  120 
//  121 /******************************************************************************
//  122  * EXTERNAL VARIABLES
//  123  */
//  124 extern CONST uint8 gMAX_NWK_SEC_MATERIAL_TABLE_ENTRIES;
//  125 extern pfnZdoCb zdoCBFunc[MAX_ZDO_CB_FUNC];
//  126 
//  127 
//  128 /******************************************************************************
//  129  * EXTERNAL FUNCTIONS
//  130  */
//  131 extern void   ZDApp_ResetTimerCancel( void );
//  132 /******************************************************************************
//  133  * LOCAL VARIABLES
//  134  */
//  135 #if 0 // Taken out because the following functionality is only used for test
//  136       // purpose. A more efficient (above) way is used. It can be put
//  137       // back in if customers request for a white/black list feature.
//  138 uint8 ZDSecMgrStoredDeviceList[ZDSECMGR_STORED_DEVICES][Z_EXTADDR_LEN] =
//  139 {
//  140   { 0x01, 0x00, 0x00, 0x00, 0x00, 0x00, 0x00, 0x00 },
//  141   { 0x00, 0x00, 0x00, 0x00, 0x00, 0x00, 0x00, 0x01 },
//  142   { 0x00, 0x00, 0x00, 0x00, 0x00, 0x00, 0x00, 0x00 },
//  143 };
//  144 #endif
//  145 

        RSEG XDATA_Z:XDATA:NOROOT(0)
        DATA8
//  146 uint8 ZDSecMgrTCExtAddr[Z_EXTADDR_LEN]=
ZDSecMgrTCExtAddr:
        DS 8
        REQUIRE __INIT_XDATA_Z
//  147   { 0x00, 0x00, 0x00, 0x00, 0x00, 0x00, 0x00, 0x00 };
//  148 

        RSEG XDATA_Z:XDATA:NOROOT(0)
        DATA8
//  149 uint8 ZDSecMgrTCAuthenticated = FALSE;
ZDSecMgrTCAuthenticated:
        DS 1
        REQUIRE __INIT_XDATA_Z
//  150 

        RSEG XDATA_Z:XDATA:NOROOT(0)
        DATA16
//  151 ZDSecMgrEntry_t* ZDSecMgrEntries  = NULL;
ZDSecMgrEntries:
        DS 2
        REQUIRE __INIT_XDATA_Z
//  152 
//  153 void ZDSecMgrAddrMgrCB( uint8 update, AddrMgrEntry_t* newEntry, AddrMgrEntry_t* oldEntry );
//  154 

        RSEG XDATA_Z:XDATA:NOROOT(0)
        DATA8
//  155 uint8 ZDSecMgrPermitJoiningEnabled;
ZDSecMgrPermitJoiningEnabled:
        DS 1
        REQUIRE __INIT_XDATA_Z

        RSEG XDATA_Z:XDATA:NOROOT(0)
        DATA8
//  156 uint8 ZDSecMgrPermitJoiningTimed;
ZDSecMgrPermitJoiningTimed:
        DS 1
        REQUIRE __INIT_XDATA_Z
//  157 

        RSEG XDATA_Z:XDATA:NOROOT(0)
        DATA8
//  158 APSME_TCLKDevEntry_t TrustCenterLinkKey;
TrustCenterLinkKey:
        DS 19
        REQUIRE __INIT_XDATA_Z
//  159 

        RSEG XDATA_Z:XDATA:NOROOT(0)
        DATA8
//  160 APSME_ApsLinkKeyFrmCntr_t ApsLinkKeyFrmCntr[ZDSECMGR_ENTRY_MAX];
ApsLinkKeyFrmCntr:
        DS 27
        REQUIRE __INIT_XDATA_Z

        RSEG XDATA_Z:XDATA:NOROOT(0)
        DATA8
//  161 APSME_TCLinkKeyFrmCntr_t TCLinkKeyFrmCntr[ZDSECMGR_TC_DEVICE_MAX];
TCLinkKeyFrmCntr:
        DS 27
        REQUIRE __INIT_XDATA_Z
//  162 

        RSEG CODE_C:CODE:REORDER:NOROOT(0)
        DATA8
//  163  CONST uint8 gZDSECMGR_TC_DEVICE_MAX = ZDSECMGR_TC_DEVICE_MAX;
gZDSECMGR_TC_DEVICE_MAX:
        DB 3

        RSEG CODE_C:CODE:REORDER:NOROOT(0)
        DATA8
//  164  CONST uint8 gZDSECMGR_TC_DEVICE_IC_MAX = ZDSECMGR_TC_DEVICE_IC_MAX;
gZDSECMGR_TC_DEVICE_IC_MAX:
        DB 1
//  165 /******************************************************************************
//  166  * PRIVATE FUNCTIONS
//  167  *
//  168  *   ZDSecMgrAddrStore
//  169  *   ZDSecMgrExtAddrStore
//  170  *   ZDSecMgrExtAddrLookup
//  171  *   ZDSecMgrEntryInit
//  172  *   ZDSecMgrEntryLookup
//  173  *   ZDSecMgrEntryLookupAMI
//  174  *   ZDSecMgrEntryLookupExt
//  175  *   ZDSecMgrEntryLookupExtGetIndex
//  176  *   ZDSecMgrEntryFree
//  177  *   ZDSecMgrEntryNew
//  178  *   ZDSecMgrAppKeyGet
//  179  *   ZDSecMgrAppKeyReq
//  180  *   ZDSecMgrTclkReq
//  181  *   ZDSecMgrAppConfKeyReq 
//  182  *   ZDSecMgrSendNwkKey
//  183  *   ZDSecMgrDeviceRemove
//  184  *   ZDSecMgrDeviceValidateRM
//  185  *   ZDSecMgrDeviceValidate
//  186  *   ZDSecMgrDeviceJoin
//  187  *   ZDSecMgrDeviceJoinDirect
//  188  *   ZDSecMgrDeviceJoinFwd
//  189  *   ZDSecMgrDeviceNew
//  190  *   ZDSecMgrAssocDeviceAuth
//  191  *   ZDSecMgrAuthNwkKey
//  192  *   APSME_TCLinkKeyInit
//  193  *   APSME_IsDefaultTCLK
//  194  */
//  195 
//  196 //-----------------------------------------------------------------------------
//  197 // address management
//  198 //-----------------------------------------------------------------------------
//  199 ZStatus_t ZDSecMgrAddrStore( uint16 nwkAddr, uint8* extAddr, uint16* ami );
//  200 ZStatus_t ZDSecMgrExtAddrStore( uint16 nwkAddr, uint8* extAddr, uint16* ami );
//  201 ZStatus_t ZDSecMgrExtAddrLookup( uint8* extAddr, uint16* ami );
//  202 
//  203 //-----------------------------------------------------------------------------
//  204 // Trust Center management
//  205 //-----------------------------------------------------------------------------
//  206 uint8 ZDSecMgrTCExtAddrCheck( uint8* extAddr );
//  207 void ZDSecMgrTCDataLoad( uint8* extAddr );
//  208 
//  209 //-----------------------------------------------------------------------------
//  210 // entry data
//  211 //-----------------------------------------------------------------------------
//  212 void ZDSecMgrEntryInit(uint8 state);
//  213 ZStatus_t ZDSecMgrEntryLookup( uint16 nwkAddr, ZDSecMgrEntry_t** entry );
//  214 ZStatus_t ZDSecMgrEntryLookupAMI( uint16 ami, ZDSecMgrEntry_t** entry );
//  215 ZStatus_t ZDSecMgrEntryLookupExt( uint8* extAddr, ZDSecMgrEntry_t** entry );
//  216 ZStatus_t ZDSecMgrEntryLookupExtGetIndex( uint8* extAddr, ZDSecMgrEntry_t** entry, uint16* entryIndex );
//  217 ZStatus_t ZDSecMgrEntryLookupAMIGetIndex( uint16 ami, uint16* entryIndex );
//  218 void ZDSecMgrEntryFree( ZDSecMgrEntry_t* entry );
//  219 ZStatus_t ZDSecMgrEntryNew( ZDSecMgrEntry_t** entry );
//  220 ZStatus_t ZDSecMgrAuthenticationSet( uint8* extAddr, ZDSecMgr_Authentication_Option option );
//  221 void ZDSecMgrApsLinkKeyInit(uint8 setDefault);
//  222 #if defined ( NV_RESTORE )
//  223 static void ZDSecMgrWriteNV(void);
//  224 static void ZDSecMgrRestoreFromNV(void);
//  225 static void ZDSecMgrUpdateNV( uint16 index );
//  226 #endif
//  227 
//  228 //-----------------------------------------------------------------------------
//  229 // key support
//  230 //-----------------------------------------------------------------------------
//  231 ZStatus_t ZDSecMgrAppKeyGet( uint16  initNwkAddr,
//  232                              uint8*  initExtAddr,
//  233                              uint16  partNwkAddr,
//  234                              uint8*  partExtAddr,
//  235                              uint8** key,
//  236                              uint8*  keyType );
//  237 void ZDSecMgrAppKeyReq( ZDO_RequestKeyInd_t* ind );
//  238 void ZDSecMgrTclkReq( ZDO_RequestKeyInd_t* ind );
//  239 void ZDSecMgrAppConfKeyReq( ZDO_VerifyKeyInd_t* ind );
//  240 ZStatus_t ZDSecMgrSendNwkKey( ZDSecMgrDevice_t* device );
//  241 void ZDSecMgrNwkKeyInit(uint8 setDefault);
//  242 
//  243 //-----------------------------------------------------------------------------
//  244 // device management
//  245 //-----------------------------------------------------------------------------
//  246 void ZDSecMgrDeviceRemove( ZDSecMgrDevice_t* device );
//  247 ZStatus_t ZDSecMgrDeviceValidateRM( ZDSecMgrDevice_t* device );
//  248 ZStatus_t ZDSecMgrDeviceValidate( ZDSecMgrDevice_t* device );
//  249 ZStatus_t ZDSecMgrDeviceJoin( ZDSecMgrDevice_t* device );
//  250 ZStatus_t ZDSecMgrDeviceJoinDirect( ZDSecMgrDevice_t* device );
//  251 ZStatus_t ZDSecMgrDeviceJoinFwd( ZDSecMgrDevice_t* device );
//  252 ZStatus_t ZDSecMgrDeviceNew( ZDSecMgrDevice_t* device );
//  253 
//  254 //-----------------------------------------------------------------------------
//  255 // association management
//  256 //-----------------------------------------------------------------------------
//  257 void ZDSecMgrAssocDeviceAuth( associated_devices_t* assoc );
//  258 
//  259 //-----------------------------------------------------------------------------
//  260 // authentication management
//  261 //-----------------------------------------------------------------------------
//  262 void ZDSecMgrAuthNwkKey( void );
//  263 
//  264 //-----------------------------------------------------------------------------
//  265 // APSME function
//  266 //-----------------------------------------------------------------------------
//  267 void APSME_TCLinkKeyInit( uint8 setDefault );
//  268 uint8 APSME_IsDefaultTCLK( uint8 *extAddr );
//  269 void ZDSecMgrGenerateSeed(uint8 setDefault );
//  270 void ZDSecMgrGenerateKeyFromSeed(uint8 *extAddr, uint8 shift, uint8 *key);
//  271 /******************************************************************************
//  272  * @fn          ZDSecMgrAddrStore
//  273  *
//  274  * @brief       Store device addresses.
//  275  *
//  276  * @param       nwkAddr - [in] NWK address
//  277  * @param       extAddr - [in] EXT address
//  278  * @param       ami     - [out] Address Manager index
//  279  *
//  280  * @return      ZStatus_t
//  281  */

        RSEG BANKED_CODE:CODE:NOROOT(0)
//  282 ZStatus_t ZDSecMgrAddrStore( uint16 nwkAddr, uint8* extAddr, uint16* ami )
ZDSecMgrAddrStore:
          CFI Block cfiBlock0 Using cfiCommon0
          CFI Function ZDSecMgrAddrStore
        CODE
//  283 {
        FUNCALL ZDSecMgrAddrStore, AddrMgrExtAddrSet
        LOCFRAME ISTACK, 0, STACK
        LOCFRAME PSTACK, 0, STACK
        LOCFRAME XSTACK, 22, STACK
        LOCFRAME IOVERLAY, 0, STATIC
        LOCFRAME DOVERLAY, 0, STATIC
        ARGFRAME ISTACK, 0, STACK
        ARGFRAME PSTACK, 0, STACK
        ARGFRAME XSTACK, 22, STACK
        ARGFRAME IOVERLAY, 0, STATIC
        ARGFRAME DOVERLAY, 0, STATIC
        FUNCALL ZDSecMgrAddrStore, AddrMgrEntryUpdate
        LOCFRAME ISTACK, 0, STACK
        LOCFRAME PSTACK, 0, STACK
        LOCFRAME XSTACK, 22, STACK
        LOCFRAME IOVERLAY, 0, STATIC
        LOCFRAME DOVERLAY, 0, STATIC
        ARGFRAME ISTACK, 0, STACK
        ARGFRAME PSTACK, 0, STACK
        ARGFRAME XSTACK, 22, STACK
        ARGFRAME IOVERLAY, 0, STATIC
        ARGFRAME DOVERLAY, 0, STATIC
        MOV     A,#-0x9
        LCALL   ?BANKED_ENTER_XDATA
          CFI DPH0 load(1, XDATA, add(CFA_XSP16, literal(-1)))
          CFI DPL0 load(1, XDATA, add(CFA_XSP16, literal(-2)))
          CFI ?BRET_EXT load(1, XDATA, add(CFA_XSP16, literal(-3)))
          CFI ?RET_HIGH load(1, XDATA, add(CFA_XSP16, literal(-4)))
          CFI ?RET_LOW load(1, XDATA, add(CFA_XSP16, literal(-5)))
          CFI R7 load(1, XDATA, add(CFA_XSP16, literal(-6)))
          CFI V0 load(1, XDATA, add(CFA_XSP16, literal(-7)))
          CFI VB load(1, XDATA, add(CFA_XSP16, literal(-8)))
          CFI R6 load(1, XDATA, add(CFA_XSP16, literal(-9)))
          CFI CFA_SP SP+0
          CFI CFA_XSP16 add(XSP16, 9)
        ; Saved register size: 9
        ; Auto size: 13
        MOV     A,#-0xd
        LCALL   ?ALLOC_XSTACK8
          CFI CFA_XSP16 add(XSP16, 22)
//  284   ZStatus_t      status;
//  285   AddrMgrEntry_t entry;
//  286 
//  287 
//  288   // add entry
//  289   entry.user    = ADDRMGR_USER_SECURITY;
        MOV     DPL,?XSP + 0
        MOV     DPH,?XSP + 1
        MOV     A,#0x2
        MOVX    @DPTR,A
//  290   entry.nwkAddr = nwkAddr;
        DEC     A
        LCALL   ?XSTACK_DISP0_8
        LCALL   ?Subroutine15 & 0xFFFF
//  291   AddrMgrExtAddrSet( entry.extAddr, extAddr );
??CrossCallReturnLabel_4:
        LCALL   ?XSTACK_DISP0_8
        MOV     R2,DPL
        MOV     R3,DPH
        LCALL   `??AddrMgrExtAddrSet::?relay`; Banked call to: AddrMgrExtAddrSet
        MOV     A,#0x16
        LCALL   ?XSTACK_DISP0_8
        LCALL   ?Subroutine30 & 0xFFFF
//  292 
//  293   if ( AddrMgrEntryUpdate( &entry ) == TRUE )
??CrossCallReturnLabel_30:
        LCALL   `??AddrMgrEntryUpdate::?relay`; Banked call to: AddrMgrEntryUpdate
        MOV     A,R1
        XRL     A,#0x1
        JNZ     ??ZDSecMgrAddrStore_0
//  294   {
//  295     // return successful results
//  296     *ami   = entry.index;
        MOV     A,#0xb
        LCALL   ?XSTACK_DISP0_8
        LCALL   ?Subroutine11 & 0xFFFF
//  297     status = ZSuccess;
//  298   }
??CrossCallReturnLabel_84:
        SJMP    ??CrossCallReturnLabel_14
//  299   else
//  300   {
//  301     // return failed results
//  302     *ami   = entry.index;
??ZDSecMgrAddrStore_0:
        MOV     A,#0xb
        LCALL   ?XSTACK_DISP0_8
        LCALL   ?Subroutine20 & 0xFFFF
//  303     status = ZNwkUnknownDevice;
//  304   }
//  305 
//  306   return status;
??CrossCallReturnLabel_14:
        LJMP    ?Subroutine0 & 0xFFFF
//  307 }
          CFI EndBlock cfiBlock0
//  308 
//  309 /******************************************************************************
//  310  * @fn          ZDSecMgrExtAddrStore
//  311  *
//  312  * @brief       Store EXT address.
//  313  *
//  314  * @param       extAddr - [in] EXT address
//  315  * @param       ami     - [out] Address Manager index
//  316  *
//  317  * @return      ZStatus_t
//  318  */

        RSEG BANKED_CODE:CODE:NOROOT(0)
//  319 ZStatus_t ZDSecMgrExtAddrStore( uint16 nwkAddr, uint8* extAddr, uint16* ami )
ZDSecMgrExtAddrStore:
          CFI Block cfiBlock1 Using cfiCommon0
          CFI Function ZDSecMgrExtAddrStore
        CODE
//  320 {
        FUNCALL ZDSecMgrExtAddrStore, AddrMgrExtAddrSet
        LOCFRAME ISTACK, 0, STACK
        LOCFRAME PSTACK, 0, STACK
        LOCFRAME XSTACK, 22, STACK
        LOCFRAME IOVERLAY, 0, STATIC
        LOCFRAME DOVERLAY, 0, STATIC
        ARGFRAME ISTACK, 0, STACK
        ARGFRAME PSTACK, 0, STACK
        ARGFRAME XSTACK, 22, STACK
        ARGFRAME IOVERLAY, 0, STATIC
        ARGFRAME DOVERLAY, 0, STATIC
        FUNCALL ZDSecMgrExtAddrStore, AddrMgrEntryUpdate
        LOCFRAME ISTACK, 0, STACK
        LOCFRAME PSTACK, 0, STACK
        LOCFRAME XSTACK, 22, STACK
        LOCFRAME IOVERLAY, 0, STATIC
        LOCFRAME DOVERLAY, 0, STATIC
        ARGFRAME ISTACK, 0, STACK
        ARGFRAME PSTACK, 0, STACK
        ARGFRAME XSTACK, 22, STACK
        ARGFRAME IOVERLAY, 0, STATIC
        ARGFRAME DOVERLAY, 0, STATIC
        MOV     A,#-0x9
        LCALL   ?BANKED_ENTER_XDATA
          CFI DPH0 load(1, XDATA, add(CFA_XSP16, literal(-1)))
          CFI DPL0 load(1, XDATA, add(CFA_XSP16, literal(-2)))
          CFI ?BRET_EXT load(1, XDATA, add(CFA_XSP16, literal(-3)))
          CFI ?RET_HIGH load(1, XDATA, add(CFA_XSP16, literal(-4)))
          CFI ?RET_LOW load(1, XDATA, add(CFA_XSP16, literal(-5)))
          CFI R7 load(1, XDATA, add(CFA_XSP16, literal(-6)))
          CFI V0 load(1, XDATA, add(CFA_XSP16, literal(-7)))
          CFI VB load(1, XDATA, add(CFA_XSP16, literal(-8)))
          CFI R6 load(1, XDATA, add(CFA_XSP16, literal(-9)))
          CFI CFA_SP SP+0
          CFI CFA_XSP16 add(XSP16, 9)
        ; Saved register size: 9
        ; Auto size: 13
        MOV     A,#-0xd
        LCALL   ?ALLOC_XSTACK8
          CFI CFA_XSP16 add(XSP16, 22)
//  321   ZStatus_t      status;
//  322   AddrMgrEntry_t entry;
//  323 
//  324 
//  325   // add entry
//  326   entry.user    = ADDRMGR_USER_SECURITY;
        MOV     DPL,?XSP + 0
        MOV     DPH,?XSP + 1
        MOV     A,#0x2
        MOVX    @DPTR,A
//  327   entry.nwkAddr = nwkAddr;
        DEC     A
        LCALL   ?XSTACK_DISP0_8
        LCALL   ?Subroutine15 & 0xFFFF
//  328   AddrMgrExtAddrSet( entry.extAddr, extAddr );
??CrossCallReturnLabel_5:
        LCALL   ?XSTACK_DISP0_8
        MOV     R2,DPL
        MOV     R3,DPH
        LCALL   `??AddrMgrExtAddrSet::?relay`; Banked call to: AddrMgrExtAddrSet
        MOV     A,#0x16
        LCALL   ?XSTACK_DISP0_8
        LCALL   ?Subroutine30 & 0xFFFF
//  329 
//  330   if ( AddrMgrEntryUpdate( &entry ) == TRUE )
??CrossCallReturnLabel_31:
        LCALL   `??AddrMgrEntryUpdate::?relay`; Banked call to: AddrMgrEntryUpdate
        MOV     A,R1
        XRL     A,#0x1
        JNZ     ??ZDSecMgrExtAddrStore_0
//  331   {
//  332     // return successful results
//  333     *ami   = entry.index;
        MOV     A,#0xb
        LCALL   ?XSTACK_DISP0_8
        LCALL   ?Subroutine11 & 0xFFFF
//  334     status = ZSuccess;
//  335   }
??CrossCallReturnLabel_85:
        SJMP    ??CrossCallReturnLabel_15
//  336   else
//  337   {
//  338     // return failed results
//  339     *ami   = entry.index;
??ZDSecMgrExtAddrStore_0:
        MOV     A,#0xb
        LCALL   ?XSTACK_DISP0_8
        LCALL   ?Subroutine20 & 0xFFFF
//  340     status = ZNwkUnknownDevice;
//  341   }
//  342 
//  343   return status;
??CrossCallReturnLabel_15:
        LJMP    ?Subroutine0 & 0xFFFF
//  344 }
          CFI EndBlock cfiBlock1

        RSEG BANKED_CODE:CODE:NOROOT(0)
?Subroutine30:
          CFI Block cfiCond2 Using cfiCommon0
          CFI Function ZDSecMgrAddrStore
          CFI Conditional ??CrossCallReturnLabel_30
          CFI R6 load(1, XDATA, add(CFA_XSP16, literal(-9)))
          CFI VB load(1, XDATA, add(CFA_XSP16, literal(-8)))
          CFI V0 load(1, XDATA, add(CFA_XSP16, literal(-7)))
          CFI R7 load(1, XDATA, add(CFA_XSP16, literal(-6)))
          CFI ?RET_LOW load(1, XDATA, add(CFA_XSP16, literal(-5)))
          CFI ?RET_HIGH load(1, XDATA, add(CFA_XSP16, literal(-4)))
          CFI ?BRET_EXT load(1, XDATA, add(CFA_XSP16, literal(-3)))
          CFI DPL0 load(1, XDATA, add(CFA_XSP16, literal(-2)))
          CFI DPH0 load(1, XDATA, add(CFA_XSP16, literal(-1)))
          CFI CFA_SP SP+-2
          CFI CFA_XSP16 add(XSP16, 22)
          CFI Block cfiCond3 Using cfiCommon0
          CFI (cfiCond3) Function ZDSecMgrExtAddrStore
          CFI (cfiCond3) Conditional ??CrossCallReturnLabel_31
          CFI (cfiCond3) R6 load(1, XDATA, add(CFA_XSP16, literal(-9)))
          CFI (cfiCond3) VB load(1, XDATA, add(CFA_XSP16, literal(-8)))
          CFI (cfiCond3) V0 load(1, XDATA, add(CFA_XSP16, literal(-7)))
          CFI (cfiCond3) R7 load(1, XDATA, add(CFA_XSP16, literal(-6)))
          CFI (cfiCond3) ?RET_LOW load(1, XDATA, add(CFA_XSP16, literal(-5)))
          CFI (cfiCond3) ?RET_HIGH load(1, XDATA, add(CFA_XSP16, literal(-4)))
          CFI (cfiCond3) ?BRET_EXT load(1, XDATA, add(CFA_XSP16, literal(-3)))
          CFI (cfiCond3) DPL0 load(1, XDATA, add(CFA_XSP16, literal(-2)))
          CFI (cfiCond3) DPH0 load(1, XDATA, add(CFA_XSP16, literal(-1)))
          CFI (cfiCond3) CFA_SP SP+-2
          CFI (cfiCond3) CFA_XSP16 add(XSP16, 22)
          CFI Block cfiPicker4 Using cfiCommon1
          CFI (cfiPicker4) NoFunction
          CFI (cfiPicker4) Picker
        LCALL   ?Subroutine52 & 0xFFFF
??CrossCallReturnLabel_163:
        MOV     R6,A
        MOV     A,R1
        MOV     R7,A
        ; Setup parameters for call to function AddrMgrEntryUpdate
        ; Setup parameters for call to function AddrMgrEntryUpdate
        MOV     R2,?XSP + 0
        MOV     R3,?XSP + 1
        RET
          CFI EndBlock cfiCond2
          CFI EndBlock cfiCond3
          CFI EndBlock cfiPicker4

        RSEG BANKED_CODE:CODE:NOROOT(0)
?Subroutine20:
          CFI Block cfiCond5 Using cfiCommon0
          CFI Function ZDSecMgrAddrStore
          CFI Conditional ??CrossCallReturnLabel_14
          CFI R6 load(1, XDATA, add(CFA_XSP16, literal(-9)))
          CFI VB load(1, XDATA, add(CFA_XSP16, literal(-8)))
          CFI V0 load(1, XDATA, add(CFA_XSP16, literal(-7)))
          CFI R7 load(1, XDATA, add(CFA_XSP16, literal(-6)))
          CFI ?RET_LOW load(1, XDATA, add(CFA_XSP16, literal(-5)))
          CFI ?RET_HIGH load(1, XDATA, add(CFA_XSP16, literal(-4)))
          CFI ?BRET_EXT load(1, XDATA, add(CFA_XSP16, literal(-3)))
          CFI DPL0 load(1, XDATA, add(CFA_XSP16, literal(-2)))
          CFI DPH0 load(1, XDATA, add(CFA_XSP16, literal(-1)))
          CFI CFA_SP SP+-2
          CFI CFA_XSP16 add(XSP16, 22)
          CFI Block cfiCond6 Using cfiCommon0
          CFI (cfiCond6) Function ZDSecMgrExtAddrStore
          CFI (cfiCond6) Conditional ??CrossCallReturnLabel_15
          CFI (cfiCond6) R6 load(1, XDATA, add(CFA_XSP16, literal(-9)))
          CFI (cfiCond6) VB load(1, XDATA, add(CFA_XSP16, literal(-8)))
          CFI (cfiCond6) V0 load(1, XDATA, add(CFA_XSP16, literal(-7)))
          CFI (cfiCond6) R7 load(1, XDATA, add(CFA_XSP16, literal(-6)))
          CFI (cfiCond6) ?RET_LOW load(1, XDATA, add(CFA_XSP16, literal(-5)))
          CFI (cfiCond6) ?RET_HIGH load(1, XDATA, add(CFA_XSP16, literal(-4)))
          CFI (cfiCond6) ?BRET_EXT load(1, XDATA, add(CFA_XSP16, literal(-3)))
          CFI (cfiCond6) DPL0 load(1, XDATA, add(CFA_XSP16, literal(-2)))
          CFI (cfiCond6) DPH0 load(1, XDATA, add(CFA_XSP16, literal(-1)))
          CFI (cfiCond6) CFA_SP SP+-2
          CFI (cfiCond6) CFA_XSP16 add(XSP16, 22)
          CFI Block cfiCond7 Using cfiCommon0
          CFI (cfiCond7) Function ZDSecMgrExtAddrLookup
          CFI (cfiCond7) Conditional ??CrossCallReturnLabel_16
          CFI (cfiCond7) R6 load(1, XDATA, add(CFA_XSP16, literal(-9)))
          CFI (cfiCond7) VB load(1, XDATA, add(CFA_XSP16, literal(-8)))
          CFI (cfiCond7) V0 load(1, XDATA, add(CFA_XSP16, literal(-7)))
          CFI (cfiCond7) R7 load(1, XDATA, add(CFA_XSP16, literal(-6)))
          CFI (cfiCond7) ?RET_LOW load(1, XDATA, add(CFA_XSP16, literal(-5)))
          CFI (cfiCond7) ?RET_HIGH load(1, XDATA, add(CFA_XSP16, literal(-4)))
          CFI (cfiCond7) ?BRET_EXT load(1, XDATA, add(CFA_XSP16, literal(-3)))
          CFI (cfiCond7) DPL0 load(1, XDATA, add(CFA_XSP16, literal(-2)))
          CFI (cfiCond7) DPH0 load(1, XDATA, add(CFA_XSP16, literal(-1)))
          CFI (cfiCond7) CFA_SP SP+-2
          CFI (cfiCond7) CFA_XSP16 add(XSP16, 22)
          CFI Block cfiPicker8 Using cfiCommon1
          CFI (cfiPicker8) NoFunction
          CFI (cfiPicker8) Picker
        LCALL   ?Subroutine53 & 0xFFFF
??CrossCallReturnLabel_184:
        MOV     DPL,R6
        MOV     DPH,R7
        LCALL   ?Subroutine49 & 0xFFFF
??CrossCallReturnLabel_147:
        MOV     R1,#-0x38
        RET
          CFI EndBlock cfiCond5
          CFI EndBlock cfiCond6
          CFI EndBlock cfiCond7
          CFI EndBlock cfiPicker8
//  345 
//  346 /******************************************************************************
//  347  * @fn          ZDSecMgrExtAddrLookup
//  348  *
//  349  * @brief       Lookup index for specified EXT address.
//  350  *
//  351  * @param       extAddr - [in] EXT address
//  352  * @param       ami     - [out] Address Manager index
//  353  *
//  354  * @return      ZStatus_t
//  355  */

        RSEG BANKED_CODE:CODE:NOROOT(0)
//  356 ZStatus_t ZDSecMgrExtAddrLookup( uint8* extAddr, uint16* ami )
ZDSecMgrExtAddrLookup:
          CFI Block cfiBlock9 Using cfiCommon0
          CFI Function ZDSecMgrExtAddrLookup
        CODE
//  357 {
        FUNCALL ZDSecMgrExtAddrLookup, AddrMgrExtAddrSet
        LOCFRAME ISTACK, 0, STACK
        LOCFRAME PSTACK, 0, STACK
        LOCFRAME XSTACK, 22, STACK
        LOCFRAME IOVERLAY, 0, STATIC
        LOCFRAME DOVERLAY, 0, STATIC
        ARGFRAME ISTACK, 0, STACK
        ARGFRAME PSTACK, 0, STACK
        ARGFRAME XSTACK, 22, STACK
        ARGFRAME IOVERLAY, 0, STATIC
        ARGFRAME DOVERLAY, 0, STATIC
        FUNCALL ZDSecMgrExtAddrLookup, AddrMgrEntryLookupExt
        LOCFRAME ISTACK, 0, STACK
        LOCFRAME PSTACK, 0, STACK
        LOCFRAME XSTACK, 22, STACK
        LOCFRAME IOVERLAY, 0, STATIC
        LOCFRAME DOVERLAY, 0, STATIC
        ARGFRAME ISTACK, 0, STACK
        ARGFRAME PSTACK, 0, STACK
        ARGFRAME XSTACK, 22, STACK
        ARGFRAME IOVERLAY, 0, STATIC
        ARGFRAME DOVERLAY, 0, STATIC
        MOV     A,#-0x9
        LCALL   ?BANKED_ENTER_XDATA
          CFI DPH0 load(1, XDATA, add(CFA_XSP16, literal(-1)))
          CFI DPL0 load(1, XDATA, add(CFA_XSP16, literal(-2)))
          CFI ?BRET_EXT load(1, XDATA, add(CFA_XSP16, literal(-3)))
          CFI ?RET_HIGH load(1, XDATA, add(CFA_XSP16, literal(-4)))
          CFI ?RET_LOW load(1, XDATA, add(CFA_XSP16, literal(-5)))
          CFI R7 load(1, XDATA, add(CFA_XSP16, literal(-6)))
          CFI V0 load(1, XDATA, add(CFA_XSP16, literal(-7)))
          CFI VB load(1, XDATA, add(CFA_XSP16, literal(-8)))
          CFI R6 load(1, XDATA, add(CFA_XSP16, literal(-9)))
          CFI CFA_SP SP+0
          CFI CFA_XSP16 add(XSP16, 9)
        ; Saved register size: 9
        ; Auto size: 13
        MOV     A,#-0xd
        LCALL   ?ALLOC_XSTACK8
          CFI CFA_XSP16 add(XSP16, 22)
        MOV     A,R4
        MOV     R6,A
        MOV     A,R5
        MOV     R7,A
//  358   ZStatus_t      status;
//  359   AddrMgrEntry_t entry;
//  360 
//  361 
//  362   // lookup entry
//  363   entry.user = ADDRMGR_USER_SECURITY;
        MOV     DPL,?XSP + 0
        MOV     DPH,?XSP + 1
        MOV     A,#0x2
        MOVX    @DPTR,A
//  364   AddrMgrExtAddrSet( entry.extAddr, extAddr );
        ; Setup parameters for call to function AddrMgrExtAddrSet
        MOV     A,R2
        MOV     R4,A
        MOV     A,R3
        MOV     R5,A
        MOV     A,#0x3
        LCALL   ?XSTACK_DISP0_8
        MOV     R2,DPL
        MOV     R3,DPH
        LCALL   `??AddrMgrExtAddrSet::?relay`; Banked call to: AddrMgrExtAddrSet
//  365 
//  366   if ( AddrMgrEntryLookupExt( &entry ) == TRUE )
        ; Setup parameters for call to function AddrMgrEntryLookupExt
        MOV     R2,?XSP + 0
        MOV     R3,?XSP + 1
        LCALL   `??AddrMgrEntryLookupExt::?relay`; Banked call to: AddrMgrEntryLookupExt
        MOV     A,R1
        XRL     A,#0x1
        JNZ     ??ZDSecMgrExtAddrLookup_0
//  367   {
//  368     // return successful results
//  369     *ami   = entry.index;
        MOV     A,#0xb
        LCALL   ?XSTACK_DISP0_8
        LCALL   ?Subroutine11 & 0xFFFF
//  370     status = ZSuccess;
//  371   }
??CrossCallReturnLabel_86:
        SJMP    ??CrossCallReturnLabel_16
//  372   else
//  373   {
//  374     // return failed results
//  375     *ami   = entry.index;
??ZDSecMgrExtAddrLookup_0:
        MOV     A,#0xb
        LCALL   ?XSTACK_DISP0_8
        LCALL   ?Subroutine20 & 0xFFFF
//  376     status = ZNwkUnknownDevice;
//  377   }
//  378 
//  379   return status;
??CrossCallReturnLabel_16:
        LJMP    ?Subroutine0 & 0xFFFF
//  380 }
          CFI EndBlock cfiBlock9
//  381 
//  382 /******************************************************************************
//  383  * @fn          ZDSecMgrAddrClear
//  384  *
//  385  * @brief       Clear security bit from Address Manager for specific device.
//  386  *
//  387  * @param       extAddr - [in] EXT address
//  388  *
//  389  * @return      ZStatus_t
//  390  */

        RSEG BANKED_CODE:CODE:NOROOT(0)
//  391 ZStatus_t ZDSecMgrAddrClear( uint8* extAddr )
ZDSecMgrAddrClear:
          CFI Block cfiBlock10 Using cfiCommon0
          CFI Function ZDSecMgrAddrClear
        CODE
//  392 {
        FUNCALL ZDSecMgrAddrClear, ZDSecMgrExtAddrLookup
        LOCFRAME ISTACK, 0, STACK
        LOCFRAME PSTACK, 0, STACK
        LOCFRAME XSTACK, 24, STACK
        LOCFRAME IOVERLAY, 0, STATIC
        LOCFRAME DOVERLAY, 0, STATIC
        ARGFRAME ISTACK, 0, STACK
        ARGFRAME PSTACK, 0, STACK
        ARGFRAME XSTACK, 24, STACK
        ARGFRAME IOVERLAY, 0, STATIC
        ARGFRAME DOVERLAY, 0, STATIC
        FUNCALL ZDSecMgrAddrClear, AddrMgrEntryRelease
        LOCFRAME ISTACK, 0, STACK
        LOCFRAME PSTACK, 0, STACK
        LOCFRAME XSTACK, 24, STACK
        LOCFRAME IOVERLAY, 0, STATIC
        LOCFRAME DOVERLAY, 0, STATIC
        ARGFRAME ISTACK, 0, STACK
        ARGFRAME PSTACK, 0, STACK
        ARGFRAME XSTACK, 24, STACK
        ARGFRAME IOVERLAY, 0, STATIC
        ARGFRAME DOVERLAY, 0, STATIC
        MOV     A,#-0x9
        LCALL   ?BANKED_ENTER_XDATA
          CFI DPH0 load(1, XDATA, add(CFA_XSP16, literal(-1)))
          CFI DPL0 load(1, XDATA, add(CFA_XSP16, literal(-2)))
          CFI ?BRET_EXT load(1, XDATA, add(CFA_XSP16, literal(-3)))
          CFI ?RET_HIGH load(1, XDATA, add(CFA_XSP16, literal(-4)))
          CFI ?RET_LOW load(1, XDATA, add(CFA_XSP16, literal(-5)))
          CFI R7 load(1, XDATA, add(CFA_XSP16, literal(-6)))
          CFI V0 load(1, XDATA, add(CFA_XSP16, literal(-7)))
          CFI VB load(1, XDATA, add(CFA_XSP16, literal(-8)))
          CFI R6 load(1, XDATA, add(CFA_XSP16, literal(-9)))
          CFI CFA_SP SP+0
          CFI CFA_XSP16 add(XSP16, 9)
        ; Saved register size: 9
        ; Auto size: 15
        MOV     A,#-0xf
        LCALL   ?ALLOC_XSTACK8
          CFI CFA_XSP16 add(XSP16, 24)
//  393   ZStatus_t status;
//  394   uint16 entryAmi;
//  395 
//  396   // get Address Manager Index
//  397   status = ZDSecMgrExtAddrLookup( extAddr, &entryAmi );
        ; Setup parameters for call to function ZDSecMgrExtAddrLookup
        MOV     R4,?XSP + 0
        MOV     R5,?XSP + 1
        LCALL   `??ZDSecMgrExtAddrLookup::?relay`; Banked call to: ZDSecMgrExtAddrLookup
        MOV     A,R1
        MOV     R6,A
//  398 
//  399   if ( status == ZSuccess )
        JNZ     ??ZDSecMgrAddrClear_0
//  400   {
//  401     AddrMgrEntry_t addrEntry;
//  402 
//  403     // Clear SECURITY User bit from the address manager
//  404     addrEntry.user = ADDRMGR_USER_SECURITY;
        MOV     A,#0x2
        LCALL   ?XSTACK_DISP0_8
        MOV     A,#0x2
        MOVX    @DPTR,A
//  405     addrEntry.index = entryAmi;
        LCALL   ?Subroutine31 & 0xFFFF
??CrossCallReturnLabel_179:
        MOV     A,#0xd
        LCALL   ?XSTACK_DISP0_8
        LCALL   ??Subroutine63_0 & 0xFFFF
//  406 
//  407     if ( AddrMgrEntryRelease( &addrEntry ) != TRUE )
??CrossCallReturnLabel_126:
        ; Setup parameters for call to function AddrMgrEntryRelease
        MOV     A,#0x2
        LCALL   ?XSTACK_DISP101_8
        LCALL   `??AddrMgrEntryRelease::?relay`; Banked call to: AddrMgrEntryRelease
        MOV     A,R1
        XRL     A,#0x1
        JZ      ??ZDSecMgrAddrClear_0
//  408     {
//  409       // return failure results
//  410       status = ZFailure;
        MOV     R6,#0x1
//  411     }
//  412   }
//  413 
//  414   return status;
??ZDSecMgrAddrClear_0:
        MOV     A,R6
        MOV     R1,A
        MOV     A,#0xf
        LJMP    ??Subroutine70_0 & 0xFFFF
//  415 }
          CFI EndBlock cfiBlock10
//  416 
//  417 /******************************************************************************
//  418  * @fn          ZDSecMgrEntryInit
//  419  *
//  420  * @brief       Initialize entry sub module
//  421  *
//  422  * @param       state - device initialization state
//  423  *
//  424  * @return      none
//  425  */

        RSEG BANKED_CODE:CODE:NOROOT(0)
//  426 void ZDSecMgrEntryInit(uint8 state)
ZDSecMgrEntryInit:
          CFI Block cfiBlock11 Using cfiCommon0
          CFI Function ZDSecMgrEntryInit
        CODE
//  427 {
        FUNCALL ZDSecMgrEntryInit, osal_mem_alloc
        LOCFRAME ISTACK, 0, STACK
        LOCFRAME PSTACK, 0, STACK
        LOCFRAME XSTACK, 9, STACK
        LOCFRAME IOVERLAY, 0, STATIC
        LOCFRAME DOVERLAY, 0, STATIC
        ARGFRAME ISTACK, 0, STACK
        ARGFRAME PSTACK, 0, STACK
        ARGFRAME XSTACK, 9, STACK
        ARGFRAME IOVERLAY, 0, STATIC
        ARGFRAME DOVERLAY, 0, STATIC
        FUNCALL ZDSecMgrEntryInit, ZDSecMgrRestoreFromNV
        LOCFRAME ISTACK, 0, STACK
        LOCFRAME PSTACK, 0, STACK
        LOCFRAME XSTACK, 9, STACK
        LOCFRAME IOVERLAY, 0, STATIC
        LOCFRAME DOVERLAY, 0, STATIC
        ARGFRAME ISTACK, 0, STACK
        ARGFRAME PSTACK, 0, STACK
        ARGFRAME XSTACK, 9, STACK
        ARGFRAME IOVERLAY, 0, STATIC
        ARGFRAME DOVERLAY, 0, STATIC
        MOV     A,#-0x9
        LCALL   ?BANKED_ENTER_XDATA
          CFI DPH0 load(1, XDATA, add(CFA_XSP16, literal(-1)))
          CFI DPL0 load(1, XDATA, add(CFA_XSP16, literal(-2)))
          CFI ?BRET_EXT load(1, XDATA, add(CFA_XSP16, literal(-3)))
          CFI ?RET_HIGH load(1, XDATA, add(CFA_XSP16, literal(-4)))
          CFI ?RET_LOW load(1, XDATA, add(CFA_XSP16, literal(-5)))
          CFI R7 load(1, XDATA, add(CFA_XSP16, literal(-6)))
          CFI V0 load(1, XDATA, add(CFA_XSP16, literal(-7)))
          CFI VB load(1, XDATA, add(CFA_XSP16, literal(-8)))
          CFI R6 load(1, XDATA, add(CFA_XSP16, literal(-9)))
          CFI CFA_SP SP+0
          CFI CFA_XSP16 add(XSP16, 9)
        ; Saved register size: 9
        ; Auto size: 0
        MOV     A,R1
        MOV     R6,A
//  428   if (ZDSecMgrEntries == NULL)
        MOV     DPTR,#ZDSecMgrEntries
        LCALL   ??Subroutine66_0 & 0xFFFF
??CrossCallReturnLabel_151:
        JNZ     ??ZDSecMgrEntryInit_0
//  429   {
//  430     uint16 index;
//  431 
//  432     if ((ZDSecMgrEntries = osal_mem_alloc(sizeof(ZDSecMgrEntry_t) * ZDSECMGR_ENTRY_MAX)) == NULL)
        ; Setup parameters for call to function osal_mem_alloc
        MOV     R2,#0xf
        MOV     R3,#0x0
        LCALL   `??osal_mem_alloc::?relay`; Banked call to: osal_mem_alloc
        MOV     DPTR,#ZDSecMgrEntries
        MOV     A,R2
        MOVX    @DPTR,A
        INC     DPTR
        MOV     A,R3
        LCALL   ??Subroutine60_0 & 0xFFFF
??CrossCallReturnLabel_101:
        JZ      ??ZDSecMgrEntryInit_1
//  433     {
//  434       return;
//  435     }
//  436 
//  437     for (index = 0; index < ZDSECMGR_ENTRY_MAX; index++)
        MOV     R0,#0x0
        MOV     R1,#0x0
//  438     {
//  439       ZDSecMgrEntries[index].ami = INVALID_NODE_ADDR;
??ZDSecMgrEntryInit_2:
        LCALL   ?Subroutine34 & 0xFFFF
??CrossCallReturnLabel_38:
        MOV     A,#-0x2
        MOVX    @DPTR,A
        INC     DPTR
        INC     A
        MOVX    @DPTR,A
//  440 
//  441       ZDSecMgrEntries[index].keyNvId = SEC_NO_KEY_NV_ID;
        MOV     DPL,R2
        MOV     DPH,R3
        INC     DPTR
        INC     DPTR
        CLR     A
        MOVX    @DPTR,A
        INC     DPTR
        MOVX    @DPTR,A
//  442     }
        INC     R0
        MOV     A,R0
        JNZ     ??ZDSecMgrEntryInit_3
        INC     R1
??ZDSecMgrEntryInit_3:
        LCALL   ?Subroutine41 & 0xFFFF
//  443   }
??CrossCallReturnLabel_92:
        JC      ??ZDSecMgrEntryInit_2
//  444 
//  445 #if defined NV_RESTORE
//  446   if (state == ZDO_INITDEV_RESTORED_NETWORK_STATE)
??ZDSecMgrEntryInit_0:
        MOV     A,R6
        JNZ     ??ZDSecMgrEntryInit_1
//  447   {
//  448     ZDSecMgrRestoreFromNV();
        ; Setup parameters for call to function ZDSecMgrRestoreFromNV
        LCALL   `??ZDSecMgrRestoreFromNV::?relay`; Banked call to: ZDSecMgrRestoreFromNV
//  449   }
//  450 #else
//  451   (void)state;
//  452 #endif
//  453 }
??ZDSecMgrEntryInit_1:
        LJMP    ??Subroutine71_0 & 0xFFFF
          CFI EndBlock cfiBlock11
//  454 
//  455 /******************************************************************************
//  456  * @fn          ZDSecMgrEntryLookup
//  457  *
//  458  * @brief       Lookup entry index using specified NWK address.
//  459  *
//  460  * @param       nwkAddr - [in] NWK address
//  461  * @param       entry   - [out] valid entry
//  462  *
//  463  * @return      ZStatus_t
//  464  */

        RSEG BANKED_CODE:CODE:NOROOT(0)
//  465 ZStatus_t ZDSecMgrEntryLookup( uint16 nwkAddr, ZDSecMgrEntry_t** entry )
ZDSecMgrEntryLookup:
          CFI Block cfiBlock12 Using cfiCommon0
          CFI Function ZDSecMgrEntryLookup
        CODE
//  466 {
        FUNCALL ZDSecMgrEntryLookup, AddrMgrEntryLookupNwk
        LOCFRAME ISTACK, 0, STACK
        LOCFRAME PSTACK, 0, STACK
        LOCFRAME XSTACK, 22, STACK
        LOCFRAME IOVERLAY, 0, STATIC
        LOCFRAME DOVERLAY, 0, STATIC
        ARGFRAME ISTACK, 0, STACK
        ARGFRAME PSTACK, 0, STACK
        ARGFRAME XSTACK, 22, STACK
        ARGFRAME IOVERLAY, 0, STATIC
        ARGFRAME DOVERLAY, 0, STATIC
        REQUIRE ?V0
        MOV     A,#-0x9
        LCALL   ?BANKED_ENTER_XDATA
          CFI DPH0 load(1, XDATA, add(CFA_XSP16, literal(-1)))
          CFI DPL0 load(1, XDATA, add(CFA_XSP16, literal(-2)))
          CFI ?BRET_EXT load(1, XDATA, add(CFA_XSP16, literal(-3)))
          CFI ?RET_HIGH load(1, XDATA, add(CFA_XSP16, literal(-4)))
          CFI ?RET_LOW load(1, XDATA, add(CFA_XSP16, literal(-5)))
          CFI R7 load(1, XDATA, add(CFA_XSP16, literal(-6)))
          CFI V0 load(1, XDATA, add(CFA_XSP16, literal(-7)))
          CFI VB load(1, XDATA, add(CFA_XSP16, literal(-8)))
          CFI R6 load(1, XDATA, add(CFA_XSP16, literal(-9)))
          CFI CFA_SP SP+0
          CFI CFA_XSP16 add(XSP16, 9)
        ; Saved register size: 9
        ; Auto size: 13
        MOV     A,#-0xd
        LCALL   ?ALLOC_XSTACK8
          CFI CFA_XSP16 add(XSP16, 22)
        MOV     A,R4
        MOV     R6,A
        MOV     A,R5
        MOV     R7,A
//  467   uint16         index;
//  468   AddrMgrEntry_t addrMgrEntry;
//  469 
//  470   // initialize results
//  471   *entry = NULL;
        MOV     DPL,R6
        MOV     DPH,R7
        LCALL   ?Subroutine10 & 0xFFFF
//  472 
//  473   // verify data is available
//  474   if ( ZDSecMgrEntries != NULL )
??CrossCallReturnLabel_97:
        JZ      ??ZDSecMgrEntryLookup_0
//  475   {
//  476     addrMgrEntry.user    = ADDRMGR_USER_SECURITY;
        MOV     DPL,?XSP + 0
        MOV     DPH,?XSP + 1
        MOV     A,#0x2
        MOVX    @DPTR,A
//  477     addrMgrEntry.nwkAddr = nwkAddr;
        DEC     A
        LCALL   ?XSTACK_DISP0_8
        LCALL   ?Subroutine18 & 0xFFFF
//  478 
//  479     if ( AddrMgrEntryLookupNwk( &addrMgrEntry ) == TRUE )
??CrossCallReturnLabel_187:
        LCALL   `??AddrMgrEntryLookupNwk::?relay`; Banked call to: AddrMgrEntryLookupNwk
        MOV     A,R1
        XRL     A,#0x1
        JNZ     ??ZDSecMgrEntryLookup_0
//  480     {
//  481       for ( index = 0; index < ZDSECMGR_ENTRY_MAX ; index++ )
        MOV     R0,#0x0
        MOV     R1,#0x0
//  482       {
//  483         if ( addrMgrEntry.index == ZDSecMgrEntries[index].ami )
??ZDSecMgrEntryLookup_1:
        LCALL   ?Subroutine55 & 0xFFFF
??CrossCallReturnLabel_80:
        MOV     A,#0xb
        LCALL   ?XSTACK_DISP0_8
        LCALL   ?Subroutine35 & 0xFFFF
??CrossCallReturnLabel_40:
        MOV     DPL,R2
        MOV     DPH,R3
        MOVX    A,@DPTR
        XRL     A,R4
        JNZ     ??ZDSecMgrEntryLookup_2
        INC     DPTR
        MOVX    A,@DPTR
        XRL     A,R5
??ZDSecMgrEntryLookup_2:
        JNZ     ??ZDSecMgrEntryLookup_3
//  484         {
//  485           // return successful results
//  486           *entry = &ZDSecMgrEntries[index];
        MOV     A,R2
        MOV     R0,A
        MOV     A,R3
        LCALL   ??Subroutine57_0 & 0xFFFF
//  487 
//  488           // break from loop
//  489           return ZSuccess;
//  490         }
//  491       }
??CrossCallReturnLabel_87:
        SJMP    ??ZDSecMgrEntryLookup_4
??ZDSecMgrEntryLookup_3:
        INC     R0
        MOV     A,R0
        JNZ     ??ZDSecMgrEntryLookup_5
        INC     R1
??ZDSecMgrEntryLookup_5:
        LCALL   ?Subroutine41 & 0xFFFF
//  492     }
//  493   }
??CrossCallReturnLabel_93:
        JC      ??ZDSecMgrEntryLookup_1
//  494 
//  495   return ZNwkUnknownDevice;
??ZDSecMgrEntryLookup_0:
        MOV     R1,#-0x38
??ZDSecMgrEntryLookup_4:
        LJMP    ?Subroutine0 & 0xFFFF
//  496 }
          CFI EndBlock cfiBlock12

        RSEG BANKED_CODE:CODE:NOROOT(0)
?Subroutine11:
          CFI Block cfiCond13 Using cfiCommon0
          CFI Function ZDSecMgrAddrStore
          CFI Conditional ??CrossCallReturnLabel_84
          CFI R6 load(1, XDATA, add(CFA_XSP16, literal(-9)))
          CFI VB load(1, XDATA, add(CFA_XSP16, literal(-8)))
          CFI V0 load(1, XDATA, add(CFA_XSP16, literal(-7)))
          CFI R7 load(1, XDATA, add(CFA_XSP16, literal(-6)))
          CFI ?RET_LOW load(1, XDATA, add(CFA_XSP16, literal(-5)))
          CFI ?RET_HIGH load(1, XDATA, add(CFA_XSP16, literal(-4)))
          CFI ?BRET_EXT load(1, XDATA, add(CFA_XSP16, literal(-3)))
          CFI DPL0 load(1, XDATA, add(CFA_XSP16, literal(-2)))
          CFI DPH0 load(1, XDATA, add(CFA_XSP16, literal(-1)))
          CFI CFA_SP SP+-2
          CFI CFA_XSP16 add(XSP16, 22)
          CFI Block cfiCond14 Using cfiCommon0
          CFI (cfiCond14) Function ZDSecMgrExtAddrStore
          CFI (cfiCond14) Conditional ??CrossCallReturnLabel_85
          CFI (cfiCond14) R6 load(1, XDATA, add(CFA_XSP16, literal(-9)))
          CFI (cfiCond14) VB load(1, XDATA, add(CFA_XSP16, literal(-8)))
          CFI (cfiCond14) V0 load(1, XDATA, add(CFA_XSP16, literal(-7)))
          CFI (cfiCond14) R7 load(1, XDATA, add(CFA_XSP16, literal(-6)))
          CFI (cfiCond14) ?RET_LOW load(1, XDATA, add(CFA_XSP16, literal(-5)))
          CFI (cfiCond14) ?RET_HIGH load(1, XDATA, add(CFA_XSP16, literal(-4)))
          CFI (cfiCond14) ?BRET_EXT load(1, XDATA, add(CFA_XSP16, literal(-3)))
          CFI (cfiCond14) DPL0 load(1, XDATA, add(CFA_XSP16, literal(-2)))
          CFI (cfiCond14) DPH0 load(1, XDATA, add(CFA_XSP16, literal(-1)))
          CFI (cfiCond14) CFA_SP SP+-2
          CFI (cfiCond14) CFA_XSP16 add(XSP16, 22)
          CFI Block cfiCond15 Using cfiCommon0
          CFI (cfiCond15) Function ZDSecMgrExtAddrLookup
          CFI (cfiCond15) Conditional ??CrossCallReturnLabel_86
          CFI (cfiCond15) R6 load(1, XDATA, add(CFA_XSP16, literal(-9)))
          CFI (cfiCond15) VB load(1, XDATA, add(CFA_XSP16, literal(-8)))
          CFI (cfiCond15) V0 load(1, XDATA, add(CFA_XSP16, literal(-7)))
          CFI (cfiCond15) R7 load(1, XDATA, add(CFA_XSP16, literal(-6)))
          CFI (cfiCond15) ?RET_LOW load(1, XDATA, add(CFA_XSP16, literal(-5)))
          CFI (cfiCond15) ?RET_HIGH load(1, XDATA, add(CFA_XSP16, literal(-4)))
          CFI (cfiCond15) ?BRET_EXT load(1, XDATA, add(CFA_XSP16, literal(-3)))
          CFI (cfiCond15) DPL0 load(1, XDATA, add(CFA_XSP16, literal(-2)))
          CFI (cfiCond15) DPH0 load(1, XDATA, add(CFA_XSP16, literal(-1)))
          CFI (cfiCond15) CFA_SP SP+-2
          CFI (cfiCond15) CFA_XSP16 add(XSP16, 22)
          CFI Block cfiPicker16 Using cfiCommon1
          CFI (cfiPicker16) NoFunction
          CFI (cfiPicker16) Picker
        MOVX    A,@DPTR
        MOV     R0,A
        INC     DPTR
        MOVX    A,@DPTR
          CFI EndBlock cfiCond13
          CFI EndBlock cfiCond14
          CFI EndBlock cfiCond15
          CFI EndBlock cfiPicker16
        REQUIRE ??Subroutine57_0
        ; // Fall through to label ??Subroutine57_0

        RSEG BANKED_CODE:CODE:NOROOT(0)
??Subroutine57_0:
          CFI Block cfiCond17 Using cfiCommon0
          CFI Function ZDSecMgrEntryLookup
          CFI Conditional ??CrossCallReturnLabel_87
          CFI R6 load(1, XDATA, add(CFA_XSP16, literal(-9)))
          CFI VB load(1, XDATA, add(CFA_XSP16, literal(-8)))
          CFI V0 load(1, XDATA, add(CFA_XSP16, literal(-7)))
          CFI R7 load(1, XDATA, add(CFA_XSP16, literal(-6)))
          CFI ?RET_LOW load(1, XDATA, add(CFA_XSP16, literal(-5)))
          CFI ?RET_HIGH load(1, XDATA, add(CFA_XSP16, literal(-4)))
          CFI ?BRET_EXT load(1, XDATA, add(CFA_XSP16, literal(-3)))
          CFI DPL0 load(1, XDATA, add(CFA_XSP16, literal(-2)))
          CFI DPH0 load(1, XDATA, add(CFA_XSP16, literal(-1)))
          CFI CFA_SP SP+-2
          CFI CFA_XSP16 add(XSP16, 22)
          CFI Block cfiCond18 Using cfiCommon0
          CFI (cfiCond18) Function ZDSecMgrAddrStore
          CFI (cfiCond18) Conditional ??CrossCallReturnLabel_84
          CFI (cfiCond18) R6 load(1, XDATA, add(CFA_XSP16, literal(-9)))
          CFI (cfiCond18) VB load(1, XDATA, add(CFA_XSP16, literal(-8)))
          CFI (cfiCond18) V0 load(1, XDATA, add(CFA_XSP16, literal(-7)))
          CFI (cfiCond18) R7 load(1, XDATA, add(CFA_XSP16, literal(-6)))
          CFI (cfiCond18) ?RET_LOW load(1, XDATA, add(CFA_XSP16, literal(-5)))
          CFI (cfiCond18) ?RET_HIGH load(1, XDATA, add(CFA_XSP16, literal(-4)))
          CFI (cfiCond18) ?BRET_EXT load(1, XDATA, add(CFA_XSP16, literal(-3)))
          CFI (cfiCond18) DPL0 load(1, XDATA, add(CFA_XSP16, literal(-2)))
          CFI (cfiCond18) DPH0 load(1, XDATA, add(CFA_XSP16, literal(-1)))
          CFI (cfiCond18) CFA_SP SP+-2
          CFI (cfiCond18) CFA_XSP16 add(XSP16, 22)
          CFI Block cfiCond19 Using cfiCommon0
          CFI (cfiCond19) Function ZDSecMgrExtAddrStore
          CFI (cfiCond19) Conditional ??CrossCallReturnLabel_85
          CFI (cfiCond19) R6 load(1, XDATA, add(CFA_XSP16, literal(-9)))
          CFI (cfiCond19) VB load(1, XDATA, add(CFA_XSP16, literal(-8)))
          CFI (cfiCond19) V0 load(1, XDATA, add(CFA_XSP16, literal(-7)))
          CFI (cfiCond19) R7 load(1, XDATA, add(CFA_XSP16, literal(-6)))
          CFI (cfiCond19) ?RET_LOW load(1, XDATA, add(CFA_XSP16, literal(-5)))
          CFI (cfiCond19) ?RET_HIGH load(1, XDATA, add(CFA_XSP16, literal(-4)))
          CFI (cfiCond19) ?BRET_EXT load(1, XDATA, add(CFA_XSP16, literal(-3)))
          CFI (cfiCond19) DPL0 load(1, XDATA, add(CFA_XSP16, literal(-2)))
          CFI (cfiCond19) DPH0 load(1, XDATA, add(CFA_XSP16, literal(-1)))
          CFI (cfiCond19) CFA_SP SP+-2
          CFI (cfiCond19) CFA_XSP16 add(XSP16, 22)
          CFI Block cfiCond20 Using cfiCommon0
          CFI (cfiCond20) Function ZDSecMgrExtAddrLookup
          CFI (cfiCond20) Conditional ??CrossCallReturnLabel_86
          CFI (cfiCond20) R6 load(1, XDATA, add(CFA_XSP16, literal(-9)))
          CFI (cfiCond20) VB load(1, XDATA, add(CFA_XSP16, literal(-8)))
          CFI (cfiCond20) V0 load(1, XDATA, add(CFA_XSP16, literal(-7)))
          CFI (cfiCond20) R7 load(1, XDATA, add(CFA_XSP16, literal(-6)))
          CFI (cfiCond20) ?RET_LOW load(1, XDATA, add(CFA_XSP16, literal(-5)))
          CFI (cfiCond20) ?RET_HIGH load(1, XDATA, add(CFA_XSP16, literal(-4)))
          CFI (cfiCond20) ?BRET_EXT load(1, XDATA, add(CFA_XSP16, literal(-3)))
          CFI (cfiCond20) DPL0 load(1, XDATA, add(CFA_XSP16, literal(-2)))
          CFI (cfiCond20) DPH0 load(1, XDATA, add(CFA_XSP16, literal(-1)))
          CFI (cfiCond20) CFA_SP SP+-2
          CFI (cfiCond20) CFA_XSP16 add(XSP16, 22)
          CFI Block cfiPicker21 Using cfiCommon1
          CFI (cfiPicker21) NoFunction
          CFI (cfiPicker21) Picker
        MOV     R1,A
        MOV     DPL,R6
        MOV     DPH,R7
          CFI EndBlock cfiCond17
          CFI EndBlock cfiCond18
          CFI EndBlock cfiCond19
          CFI EndBlock cfiCond20
          CFI EndBlock cfiPicker21
        REQUIRE ??Subroutine58_0
        ; // Fall through to label ??Subroutine58_0

        RSEG BANKED_CODE:CODE:NOROOT(0)
??Subroutine58_0:
          CFI Block cfiCond22 Using cfiCommon0
          CFI Function ZDSecMgrEntryLookupAMI
          CFI Conditional ??CrossCallReturnLabel_88
          CFI R6 load(1, XDATA, add(CFA_XSP16, literal(-9)))
          CFI VB load(1, XDATA, add(CFA_XSP16, literal(-8)))
          CFI V0 load(1, XDATA, add(CFA_XSP16, literal(-7)))
          CFI R7 load(1, XDATA, add(CFA_XSP16, literal(-6)))
          CFI ?RET_LOW load(1, XDATA, add(CFA_XSP16, literal(-5)))
          CFI ?RET_HIGH load(1, XDATA, add(CFA_XSP16, literal(-4)))
          CFI ?BRET_EXT load(1, XDATA, add(CFA_XSP16, literal(-3)))
          CFI DPL0 load(1, XDATA, add(CFA_XSP16, literal(-2)))
          CFI DPH0 load(1, XDATA, add(CFA_XSP16, literal(-1)))
          CFI CFA_SP SP+-2
          CFI CFA_XSP16 add(XSP16, 9)
          CFI Block cfiCond23 Using cfiCommon0
          CFI (cfiCond23) Function ZDSecMgrEntryLookupExtGetIndex
          CFI (cfiCond23) Conditional ??CrossCallReturnLabel_89
          CFI (cfiCond23) R6 load(1, XDATA, add(CFA_XSP16, literal(-9)))
          CFI (cfiCond23) VB load(1, XDATA, add(CFA_XSP16, literal(-8)))
          CFI (cfiCond23) V0 load(1, XDATA, add(CFA_XSP16, literal(-7)))
          CFI (cfiCond23) R7 load(1, XDATA, add(CFA_XSP16, literal(-6)))
          CFI (cfiCond23) ?RET_LOW load(1, XDATA, add(CFA_XSP16, literal(-5)))
          CFI (cfiCond23) ?RET_HIGH load(1, XDATA, add(CFA_XSP16, literal(-4)))
          CFI (cfiCond23) ?BRET_EXT load(1, XDATA, add(CFA_XSP16, literal(-3)))
          CFI (cfiCond23) DPL0 load(1, XDATA, add(CFA_XSP16, literal(-2)))
          CFI (cfiCond23) DPH0 load(1, XDATA, add(CFA_XSP16, literal(-1)))
          CFI (cfiCond23) CFA_SP SP+-2
          CFI (cfiCond23) CFA_XSP16 add(XSP16, 11)
          CFI Block cfiCond24 Using cfiCommon0
          CFI (cfiCond24) Function ZDSecMgrEntryLookupAMIGetIndex
          CFI (cfiCond24) Conditional ??CrossCallReturnLabel_90
          CFI (cfiCond24) R6 load(1, XDATA, add(CFA_XSP16, literal(-9)))
          CFI (cfiCond24) VB load(1, XDATA, add(CFA_XSP16, literal(-8)))
          CFI (cfiCond24) V0 load(1, XDATA, add(CFA_XSP16, literal(-7)))
          CFI (cfiCond24) R7 load(1, XDATA, add(CFA_XSP16, literal(-6)))
          CFI (cfiCond24) ?RET_LOW load(1, XDATA, add(CFA_XSP16, literal(-5)))
          CFI (cfiCond24) ?RET_HIGH load(1, XDATA, add(CFA_XSP16, literal(-4)))
          CFI (cfiCond24) ?BRET_EXT load(1, XDATA, add(CFA_XSP16, literal(-3)))
          CFI (cfiCond24) DPL0 load(1, XDATA, add(CFA_XSP16, literal(-2)))
          CFI (cfiCond24) DPH0 load(1, XDATA, add(CFA_XSP16, literal(-1)))
          CFI (cfiCond24) CFA_SP SP+-2
          CFI (cfiCond24) CFA_XSP16 add(XSP16, 9)
          CFI Block cfiCond25 Using cfiCommon0
          CFI (cfiCond25) Function ZDSecMgrEntryLookup
          CFI (cfiCond25) Conditional ??CrossCallReturnLabel_87
          CFI (cfiCond25) R6 load(1, XDATA, add(CFA_XSP16, literal(-9)))
          CFI (cfiCond25) VB load(1, XDATA, add(CFA_XSP16, literal(-8)))
          CFI (cfiCond25) V0 load(1, XDATA, add(CFA_XSP16, literal(-7)))
          CFI (cfiCond25) R7 load(1, XDATA, add(CFA_XSP16, literal(-6)))
          CFI (cfiCond25) ?RET_LOW load(1, XDATA, add(CFA_XSP16, literal(-5)))
          CFI (cfiCond25) ?RET_HIGH load(1, XDATA, add(CFA_XSP16, literal(-4)))
          CFI (cfiCond25) ?BRET_EXT load(1, XDATA, add(CFA_XSP16, literal(-3)))
          CFI (cfiCond25) DPL0 load(1, XDATA, add(CFA_XSP16, literal(-2)))
          CFI (cfiCond25) DPH0 load(1, XDATA, add(CFA_XSP16, literal(-1)))
          CFI (cfiCond25) CFA_SP SP+-2
          CFI (cfiCond25) CFA_XSP16 add(XSP16, 22)
          CFI Block cfiCond26 Using cfiCommon0
          CFI (cfiCond26) Function ZDSecMgrAddrStore
          CFI (cfiCond26) Conditional ??CrossCallReturnLabel_84
          CFI (cfiCond26) R6 load(1, XDATA, add(CFA_XSP16, literal(-9)))
          CFI (cfiCond26) VB load(1, XDATA, add(CFA_XSP16, literal(-8)))
          CFI (cfiCond26) V0 load(1, XDATA, add(CFA_XSP16, literal(-7)))
          CFI (cfiCond26) R7 load(1, XDATA, add(CFA_XSP16, literal(-6)))
          CFI (cfiCond26) ?RET_LOW load(1, XDATA, add(CFA_XSP16, literal(-5)))
          CFI (cfiCond26) ?RET_HIGH load(1, XDATA, add(CFA_XSP16, literal(-4)))
          CFI (cfiCond26) ?BRET_EXT load(1, XDATA, add(CFA_XSP16, literal(-3)))
          CFI (cfiCond26) DPL0 load(1, XDATA, add(CFA_XSP16, literal(-2)))
          CFI (cfiCond26) DPH0 load(1, XDATA, add(CFA_XSP16, literal(-1)))
          CFI (cfiCond26) CFA_SP SP+-2
          CFI (cfiCond26) CFA_XSP16 add(XSP16, 22)
          CFI Block cfiCond27 Using cfiCommon0
          CFI (cfiCond27) Function ZDSecMgrExtAddrStore
          CFI (cfiCond27) Conditional ??CrossCallReturnLabel_85
          CFI (cfiCond27) R6 load(1, XDATA, add(CFA_XSP16, literal(-9)))
          CFI (cfiCond27) VB load(1, XDATA, add(CFA_XSP16, literal(-8)))
          CFI (cfiCond27) V0 load(1, XDATA, add(CFA_XSP16, literal(-7)))
          CFI (cfiCond27) R7 load(1, XDATA, add(CFA_XSP16, literal(-6)))
          CFI (cfiCond27) ?RET_LOW load(1, XDATA, add(CFA_XSP16, literal(-5)))
          CFI (cfiCond27) ?RET_HIGH load(1, XDATA, add(CFA_XSP16, literal(-4)))
          CFI (cfiCond27) ?BRET_EXT load(1, XDATA, add(CFA_XSP16, literal(-3)))
          CFI (cfiCond27) DPL0 load(1, XDATA, add(CFA_XSP16, literal(-2)))
          CFI (cfiCond27) DPH0 load(1, XDATA, add(CFA_XSP16, literal(-1)))
          CFI (cfiCond27) CFA_SP SP+-2
          CFI (cfiCond27) CFA_XSP16 add(XSP16, 22)
          CFI Block cfiCond28 Using cfiCommon0
          CFI (cfiCond28) Function ZDSecMgrExtAddrLookup
          CFI (cfiCond28) Conditional ??CrossCallReturnLabel_86
          CFI (cfiCond28) R6 load(1, XDATA, add(CFA_XSP16, literal(-9)))
          CFI (cfiCond28) VB load(1, XDATA, add(CFA_XSP16, literal(-8)))
          CFI (cfiCond28) V0 load(1, XDATA, add(CFA_XSP16, literal(-7)))
          CFI (cfiCond28) R7 load(1, XDATA, add(CFA_XSP16, literal(-6)))
          CFI (cfiCond28) ?RET_LOW load(1, XDATA, add(CFA_XSP16, literal(-5)))
          CFI (cfiCond28) ?RET_HIGH load(1, XDATA, add(CFA_XSP16, literal(-4)))
          CFI (cfiCond28) ?BRET_EXT load(1, XDATA, add(CFA_XSP16, literal(-3)))
          CFI (cfiCond28) DPL0 load(1, XDATA, add(CFA_XSP16, literal(-2)))
          CFI (cfiCond28) DPH0 load(1, XDATA, add(CFA_XSP16, literal(-1)))
          CFI (cfiCond28) CFA_SP SP+-2
          CFI (cfiCond28) CFA_XSP16 add(XSP16, 22)
          CFI Block cfiPicker29 Using cfiCommon1
          CFI (cfiPicker29) NoFunction
          CFI (cfiPicker29) Picker
        LCALL   ?Subroutine49 & 0xFFFF
??CrossCallReturnLabel_149:
        MOV     R1,#0x0
        RET
          CFI EndBlock cfiCond22
          CFI EndBlock cfiCond23
          CFI EndBlock cfiCond24
          CFI EndBlock cfiCond25
          CFI EndBlock cfiCond26
          CFI EndBlock cfiCond27
          CFI EndBlock cfiCond28
          CFI EndBlock cfiPicker29
//  497 
//  498 /******************************************************************************
//  499  * @fn          ZDSecMgrEntryLookupAMI
//  500  *
//  501  * @brief       Lookup entry using specified address index
//  502  *
//  503  * @param       ami   - [in] Address Manager index
//  504  * @param       entry - [out] valid entry
//  505  *
//  506  * @return      ZStatus_t
//  507  */

        RSEG BANKED_CODE:CODE:NOROOT(0)
//  508 ZStatus_t ZDSecMgrEntryLookupAMI( uint16 ami, ZDSecMgrEntry_t** entry )
ZDSecMgrEntryLookupAMI:
          CFI Block cfiBlock30 Using cfiCommon0
          CFI Function ZDSecMgrEntryLookupAMI
        CODE
//  509 {
        REQUIRE ?V0
        MOV     A,#-0x9
        LCALL   ?BANKED_ENTER_XDATA
          CFI DPH0 load(1, XDATA, add(CFA_XSP16, literal(-1)))
          CFI DPL0 load(1, XDATA, add(CFA_XSP16, literal(-2)))
          CFI ?BRET_EXT load(1, XDATA, add(CFA_XSP16, literal(-3)))
          CFI ?RET_HIGH load(1, XDATA, add(CFA_XSP16, literal(-4)))
          CFI ?RET_LOW load(1, XDATA, add(CFA_XSP16, literal(-5)))
          CFI R7 load(1, XDATA, add(CFA_XSP16, literal(-6)))
          CFI V0 load(1, XDATA, add(CFA_XSP16, literal(-7)))
          CFI VB load(1, XDATA, add(CFA_XSP16, literal(-8)))
          CFI R6 load(1, XDATA, add(CFA_XSP16, literal(-9)))
          CFI CFA_SP SP+0
          CFI CFA_XSP16 add(XSP16, 9)
        ; Saved register size: 9
        ; Auto size: 0
//  510   uint16 index;
//  511 
//  512   // initialize results
//  513   *entry = NULL;
        MOV     DPL,R4
        MOV     DPH,R5
        LCALL   ?Subroutine10 & 0xFFFF
//  514 
//  515   // verify data is available
//  516   if ( ZDSecMgrEntries != NULL )
??CrossCallReturnLabel_98:
        JZ      ??ZDSecMgrEntryLookupAMI_0
//  517   {
//  518     for ( index = 0; index < ZDSECMGR_ENTRY_MAX ; index++ )
        MOV     R0,#0x0
        MOV     R1,#0x0
//  519     {
//  520       if ( ZDSecMgrEntries[index].ami == ami )
??ZDSecMgrEntryLookupAMI_1:
        LCALL   ?Subroutine44 & 0xFFFF
??CrossCallReturnLabel_59:
        MOV     R6,A
        INC     DPTR
        MOVX    A,@DPTR
        ADDC    A,R7
        MOV     R7,A
        MOV     DPL,R6
        MOV     DPH,R7
        MOVX    A,@DPTR
        XRL     A,R2
        JNZ     ??ZDSecMgrEntryLookupAMI_2
        INC     DPTR
        MOVX    A,@DPTR
        XRL     A,R3
??ZDSecMgrEntryLookupAMI_2:
        JNZ     ??ZDSecMgrEntryLookupAMI_3
//  521       {
//  522         // return successful results
//  523         *entry = &ZDSecMgrEntries[index];
        MOV     A,R6
        MOV     R0,A
        MOV     A,R7
        MOV     R1,A
        MOV     DPL,R4
        MOV     DPH,R5
        LCALL   ??Subroutine58_0 & 0xFFFF
//  524 
//  525         // break from loop
//  526         return ZSuccess;
//  527       }
//  528     }
??CrossCallReturnLabel_88:
        SJMP    ??ZDSecMgrEntryLookupAMI_4
??ZDSecMgrEntryLookupAMI_3:
        INC     R0
        MOV     A,R0
        JNZ     ??ZDSecMgrEntryLookupAMI_5
        INC     R1
??ZDSecMgrEntryLookupAMI_5:
        LCALL   ?Subroutine41 & 0xFFFF
//  529   }
??CrossCallReturnLabel_94:
        JC      ??ZDSecMgrEntryLookupAMI_1
//  530 
//  531   return ZNwkUnknownDevice;
??ZDSecMgrEntryLookupAMI_0:
        MOV     R1,#-0x38
??ZDSecMgrEntryLookupAMI_4:
        LJMP    ??Subroutine71_0 & 0xFFFF
//  532 }
          CFI EndBlock cfiBlock30

        RSEG BANKED_CODE:CODE:NOROOT(0)
?Subroutine41:
          CFI Block cfiCond31 Using cfiCommon0
          CFI Function ZDSecMgrEntryInit
          CFI Conditional ??CrossCallReturnLabel_92
          CFI R6 load(1, XDATA, add(CFA_XSP16, literal(-9)))
          CFI VB load(1, XDATA, add(CFA_XSP16, literal(-8)))
          CFI V0 load(1, XDATA, add(CFA_XSP16, literal(-7)))
          CFI R7 load(1, XDATA, add(CFA_XSP16, literal(-6)))
          CFI ?RET_LOW load(1, XDATA, add(CFA_XSP16, literal(-5)))
          CFI ?RET_HIGH load(1, XDATA, add(CFA_XSP16, literal(-4)))
          CFI ?BRET_EXT load(1, XDATA, add(CFA_XSP16, literal(-3)))
          CFI DPL0 load(1, XDATA, add(CFA_XSP16, literal(-2)))
          CFI DPH0 load(1, XDATA, add(CFA_XSP16, literal(-1)))
          CFI CFA_SP SP+-2
          CFI CFA_XSP16 add(XSP16, 9)
          CFI Block cfiCond32 Using cfiCommon0
          CFI (cfiCond32) Function ZDSecMgrEntryLookup
          CFI (cfiCond32) Conditional ??CrossCallReturnLabel_93
          CFI (cfiCond32) R6 load(1, XDATA, add(CFA_XSP16, literal(-9)))
          CFI (cfiCond32) VB load(1, XDATA, add(CFA_XSP16, literal(-8)))
          CFI (cfiCond32) V0 load(1, XDATA, add(CFA_XSP16, literal(-7)))
          CFI (cfiCond32) R7 load(1, XDATA, add(CFA_XSP16, literal(-6)))
          CFI (cfiCond32) ?RET_LOW load(1, XDATA, add(CFA_XSP16, literal(-5)))
          CFI (cfiCond32) ?RET_HIGH load(1, XDATA, add(CFA_XSP16, literal(-4)))
          CFI (cfiCond32) ?BRET_EXT load(1, XDATA, add(CFA_XSP16, literal(-3)))
          CFI (cfiCond32) DPL0 load(1, XDATA, add(CFA_XSP16, literal(-2)))
          CFI (cfiCond32) DPH0 load(1, XDATA, add(CFA_XSP16, literal(-1)))
          CFI (cfiCond32) CFA_SP SP+-2
          CFI (cfiCond32) CFA_XSP16 add(XSP16, 22)
          CFI Block cfiCond33 Using cfiCommon0
          CFI (cfiCond33) Function ZDSecMgrEntryLookupAMI
          CFI (cfiCond33) Conditional ??CrossCallReturnLabel_94
          CFI (cfiCond33) R6 load(1, XDATA, add(CFA_XSP16, literal(-9)))
          CFI (cfiCond33) VB load(1, XDATA, add(CFA_XSP16, literal(-8)))
          CFI (cfiCond33) V0 load(1, XDATA, add(CFA_XSP16, literal(-7)))
          CFI (cfiCond33) R7 load(1, XDATA, add(CFA_XSP16, literal(-6)))
          CFI (cfiCond33) ?RET_LOW load(1, XDATA, add(CFA_XSP16, literal(-5)))
          CFI (cfiCond33) ?RET_HIGH load(1, XDATA, add(CFA_XSP16, literal(-4)))
          CFI (cfiCond33) ?BRET_EXT load(1, XDATA, add(CFA_XSP16, literal(-3)))
          CFI (cfiCond33) DPL0 load(1, XDATA, add(CFA_XSP16, literal(-2)))
          CFI (cfiCond33) DPH0 load(1, XDATA, add(CFA_XSP16, literal(-1)))
          CFI (cfiCond33) CFA_SP SP+-2
          CFI (cfiCond33) CFA_XSP16 add(XSP16, 9)
          CFI Block cfiCond34 Using cfiCommon0
          CFI (cfiCond34) Function ZDSecMgrEntryLookupExtGetIndex
          CFI (cfiCond34) Conditional ??CrossCallReturnLabel_95
          CFI (cfiCond34) R6 load(1, XDATA, add(CFA_XSP16, literal(-9)))
          CFI (cfiCond34) VB load(1, XDATA, add(CFA_XSP16, literal(-8)))
          CFI (cfiCond34) V0 load(1, XDATA, add(CFA_XSP16, literal(-7)))
          CFI (cfiCond34) R7 load(1, XDATA, add(CFA_XSP16, literal(-6)))
          CFI (cfiCond34) ?RET_LOW load(1, XDATA, add(CFA_XSP16, literal(-5)))
          CFI (cfiCond34) ?RET_HIGH load(1, XDATA, add(CFA_XSP16, literal(-4)))
          CFI (cfiCond34) ?BRET_EXT load(1, XDATA, add(CFA_XSP16, literal(-3)))
          CFI (cfiCond34) DPL0 load(1, XDATA, add(CFA_XSP16, literal(-2)))
          CFI (cfiCond34) DPH0 load(1, XDATA, add(CFA_XSP16, literal(-1)))
          CFI (cfiCond34) CFA_SP SP+-2
          CFI (cfiCond34) CFA_XSP16 add(XSP16, 11)
          CFI Block cfiCond35 Using cfiCommon0
          CFI (cfiCond35) Function ZDSecMgrEntryLookupAMIGetIndex
          CFI (cfiCond35) Conditional ??CrossCallReturnLabel_96
          CFI (cfiCond35) R6 load(1, XDATA, add(CFA_XSP16, literal(-9)))
          CFI (cfiCond35) VB load(1, XDATA, add(CFA_XSP16, literal(-8)))
          CFI (cfiCond35) V0 load(1, XDATA, add(CFA_XSP16, literal(-7)))
          CFI (cfiCond35) R7 load(1, XDATA, add(CFA_XSP16, literal(-6)))
          CFI (cfiCond35) ?RET_LOW load(1, XDATA, add(CFA_XSP16, literal(-5)))
          CFI (cfiCond35) ?RET_HIGH load(1, XDATA, add(CFA_XSP16, literal(-4)))
          CFI (cfiCond35) ?BRET_EXT load(1, XDATA, add(CFA_XSP16, literal(-3)))
          CFI (cfiCond35) DPL0 load(1, XDATA, add(CFA_XSP16, literal(-2)))
          CFI (cfiCond35) DPH0 load(1, XDATA, add(CFA_XSP16, literal(-1)))
          CFI (cfiCond35) CFA_SP SP+-2
          CFI (cfiCond35) CFA_XSP16 add(XSP16, 9)
          CFI Block cfiPicker36 Using cfiCommon1
          CFI (cfiPicker36) NoFunction
          CFI (cfiPicker36) Picker
        CLR     C
          CFI EndBlock cfiCond31
          CFI EndBlock cfiCond32
          CFI EndBlock cfiCond33
          CFI EndBlock cfiCond34
          CFI EndBlock cfiCond35
          CFI EndBlock cfiPicker36
        REQUIRE ??Subroutine59_0
        ; // Fall through to label ??Subroutine59_0

        RSEG BANKED_CODE:CODE:NOROOT(0)
??Subroutine59_0:
          CFI Block cfiCond37 Using cfiCommon0
          CFI Function ZDSecMgrReadKeyFromNv
          CFI Conditional ??CrossCallReturnLabel_91
          CFI R6 load(1, XDATA, add(CFA_XSP16, literal(-15)))
          CFI VB load(1, XDATA, add(CFA_XSP16, literal(-14)))
          CFI V0 load(1, XDATA, add(CFA_XSP16, literal(-13)))
          CFI V1 load(1, XDATA, add(CFA_XSP16, literal(-12)))
          CFI V2 load(1, XDATA, add(CFA_XSP16, literal(-11)))
          CFI V3 load(1, XDATA, add(CFA_XSP16, literal(-10)))
          CFI V4 load(1, XDATA, add(CFA_XSP16, literal(-9)))
          CFI V5 load(1, XDATA, add(CFA_XSP16, literal(-8)))
          CFI V6 load(1, XDATA, add(CFA_XSP16, literal(-7)))
          CFI R7 load(1, XDATA, add(CFA_XSP16, literal(-6)))
          CFI ?RET_LOW load(1, XDATA, add(CFA_XSP16, literal(-5)))
          CFI ?RET_HIGH load(1, XDATA, add(CFA_XSP16, literal(-4)))
          CFI ?BRET_EXT load(1, XDATA, add(CFA_XSP16, literal(-3)))
          CFI DPL0 load(1, XDATA, add(CFA_XSP16, literal(-2)))
          CFI DPH0 load(1, XDATA, add(CFA_XSP16, literal(-1)))
          CFI CFA_SP SP+-2
          CFI CFA_XSP16 add(XSP16, 15)
          CFI Block cfiCond38 Using cfiCommon0
          CFI (cfiCond38) Function ZDSecMgrEntryInit
          CFI (cfiCond38) Conditional ??CrossCallReturnLabel_92
          CFI (cfiCond38) R6 load(1, XDATA, add(CFA_XSP16, literal(-9)))
          CFI (cfiCond38) VB load(1, XDATA, add(CFA_XSP16, literal(-8)))
          CFI (cfiCond38) V0 load(1, XDATA, add(CFA_XSP16, literal(-7)))
          CFI (cfiCond38) R7 load(1, XDATA, add(CFA_XSP16, literal(-6)))
          CFI (cfiCond38) ?RET_LOW load(1, XDATA, add(CFA_XSP16, literal(-5)))
          CFI (cfiCond38) ?RET_HIGH load(1, XDATA, add(CFA_XSP16, literal(-4)))
          CFI (cfiCond38) ?BRET_EXT load(1, XDATA, add(CFA_XSP16, literal(-3)))
          CFI (cfiCond38) DPL0 load(1, XDATA, add(CFA_XSP16, literal(-2)))
          CFI (cfiCond38) DPH0 load(1, XDATA, add(CFA_XSP16, literal(-1)))
          CFI (cfiCond38) CFA_SP SP+-2
          CFI (cfiCond38) CFA_XSP16 add(XSP16, 9)
          CFI Block cfiCond39 Using cfiCommon0
          CFI (cfiCond39) Function ZDSecMgrEntryLookup
          CFI (cfiCond39) Conditional ??CrossCallReturnLabel_93
          CFI (cfiCond39) R6 load(1, XDATA, add(CFA_XSP16, literal(-9)))
          CFI (cfiCond39) VB load(1, XDATA, add(CFA_XSP16, literal(-8)))
          CFI (cfiCond39) V0 load(1, XDATA, add(CFA_XSP16, literal(-7)))
          CFI (cfiCond39) R7 load(1, XDATA, add(CFA_XSP16, literal(-6)))
          CFI (cfiCond39) ?RET_LOW load(1, XDATA, add(CFA_XSP16, literal(-5)))
          CFI (cfiCond39) ?RET_HIGH load(1, XDATA, add(CFA_XSP16, literal(-4)))
          CFI (cfiCond39) ?BRET_EXT load(1, XDATA, add(CFA_XSP16, literal(-3)))
          CFI (cfiCond39) DPL0 load(1, XDATA, add(CFA_XSP16, literal(-2)))
          CFI (cfiCond39) DPH0 load(1, XDATA, add(CFA_XSP16, literal(-1)))
          CFI (cfiCond39) CFA_SP SP+-2
          CFI (cfiCond39) CFA_XSP16 add(XSP16, 22)
          CFI Block cfiCond40 Using cfiCommon0
          CFI (cfiCond40) Function ZDSecMgrEntryLookupAMI
          CFI (cfiCond40) Conditional ??CrossCallReturnLabel_94
          CFI (cfiCond40) R6 load(1, XDATA, add(CFA_XSP16, literal(-9)))
          CFI (cfiCond40) VB load(1, XDATA, add(CFA_XSP16, literal(-8)))
          CFI (cfiCond40) V0 load(1, XDATA, add(CFA_XSP16, literal(-7)))
          CFI (cfiCond40) R7 load(1, XDATA, add(CFA_XSP16, literal(-6)))
          CFI (cfiCond40) ?RET_LOW load(1, XDATA, add(CFA_XSP16, literal(-5)))
          CFI (cfiCond40) ?RET_HIGH load(1, XDATA, add(CFA_XSP16, literal(-4)))
          CFI (cfiCond40) ?BRET_EXT load(1, XDATA, add(CFA_XSP16, literal(-3)))
          CFI (cfiCond40) DPL0 load(1, XDATA, add(CFA_XSP16, literal(-2)))
          CFI (cfiCond40) DPH0 load(1, XDATA, add(CFA_XSP16, literal(-1)))
          CFI (cfiCond40) CFA_SP SP+-2
          CFI (cfiCond40) CFA_XSP16 add(XSP16, 9)
          CFI Block cfiCond41 Using cfiCommon0
          CFI (cfiCond41) Function ZDSecMgrEntryLookupExtGetIndex
          CFI (cfiCond41) Conditional ??CrossCallReturnLabel_95
          CFI (cfiCond41) R6 load(1, XDATA, add(CFA_XSP16, literal(-9)))
          CFI (cfiCond41) VB load(1, XDATA, add(CFA_XSP16, literal(-8)))
          CFI (cfiCond41) V0 load(1, XDATA, add(CFA_XSP16, literal(-7)))
          CFI (cfiCond41) R7 load(1, XDATA, add(CFA_XSP16, literal(-6)))
          CFI (cfiCond41) ?RET_LOW load(1, XDATA, add(CFA_XSP16, literal(-5)))
          CFI (cfiCond41) ?RET_HIGH load(1, XDATA, add(CFA_XSP16, literal(-4)))
          CFI (cfiCond41) ?BRET_EXT load(1, XDATA, add(CFA_XSP16, literal(-3)))
          CFI (cfiCond41) DPL0 load(1, XDATA, add(CFA_XSP16, literal(-2)))
          CFI (cfiCond41) DPH0 load(1, XDATA, add(CFA_XSP16, literal(-1)))
          CFI (cfiCond41) CFA_SP SP+-2
          CFI (cfiCond41) CFA_XSP16 add(XSP16, 11)
          CFI Block cfiCond42 Using cfiCommon0
          CFI (cfiCond42) Function ZDSecMgrEntryLookupAMIGetIndex
          CFI (cfiCond42) Conditional ??CrossCallReturnLabel_96
          CFI (cfiCond42) R6 load(1, XDATA, add(CFA_XSP16, literal(-9)))
          CFI (cfiCond42) VB load(1, XDATA, add(CFA_XSP16, literal(-8)))
          CFI (cfiCond42) V0 load(1, XDATA, add(CFA_XSP16, literal(-7)))
          CFI (cfiCond42) R7 load(1, XDATA, add(CFA_XSP16, literal(-6)))
          CFI (cfiCond42) ?RET_LOW load(1, XDATA, add(CFA_XSP16, literal(-5)))
          CFI (cfiCond42) ?RET_HIGH load(1, XDATA, add(CFA_XSP16, literal(-4)))
          CFI (cfiCond42) ?BRET_EXT load(1, XDATA, add(CFA_XSP16, literal(-3)))
          CFI (cfiCond42) DPL0 load(1, XDATA, add(CFA_XSP16, literal(-2)))
          CFI (cfiCond42) DPH0 load(1, XDATA, add(CFA_XSP16, literal(-1)))
          CFI (cfiCond42) CFA_SP SP+-2
          CFI (cfiCond42) CFA_XSP16 add(XSP16, 9)
          CFI Block cfiPicker43 Using cfiCommon1
          CFI (cfiPicker43) NoFunction
          CFI (cfiPicker43) Picker
        SUBB    A,#0x3
        MOV     A,R1
        SUBB    A,#0x0
        RET
          CFI EndBlock cfiCond37
          CFI EndBlock cfiCond38
          CFI EndBlock cfiCond39
          CFI EndBlock cfiCond40
          CFI EndBlock cfiCond41
          CFI EndBlock cfiCond42
          CFI EndBlock cfiPicker43

        RSEG BANKED_CODE:CODE:NOROOT(0)
?Subroutine10:
          CFI Block cfiCond44 Using cfiCommon0
          CFI Function ZDSecMgrEntryLookup
          CFI Conditional ??CrossCallReturnLabel_97
          CFI R6 load(1, XDATA, add(CFA_XSP16, literal(-9)))
          CFI VB load(1, XDATA, add(CFA_XSP16, literal(-8)))
          CFI V0 load(1, XDATA, add(CFA_XSP16, literal(-7)))
          CFI R7 load(1, XDATA, add(CFA_XSP16, literal(-6)))
          CFI ?RET_LOW load(1, XDATA, add(CFA_XSP16, literal(-5)))
          CFI ?RET_HIGH load(1, XDATA, add(CFA_XSP16, literal(-4)))
          CFI ?BRET_EXT load(1, XDATA, add(CFA_XSP16, literal(-3)))
          CFI DPL0 load(1, XDATA, add(CFA_XSP16, literal(-2)))
          CFI DPH0 load(1, XDATA, add(CFA_XSP16, literal(-1)))
          CFI CFA_SP SP+-2
          CFI CFA_XSP16 add(XSP16, 22)
          CFI Block cfiCond45 Using cfiCommon0
          CFI (cfiCond45) Function ZDSecMgrEntryLookupAMI
          CFI (cfiCond45) Conditional ??CrossCallReturnLabel_98
          CFI (cfiCond45) R6 load(1, XDATA, add(CFA_XSP16, literal(-9)))
          CFI (cfiCond45) VB load(1, XDATA, add(CFA_XSP16, literal(-8)))
          CFI (cfiCond45) V0 load(1, XDATA, add(CFA_XSP16, literal(-7)))
          CFI (cfiCond45) R7 load(1, XDATA, add(CFA_XSP16, literal(-6)))
          CFI (cfiCond45) ?RET_LOW load(1, XDATA, add(CFA_XSP16, literal(-5)))
          CFI (cfiCond45) ?RET_HIGH load(1, XDATA, add(CFA_XSP16, literal(-4)))
          CFI (cfiCond45) ?BRET_EXT load(1, XDATA, add(CFA_XSP16, literal(-3)))
          CFI (cfiCond45) DPL0 load(1, XDATA, add(CFA_XSP16, literal(-2)))
          CFI (cfiCond45) DPH0 load(1, XDATA, add(CFA_XSP16, literal(-1)))
          CFI (cfiCond45) CFA_SP SP+-2
          CFI (cfiCond45) CFA_XSP16 add(XSP16, 9)
          CFI Block cfiCond46 Using cfiCommon0
          CFI (cfiCond46) Function ZDSecMgrEntryNew
          CFI (cfiCond46) Conditional ??CrossCallReturnLabel_99
          CFI (cfiCond46) R6 load(1, XDATA, add(CFA_XSP16, literal(-9)))
          CFI (cfiCond46) VB load(1, XDATA, add(CFA_XSP16, literal(-8)))
          CFI (cfiCond46) V0 load(1, XDATA, add(CFA_XSP16, literal(-7)))
          CFI (cfiCond46) R7 load(1, XDATA, add(CFA_XSP16, literal(-6)))
          CFI (cfiCond46) ?RET_LOW load(1, XDATA, add(CFA_XSP16, literal(-5)))
          CFI (cfiCond46) ?RET_HIGH load(1, XDATA, add(CFA_XSP16, literal(-4)))
          CFI (cfiCond46) ?BRET_EXT load(1, XDATA, add(CFA_XSP16, literal(-3)))
          CFI (cfiCond46) DPL0 load(1, XDATA, add(CFA_XSP16, literal(-2)))
          CFI (cfiCond46) DPH0 load(1, XDATA, add(CFA_XSP16, literal(-1)))
          CFI (cfiCond46) CFA_SP SP+-2
          CFI (cfiCond46) CFA_XSP16 add(XSP16, 9)
          CFI Block cfiCond47 Using cfiCommon0
          CFI (cfiCond47) Function ZDSecMgrWriteNV
          CFI (cfiCond47) Conditional ??CrossCallReturnLabel_100
          CFI (cfiCond47) R6 load(1, XDATA, add(CFA_XSP16, literal(-12)))
          CFI (cfiCond47) VB load(1, XDATA, add(CFA_XSP16, literal(-11)))
          CFI (cfiCond47) V0 load(1, XDATA, add(CFA_XSP16, literal(-10)))
          CFI (cfiCond47) V1 load(1, XDATA, add(CFA_XSP16, literal(-9)))
          CFI (cfiCond47) V2 load(1, XDATA, add(CFA_XSP16, literal(-8)))
          CFI (cfiCond47) V3 load(1, XDATA, add(CFA_XSP16, literal(-7)))
          CFI (cfiCond47) R7 load(1, XDATA, add(CFA_XSP16, literal(-6)))
          CFI (cfiCond47) ?RET_LOW load(1, XDATA, add(CFA_XSP16, literal(-5)))
          CFI (cfiCond47) ?RET_HIGH load(1, XDATA, add(CFA_XSP16, literal(-4)))
          CFI (cfiCond47) ?BRET_EXT load(1, XDATA, add(CFA_XSP16, literal(-3)))
          CFI (cfiCond47) DPL0 load(1, XDATA, add(CFA_XSP16, literal(-2)))
          CFI (cfiCond47) DPH0 load(1, XDATA, add(CFA_XSP16, literal(-1)))
          CFI (cfiCond47) CFA_SP SP+-2
          CFI (cfiCond47) CFA_XSP16 add(XSP16, 14)
          CFI Block cfiPicker48 Using cfiCommon1
          CFI (cfiPicker48) NoFunction
          CFI (cfiPicker48) Picker
        CLR     A
        MOVX    @DPTR,A
        INC     DPTR
          CFI EndBlock cfiCond44
          CFI EndBlock cfiCond45
          CFI EndBlock cfiCond46
          CFI EndBlock cfiCond47
          CFI EndBlock cfiPicker48
        REQUIRE ??Subroutine60_0
        ; // Fall through to label ??Subroutine60_0

        RSEG BANKED_CODE:CODE:NOROOT(0)
??Subroutine60_0:
          CFI Block cfiCond49 Using cfiCommon0
          CFI Function ZDSecMgrEntryInit
          CFI Conditional ??CrossCallReturnLabel_101
          CFI R6 load(1, XDATA, add(CFA_XSP16, literal(-9)))
          CFI VB load(1, XDATA, add(CFA_XSP16, literal(-8)))
          CFI V0 load(1, XDATA, add(CFA_XSP16, literal(-7)))
          CFI R7 load(1, XDATA, add(CFA_XSP16, literal(-6)))
          CFI ?RET_LOW load(1, XDATA, add(CFA_XSP16, literal(-5)))
          CFI ?RET_HIGH load(1, XDATA, add(CFA_XSP16, literal(-4)))
          CFI ?BRET_EXT load(1, XDATA, add(CFA_XSP16, literal(-3)))
          CFI DPL0 load(1, XDATA, add(CFA_XSP16, literal(-2)))
          CFI DPH0 load(1, XDATA, add(CFA_XSP16, literal(-1)))
          CFI CFA_SP SP+-2
          CFI CFA_XSP16 add(XSP16, 9)
          CFI Block cfiCond50 Using cfiCommon0
          CFI (cfiCond50) Function ZDSecMgrEntryLookup
          CFI (cfiCond50) Conditional ??CrossCallReturnLabel_97
          CFI (cfiCond50) R6 load(1, XDATA, add(CFA_XSP16, literal(-9)))
          CFI (cfiCond50) VB load(1, XDATA, add(CFA_XSP16, literal(-8)))
          CFI (cfiCond50) V0 load(1, XDATA, add(CFA_XSP16, literal(-7)))
          CFI (cfiCond50) R7 load(1, XDATA, add(CFA_XSP16, literal(-6)))
          CFI (cfiCond50) ?RET_LOW load(1, XDATA, add(CFA_XSP16, literal(-5)))
          CFI (cfiCond50) ?RET_HIGH load(1, XDATA, add(CFA_XSP16, literal(-4)))
          CFI (cfiCond50) ?BRET_EXT load(1, XDATA, add(CFA_XSP16, literal(-3)))
          CFI (cfiCond50) DPL0 load(1, XDATA, add(CFA_XSP16, literal(-2)))
          CFI (cfiCond50) DPH0 load(1, XDATA, add(CFA_XSP16, literal(-1)))
          CFI (cfiCond50) CFA_SP SP+-2
          CFI (cfiCond50) CFA_XSP16 add(XSP16, 22)
          CFI Block cfiCond51 Using cfiCommon0
          CFI (cfiCond51) Function ZDSecMgrEntryLookupAMI
          CFI (cfiCond51) Conditional ??CrossCallReturnLabel_98
          CFI (cfiCond51) R6 load(1, XDATA, add(CFA_XSP16, literal(-9)))
          CFI (cfiCond51) VB load(1, XDATA, add(CFA_XSP16, literal(-8)))
          CFI (cfiCond51) V0 load(1, XDATA, add(CFA_XSP16, literal(-7)))
          CFI (cfiCond51) R7 load(1, XDATA, add(CFA_XSP16, literal(-6)))
          CFI (cfiCond51) ?RET_LOW load(1, XDATA, add(CFA_XSP16, literal(-5)))
          CFI (cfiCond51) ?RET_HIGH load(1, XDATA, add(CFA_XSP16, literal(-4)))
          CFI (cfiCond51) ?BRET_EXT load(1, XDATA, add(CFA_XSP16, literal(-3)))
          CFI (cfiCond51) DPL0 load(1, XDATA, add(CFA_XSP16, literal(-2)))
          CFI (cfiCond51) DPH0 load(1, XDATA, add(CFA_XSP16, literal(-1)))
          CFI (cfiCond51) CFA_SP SP+-2
          CFI (cfiCond51) CFA_XSP16 add(XSP16, 9)
          CFI Block cfiCond52 Using cfiCommon0
          CFI (cfiCond52) Function ZDSecMgrEntryNew
          CFI (cfiCond52) Conditional ??CrossCallReturnLabel_99
          CFI (cfiCond52) R6 load(1, XDATA, add(CFA_XSP16, literal(-9)))
          CFI (cfiCond52) VB load(1, XDATA, add(CFA_XSP16, literal(-8)))
          CFI (cfiCond52) V0 load(1, XDATA, add(CFA_XSP16, literal(-7)))
          CFI (cfiCond52) R7 load(1, XDATA, add(CFA_XSP16, literal(-6)))
          CFI (cfiCond52) ?RET_LOW load(1, XDATA, add(CFA_XSP16, literal(-5)))
          CFI (cfiCond52) ?RET_HIGH load(1, XDATA, add(CFA_XSP16, literal(-4)))
          CFI (cfiCond52) ?BRET_EXT load(1, XDATA, add(CFA_XSP16, literal(-3)))
          CFI (cfiCond52) DPL0 load(1, XDATA, add(CFA_XSP16, literal(-2)))
          CFI (cfiCond52) DPH0 load(1, XDATA, add(CFA_XSP16, literal(-1)))
          CFI (cfiCond52) CFA_SP SP+-2
          CFI (cfiCond52) CFA_XSP16 add(XSP16, 9)
          CFI Block cfiCond53 Using cfiCommon0
          CFI (cfiCond53) Function ZDSecMgrWriteNV
          CFI (cfiCond53) Conditional ??CrossCallReturnLabel_100
          CFI (cfiCond53) R6 load(1, XDATA, add(CFA_XSP16, literal(-12)))
          CFI (cfiCond53) VB load(1, XDATA, add(CFA_XSP16, literal(-11)))
          CFI (cfiCond53) V0 load(1, XDATA, add(CFA_XSP16, literal(-10)))
          CFI (cfiCond53) V1 load(1, XDATA, add(CFA_XSP16, literal(-9)))
          CFI (cfiCond53) V2 load(1, XDATA, add(CFA_XSP16, literal(-8)))
          CFI (cfiCond53) V3 load(1, XDATA, add(CFA_XSP16, literal(-7)))
          CFI (cfiCond53) R7 load(1, XDATA, add(CFA_XSP16, literal(-6)))
          CFI (cfiCond53) ?RET_LOW load(1, XDATA, add(CFA_XSP16, literal(-5)))
          CFI (cfiCond53) ?RET_HIGH load(1, XDATA, add(CFA_XSP16, literal(-4)))
          CFI (cfiCond53) ?BRET_EXT load(1, XDATA, add(CFA_XSP16, literal(-3)))
          CFI (cfiCond53) DPL0 load(1, XDATA, add(CFA_XSP16, literal(-2)))
          CFI (cfiCond53) DPH0 load(1, XDATA, add(CFA_XSP16, literal(-1)))
          CFI (cfiCond53) CFA_SP SP+-2
          CFI (cfiCond53) CFA_XSP16 add(XSP16, 14)
          CFI Block cfiPicker54 Using cfiCommon1
          CFI (cfiPicker54) NoFunction
          CFI (cfiPicker54) Picker
        MOVX    @DPTR,A
        MOV     DPTR,#ZDSecMgrEntries
        LCALL   ?Subroutine52 & 0xFFFF
??CrossCallReturnLabel_164:
        ORL     A,R1
        RET
          CFI EndBlock cfiCond49
          CFI EndBlock cfiCond50
          CFI EndBlock cfiCond51
          CFI EndBlock cfiCond52
          CFI EndBlock cfiCond53
          CFI EndBlock cfiPicker54

        RSEG BANKED_CODE:CODE:NOROOT(0)
?Subroutine52:
          CFI Block cfiCond55 Using cfiCommon0
          CFI Function ZDSecMgrAddrStore
          CFI Conditional ??CrossCallReturnLabel_163, ??CrossCallReturnLabel_30
          CFI R6 load(1, XDATA, add(CFA_XSP16, literal(-9)))
          CFI VB load(1, XDATA, add(CFA_XSP16, literal(-8)))
          CFI V0 load(1, XDATA, add(CFA_XSP16, literal(-7)))
          CFI R7 load(1, XDATA, add(CFA_XSP16, literal(-6)))
          CFI ?RET_LOW load(1, XDATA, add(CFA_XSP16, literal(-5)))
          CFI ?RET_HIGH load(1, XDATA, add(CFA_XSP16, literal(-4)))
          CFI ?BRET_EXT load(1, XDATA, add(CFA_XSP16, literal(-3)))
          CFI DPL0 load(1, XDATA, add(CFA_XSP16, literal(-2)))
          CFI DPH0 load(1, XDATA, add(CFA_XSP16, literal(-1)))
          CFI CFA_SP SP+-4
          CFI CFA_XSP16 add(XSP16, 22)
          CFI Block cfiCond56 Using cfiCommon0
          CFI (cfiCond56) Function ZDSecMgrExtAddrStore
          CFI (cfiCond56) Conditional ??CrossCallReturnLabel_163, ??CrossCallReturnLabel_31
          CFI (cfiCond56) R6 load(1, XDATA, add(CFA_XSP16, literal(-9)))
          CFI (cfiCond56) VB load(1, XDATA, add(CFA_XSP16, literal(-8)))
          CFI (cfiCond56) V0 load(1, XDATA, add(CFA_XSP16, literal(-7)))
          CFI (cfiCond56) R7 load(1, XDATA, add(CFA_XSP16, literal(-6)))
          CFI (cfiCond56) ?RET_LOW load(1, XDATA, add(CFA_XSP16, literal(-5)))
          CFI (cfiCond56) ?RET_HIGH load(1, XDATA, add(CFA_XSP16, literal(-4)))
          CFI (cfiCond56) ?BRET_EXT load(1, XDATA, add(CFA_XSP16, literal(-3)))
          CFI (cfiCond56) DPL0 load(1, XDATA, add(CFA_XSP16, literal(-2)))
          CFI (cfiCond56) DPH0 load(1, XDATA, add(CFA_XSP16, literal(-1)))
          CFI (cfiCond56) CFA_SP SP+-4
          CFI (cfiCond56) CFA_XSP16 add(XSP16, 22)
          CFI Block cfiCond57 Using cfiCommon0
          CFI (cfiCond57) Function ZDSecMgrEntryLookup
          CFI (cfiCond57) Conditional ??CrossCallReturnLabel_164, ??CrossCallReturnLabel_97
          CFI (cfiCond57) R6 load(1, XDATA, add(CFA_XSP16, literal(-9)))
          CFI (cfiCond57) VB load(1, XDATA, add(CFA_XSP16, literal(-8)))
          CFI (cfiCond57) V0 load(1, XDATA, add(CFA_XSP16, literal(-7)))
          CFI (cfiCond57) R7 load(1, XDATA, add(CFA_XSP16, literal(-6)))
          CFI (cfiCond57) ?RET_LOW load(1, XDATA, add(CFA_XSP16, literal(-5)))
          CFI (cfiCond57) ?RET_HIGH load(1, XDATA, add(CFA_XSP16, literal(-4)))
          CFI (cfiCond57) ?BRET_EXT load(1, XDATA, add(CFA_XSP16, literal(-3)))
          CFI (cfiCond57) DPL0 load(1, XDATA, add(CFA_XSP16, literal(-2)))
          CFI (cfiCond57) DPH0 load(1, XDATA, add(CFA_XSP16, literal(-1)))
          CFI (cfiCond57) CFA_SP SP+-4
          CFI (cfiCond57) CFA_XSP16 add(XSP16, 22)
          CFI Block cfiCond58 Using cfiCommon0
          CFI (cfiCond58) Function ZDSecMgrEntryLookupAMI
          CFI (cfiCond58) Conditional ??CrossCallReturnLabel_164, ??CrossCallReturnLabel_98
          CFI (cfiCond58) R6 load(1, XDATA, add(CFA_XSP16, literal(-9)))
          CFI (cfiCond58) VB load(1, XDATA, add(CFA_XSP16, literal(-8)))
          CFI (cfiCond58) V0 load(1, XDATA, add(CFA_XSP16, literal(-7)))
          CFI (cfiCond58) R7 load(1, XDATA, add(CFA_XSP16, literal(-6)))
          CFI (cfiCond58) ?RET_LOW load(1, XDATA, add(CFA_XSP16, literal(-5)))
          CFI (cfiCond58) ?RET_HIGH load(1, XDATA, add(CFA_XSP16, literal(-4)))
          CFI (cfiCond58) ?BRET_EXT load(1, XDATA, add(CFA_XSP16, literal(-3)))
          CFI (cfiCond58) DPL0 load(1, XDATA, add(CFA_XSP16, literal(-2)))
          CFI (cfiCond58) DPH0 load(1, XDATA, add(CFA_XSP16, literal(-1)))
          CFI (cfiCond58) CFA_SP SP+-4
          CFI (cfiCond58) CFA_XSP16 add(XSP16, 9)
          CFI Block cfiCond59 Using cfiCommon0
          CFI (cfiCond59) Function ZDSecMgrEntryNew
          CFI (cfiCond59) Conditional ??CrossCallReturnLabel_164, ??CrossCallReturnLabel_99
          CFI (cfiCond59) R6 load(1, XDATA, add(CFA_XSP16, literal(-9)))
          CFI (cfiCond59) VB load(1, XDATA, add(CFA_XSP16, literal(-8)))
          CFI (cfiCond59) V0 load(1, XDATA, add(CFA_XSP16, literal(-7)))
          CFI (cfiCond59) R7 load(1, XDATA, add(CFA_XSP16, literal(-6)))
          CFI (cfiCond59) ?RET_LOW load(1, XDATA, add(CFA_XSP16, literal(-5)))
          CFI (cfiCond59) ?RET_HIGH load(1, XDATA, add(CFA_XSP16, literal(-4)))
          CFI (cfiCond59) ?BRET_EXT load(1, XDATA, add(CFA_XSP16, literal(-3)))
          CFI (cfiCond59) DPL0 load(1, XDATA, add(CFA_XSP16, literal(-2)))
          CFI (cfiCond59) DPH0 load(1, XDATA, add(CFA_XSP16, literal(-1)))
          CFI (cfiCond59) CFA_SP SP+-4
          CFI (cfiCond59) CFA_XSP16 add(XSP16, 9)
          CFI Block cfiCond60 Using cfiCommon0
          CFI (cfiCond60) Function ZDSecMgrWriteNV
          CFI (cfiCond60) Conditional ??CrossCallReturnLabel_164, ??CrossCallReturnLabel_100
          CFI (cfiCond60) R6 load(1, XDATA, add(CFA_XSP16, literal(-12)))
          CFI (cfiCond60) VB load(1, XDATA, add(CFA_XSP16, literal(-11)))
          CFI (cfiCond60) V0 load(1, XDATA, add(CFA_XSP16, literal(-10)))
          CFI (cfiCond60) V1 load(1, XDATA, add(CFA_XSP16, literal(-9)))
          CFI (cfiCond60) V2 load(1, XDATA, add(CFA_XSP16, literal(-8)))
          CFI (cfiCond60) V3 load(1, XDATA, add(CFA_XSP16, literal(-7)))
          CFI (cfiCond60) R7 load(1, XDATA, add(CFA_XSP16, literal(-6)))
          CFI (cfiCond60) ?RET_LOW load(1, XDATA, add(CFA_XSP16, literal(-5)))
          CFI (cfiCond60) ?RET_HIGH load(1, XDATA, add(CFA_XSP16, literal(-4)))
          CFI (cfiCond60) ?BRET_EXT load(1, XDATA, add(CFA_XSP16, literal(-3)))
          CFI (cfiCond60) DPL0 load(1, XDATA, add(CFA_XSP16, literal(-2)))
          CFI (cfiCond60) DPH0 load(1, XDATA, add(CFA_XSP16, literal(-1)))
          CFI (cfiCond60) CFA_SP SP+-4
          CFI (cfiCond60) CFA_XSP16 add(XSP16, 14)
          CFI Block cfiCond61 Using cfiCommon0
          CFI (cfiCond61) Function ZDSecMgrEntryInit
          CFI (cfiCond61) Conditional ??CrossCallReturnLabel_164, ??CrossCallReturnLabel_101
          CFI (cfiCond61) R6 load(1, XDATA, add(CFA_XSP16, literal(-9)))
          CFI (cfiCond61) VB load(1, XDATA, add(CFA_XSP16, literal(-8)))
          CFI (cfiCond61) V0 load(1, XDATA, add(CFA_XSP16, literal(-7)))
          CFI (cfiCond61) R7 load(1, XDATA, add(CFA_XSP16, literal(-6)))
          CFI (cfiCond61) ?RET_LOW load(1, XDATA, add(CFA_XSP16, literal(-5)))
          CFI (cfiCond61) ?RET_HIGH load(1, XDATA, add(CFA_XSP16, literal(-4)))
          CFI (cfiCond61) ?BRET_EXT load(1, XDATA, add(CFA_XSP16, literal(-3)))
          CFI (cfiCond61) DPL0 load(1, XDATA, add(CFA_XSP16, literal(-2)))
          CFI (cfiCond61) DPH0 load(1, XDATA, add(CFA_XSP16, literal(-1)))
          CFI (cfiCond61) CFA_SP SP+-4
          CFI (cfiCond61) CFA_XSP16 add(XSP16, 9)
          CFI Block cfiCond62 Using cfiCommon0
          CFI (cfiCond62) Function APSME_IsLinkKeyValid
          CFI (cfiCond62) Conditional ??CrossCallReturnLabel_165, ??CrossCallReturnLabel_160
          CFI (cfiCond62) R6 load(1, XDATA, add(CFA_XSP16, literal(-15)))
          CFI (cfiCond62) VB load(1, XDATA, add(CFA_XSP16, literal(-14)))
          CFI (cfiCond62) V0 load(1, XDATA, add(CFA_XSP16, literal(-13)))
          CFI (cfiCond62) V1 load(1, XDATA, add(CFA_XSP16, literal(-12)))
          CFI (cfiCond62) V2 load(1, XDATA, add(CFA_XSP16, literal(-11)))
          CFI (cfiCond62) V3 load(1, XDATA, add(CFA_XSP16, literal(-10)))
          CFI (cfiCond62) V4 load(1, XDATA, add(CFA_XSP16, literal(-9)))
          CFI (cfiCond62) V5 load(1, XDATA, add(CFA_XSP16, literal(-8)))
          CFI (cfiCond62) V6 load(1, XDATA, add(CFA_XSP16, literal(-7)))
          CFI (cfiCond62) R7 load(1, XDATA, add(CFA_XSP16, literal(-6)))
          CFI (cfiCond62) ?RET_LOW load(1, XDATA, add(CFA_XSP16, literal(-5)))
          CFI (cfiCond62) ?RET_HIGH load(1, XDATA, add(CFA_XSP16, literal(-4)))
          CFI (cfiCond62) ?BRET_EXT load(1, XDATA, add(CFA_XSP16, literal(-3)))
          CFI (cfiCond62) DPL0 load(1, XDATA, add(CFA_XSP16, literal(-2)))
          CFI (cfiCond62) DPH0 load(1, XDATA, add(CFA_XSP16, literal(-1)))
          CFI (cfiCond62) CFA_SP SP+-4
          CFI (cfiCond62) CFA_XSP16 add(XSP16, 33)
          CFI Block cfiCond63 Using cfiCommon0
          CFI (cfiCond63) Function ZDSecMgrAddLinkKey
          CFI (cfiCond63) Conditional ??CrossCallReturnLabel_165, ??CrossCallReturnLabel_161
          CFI (cfiCond63) R6 load(1, XDATA, add(CFA_XSP16, literal(-10)))
          CFI (cfiCond63) VB load(1, XDATA, add(CFA_XSP16, literal(-9)))
          CFI (cfiCond63) V0 load(1, XDATA, add(CFA_XSP16, literal(-8)))
          CFI (cfiCond63) V1 load(1, XDATA, add(CFA_XSP16, literal(-7)))
          CFI (cfiCond63) R7 load(1, XDATA, add(CFA_XSP16, literal(-6)))
          CFI (cfiCond63) ?RET_LOW load(1, XDATA, add(CFA_XSP16, literal(-5)))
          CFI (cfiCond63) ?RET_HIGH load(1, XDATA, add(CFA_XSP16, literal(-4)))
          CFI (cfiCond63) ?BRET_EXT load(1, XDATA, add(CFA_XSP16, literal(-3)))
          CFI (cfiCond63) DPL0 load(1, XDATA, add(CFA_XSP16, literal(-2)))
          CFI (cfiCond63) DPH0 load(1, XDATA, add(CFA_XSP16, literal(-1)))
          CFI (cfiCond63) CFA_SP SP+-4
          CFI (cfiCond63) CFA_XSP16 add(XSP16, 14)
          CFI Block cfiCond64 Using cfiCommon0
          CFI (cfiCond64) Function ZDSecMgrRestoreFromNV
          CFI (cfiCond64) Conditional ??CrossCallReturnLabel_165, ??CrossCallReturnLabel_162
          CFI (cfiCond64) R6 load(1, XDATA, add(CFA_XSP16, literal(-18)))
          CFI (cfiCond64) VB load(1, XDATA, add(CFA_XSP16, literal(-17)))
          CFI (cfiCond64) V0 load(1, XDATA, add(CFA_XSP16, literal(-16)))
          CFI (cfiCond64) V1 load(1, XDATA, add(CFA_XSP16, literal(-15)))
          CFI (cfiCond64) V2 load(1, XDATA, add(CFA_XSP16, literal(-14)))
          CFI (cfiCond64) V3 load(1, XDATA, add(CFA_XSP16, literal(-13)))
          CFI (cfiCond64) V4 load(1, XDATA, add(CFA_XSP16, literal(-12)))
          CFI (cfiCond64) V5 load(1, XDATA, add(CFA_XSP16, literal(-11)))
          CFI (cfiCond64) V6 load(1, XDATA, add(CFA_XSP16, literal(-10)))
          CFI (cfiCond64) V7 load(1, XDATA, add(CFA_XSP16, literal(-9)))
          CFI (cfiCond64) V8 load(1, XDATA, add(CFA_XSP16, literal(-8)))
          CFI (cfiCond64) V9 load(1, XDATA, add(CFA_XSP16, literal(-7)))
          CFI (cfiCond64) R7 load(1, XDATA, add(CFA_XSP16, literal(-6)))
          CFI (cfiCond64) ?RET_LOW load(1, XDATA, add(CFA_XSP16, literal(-5)))
          CFI (cfiCond64) ?RET_HIGH load(1, XDATA, add(CFA_XSP16, literal(-4)))
          CFI (cfiCond64) ?BRET_EXT load(1, XDATA, add(CFA_XSP16, literal(-3)))
          CFI (cfiCond64) DPL0 load(1, XDATA, add(CFA_XSP16, literal(-2)))
          CFI (cfiCond64) DPH0 load(1, XDATA, add(CFA_XSP16, literal(-1)))
          CFI (cfiCond64) CFA_SP SP+-4
          CFI (cfiCond64) CFA_XSP16 add(XSP16, 20)
          CFI Block cfiCond65 Using cfiCommon0
          CFI (cfiCond65) Function ZDSecMgrEntryInit
          CFI (cfiCond65) Conditional ??CrossCallReturnLabel_165, ??CrossCallReturnLabel_151
          CFI (cfiCond65) R6 load(1, XDATA, add(CFA_XSP16, literal(-9)))
          CFI (cfiCond65) VB load(1, XDATA, add(CFA_XSP16, literal(-8)))
          CFI (cfiCond65) V0 load(1, XDATA, add(CFA_XSP16, literal(-7)))
          CFI (cfiCond65) R7 load(1, XDATA, add(CFA_XSP16, literal(-6)))
          CFI (cfiCond65) ?RET_LOW load(1, XDATA, add(CFA_XSP16, literal(-5)))
          CFI (cfiCond65) ?RET_HIGH load(1, XDATA, add(CFA_XSP16, literal(-4)))
          CFI (cfiCond65) ?BRET_EXT load(1, XDATA, add(CFA_XSP16, literal(-3)))
          CFI (cfiCond65) DPL0 load(1, XDATA, add(CFA_XSP16, literal(-2)))
          CFI (cfiCond65) DPH0 load(1, XDATA, add(CFA_XSP16, literal(-1)))
          CFI (cfiCond65) CFA_SP SP+-4
          CFI (cfiCond65) CFA_XSP16 add(XSP16, 9)
          CFI Block cfiCond66 Using cfiCommon0
          CFI (cfiCond66) Function ZDSecMgrEntryLookupExtGetIndex
          CFI (cfiCond66) Conditional ??CrossCallReturnLabel_165, ??CrossCallReturnLabel_152
          CFI (cfiCond66) R6 load(1, XDATA, add(CFA_XSP16, literal(-9)))
          CFI (cfiCond66) VB load(1, XDATA, add(CFA_XSP16, literal(-8)))
          CFI (cfiCond66) V0 load(1, XDATA, add(CFA_XSP16, literal(-7)))
          CFI (cfiCond66) R7 load(1, XDATA, add(CFA_XSP16, literal(-6)))
          CFI (cfiCond66) ?RET_LOW load(1, XDATA, add(CFA_XSP16, literal(-5)))
          CFI (cfiCond66) ?RET_HIGH load(1, XDATA, add(CFA_XSP16, literal(-4)))
          CFI (cfiCond66) ?BRET_EXT load(1, XDATA, add(CFA_XSP16, literal(-3)))
          CFI (cfiCond66) DPL0 load(1, XDATA, add(CFA_XSP16, literal(-2)))
          CFI (cfiCond66) DPH0 load(1, XDATA, add(CFA_XSP16, literal(-1)))
          CFI (cfiCond66) CFA_SP SP+-4
          CFI (cfiCond66) CFA_XSP16 add(XSP16, 11)
          CFI Block cfiCond67 Using cfiCommon0
          CFI (cfiCond67) Function ZDSecMgrEntryLookupAMIGetIndex
          CFI (cfiCond67) Conditional ??CrossCallReturnLabel_165, ??CrossCallReturnLabel_153
          CFI (cfiCond67) R6 load(1, XDATA, add(CFA_XSP16, literal(-9)))
          CFI (cfiCond67) VB load(1, XDATA, add(CFA_XSP16, literal(-8)))
          CFI (cfiCond67) V0 load(1, XDATA, add(CFA_XSP16, literal(-7)))
          CFI (cfiCond67) R7 load(1, XDATA, add(CFA_XSP16, literal(-6)))
          CFI (cfiCond67) ?RET_LOW load(1, XDATA, add(CFA_XSP16, literal(-5)))
          CFI (cfiCond67) ?RET_HIGH load(1, XDATA, add(CFA_XSP16, literal(-4)))
          CFI (cfiCond67) ?BRET_EXT load(1, XDATA, add(CFA_XSP16, literal(-3)))
          CFI (cfiCond67) DPL0 load(1, XDATA, add(CFA_XSP16, literal(-2)))
          CFI (cfiCond67) DPH0 load(1, XDATA, add(CFA_XSP16, literal(-1)))
          CFI (cfiCond67) CFA_SP SP+-4
          CFI (cfiCond67) CFA_XSP16 add(XSP16, 9)
          CFI Block cfiCond68 Using cfiCommon0
          CFI (cfiCond68) Function ZDSecMgrEntryFree
          CFI (cfiCond68) Conditional ??CrossCallReturnLabel_165, ??CrossCallReturnLabel_154
          CFI (cfiCond68) R6 load(1, XDATA, add(CFA_XSP16, literal(-16)))
          CFI (cfiCond68) VB load(1, XDATA, add(CFA_XSP16, literal(-15)))
          CFI (cfiCond68) V0 load(1, XDATA, add(CFA_XSP16, literal(-14)))
          CFI (cfiCond68) V1 load(1, XDATA, add(CFA_XSP16, literal(-13)))
          CFI (cfiCond68) V2 load(1, XDATA, add(CFA_XSP16, literal(-12)))
          CFI (cfiCond68) V3 load(1, XDATA, add(CFA_XSP16, literal(-11)))
          CFI (cfiCond68) V4 load(1, XDATA, add(CFA_XSP16, literal(-10)))
          CFI (cfiCond68) V5 load(1, XDATA, add(CFA_XSP16, literal(-9)))
          CFI (cfiCond68) V6 load(1, XDATA, add(CFA_XSP16, literal(-8)))
          CFI (cfiCond68) V7 load(1, XDATA, add(CFA_XSP16, literal(-7)))
          CFI (cfiCond68) R7 load(1, XDATA, add(CFA_XSP16, literal(-6)))
          CFI (cfiCond68) ?RET_LOW load(1, XDATA, add(CFA_XSP16, literal(-5)))
          CFI (cfiCond68) ?RET_HIGH load(1, XDATA, add(CFA_XSP16, literal(-4)))
          CFI (cfiCond68) ?BRET_EXT load(1, XDATA, add(CFA_XSP16, literal(-3)))
          CFI (cfiCond68) DPL0 load(1, XDATA, add(CFA_XSP16, literal(-2)))
          CFI (cfiCond68) DPH0 load(1, XDATA, add(CFA_XSP16, literal(-1)))
          CFI (cfiCond68) CFA_SP SP+-4
          CFI (cfiCond68) CFA_XSP16 add(XSP16, 20)
          CFI Block cfiCond69 Using cfiCommon0
          CFI (cfiCond69) Function ZDSecMgrEntryFree
          CFI (cfiCond69) Conditional ??CrossCallReturnLabel_165, ??CrossCallReturnLabel_155
          CFI (cfiCond69) R6 load(1, XDATA, add(CFA_XSP16, literal(-16)))
          CFI (cfiCond69) VB load(1, XDATA, add(CFA_XSP16, literal(-15)))
          CFI (cfiCond69) V0 load(1, XDATA, add(CFA_XSP16, literal(-14)))
          CFI (cfiCond69) V1 load(1, XDATA, add(CFA_XSP16, literal(-13)))
          CFI (cfiCond69) V2 load(1, XDATA, add(CFA_XSP16, literal(-12)))
          CFI (cfiCond69) V3 load(1, XDATA, add(CFA_XSP16, literal(-11)))
          CFI (cfiCond69) V4 load(1, XDATA, add(CFA_XSP16, literal(-10)))
          CFI (cfiCond69) V5 load(1, XDATA, add(CFA_XSP16, literal(-9)))
          CFI (cfiCond69) V6 load(1, XDATA, add(CFA_XSP16, literal(-8)))
          CFI (cfiCond69) V7 load(1, XDATA, add(CFA_XSP16, literal(-7)))
          CFI (cfiCond69) R7 load(1, XDATA, add(CFA_XSP16, literal(-6)))
          CFI (cfiCond69) ?RET_LOW load(1, XDATA, add(CFA_XSP16, literal(-5)))
          CFI (cfiCond69) ?RET_HIGH load(1, XDATA, add(CFA_XSP16, literal(-4)))
          CFI (cfiCond69) ?BRET_EXT load(1, XDATA, add(CFA_XSP16, literal(-3)))
          CFI (cfiCond69) DPL0 load(1, XDATA, add(CFA_XSP16, literal(-2)))
          CFI (cfiCond69) DPH0 load(1, XDATA, add(CFA_XSP16, literal(-1)))
          CFI (cfiCond69) CFA_SP SP+-4
          CFI (cfiCond69) CFA_XSP16 add(XSP16, 20)
          CFI Block cfiCond70 Using cfiCommon0
          CFI (cfiCond70) Function ZDSecMgrDeviceJoin
          CFI (cfiCond70) Conditional ??CrossCallReturnLabel_165, ??CrossCallReturnLabel_156
          CFI (cfiCond70) R6 load(1, XDATA, add(CFA_XSP16, literal(-16)))
          CFI (cfiCond70) VB load(1, XDATA, add(CFA_XSP16, literal(-15)))
          CFI (cfiCond70) V0 load(1, XDATA, add(CFA_XSP16, literal(-14)))
          CFI (cfiCond70) V1 load(1, XDATA, add(CFA_XSP16, literal(-13)))
          CFI (cfiCond70) V2 load(1, XDATA, add(CFA_XSP16, literal(-12)))
          CFI (cfiCond70) V3 load(1, XDATA, add(CFA_XSP16, literal(-11)))
          CFI (cfiCond70) V4 load(1, XDATA, add(CFA_XSP16, literal(-10)))
          CFI (cfiCond70) V5 load(1, XDATA, add(CFA_XSP16, literal(-9)))
          CFI (cfiCond70) V6 load(1, XDATA, add(CFA_XSP16, literal(-8)))
          CFI (cfiCond70) V7 load(1, XDATA, add(CFA_XSP16, literal(-7)))
          CFI (cfiCond70) R7 load(1, XDATA, add(CFA_XSP16, literal(-6)))
          CFI (cfiCond70) ?RET_LOW load(1, XDATA, add(CFA_XSP16, literal(-5)))
          CFI (cfiCond70) ?RET_HIGH load(1, XDATA, add(CFA_XSP16, literal(-4)))
          CFI (cfiCond70) ?BRET_EXT load(1, XDATA, add(CFA_XSP16, literal(-3)))
          CFI (cfiCond70) DPL0 load(1, XDATA, add(CFA_XSP16, literal(-2)))
          CFI (cfiCond70) DPH0 load(1, XDATA, add(CFA_XSP16, literal(-1)))
          CFI (cfiCond70) CFA_SP SP+-4
          CFI (cfiCond70) CFA_XSP16 add(XSP16, 30)
          CFI Block cfiCond71 Using cfiCommon0
          CFI (cfiCond71) Function ZDSecMgrTransportKeyInd
          CFI (cfiCond71) Conditional ??CrossCallReturnLabel_165, ??CrossCallReturnLabel_157
          CFI (cfiCond71) R6 load(1, XDATA, add(CFA_XSP16, literal(-14)))
          CFI (cfiCond71) VB load(1, XDATA, add(CFA_XSP16, literal(-13)))
          CFI (cfiCond71) V0 load(1, XDATA, add(CFA_XSP16, literal(-12)))
          CFI (cfiCond71) V1 load(1, XDATA, add(CFA_XSP16, literal(-11)))
          CFI (cfiCond71) V2 load(1, XDATA, add(CFA_XSP16, literal(-10)))
          CFI (cfiCond71) V3 load(1, XDATA, add(CFA_XSP16, literal(-9)))
          CFI (cfiCond71) V4 load(1, XDATA, add(CFA_XSP16, literal(-8)))
          CFI (cfiCond71) V5 load(1, XDATA, add(CFA_XSP16, literal(-7)))
          CFI (cfiCond71) R7 load(1, XDATA, add(CFA_XSP16, literal(-6)))
          CFI (cfiCond71) ?RET_LOW load(1, XDATA, add(CFA_XSP16, literal(-5)))
          CFI (cfiCond71) ?RET_HIGH load(1, XDATA, add(CFA_XSP16, literal(-4)))
          CFI (cfiCond71) ?BRET_EXT load(1, XDATA, add(CFA_XSP16, literal(-3)))
          CFI (cfiCond71) DPL0 load(1, XDATA, add(CFA_XSP16, literal(-2)))
          CFI (cfiCond71) DPH0 load(1, XDATA, add(CFA_XSP16, literal(-1)))
          CFI (cfiCond71) CFA_SP SP+-4
          CFI (cfiCond71) CFA_XSP16 add(XSP16, 54)
          CFI Block cfiCond72 Using cfiCommon0
          CFI (cfiCond72) Function ZDSecMgrRemoveDeviceInd
          CFI (cfiCond72) Conditional ??CrossCallReturnLabel_165, ??CrossCallReturnLabel_158
          CFI (cfiCond72) R6 load(1, XDATA, add(CFA_XSP16, literal(-9)))
          CFI (cfiCond72) VB load(1, XDATA, add(CFA_XSP16, literal(-8)))
          CFI (cfiCond72) V0 load(1, XDATA, add(CFA_XSP16, literal(-7)))
          CFI (cfiCond72) R7 load(1, XDATA, add(CFA_XSP16, literal(-6)))
          CFI (cfiCond72) ?RET_LOW load(1, XDATA, add(CFA_XSP16, literal(-5)))
          CFI (cfiCond72) ?RET_HIGH load(1, XDATA, add(CFA_XSP16, literal(-4)))
          CFI (cfiCond72) ?BRET_EXT load(1, XDATA, add(CFA_XSP16, literal(-3)))
          CFI (cfiCond72) DPL0 load(1, XDATA, add(CFA_XSP16, literal(-2)))
          CFI (cfiCond72) DPH0 load(1, XDATA, add(CFA_XSP16, literal(-1)))
          CFI (cfiCond72) CFA_SP SP+-4
          CFI (cfiCond72) CFA_XSP16 add(XSP16, 17)
          CFI Block cfiCond73 Using cfiCommon0
          CFI (cfiCond73) Function APSME_KeyFwdToChild
          CFI (cfiCond73) Conditional ??CrossCallReturnLabel_165, ??CrossCallReturnLabel_159
          CFI (cfiCond73) R6 load(1, XDATA, add(CFA_XSP16, literal(-10)))
          CFI (cfiCond73) VB load(1, XDATA, add(CFA_XSP16, literal(-9)))
          CFI (cfiCond73) V0 load(1, XDATA, add(CFA_XSP16, literal(-8)))
          CFI (cfiCond73) V1 load(1, XDATA, add(CFA_XSP16, literal(-7)))
          CFI (cfiCond73) R7 load(1, XDATA, add(CFA_XSP16, literal(-6)))
          CFI (cfiCond73) ?RET_LOW load(1, XDATA, add(CFA_XSP16, literal(-5)))
          CFI (cfiCond73) ?RET_HIGH load(1, XDATA, add(CFA_XSP16, literal(-4)))
          CFI (cfiCond73) ?BRET_EXT load(1, XDATA, add(CFA_XSP16, literal(-3)))
          CFI (cfiCond73) DPL0 load(1, XDATA, add(CFA_XSP16, literal(-2)))
          CFI (cfiCond73) DPH0 load(1, XDATA, add(CFA_XSP16, literal(-1)))
          CFI (cfiCond73) CFA_SP SP+-4
          CFI (cfiCond73) CFA_XSP16 add(XSP16, 10)
          CFI Block cfiPicker74 Using cfiCommon1
          CFI (cfiPicker74) NoFunction
          CFI (cfiPicker74) Picker
        MOVX    A,@DPTR
        MOV     R0,A
        INC     DPTR
        MOVX    A,@DPTR
        MOV     R1,A
        MOV     A,R0
        RET
          CFI EndBlock cfiCond55
          CFI EndBlock cfiCond56
          CFI EndBlock cfiCond57
          CFI EndBlock cfiCond58
          CFI EndBlock cfiCond59
          CFI EndBlock cfiCond60
          CFI EndBlock cfiCond61
          CFI EndBlock cfiCond62
          CFI EndBlock cfiCond63
          CFI EndBlock cfiCond64
          CFI EndBlock cfiCond65
          CFI EndBlock cfiCond66
          CFI EndBlock cfiCond67
          CFI EndBlock cfiCond68
          CFI EndBlock cfiCond69
          CFI EndBlock cfiCond70
          CFI EndBlock cfiCond71
          CFI EndBlock cfiCond72
          CFI EndBlock cfiCond73
          CFI EndBlock cfiPicker74
//  533 
//  534 /******************************************************************************
//  535  * @fn          ZDSecMgrEntryLookupExt
//  536  *
//  537  * @brief       Lookup entry index using specified EXT address.
//  538  *
//  539  * @param       extAddr - [in] EXT address
//  540  * @param       entry   - [out] valid entry
//  541  *
//  542  * @return      ZStatus_t
//  543  */

        RSEG BANKED_CODE:CODE:NOROOT(0)
//  544 ZStatus_t ZDSecMgrEntryLookupExt( uint8* extAddr, ZDSecMgrEntry_t** entry )
ZDSecMgrEntryLookupExt:
          CFI Block cfiBlock75 Using cfiCommon0
          CFI Function ZDSecMgrEntryLookupExt
        CODE
//  545 {
        FUNCALL ZDSecMgrEntryLookupExt, ZDSecMgrExtAddrLookup
        LOCFRAME ISTACK, 0, STACK
        LOCFRAME PSTACK, 0, STACK
        LOCFRAME XSTACK, 11, STACK
        LOCFRAME IOVERLAY, 0, STATIC
        LOCFRAME DOVERLAY, 0, STATIC
        ARGFRAME ISTACK, 0, STACK
        ARGFRAME PSTACK, 0, STACK
        ARGFRAME XSTACK, 11, STACK
        ARGFRAME IOVERLAY, 0, STATIC
        ARGFRAME DOVERLAY, 0, STATIC
        FUNCALL ZDSecMgrEntryLookupExt, ZDSecMgrEntryLookupAMI
        LOCFRAME ISTACK, 0, STACK
        LOCFRAME PSTACK, 0, STACK
        LOCFRAME XSTACK, 11, STACK
        LOCFRAME IOVERLAY, 0, STATIC
        LOCFRAME DOVERLAY, 0, STATIC
        ARGFRAME ISTACK, 0, STACK
        ARGFRAME PSTACK, 0, STACK
        ARGFRAME XSTACK, 11, STACK
        ARGFRAME IOVERLAY, 0, STATIC
        ARGFRAME DOVERLAY, 0, STATIC
        REQUIRE ?V0
        MOV     A,#-0x9
        LCALL   ?BANKED_ENTER_XDATA
          CFI DPH0 load(1, XDATA, add(CFA_XSP16, literal(-1)))
          CFI DPL0 load(1, XDATA, add(CFA_XSP16, literal(-2)))
          CFI ?BRET_EXT load(1, XDATA, add(CFA_XSP16, literal(-3)))
          CFI ?RET_HIGH load(1, XDATA, add(CFA_XSP16, literal(-4)))
          CFI ?RET_LOW load(1, XDATA, add(CFA_XSP16, literal(-5)))
          CFI R7 load(1, XDATA, add(CFA_XSP16, literal(-6)))
          CFI V0 load(1, XDATA, add(CFA_XSP16, literal(-7)))
          CFI VB load(1, XDATA, add(CFA_XSP16, literal(-8)))
          CFI R6 load(1, XDATA, add(CFA_XSP16, literal(-9)))
          CFI CFA_SP SP+0
          CFI CFA_XSP16 add(XSP16, 9)
        ; Saved register size: 9
        ; Auto size: 2
        MOV     A,#-0x2
        LCALL   ?ALLOC_XSTACK8
          CFI CFA_XSP16 add(XSP16, 11)
        MOV     A,R4
        MOV     R6,A
        MOV     A,R5
        MOV     R7,A
//  546   ZStatus_t status;
//  547   uint16    ami;
//  548 
//  549   // initialize results
//  550   *entry = NULL;
        MOV     DPL,R6
        MOV     DPH,R7
        CLR     A
        MOVX    @DPTR,A
        INC     DPTR
        MOVX    @DPTR,A
//  551   status = ZNwkUnknownDevice;
        MOV     ?V0,#-0x38
//  552 
//  553   // lookup address index
//  554   if ( ZDSecMgrExtAddrLookup( extAddr, &ami ) == ZSuccess )
        ; Setup parameters for call to function ZDSecMgrExtAddrLookup
        MOV     R4,?XSP + 0
        MOV     R5,?XSP + 1
        LCALL   `??ZDSecMgrExtAddrLookup::?relay`; Banked call to: ZDSecMgrExtAddrLookup
        MOV     A,R1
        JNZ     ??ZDSecMgrEntryLookupExt_0
//  555   {
//  556     status = ZDSecMgrEntryLookupAMI( ami, entry );
        ; Setup parameters for call to function ZDSecMgrEntryLookupAMI
        MOV     A,R6
        MOV     R4,A
        MOV     A,R7
        MOV     R5,A
        MOV     DPL,?XSP + 0
        MOV     DPH,?XSP + 1
        LCALL   ??Subroutine62_0 & 0xFFFF
//  557   }
??CrossCallReturnLabel_102:
        LCALL   `??ZDSecMgrEntryLookupAMI::?relay`; Banked call to: ZDSecMgrEntryLookupAMI
        MOV     A,R1
        MOV     ?V0,A
//  558 
//  559   return status;
??ZDSecMgrEntryLookupExt_0:
        MOV     R1,?V0
        LJMP    ?Subroutine8 & 0xFFFF
//  560 }
          CFI EndBlock cfiBlock75
//  561 
//  562 /******************************************************************************
//  563  * @fn          ZDSecMgrEntryLookupExtGetIndex
//  564  *
//  565  * @brief       Lookup entry index using specified EXT address.
//  566  *
//  567  * @param       extAddr - [in] EXT address
//  568  * @param       entryIndex - [out] valid index to the entry table
//  569  *
//  570  * @return      ZStatus_t
//  571  */

        RSEG BANKED_CODE:CODE:NOROOT(0)
//  572 ZStatus_t ZDSecMgrEntryLookupExtGetIndex( uint8* extAddr, ZDSecMgrEntry_t** entry, uint16* entryIndex )
ZDSecMgrEntryLookupExtGetIndex:
          CFI Block cfiBlock76 Using cfiCommon0
          CFI Function ZDSecMgrEntryLookupExtGetIndex
        CODE
//  573 {
        FUNCALL ZDSecMgrEntryLookupExtGetIndex, ZDSecMgrExtAddrLookup
        LOCFRAME ISTACK, 0, STACK
        LOCFRAME PSTACK, 0, STACK
        LOCFRAME XSTACK, 11, STACK
        LOCFRAME IOVERLAY, 0, STATIC
        LOCFRAME DOVERLAY, 0, STATIC
        ARGFRAME ISTACK, 0, STACK
        ARGFRAME PSTACK, 0, STACK
        ARGFRAME XSTACK, 11, STACK
        ARGFRAME IOVERLAY, 0, STATIC
        ARGFRAME DOVERLAY, 0, STATIC
        MOV     A,#-0x9
        LCALL   ?BANKED_ENTER_XDATA
          CFI DPH0 load(1, XDATA, add(CFA_XSP16, literal(-1)))
          CFI DPL0 load(1, XDATA, add(CFA_XSP16, literal(-2)))
          CFI ?BRET_EXT load(1, XDATA, add(CFA_XSP16, literal(-3)))
          CFI ?RET_HIGH load(1, XDATA, add(CFA_XSP16, literal(-4)))
          CFI ?RET_LOW load(1, XDATA, add(CFA_XSP16, literal(-5)))
          CFI R7 load(1, XDATA, add(CFA_XSP16, literal(-6)))
          CFI V0 load(1, XDATA, add(CFA_XSP16, literal(-7)))
          CFI VB load(1, XDATA, add(CFA_XSP16, literal(-8)))
          CFI R6 load(1, XDATA, add(CFA_XSP16, literal(-9)))
          CFI CFA_SP SP+0
          CFI CFA_XSP16 add(XSP16, 9)
        ; Saved register size: 9
        ; Auto size: 2
        MOV     A,#-0x2
        LCALL   ?ALLOC_XSTACK8
          CFI CFA_XSP16 add(XSP16, 11)
        MOV     A,R4
        MOV     R6,A
        MOV     A,R5
        MOV     R7,A
//  574   uint16 ami;
//  575   uint16 index;
//  576 
//  577   // lookup address index
//  578   if ( ZDSecMgrExtAddrLookup( extAddr, &ami ) == ZSuccess )
        ; Setup parameters for call to function ZDSecMgrExtAddrLookup
        MOV     R4,?XSP + 0
        MOV     R5,?XSP + 1
        LCALL   `??ZDSecMgrExtAddrLookup::?relay`; Banked call to: ZDSecMgrExtAddrLookup
        MOV     A,R1
        JNZ     ??ZDSecMgrEntryLookupExtGetIndex_0
//  579   {
//  580     // verify data is available
//  581     if ( ZDSecMgrEntries != NULL )
        MOV     DPTR,#ZDSecMgrEntries
        LCALL   ??Subroutine66_0 & 0xFFFF
??CrossCallReturnLabel_152:
        JZ      ??ZDSecMgrEntryLookupExtGetIndex_0
//  582     {
//  583       for ( index = 0; index < ZDSECMGR_ENTRY_MAX ; index++ )
        MOV     R0,#0x0
        MOV     R1,#0x0
//  584       {
//  585         if ( ZDSecMgrEntries[index].ami == ami )
??ZDSecMgrEntryLookupExtGetIndex_1:
        LCALL   ?Subroutine34 & 0xFFFF
??CrossCallReturnLabel_39:
        LCALL   ?Subroutine35 & 0xFFFF
??CrossCallReturnLabel_41:
        MOV     DPL,?XSP + 0
        MOV     DPH,?XSP + 1
        MOVX    A,@DPTR
        XRL     A,R4
        JNZ     ??ZDSecMgrEntryLookupExtGetIndex_2
        INC     DPTR
        MOVX    A,@DPTR
        XRL     A,R5
??ZDSecMgrEntryLookupExtGetIndex_2:
        JNZ     ??ZDSecMgrEntryLookupExtGetIndex_3
//  586         {
//  587           // return successful results
//  588           *entry = &ZDSecMgrEntries[index];
        MOV     DPL,R6
        MOV     DPH,R7
        LCALL   ?Subroutine50 & 0xFFFF
//  589           *entryIndex = index;
??CrossCallReturnLabel_69:
        MOV     A,#0xb
        LCALL   ?XSTACK_DISP0_8
        LCALL   ?Subroutine37 & 0xFFFF
//  590 
//  591           // break from loop
//  592           return ZSuccess;
//  593         }
//  594       }
??CrossCallReturnLabel_47:
        LCALL   ??Subroutine58_0 & 0xFFFF
??CrossCallReturnLabel_89:
        SJMP    ??ZDSecMgrEntryLookupExtGetIndex_4
??ZDSecMgrEntryLookupExtGetIndex_3:
        INC     R0
        MOV     A,R0
        JNZ     ??ZDSecMgrEntryLookupExtGetIndex_5
        INC     R1
??ZDSecMgrEntryLookupExtGetIndex_5:
        LCALL   ?Subroutine41 & 0xFFFF
//  595     }
//  596   }
??CrossCallReturnLabel_95:
        JC      ??ZDSecMgrEntryLookupExtGetIndex_1
//  597 
//  598   return ZNwkUnknownDevice;
??ZDSecMgrEntryLookupExtGetIndex_0:
        MOV     R1,#-0x38
??ZDSecMgrEntryLookupExtGetIndex_4:
        LJMP    ?Subroutine8 & 0xFFFF
//  599 }
          CFI EndBlock cfiBlock76

        RSEG BANKED_CODE:CODE:NOROOT(0)
?Subroutine34:
          CFI Block cfiCond77 Using cfiCommon0
          CFI Function ZDSecMgrEntryInit
          CFI Conditional ??CrossCallReturnLabel_38
          CFI R6 load(1, XDATA, add(CFA_XSP16, literal(-9)))
          CFI VB load(1, XDATA, add(CFA_XSP16, literal(-8)))
          CFI V0 load(1, XDATA, add(CFA_XSP16, literal(-7)))
          CFI R7 load(1, XDATA, add(CFA_XSP16, literal(-6)))
          CFI ?RET_LOW load(1, XDATA, add(CFA_XSP16, literal(-5)))
          CFI ?RET_HIGH load(1, XDATA, add(CFA_XSP16, literal(-4)))
          CFI ?BRET_EXT load(1, XDATA, add(CFA_XSP16, literal(-3)))
          CFI DPL0 load(1, XDATA, add(CFA_XSP16, literal(-2)))
          CFI DPH0 load(1, XDATA, add(CFA_XSP16, literal(-1)))
          CFI CFA_SP SP+-2
          CFI CFA_XSP16 add(XSP16, 9)
          CFI Block cfiCond78 Using cfiCommon0
          CFI (cfiCond78) Function ZDSecMgrEntryLookupExtGetIndex
          CFI (cfiCond78) Conditional ??CrossCallReturnLabel_39
          CFI (cfiCond78) R6 load(1, XDATA, add(CFA_XSP16, literal(-9)))
          CFI (cfiCond78) VB load(1, XDATA, add(CFA_XSP16, literal(-8)))
          CFI (cfiCond78) V0 load(1, XDATA, add(CFA_XSP16, literal(-7)))
          CFI (cfiCond78) R7 load(1, XDATA, add(CFA_XSP16, literal(-6)))
          CFI (cfiCond78) ?RET_LOW load(1, XDATA, add(CFA_XSP16, literal(-5)))
          CFI (cfiCond78) ?RET_HIGH load(1, XDATA, add(CFA_XSP16, literal(-4)))
          CFI (cfiCond78) ?BRET_EXT load(1, XDATA, add(CFA_XSP16, literal(-3)))
          CFI (cfiCond78) DPL0 load(1, XDATA, add(CFA_XSP16, literal(-2)))
          CFI (cfiCond78) DPH0 load(1, XDATA, add(CFA_XSP16, literal(-1)))
          CFI (cfiCond78) CFA_SP SP+-2
          CFI (cfiCond78) CFA_XSP16 add(XSP16, 11)
          CFI Block cfiPicker79 Using cfiCommon1
          CFI (cfiPicker79) NoFunction
          CFI (cfiPicker79) Picker
        LCALL   ?Subroutine55 & 0xFFFF
??CrossCallReturnLabel_81:
        MOV     DPL,R2
        MOV     DPH,R3
        RET
          CFI EndBlock cfiCond77
          CFI EndBlock cfiCond78
          CFI EndBlock cfiPicker79

        RSEG BANKED_CODE:CODE:NOROOT(0)
?Subroutine55:
          CFI Block cfiCond80 Using cfiCommon0
          CFI Function ZDSecMgrEntryLookup
          CFI Conditional ??CrossCallReturnLabel_80
          CFI R6 load(1, XDATA, add(CFA_XSP16, literal(-9)))
          CFI VB load(1, XDATA, add(CFA_XSP16, literal(-8)))
          CFI V0 load(1, XDATA, add(CFA_XSP16, literal(-7)))
          CFI R7 load(1, XDATA, add(CFA_XSP16, literal(-6)))
          CFI ?RET_LOW load(1, XDATA, add(CFA_XSP16, literal(-5)))
          CFI ?RET_HIGH load(1, XDATA, add(CFA_XSP16, literal(-4)))
          CFI ?BRET_EXT load(1, XDATA, add(CFA_XSP16, literal(-3)))
          CFI DPL0 load(1, XDATA, add(CFA_XSP16, literal(-2)))
          CFI DPH0 load(1, XDATA, add(CFA_XSP16, literal(-1)))
          CFI CFA_SP SP+-2
          CFI CFA_XSP16 add(XSP16, 22)
          CFI Block cfiCond81 Using cfiCommon0
          CFI (cfiCond81) Function ZDSecMgrEntryInit
          CFI (cfiCond81) Conditional ??CrossCallReturnLabel_81, ??CrossCallReturnLabel_38
          CFI (cfiCond81) R6 load(1, XDATA, add(CFA_XSP16, literal(-9)))
          CFI (cfiCond81) VB load(1, XDATA, add(CFA_XSP16, literal(-8)))
          CFI (cfiCond81) V0 load(1, XDATA, add(CFA_XSP16, literal(-7)))
          CFI (cfiCond81) R7 load(1, XDATA, add(CFA_XSP16, literal(-6)))
          CFI (cfiCond81) ?RET_LOW load(1, XDATA, add(CFA_XSP16, literal(-5)))
          CFI (cfiCond81) ?RET_HIGH load(1, XDATA, add(CFA_XSP16, literal(-4)))
          CFI (cfiCond81) ?BRET_EXT load(1, XDATA, add(CFA_XSP16, literal(-3)))
          CFI (cfiCond81) DPL0 load(1, XDATA, add(CFA_XSP16, literal(-2)))
          CFI (cfiCond81) DPH0 load(1, XDATA, add(CFA_XSP16, literal(-1)))
          CFI (cfiCond81) CFA_SP SP+-4
          CFI (cfiCond81) CFA_XSP16 add(XSP16, 9)
          CFI Block cfiCond82 Using cfiCommon0
          CFI (cfiCond82) Function ZDSecMgrEntryLookupExtGetIndex
          CFI (cfiCond82) Conditional ??CrossCallReturnLabel_81, ??CrossCallReturnLabel_39
          CFI (cfiCond82) R6 load(1, XDATA, add(CFA_XSP16, literal(-9)))
          CFI (cfiCond82) VB load(1, XDATA, add(CFA_XSP16, literal(-8)))
          CFI (cfiCond82) V0 load(1, XDATA, add(CFA_XSP16, literal(-7)))
          CFI (cfiCond82) R7 load(1, XDATA, add(CFA_XSP16, literal(-6)))
          CFI (cfiCond82) ?RET_LOW load(1, XDATA, add(CFA_XSP16, literal(-5)))
          CFI (cfiCond82) ?RET_HIGH load(1, XDATA, add(CFA_XSP16, literal(-4)))
          CFI (cfiCond82) ?BRET_EXT load(1, XDATA, add(CFA_XSP16, literal(-3)))
          CFI (cfiCond82) DPL0 load(1, XDATA, add(CFA_XSP16, literal(-2)))
          CFI (cfiCond82) DPH0 load(1, XDATA, add(CFA_XSP16, literal(-1)))
          CFI (cfiCond82) CFA_SP SP+-4
          CFI (cfiCond82) CFA_XSP16 add(XSP16, 11)
          CFI Block cfiPicker83 Using cfiCommon1
          CFI (cfiPicker83) NoFunction
          CFI (cfiPicker83) Picker
        MOV     A,R0
        MOV     R2,A
        MOV     A,R1
        MOV     R3,A
        MOV     A,R2
        MOV     B,#0x5
        MUL     AB
        MOV     R2,A
        MOV     R4,B
        MOV     B,#0x5
        MOV     A,R3
        MUL     AB
        ADD     A,R4
        MOV     R3,A
        MOV     DPTR,#ZDSecMgrEntries
        MOVX    A,@DPTR
        ADD     A,R2
        MOV     R2,A
        INC     DPTR
        MOVX    A,@DPTR
        ADDC    A,R3
        MOV     R3,A
        RET
          CFI EndBlock cfiCond80
          CFI EndBlock cfiCond81
          CFI EndBlock cfiCond82
          CFI EndBlock cfiPicker83
//  600 
//  601 /******************************************************************************
//  602  * @fn          ZDSecMgrEntryLookupAMIGetIndex
//  603  *
//  604  * @brief       Lookup entry using specified address index
//  605  *
//  606  * @param       ami   - [in] Address Manager index
//  607  * @param       entryIndex - [out] valid index to the entry table
//  608  *
//  609  * @return      ZStatus_t
//  610  */

        RSEG BANKED_CODE:CODE:NOROOT(0)
//  611 ZStatus_t ZDSecMgrEntryLookupAMIGetIndex( uint16 ami, uint16* entryIndex )
ZDSecMgrEntryLookupAMIGetIndex:
          CFI Block cfiBlock84 Using cfiCommon0
          CFI Function ZDSecMgrEntryLookupAMIGetIndex
        CODE
//  612 {
        REQUIRE ?V0
        MOV     A,#-0x9
        LCALL   ?BANKED_ENTER_XDATA
          CFI DPH0 load(1, XDATA, add(CFA_XSP16, literal(-1)))
          CFI DPL0 load(1, XDATA, add(CFA_XSP16, literal(-2)))
          CFI ?BRET_EXT load(1, XDATA, add(CFA_XSP16, literal(-3)))
          CFI ?RET_HIGH load(1, XDATA, add(CFA_XSP16, literal(-4)))
          CFI ?RET_LOW load(1, XDATA, add(CFA_XSP16, literal(-5)))
          CFI R7 load(1, XDATA, add(CFA_XSP16, literal(-6)))
          CFI V0 load(1, XDATA, add(CFA_XSP16, literal(-7)))
          CFI VB load(1, XDATA, add(CFA_XSP16, literal(-8)))
          CFI R6 load(1, XDATA, add(CFA_XSP16, literal(-9)))
          CFI CFA_SP SP+0
          CFI CFA_XSP16 add(XSP16, 9)
        ; Saved register size: 9
        ; Auto size: 0
//  613   uint16 index;
//  614 
//  615   // verify data is available
//  616   if ( ZDSecMgrEntries != NULL )
        MOV     DPTR,#ZDSecMgrEntries
        LCALL   ??Subroutine66_0 & 0xFFFF
??CrossCallReturnLabel_153:
        JZ      ??ZDSecMgrEntryLookupAMIGetIndex_0
//  617   {
//  618     for ( index = 0; index < ZDSECMGR_ENTRY_MAX ; index++ )
        MOV     R0,#0x0
        MOV     R1,#0x0
//  619     {
//  620       if ( ZDSecMgrEntries[index].ami == ami )
??ZDSecMgrEntryLookupAMIGetIndex_1:
        LCALL   ?Subroutine44 & 0xFFFF
??CrossCallReturnLabel_60:
        MOV     ?V0,A
        INC     DPTR
        MOVX    A,@DPTR
        ADDC    A,R7
        MOV     DPL,?V0
        MOV     DPH,A
        MOVX    A,@DPTR
        XRL     A,R2
        JNZ     ??ZDSecMgrEntryLookupAMIGetIndex_2
        INC     DPTR
        MOVX    A,@DPTR
        XRL     A,R3
??ZDSecMgrEntryLookupAMIGetIndex_2:
        JNZ     ??ZDSecMgrEntryLookupAMIGetIndex_3
//  621       {
//  622         // return successful results
//  623         *entryIndex = index;
        MOV     DPL,R4
        MOV     DPH,R5
        LCALL   ??Subroutine58_0 & 0xFFFF
//  624 
//  625         // break from loop
//  626         return ZSuccess;
//  627       }
//  628     }
??CrossCallReturnLabel_90:
        SJMP    ??ZDSecMgrEntryLookupAMIGetIndex_4
??ZDSecMgrEntryLookupAMIGetIndex_3:
        INC     R0
        MOV     A,R0
        JNZ     ??ZDSecMgrEntryLookupAMIGetIndex_5
        INC     R1
??ZDSecMgrEntryLookupAMIGetIndex_5:
        LCALL   ?Subroutine41 & 0xFFFF
//  629   }
??CrossCallReturnLabel_96:
        JC      ??ZDSecMgrEntryLookupAMIGetIndex_1
//  630 
//  631   return ZNwkUnknownDevice;
??ZDSecMgrEntryLookupAMIGetIndex_0:
        MOV     R1,#-0x38
??ZDSecMgrEntryLookupAMIGetIndex_4:
        LJMP    ??Subroutine71_0 & 0xFFFF
//  632 }
          CFI EndBlock cfiBlock84

        RSEG BANKED_CODE:CODE:NOROOT(0)
?Subroutine44:
          CFI Block cfiCond85 Using cfiCommon0
          CFI Function ZDSecMgrEntryLookupAMI
          CFI Conditional ??CrossCallReturnLabel_59
          CFI R6 load(1, XDATA, add(CFA_XSP16, literal(-9)))
          CFI VB load(1, XDATA, add(CFA_XSP16, literal(-8)))
          CFI V0 load(1, XDATA, add(CFA_XSP16, literal(-7)))
          CFI R7 load(1, XDATA, add(CFA_XSP16, literal(-6)))
          CFI ?RET_LOW load(1, XDATA, add(CFA_XSP16, literal(-5)))
          CFI ?RET_HIGH load(1, XDATA, add(CFA_XSP16, literal(-4)))
          CFI ?BRET_EXT load(1, XDATA, add(CFA_XSP16, literal(-3)))
          CFI DPL0 load(1, XDATA, add(CFA_XSP16, literal(-2)))
          CFI DPH0 load(1, XDATA, add(CFA_XSP16, literal(-1)))
          CFI CFA_SP SP+-2
          CFI CFA_XSP16 add(XSP16, 9)
          CFI Block cfiCond86 Using cfiCommon0
          CFI (cfiCond86) Function ZDSecMgrEntryLookupAMIGetIndex
          CFI (cfiCond86) Conditional ??CrossCallReturnLabel_60
          CFI (cfiCond86) R6 load(1, XDATA, add(CFA_XSP16, literal(-9)))
          CFI (cfiCond86) VB load(1, XDATA, add(CFA_XSP16, literal(-8)))
          CFI (cfiCond86) V0 load(1, XDATA, add(CFA_XSP16, literal(-7)))
          CFI (cfiCond86) R7 load(1, XDATA, add(CFA_XSP16, literal(-6)))
          CFI (cfiCond86) ?RET_LOW load(1, XDATA, add(CFA_XSP16, literal(-5)))
          CFI (cfiCond86) ?RET_HIGH load(1, XDATA, add(CFA_XSP16, literal(-4)))
          CFI (cfiCond86) ?BRET_EXT load(1, XDATA, add(CFA_XSP16, literal(-3)))
          CFI (cfiCond86) DPL0 load(1, XDATA, add(CFA_XSP16, literal(-2)))
          CFI (cfiCond86) DPH0 load(1, XDATA, add(CFA_XSP16, literal(-1)))
          CFI (cfiCond86) CFA_SP SP+-2
          CFI (cfiCond86) CFA_XSP16 add(XSP16, 9)
          CFI Block cfiPicker87 Using cfiCommon1
          CFI (cfiPicker87) NoFunction
          CFI (cfiPicker87) Picker
        MOV     A,R0
        MOV     R6,A
        MOV     A,R1
        MOV     R7,A
        MOV     A,R6
        MOV     B,#0x5
        MUL     AB
        MOV     R6,A
        MOV     ?V0,B
        MOV     B,#0x5
        MOV     A,R7
        MUL     AB
        ADD     A,?V0
        MOV     R7,A
        MOV     DPTR,#ZDSecMgrEntries
        MOVX    A,@DPTR
        ADD     A,R6
        RET
          CFI EndBlock cfiCond85
          CFI EndBlock cfiCond86
          CFI EndBlock cfiPicker87
//  633 
//  634 /******************************************************************************
//  635  * @fn          ZDSecMgrEntryFree
//  636  *
//  637  * @brief       Free entry.
//  638  *
//  639  * @param       entry - [in] valid entry
//  640  *
//  641  * @return      ZStatus_t
//  642  */

        RSEG BANKED_CODE:CODE:NOROOT(0)
//  643 void ZDSecMgrEntryFree( ZDSecMgrEntry_t* entry )
ZDSecMgrEntryFree:
          CFI Block cfiBlock88 Using cfiCommon0
          CFI Function ZDSecMgrEntryFree
        CODE
//  644 {
        FUNCALL ZDSecMgrEntryFree, ZDSecMgrEntryLookupAMIGetIndex
        LOCFRAME ISTACK, 0, STACK
        LOCFRAME PSTACK, 0, STACK
        LOCFRAME XSTACK, 20, STACK
        LOCFRAME IOVERLAY, 0, STATIC
        LOCFRAME DOVERLAY, 0, STATIC
        ARGFRAME ISTACK, 0, STACK
        ARGFRAME PSTACK, 0, STACK
        ARGFRAME XSTACK, 20, STACK
        ARGFRAME IOVERLAY, 0, STATIC
        ARGFRAME DOVERLAY, 0, STATIC
        FUNCALL ZDSecMgrEntryFree, osal_mem_alloc
        LOCFRAME ISTACK, 0, STACK
        LOCFRAME PSTACK, 0, STACK
        LOCFRAME XSTACK, 20, STACK
        LOCFRAME IOVERLAY, 0, STATIC
        LOCFRAME DOVERLAY, 0, STATIC
        ARGFRAME ISTACK, 0, STACK
        ARGFRAME PSTACK, 0, STACK
        ARGFRAME XSTACK, 20, STACK
        ARGFRAME IOVERLAY, 0, STATIC
        ARGFRAME DOVERLAY, 0, STATIC
        FUNCALL ZDSecMgrEntryFree, osal_memset
        LOCFRAME ISTACK, 0, STACK
        LOCFRAME PSTACK, 0, STACK
        LOCFRAME XSTACK, 20, STACK
        LOCFRAME IOVERLAY, 0, STATIC
        LOCFRAME DOVERLAY, 0, STATIC
        ARGFRAME ISTACK, 0, STACK
        ARGFRAME PSTACK, 0, STACK
        ARGFRAME XSTACK, 20, STACK
        ARGFRAME IOVERLAY, 0, STATIC
        ARGFRAME DOVERLAY, 0, STATIC
        FUNCALL ZDSecMgrEntryFree, osal_nv_write
        LOCFRAME ISTACK, 0, STACK
        LOCFRAME PSTACK, 0, STACK
        LOCFRAME XSTACK, 24, STACK
        LOCFRAME IOVERLAY, 0, STATIC
        LOCFRAME DOVERLAY, 0, STATIC
        ARGFRAME ISTACK, 0, STACK
        ARGFRAME PSTACK, 0, STACK
        ARGFRAME XSTACK, 24, STACK
        ARGFRAME IOVERLAY, 0, STATIC
        ARGFRAME DOVERLAY, 0, STATIC
        FUNCALL ZDSecMgrEntryFree, osal_mem_free
        LOCFRAME ISTACK, 0, STACK
        LOCFRAME PSTACK, 0, STACK
        LOCFRAME XSTACK, 20, STACK
        LOCFRAME IOVERLAY, 0, STATIC
        LOCFRAME DOVERLAY, 0, STATIC
        ARGFRAME ISTACK, 0, STACK
        ARGFRAME PSTACK, 0, STACK
        ARGFRAME XSTACK, 20, STACK
        ARGFRAME IOVERLAY, 0, STATIC
        ARGFRAME DOVERLAY, 0, STATIC
        FUNCALL ZDSecMgrEntryFree, osal_nv_write
        LOCFRAME ISTACK, 0, STACK
        LOCFRAME PSTACK, 0, STACK
        LOCFRAME XSTACK, 24, STACK
        LOCFRAME IOVERLAY, 0, STATIC
        LOCFRAME DOVERLAY, 0, STATIC
        ARGFRAME ISTACK, 0, STACK
        ARGFRAME PSTACK, 0, STACK
        ARGFRAME XSTACK, 24, STACK
        ARGFRAME IOVERLAY, 0, STATIC
        ARGFRAME DOVERLAY, 0, STATIC
        FUNCALL ZDSecMgrEntryFree, osal_nv_read
        LOCFRAME ISTACK, 0, STACK
        LOCFRAME PSTACK, 0, STACK
        LOCFRAME XSTACK, 24, STACK
        LOCFRAME IOVERLAY, 0, STATIC
        LOCFRAME DOVERLAY, 0, STATIC
        ARGFRAME ISTACK, 0, STACK
        ARGFRAME PSTACK, 0, STACK
        ARGFRAME XSTACK, 24, STACK
        ARGFRAME IOVERLAY, 0, STATIC
        ARGFRAME DOVERLAY, 0, STATIC
        FUNCALL ZDSecMgrEntryFree, osal_nv_write
        LOCFRAME ISTACK, 0, STACK
        LOCFRAME PSTACK, 0, STACK
        LOCFRAME XSTACK, 24, STACK
        LOCFRAME IOVERLAY, 0, STATIC
        LOCFRAME DOVERLAY, 0, STATIC
        ARGFRAME ISTACK, 0, STACK
        ARGFRAME PSTACK, 0, STACK
        ARGFRAME XSTACK, 24, STACK
        ARGFRAME IOVERLAY, 0, STATIC
        ARGFRAME DOVERLAY, 0, STATIC
        REQUIRE ?V0
        REQUIRE ?V1
        REQUIRE ?V2
        REQUIRE ?V4
        REQUIRE ?V5
        REQUIRE ?V6
        REQUIRE ?V7
        MOV     A,#-0x10
        LCALL   ?BANKED_ENTER_XDATA
          CFI DPH0 load(1, XDATA, add(CFA_XSP16, literal(-1)))
          CFI DPL0 load(1, XDATA, add(CFA_XSP16, literal(-2)))
          CFI ?BRET_EXT load(1, XDATA, add(CFA_XSP16, literal(-3)))
          CFI ?RET_HIGH load(1, XDATA, add(CFA_XSP16, literal(-4)))
          CFI ?RET_LOW load(1, XDATA, add(CFA_XSP16, literal(-5)))
          CFI R7 load(1, XDATA, add(CFA_XSP16, literal(-6)))
          CFI V7 load(1, XDATA, add(CFA_XSP16, literal(-7)))
          CFI V6 load(1, XDATA, add(CFA_XSP16, literal(-8)))
          CFI V5 load(1, XDATA, add(CFA_XSP16, literal(-9)))
          CFI V4 load(1, XDATA, add(CFA_XSP16, literal(-10)))
          CFI V3 load(1, XDATA, add(CFA_XSP16, literal(-11)))
          CFI V2 load(1, XDATA, add(CFA_XSP16, literal(-12)))
          CFI V1 load(1, XDATA, add(CFA_XSP16, literal(-13)))
          CFI V0 load(1, XDATA, add(CFA_XSP16, literal(-14)))
          CFI VB load(1, XDATA, add(CFA_XSP16, literal(-15)))
          CFI R6 load(1, XDATA, add(CFA_XSP16, literal(-16)))
          CFI CFA_SP SP+0
          CFI CFA_XSP16 add(XSP16, 16)
        ; Saved register size: 16
        ; Auto size: 4
        MOV     A,#-0x4
        LCALL   ?ALLOC_XSTACK8
          CFI CFA_XSP16 add(XSP16, 20)
        MOV     A,R2
        MOV     R6,A
        MOV     A,R3
        MOV     R7,A
//  645   APSME_LinkKeyData_t   *pApsLinkKey = NULL;
//  646 
//  647 #if defined ( NV_RESTORE )
//  648   ZStatus_t status;
//  649   uint16 entryIndex;
//  650 
//  651   status = ZDSecMgrEntryLookupAMIGetIndex( entry->ami, &entryIndex );
        ; Setup parameters for call to function ZDSecMgrEntryLookupAMIGetIndex
        MOV     A,#0x2
        LCALL   ?XSTACK_DISP102_8
        MOV     DPL,R6
        MOV     DPH,R7
        LCALL   ??Subroutine62_0 & 0xFFFF
??CrossCallReturnLabel_103:
        LCALL   `??ZDSecMgrEntryLookupAMIGetIndex::?relay`; Banked call to: ZDSecMgrEntryLookupAMIGetIndex
        MOV     A,R1
        MOV     ?V2,A
//  652 #endif
//  653 
//  654   pApsLinkKey = (APSME_LinkKeyData_t *)osal_mem_alloc(sizeof(APSME_LinkKeyData_t));
        ; Setup parameters for call to function osal_mem_alloc
        MOV     R2,#0x18
        MOV     R3,#0x0
        LCALL   `??osal_mem_alloc::?relay`; Banked call to: osal_mem_alloc
        MOV     ?V4,R2
        MOV     ?V5,R3
//  655 
//  656   if (pApsLinkKey != NULL)
        MOV     A,R2
        ORL     A,?V5
        JZ      ??ZDSecMgrEntryFree_0
//  657   {
//  658     osal_memset( pApsLinkKey, 0x00, sizeof(APSME_LinkKeyData_t) );
        ; Setup parameters for call to function osal_memset
        MOV     R4,#0x18
        MOV     R5,#0x0
        MOV     R1,#0x0
        LCALL   `??osal_memset::?relay`; Banked call to: osal_memset
//  659 
//  660     // Clear the APS Link key in NV
//  661     osal_nv_write( entry->keyNvId, 0,
//  662                         sizeof(APSME_LinkKeyData_t), pApsLinkKey);
        LCALL   ?Subroutine43 & 0xFFFF
??CrossCallReturnLabel_57:
        ; Setup parameters for call to function osal_nv_write
        MOV     R0,#?V4
        LCALL   ?PUSH_XSTACK_I_TWO
          CFI CFA_XSP16 add(XSP16, 22)
        MOV     ?V6,#0x18
        MOV     ?V7,#0x0
        MOV     R0,#?V6
        LCALL   ?PUSH_XSTACK_I_TWO
          CFI CFA_XSP16 add(XSP16, 24)
        MOV     R4,#0x0
        MOV     R5,#0x0
        MOV     DPL,?V0
        MOV     DPH,R1
        LCALL   ??Subroutine62_0 & 0xFFFF
??CrossCallReturnLabel_104:
        LCALL   `??osal_nv_write::?relay`; Banked call to: osal_nv_write
        MOV     A,#0x4
        LCALL   ?DEALLOC_XSTACK8
          CFI CFA_XSP16 add(XSP16, 20)
//  663 
//  664     // set entry to invalid Key
//  665     entry->keyNvId = SEC_NO_KEY_NV_ID;
        MOV     DPL,?V0
        MOV     DPH,?V1
        CLR     A
        MOVX    @DPTR,A
        INC     DPTR
        MOVX    @DPTR,A
//  666 
//  667     osal_mem_free(pApsLinkKey);
        ; Setup parameters for call to function osal_mem_free
        MOV     R2,?V4
        MOV     R3,?V5
        LCALL   `??osal_mem_free::?relay`; Banked call to: osal_mem_free
//  668   }
//  669 
//  670   // marking the entry as INVALID_NODE_ADDR
//  671   entry->ami = INVALID_NODE_ADDR;
??ZDSecMgrEntryFree_0:
        MOV     DPL,R6
        MOV     DPH,R7
        MOV     A,#-0x2
        MOVX    @DPTR,A
        INC     DPTR
        INC     A
        LCALL   ?Subroutine48 & 0xFFFF
//  672 
//  673   // set to default value
//  674   entry->authenticateOption = ZDSecMgr_Not_Authenticated;
??CrossCallReturnLabel_65:
        INC     DPTR
        INC     DPTR
        INC     DPTR
        INC     DPTR
        CLR     A
        MOVX    @DPTR,A
//  675 
//  676 #if defined ( NV_RESTORE )
//  677   if ( status == ZSuccess )
        MOV     A,?V2
        JZ      $+5
        LJMP    ??ZDSecMgrEntryFree_1 & 0xFFFF
//  678   {
//  679     ZDSecMgrUpdateNV(entryIndex);
        MOV     A,#0x2
        LCALL   ?XSTACK_DISP0_8
        LCALL   ??Subroutine62_0 & 0xFFFF
//  680   }
??CrossCallReturnLabel_105:
        MOV     A,R2
        MOV     R6,A
        MOV     A,R3
        MOV     R7,A
        MOV     A,R6
        MOV     B,#0x5
        MUL     AB
        MOV     R6,A
        MOV     R0,B
        MOV     B,#0x5
        MOV     A,R7
        MUL     AB
        ADD     A,R0
        MOV     R7,A
        MOV     DPTR,#ZDSecMgrEntries
        LCALL   ??Subroutine66_0 & 0xFFFF
??CrossCallReturnLabel_154:
        JZ      ??ZDSecMgrEntryFree_2
        ; Setup parameters for call to function osal_nv_write
        MOV     DPTR,#ZDSecMgrEntries
        MOVX    A,@DPTR
        ADD     A,R6
        MOV     ?V0,A
        INC     DPTR
        MOVX    A,@DPTR
        ADDC    A,R7
        MOV     ?V1,A
        MOV     R0,#?V0
        LCALL   ?PUSH_XSTACK_I_TWO
          CFI CFA_XSP16 add(XSP16, 22)
        MOV     ?V0,#0x5
        MOV     ?V1,#0x0
        MOV     R0,#?V0
        LCALL   ?PUSH_XSTACK_I_TWO
          CFI CFA_XSP16 add(XSP16, 24)
        MOV     A,R2
        MOV     B,#0x5
        MUL     AB
        MOV     R2,A
        MOV     R0,B
        MOV     B,#0x5
        MOV     A,R3
        MUL     AB
        ADD     A,R0
        MOV     R3,A
        MOV     A,R2
        ADD     A,#0x2
        MOV     R4,A
        CLR     A
        ADDC    A,R3
        MOV     R5,A
        MOV     R2,#0x4c
        MOV     R3,#0x0
        LCALL   `??osal_nv_write::?relay`; Banked call to: osal_nv_write
        MOV     A,#0x4
        LCALL   ?DEALLOC_XSTACK8
          CFI CFA_XSP16 add(XSP16, 20)
??ZDSecMgrEntryFree_2:
        ; Setup parameters for call to function osal_nv_read
        MOV     R0,?XSP + 0
        MOV     R1,?XSP + 1
        MOV     ?V0,R0
        MOV     ?V1,R1
        MOV     R0,#?V0
        LCALL   ?PUSH_XSTACK_I_TWO
          CFI CFA_XSP16 add(XSP16, 22)
        MOV     ?V0,#0x2
        MOV     ?V1,#0x0
        MOV     R0,#?V0
        LCALL   ?PUSH_XSTACK_I_TWO
          CFI CFA_XSP16 add(XSP16, 24)
        MOV     R4,#0x0
        MOV     R5,#0x0
        MOV     R2,#0x4c
        MOV     R3,#0x0
        LCALL   `??osal_nv_read::?relay`; Banked call to: osal_nv_read
        MOV     A,#0x4
        LCALL   ?DEALLOC_XSTACK8
          CFI CFA_XSP16 add(XSP16, 20)
        MOV     A,R1
        JNZ     ??ZDSecMgrEntryFree_1
        LCALL   ?Subroutine36 & 0xFFFF
??CrossCallReturnLabel_45:
        MOVX    A,@DPTR
        XRL     A,#0xfe
        JNZ     ??ZDSecMgrEntryFree_3
        INC     DPTR
        MOVX    A,@DPTR
        CPL     A
??ZDSecMgrEntryFree_3:
        MOV     DPL,?XSP + 0
        MOV     DPH,?XSP + 1
        JNZ     ??ZDSecMgrEntryFree_4
        LCALL   ??Subroutine66_0 & 0xFFFF
??CrossCallReturnLabel_155:
        JZ      ??ZDSecMgrEntryFree_5
        MOV     DPL,?XSP + 0
        MOV     DPH,?XSP + 1
        MOVX    A,@DPTR
        ADD     A,#-0x1
        MOVX    @DPTR,A
        INC     DPTR
        MOVX    A,@DPTR
        ADDC    A,#-0x1
        SJMP    ??CrossCallReturnLabel_49
??ZDSecMgrEntryFree_4:
        LCALL   ?Subroutine38 & 0xFFFF
??CrossCallReturnLabel_49:
        MOVX    @DPTR,A
??ZDSecMgrEntryFree_5:
        ; Setup parameters for call to function osal_nv_write
        MOV     R0,?XSP + 0
        MOV     R1,?XSP + 1
        MOV     ?V0,R0
        MOV     ?V1,R1
        MOV     R0,#?V0
        LCALL   ?PUSH_XSTACK_I_TWO
          CFI CFA_XSP16 add(XSP16, 22)
        MOV     ?V0,#0x2
        MOV     ?V1,#0x0
        MOV     R0,#?V0
        LCALL   ?PUSH_XSTACK_I_TWO
          CFI CFA_XSP16 add(XSP16, 24)
        MOV     R4,#0x0
        MOV     R5,#0x0
        MOV     R2,#0x4c
        MOV     R3,#0x0
        LCALL   `??osal_nv_write::?relay`; Banked call to: osal_nv_write
        MOV     A,#0x4
        LCALL   ?DEALLOC_XSTACK8
          CFI CFA_XSP16 add(XSP16, 20)
//  681 #endif
//  682 }
??ZDSecMgrEntryFree_1:
        MOV     A,#0x4
          CFI EndBlock cfiBlock88
        REQUIRE ?Subroutine1
        ; // Fall through to label ?Subroutine1

        RSEG BANKED_CODE:CODE:NOROOT(0)
?Subroutine1:
          CFI Block cfiBlock89 Using cfiCommon0
          CFI NoFunction
          CFI CFA_SP SP+0
          CFI CFA_XSP16 add(XSP16, 20)
          CFI VB load(1, XDATA, add(CFA_XSP16, literal(-15)))
          CFI DPL0 load(1, XDATA, add(CFA_XSP16, literal(-2)))
          CFI DPH0 load(1, XDATA, add(CFA_XSP16, literal(-1)))
          CFI R6 load(1, XDATA, add(CFA_XSP16, literal(-16)))
          CFI R7 load(1, XDATA, add(CFA_XSP16, literal(-6)))
          CFI V0 load(1, XDATA, add(CFA_XSP16, literal(-14)))
          CFI V1 load(1, XDATA, add(CFA_XSP16, literal(-13)))
          CFI V2 load(1, XDATA, add(CFA_XSP16, literal(-12)))
          CFI V3 load(1, XDATA, add(CFA_XSP16, literal(-11)))
          CFI V4 load(1, XDATA, add(CFA_XSP16, literal(-10)))
          CFI V5 load(1, XDATA, add(CFA_XSP16, literal(-9)))
          CFI V6 load(1, XDATA, add(CFA_XSP16, literal(-8)))
          CFI V7 load(1, XDATA, add(CFA_XSP16, literal(-7)))
          CFI ?BRET_EXT load(1, XDATA, add(CFA_XSP16, literal(-3)))
          CFI ?RET_HIGH load(1, XDATA, add(CFA_XSP16, literal(-4)))
          CFI ?RET_LOW load(1, XDATA, add(CFA_XSP16, literal(-5)))
          CFI Invalid
        LCALL   ?DEALLOC_XSTACK8
          CFI CFA_XSP16 add(XSP16, 16)
          CFI Valid
        MOV     R7,#0x8
        LJMP    ?BANKED_LEAVE_XDATA
          CFI EndBlock cfiBlock89
//  683 
//  684 /******************************************************************************
//  685  * @fn          ZDSecMgrEntryNew
//  686  *
//  687  * @brief       Get a new entry.
//  688  *
//  689  * @param       entry - [out] valid entry
//  690  *
//  691  * @return      ZStatus_t
//  692  */

        RSEG BANKED_CODE:CODE:NOROOT(0)
//  693 ZStatus_t ZDSecMgrEntryNew( ZDSecMgrEntry_t** entry )
ZDSecMgrEntryNew:
          CFI Block cfiBlock90 Using cfiCommon0
          CFI Function ZDSecMgrEntryNew
        CODE
//  694 {
        REQUIRE ?V0
        MOV     A,#-0x9
        LCALL   ?BANKED_ENTER_XDATA
          CFI DPH0 load(1, XDATA, add(CFA_XSP16, literal(-1)))
          CFI DPL0 load(1, XDATA, add(CFA_XSP16, literal(-2)))
          CFI ?BRET_EXT load(1, XDATA, add(CFA_XSP16, literal(-3)))
          CFI ?RET_HIGH load(1, XDATA, add(CFA_XSP16, literal(-4)))
          CFI ?RET_LOW load(1, XDATA, add(CFA_XSP16, literal(-5)))
          CFI R7 load(1, XDATA, add(CFA_XSP16, literal(-6)))
          CFI V0 load(1, XDATA, add(CFA_XSP16, literal(-7)))
          CFI VB load(1, XDATA, add(CFA_XSP16, literal(-8)))
          CFI R6 load(1, XDATA, add(CFA_XSP16, literal(-9)))
          CFI CFA_SP SP+0
          CFI CFA_XSP16 add(XSP16, 9)
        ; Saved register size: 9
        ; Auto size: 0
//  695   uint16 index;
//  696 
//  697   // initialize results
//  698   *entry = NULL;
        MOV     DPL,R2
        MOV     DPH,R3
        LCALL   ?Subroutine10 & 0xFFFF
//  699 
//  700   // verify data is available
//  701   if ( ZDSecMgrEntries != NULL )
??CrossCallReturnLabel_99:
        JZ      ??ZDSecMgrEntryNew_0
//  702   {
//  703     // find available entry
//  704     for ( index = 0; index < ZDSECMGR_ENTRY_MAX ; index++ )
        MOV     R4,#0x0
        MOV     R5,#0x0
//  705     {
//  706       if ( ZDSecMgrEntries[index].ami == INVALID_NODE_ADDR )
??ZDSecMgrEntryNew_1:
        MOV     A,R4
        MOV     R0,A
        MOV     A,R5
        MOV     R1,A
        MOV     A,R0
        MOV     B,#0x5
        MUL     AB
        MOV     R0,A
        MOV     R6,B
        MOV     B,#0x5
        MOV     A,R1
        MUL     AB
        ADD     A,R6
        MOV     R1,A
        MOV     DPTR,#ZDSecMgrEntries
        MOVX    A,@DPTR
        ADD     A,R0
        MOV     R6,A
        INC     DPTR
        MOVX    A,@DPTR
        ADDC    A,R1
        MOV     R7,A
        MOV     DPL,R6
        MOV     DPH,R7
        MOVX    A,@DPTR
        XRL     A,#0xfe
        JNZ     ??ZDSecMgrEntryNew_2
        INC     DPTR
        MOVX    A,@DPTR
        CPL     A
??ZDSecMgrEntryNew_2:
        JNZ     ??ZDSecMgrEntryNew_3
//  707       {
//  708         // return successful result
//  709         *entry = &ZDSecMgrEntries[index];
        MOV     A,R6
        MOV     R4,A
        MOV     A,R7
        MOV     R5,A
        MOV     DPL,R2
        MOV     DPH,R3
        MOV     A,R4
        MOVX    @DPTR,A
        INC     DPTR
        MOV     A,R5
        MOVX    @DPTR,A
//  710 
//  711         // Set the authentication option to default
//  712         ZDSecMgrEntries[index].authenticateOption = ZDSecMgr_Not_Authenticated;
        MOV     DPTR,#ZDSecMgrEntries
        MOVX    A,@DPTR
        ADD     A,R0
        MOV     R2,A
        INC     DPTR
        MOVX    A,@DPTR
        ADDC    A,R1
        MOV     DPL,R2
        MOV     DPH,A
        INC     DPTR
        INC     DPTR
        INC     DPTR
        INC     DPTR
        CLR     A
        MOVX    @DPTR,A
//  713 
//  714         // break from loop
//  715         return ZSuccess;
        MOV     R1,A
        SJMP    ??ZDSecMgrEntryNew_4
//  716       }
//  717     }
??ZDSecMgrEntryNew_3:
        INC     R4
        MOV     A,R4
        JNZ     ??ZDSecMgrEntryNew_5
        INC     R5
??ZDSecMgrEntryNew_5:
        CLR     C
        SUBB    A,#0x3
        MOV     A,R5
        SUBB    A,#0x0
        JC      ??ZDSecMgrEntryNew_1
//  718   }
//  719 
//  720   return ZNwkUnknownDevice;
??ZDSecMgrEntryNew_0:
        MOV     R1,#-0x38
??ZDSecMgrEntryNew_4:
        LJMP    ??Subroutine71_0 & 0xFFFF
//  721 }
          CFI EndBlock cfiBlock90
//  722 
//  723 /******************************************************************************
//  724  * @fn          ZDSecMgrAppKeyGet
//  725  *
//  726  * @brief       get an APP key - option APP(MASTER or LINK) key
//  727  *
//  728  * @param       initNwkAddr - [in] NWK address of initiator device
//  729  * @param       initExtAddr - [in] EXT address of initiator device
//  730  * @param       partNwkAddr - [in] NWK address of partner device
//  731  * @param       partExtAddr - [in] EXT address of partner device
//  732  * @param       key         - [out] APP(MASTER or LINK) key
//  733  * @param       keyType     - [out] APP(MASTER or LINK) key type
//  734  *
//  735  * @return      ZStatus_t
//  736  */

        RSEG XDATA_I:XDATA:NOROOT(0)
//  737 uint8 ZDSecMgrAppKeyType = KEY_TYPE_APP_LINK;    // Set the default key type
ZDSecMgrAppKeyType:
        DATA8
        DS 1
        REQUIRE `?<Initializer for ZDSecMgrAppKeyType>`
        REQUIRE __INIT_XDATA_I
//  738                                                  // to KEY_TYPE_APP_LINK since
//  739                                                  // only specific requirement
//  740                                                  // right now comes from SE profile

        RSEG BANKED_CODE:CODE:NOROOT(0)
//  741 ZStatus_t ZDSecMgrAppKeyGet( uint16  initNwkAddr,
ZDSecMgrAppKeyGet:
          CFI Block cfiBlock91 Using cfiCommon0
          CFI Function ZDSecMgrAppKeyGet
        CODE
//  742                              uint8*  initExtAddr,
//  743                              uint16  partNwkAddr,
//  744                              uint8*  partExtAddr,
//  745                              uint8** key,
//  746                              uint8*  keyType )
//  747 {
        FUNCALL ZDSecMgrAppKeyGet, SSP_GetTrueRand
        LOCFRAME ISTACK, 2, STACK
        LOCFRAME PSTACK, 0, STACK
        LOCFRAME XSTACK, 0, STACK
        LOCFRAME IOVERLAY, 0, STATIC
        LOCFRAME DOVERLAY, 0, STATIC
        ARGFRAME ISTACK, 2, STACK
        ARGFRAME PSTACK, 0, STACK
        ARGFRAME XSTACK, 0, STACK
        ARGFRAME IOVERLAY, 0, STATIC
        ARGFRAME DOVERLAY, 0, STATIC
        PUSH    DPL
          CFI DPL0 Frame(CFA_SP, 4)
          CFI CFA_SP SP+-4
        PUSH    DPH
          CFI DPH0 Frame(CFA_SP, 5)
          CFI CFA_SP SP+-5
        ; Saved register size: 2
        ; Auto size: 0
//  748   // Intentionally unreferenced parameters
//  749   (void)initNwkAddr;
//  750   (void)initExtAddr;
//  751   (void)partNwkAddr;
//  752   (void)partExtAddr;
//  753 
//  754   //---------------------------------------------------------------------------
//  755   // note:
//  756   // should use a robust mechanism to generate keys, for example
//  757   // combine EXT addresses and call a hash function
//  758   //---------------------------------------------------------------------------
//  759   SSP_GetTrueRand( SEC_KEY_LEN, *key );
        ; Setup parameters for call to function SSP_GetTrueRand
        MOV     A,#0x4
        LCALL   ?XSTACK_DISP0_8
        LCALL   ?Subroutine33 & 0xFFFF
??CrossCallReturnLabel_34:
        LCALL   ??Subroutine62_0 & 0xFFFF
??CrossCallReturnLabel_106:
        MOV     R1,#0x10
        LCALL   `??SSP_GetTrueRand::?relay`; Banked call to: SSP_GetTrueRand
//  760 
//  761   *keyType = ZDSecMgrAppKeyType;
        MOV     DPTR,#ZDSecMgrAppKeyType
        MOVX    A,@DPTR
        PUSH    A
          CFI CFA_SP SP+-6
        MOV     A,#0x6
        LCALL   ?XSTACK_DISP0_8
        LCALL   ?Subroutine33 & 0xFFFF
??CrossCallReturnLabel_35:
        POP     A
          CFI CFA_SP SP+-5
        MOVX    @DPTR,A
//  762 
//  763   return ZSuccess;
        MOV     R1,#0x0
        LJMP    ??Subroutine65_0 & 0xFFFF
//  764 }
          CFI EndBlock cfiBlock91
//  765 
//  766 
//  767 
//  768 
//  769 /******************************************************************************
//  770  * @fn          ZDSecMgrAppKeyReq
//  771  *
//  772  * @brief       Process request for APP key between two devices.
//  773  *
//  774  * @param       device - [in] ZDO_RequestKeyInd_t, request info
//  775  *
//  776  * @return      none
//  777  */

        RSEG BANKED_CODE:CODE:NOROOT(0)
//  778 void ZDSecMgrAppKeyReq( ZDO_RequestKeyInd_t* ind )
ZDSecMgrAppKeyReq:
          CFI Block cfiBlock92 Using cfiCommon0
          CFI Function ZDSecMgrAppKeyReq
        CODE
//  779 {
        FUNCALL ZDSecMgrAppKeyReq, APSME_LookupNwkAddr
        LOCFRAME ISTACK, 0, STACK
        LOCFRAME PSTACK, 0, STACK
        LOCFRAME XSTACK, 51, STACK
        LOCFRAME IOVERLAY, 0, STATIC
        LOCFRAME DOVERLAY, 0, STATIC
        ARGFRAME ISTACK, 0, STACK
        ARGFRAME PSTACK, 0, STACK
        ARGFRAME XSTACK, 51, STACK
        ARGFRAME IOVERLAY, 0, STATIC
        ARGFRAME DOVERLAY, 0, STATIC
        FUNCALL ZDSecMgrAppKeyReq, APSME_LookupExtAddr
        LOCFRAME ISTACK, 0, STACK
        LOCFRAME PSTACK, 0, STACK
        LOCFRAME XSTACK, 51, STACK
        LOCFRAME IOVERLAY, 0, STATIC
        LOCFRAME DOVERLAY, 0, STATIC
        ARGFRAME ISTACK, 0, STACK
        ARGFRAME PSTACK, 0, STACK
        ARGFRAME XSTACK, 51, STACK
        ARGFRAME IOVERLAY, 0, STATIC
        ARGFRAME DOVERLAY, 0, STATIC
        FUNCALL ZDSecMgrAppKeyReq, ZDSecMgrAppKeyGet
        LOCFRAME ISTACK, 0, STACK
        LOCFRAME PSTACK, 0, STACK
        LOCFRAME XSTACK, 59, STACK
        LOCFRAME IOVERLAY, 0, STATIC
        LOCFRAME DOVERLAY, 0, STATIC
        ARGFRAME ISTACK, 0, STACK
        ARGFRAME PSTACK, 0, STACK
        ARGFRAME XSTACK, 59, STACK
        ARGFRAME IOVERLAY, 0, STATIC
        ARGFRAME DOVERLAY, 0, STATIC
        FUNCALL ZDSecMgrAppKeyReq, APSME_TransportKeyReq
        LOCFRAME ISTACK, 0, STACK
        LOCFRAME PSTACK, 0, STACK
        LOCFRAME XSTACK, 51, STACK
        LOCFRAME IOVERLAY, 0, STATIC
        LOCFRAME DOVERLAY, 0, STATIC
        ARGFRAME ISTACK, 0, STACK
        ARGFRAME PSTACK, 0, STACK
        ARGFRAME XSTACK, 51, STACK
        ARGFRAME IOVERLAY, 0, STATIC
        ARGFRAME DOVERLAY, 0, STATIC
        FUNCALL ZDSecMgrAppKeyReq, APSME_TransportKeyReq
        LOCFRAME ISTACK, 0, STACK
        LOCFRAME PSTACK, 0, STACK
        LOCFRAME XSTACK, 51, STACK
        LOCFRAME IOVERLAY, 0, STATIC
        LOCFRAME DOVERLAY, 0, STATIC
        ARGFRAME ISTACK, 0, STACK
        ARGFRAME PSTACK, 0, STACK
        ARGFRAME XSTACK, 51, STACK
        ARGFRAME IOVERLAY, 0, STATIC
        ARGFRAME DOVERLAY, 0, STATIC
        FUNCALL ZDSecMgrAppKeyReq, osal_memset
        LOCFRAME ISTACK, 0, STACK
        LOCFRAME PSTACK, 0, STACK
        LOCFRAME XSTACK, 51, STACK
        LOCFRAME IOVERLAY, 0, STATIC
        LOCFRAME DOVERLAY, 0, STATIC
        ARGFRAME ISTACK, 0, STACK
        ARGFRAME PSTACK, 0, STACK
        ARGFRAME XSTACK, 51, STACK
        ARGFRAME IOVERLAY, 0, STATIC
        ARGFRAME DOVERLAY, 0, STATIC
        REQUIRE ?V0
        REQUIRE ?V1
        REQUIRE ?V2
        REQUIRE ?V3
        MOV     A,#-0xc
        LCALL   ?BANKED_ENTER_XDATA
          CFI DPH0 load(1, XDATA, add(CFA_XSP16, literal(-1)))
          CFI DPL0 load(1, XDATA, add(CFA_XSP16, literal(-2)))
          CFI ?BRET_EXT load(1, XDATA, add(CFA_XSP16, literal(-3)))
          CFI ?RET_HIGH load(1, XDATA, add(CFA_XSP16, literal(-4)))
          CFI ?RET_LOW load(1, XDATA, add(CFA_XSP16, literal(-5)))
          CFI R7 load(1, XDATA, add(CFA_XSP16, literal(-6)))
          CFI V3 load(1, XDATA, add(CFA_XSP16, literal(-7)))
          CFI V2 load(1, XDATA, add(CFA_XSP16, literal(-8)))
          CFI V1 load(1, XDATA, add(CFA_XSP16, literal(-9)))
          CFI V0 load(1, XDATA, add(CFA_XSP16, literal(-10)))
          CFI VB load(1, XDATA, add(CFA_XSP16, literal(-11)))
          CFI R6 load(1, XDATA, add(CFA_XSP16, literal(-12)))
          CFI CFA_SP SP+0
          CFI CFA_XSP16 add(XSP16, 12)
        ; Saved register size: 12
        ; Auto size: 39
        MOV     A,#-0x27
        LCALL   ?ALLOC_XSTACK8
          CFI CFA_XSP16 add(XSP16, 51)
        MOV     A,R2
        MOV     R6,A
        MOV     A,R3
        MOV     R7,A
//  780   APSME_TransportKeyReq_t req;
//  781   uint8                   initExtAddr[Z_EXTADDR_LEN];
//  782   uint16                  partNwkAddr;
//  783   uint8                   key[SEC_KEY_LEN];
//  784 
//  785 
//  786   // validate initiator and partner
//  787   if ( ( APSME_LookupNwkAddr( ind->partExtAddr, &partNwkAddr ) == TRUE ) &&
//  788        ( APSME_LookupExtAddr( ind->srcAddr, initExtAddr ) == TRUE      )   )
        MOV     A,R6
        ADD     A,#0x5
        MOV     ?V0,A
        CLR     A
        ADDC    A,R7
        MOV     ?V1,A
        ; Setup parameters for call to function APSME_LookupNwkAddr
        MOV     R4,?XSP + 0
        MOV     R5,?XSP + 1
        MOV     R2,?V0
        MOV     R3,A
        LCALL   `??APSME_LookupNwkAddr::?relay`; Banked call to: APSME_LookupNwkAddr
        MOV     A,R1
        XRL     A,#0x1
        JZ      $+5
        LJMP    ??ZDSecMgrAppKeyReq_0 & 0xFFFF
        MOV     A,R6
        ADD     A,#0x2
        CLR     A
        ADDC    A,R7
        INC     R6
        INC     R6
        MOV     R7,A
        ; Setup parameters for call to function APSME_LookupExtAddr
        MOV     A,#0xf
        LCALL   ?XSTACK_DISP102_8
        MOV     DPL,R6
        MOV     DPH,R7
        LCALL   ??Subroutine62_0 & 0xFFFF
??CrossCallReturnLabel_107:
        LCALL   `??APSME_LookupExtAddr::?relay`; Banked call to: APSME_LookupExtAddr
        MOV     A,R1
        XRL     A,#0x1
        JZ      $+5
        LJMP    ??ZDSecMgrAppKeyReq_0 & 0xFFFF
//  789   {
//  790     // point the key to some memory
//  791     req.key = key;
        MOV     A,#0x17
        LCALL   ?XSTACK_DISP100_8
        MOV     A,#0x6
        LCALL   ?XSTACK_DISP0_8
        LCALL   ??Subroutine63_0 & 0xFFFF
//  792 
//  793     // get an APP key - option APP (MASTER or LINK) key
//  794     if ( ZDSecMgrAppKeyGet( ind->srcAddr,
//  795                             initExtAddr,
//  796                             partNwkAddr,
//  797                             ind->partExtAddr,
//  798                             &req.key,
//  799                             &req.keyType ) == ZSuccess )
??CrossCallReturnLabel_127:
        ; Setup parameters for call to function ZDSecMgrAppKeyGet
        MOV     A,#0x4
        LCALL   ?XSTACK_DISP0_8
        MOV     ?V2,DPL
        MOV     ?V3,DPH
        MOV     R0,#?V2
        LCALL   ?PUSH_XSTACK_I_TWO
          CFI CFA_XSP16 add(XSP16, 53)
        MOV     A,#0x8
        LCALL   ?XSTACK_DISP0_8
        MOV     ?V2,DPL
        MOV     ?V3,DPH
        MOV     R0,#?V2
        LCALL   ?PUSH_XSTACK_I_TWO
          CFI CFA_XSP16 add(XSP16, 55)
        MOV     R0,#?V0
        LCALL   ?PUSH_XSTACK_I_TWO
          CFI CFA_XSP16 add(XSP16, 57)
        MOV     A,#0x6
        LCALL   ?XSTACK_DISP0_8
        LCALL   ?PUSH_XSTACK8_X_TWO
          CFI CFA_XSP16 add(XSP16, 59)
        MOV     A,#0x17
        LCALL   ?XSTACK_DISP102_8
        MOV     DPL,R6
        MOV     DPH,R7
        LCALL   ??Subroutine62_0 & 0xFFFF
??CrossCallReturnLabel_108:
        LCALL   `??ZDSecMgrAppKeyGet::?relay`; Banked call to: ZDSecMgrAppKeyGet
        MOV     A,#0x8
        LCALL   ?DEALLOC_XSTACK8
          CFI CFA_XSP16 add(XSP16, 51)
        MOV     A,R1
        JNZ     ??ZDSecMgrAppKeyReq_0
//  800     {
//  801       // always secure
//  802       req.nwkSecure = TRUE;
        MOV     A,#0xc
        LCALL   ?XSTACK_DISP0_8
        MOV     A,#0x1
        MOVX    @DPTR,A
//  803       req.apsSecure = TRUE;
        MOV     A,#0xb
        LCALL   ?XSTACK_DISP0_8
        MOV     A,#0x1
        MOVX    @DPTR,A
//  804       req.tunnel    = NULL;
        MOV     A,#0xd
        LCALL   ?XSTACK_DISP0_8
        LCALL   ?Subroutine16 & 0xFFFF
//  805 
//  806       // send key to initiator device
//  807       req.dstAddr   = ind->srcAddr;
??CrossCallReturnLabel_8:
        MOV     A,#0x2
        LCALL   ?XSTACK_DISP0_8
        LCALL   ??Subroutine63_0 & 0xFFFF
//  808       req.extAddr   = ind->partExtAddr;
??CrossCallReturnLabel_128:
        MOV     A,#0x8
        LCALL   ?XSTACK_DISP0_8
        MOV     A,?V0
        MOVX    @DPTR,A
        INC     DPTR
        MOV     A,?V1
        MOVX    @DPTR,A
//  809       req.initiator = TRUE;
        MOV     A,#0xa
        LCALL   ?XSTACK_DISP0_8
        MOV     A,#0x1
        MOVX    @DPTR,A
//  810       APSME_TransportKeyReq( &req );
        ; Setup parameters for call to function APSME_TransportKeyReq
        INC     A
        LCALL   ?XSTACK_DISP101_8
        LCALL   `??APSME_TransportKeyReq::?relay`; Banked call to: APSME_TransportKeyReq
//  811 
//  812       // send key to partner device
//  813       req.dstAddr   = partNwkAddr;
        LCALL   ?Subroutine31 & 0xFFFF
??CrossCallReturnLabel_180:
        MOV     A,#0x2
        LCALL   ?XSTACK_DISP0_8
        LCALL   ??Subroutine63_0 & 0xFFFF
//  814       req.extAddr   = initExtAddr;
??CrossCallReturnLabel_129:
        MOV     A,#0xf
        LCALL   ?XSTACK_DISP100_8
        MOV     A,#0x8
        LCALL   ?XSTACK_DISP0_8
        LCALL   ??Subroutine63_0 & 0xFFFF
//  815       req.initiator = FALSE;
??CrossCallReturnLabel_130:
        MOV     A,#0xa
        LCALL   ?XSTACK_DISP0_8
        CLR     A
        MOVX    @DPTR,A
//  816 
//  817       APSME_TransportKeyReq( &req );
        ; Setup parameters for call to function APSME_TransportKeyReq
        MOV     A,#0x2
        LCALL   ?XSTACK_DISP101_8
        LCALL   `??APSME_TransportKeyReq::?relay`; Banked call to: APSME_TransportKeyReq
//  818 
//  819       // clear copy of key in RAM
//  820       osal_memset( key, 0x00, SEC_KEY_LEN);
        ; Setup parameters for call to function osal_memset
        MOV     R4,#0x10
        MOV     R5,#0x0
        MOV     R1,#0x0
        MOV     A,#0x17
        LCALL   ?XSTACK_DISP101_8
        LCALL   `??osal_memset::?relay`; Banked call to: osal_memset
//  821 
//  822     }
//  823   }
//  824 }
??ZDSecMgrAppKeyReq_0:
        MOV     A,#0x27
        LJMP    ?Subroutine3 & 0xFFFF
          CFI EndBlock cfiBlock92
//  825 
//  826 /******************************************************************************
//  827  * @fn          ZDSecMgrTclkReq
//  828  *
//  829  * @brief       Process request for TCLK.
//  830  *
//  831  * @param       device - [in] ZDO_RequestKeyInd_t, request info
//  832  *
//  833  * @return      none
//  834  */

        RSEG BANKED_CODE:CODE:NOROOT(0)
//  835 void ZDSecMgrTclkReq( ZDO_RequestKeyInd_t* ind )
ZDSecMgrTclkReq:
          CFI Block cfiBlock93 Using cfiCommon0
          CFI Function ZDSecMgrTclkReq
        CODE
//  836 {
        FUNCALL ZDSecMgrTclkReq, APSME_LookupNwkAddr
        LOCFRAME ISTACK, 0, STACK
        LOCFRAME PSTACK, 0, STACK
        LOCFRAME XSTACK, 69, STACK
        LOCFRAME IOVERLAY, 0, STATIC
        LOCFRAME DOVERLAY, 0, STATIC
        ARGFRAME ISTACK, 0, STACK
        ARGFRAME PSTACK, 0, STACK
        ARGFRAME XSTACK, 69, STACK
        ARGFRAME IOVERLAY, 0, STATIC
        ARGFRAME DOVERLAY, 0, STATIC
        FUNCALL ZDSecMgrTclkReq, APSME_LookupExtAddr
        LOCFRAME ISTACK, 0, STACK
        LOCFRAME PSTACK, 0, STACK
        LOCFRAME XSTACK, 69, STACK
        LOCFRAME IOVERLAY, 0, STATIC
        LOCFRAME DOVERLAY, 0, STATIC
        ARGFRAME ISTACK, 0, STACK
        ARGFRAME PSTACK, 0, STACK
        ARGFRAME XSTACK, 69, STACK
        ARGFRAME IOVERLAY, 0, STATIC
        ARGFRAME DOVERLAY, 0, STATIC
        FUNCALL ZDSecMgrTclkReq, APSME_SearchTCLinkKeyEntry
        LOCFRAME ISTACK, 0, STACK
        LOCFRAME PSTACK, 0, STACK
        LOCFRAME XSTACK, 71, STACK
        LOCFRAME IOVERLAY, 0, STATIC
        LOCFRAME DOVERLAY, 0, STATIC
        ARGFRAME ISTACK, 0, STACK
        ARGFRAME PSTACK, 0, STACK
        ARGFRAME XSTACK, 71, STACK
        ARGFRAME IOVERLAY, 0, STATIC
        ARGFRAME DOVERLAY, 0, STATIC
        FUNCALL ZDSecMgrTclkReq, ZDSecMgrGenerateKeyFromSeed
        LOCFRAME ISTACK, 0, STACK
        LOCFRAME PSTACK, 0, STACK
        LOCFRAME XSTACK, 69, STACK
        LOCFRAME IOVERLAY, 0, STATIC
        LOCFRAME DOVERLAY, 0, STATIC
        ARGFRAME ISTACK, 0, STACK
        ARGFRAME PSTACK, 0, STACK
        ARGFRAME XSTACK, 69, STACK
        ARGFRAME IOVERLAY, 0, STATIC
        ARGFRAME DOVERLAY, 0, STATIC
        FUNCALL ZDSecMgrTclkReq, APSME_TransportKeyReq
        LOCFRAME ISTACK, 0, STACK
        LOCFRAME PSTACK, 0, STACK
        LOCFRAME XSTACK, 69, STACK
        LOCFRAME IOVERLAY, 0, STATIC
        LOCFRAME DOVERLAY, 0, STATIC
        ARGFRAME ISTACK, 0, STACK
        ARGFRAME PSTACK, 0, STACK
        ARGFRAME XSTACK, 69, STACK
        ARGFRAME IOVERLAY, 0, STATIC
        ARGFRAME DOVERLAY, 0, STATIC
        FUNCALL ZDSecMgrTclkReq, osal_memset
        LOCFRAME ISTACK, 0, STACK
        LOCFRAME PSTACK, 0, STACK
        LOCFRAME XSTACK, 69, STACK
        LOCFRAME IOVERLAY, 0, STATIC
        LOCFRAME DOVERLAY, 0, STATIC
        ARGFRAME ISTACK, 0, STACK
        ARGFRAME PSTACK, 0, STACK
        ARGFRAME XSTACK, 69, STACK
        ARGFRAME IOVERLAY, 0, STATIC
        ARGFRAME DOVERLAY, 0, STATIC
        REQUIRE ?V0
        REQUIRE ?V1
        MOV     A,#-0xa
        LCALL   ?BANKED_ENTER_XDATA
          CFI DPH0 load(1, XDATA, add(CFA_XSP16, literal(-1)))
          CFI DPL0 load(1, XDATA, add(CFA_XSP16, literal(-2)))
          CFI ?BRET_EXT load(1, XDATA, add(CFA_XSP16, literal(-3)))
          CFI ?RET_HIGH load(1, XDATA, add(CFA_XSP16, literal(-4)))
          CFI ?RET_LOW load(1, XDATA, add(CFA_XSP16, literal(-5)))
          CFI R7 load(1, XDATA, add(CFA_XSP16, literal(-6)))
          CFI V1 load(1, XDATA, add(CFA_XSP16, literal(-7)))
          CFI V0 load(1, XDATA, add(CFA_XSP16, literal(-8)))
          CFI VB load(1, XDATA, add(CFA_XSP16, literal(-9)))
          CFI R6 load(1, XDATA, add(CFA_XSP16, literal(-10)))
          CFI CFA_SP SP+0
          CFI CFA_XSP16 add(XSP16, 10)
        ; Saved register size: 10
        ; Auto size: 59
        MOV     A,#-0x3b
        LCALL   ?ALLOC_XSTACK8
          CFI CFA_XSP16 add(XSP16, 69)
        MOV     A,R2
        MOV     R6,A
        MOV     A,R3
        MOV     R7,A
//  837   APSME_TransportKeyReq_t req;
//  838   uint8                   initExtAddr[Z_EXTADDR_LEN];
//  839   uint16                  partNwkAddr;
//  840   uint8                   key[SEC_KEY_LEN];
//  841   APSME_TCLKDevEntry_t    TCLKDevEntry;
//  842   uint8                   found;
//  843     
//  844   // validate initiator and partner
//  845   if ( ( ( APSME_LookupNwkAddr( ind->partExtAddr, &partNwkAddr ) == TRUE ) || ( ind->keyType != KEY_TYPE_APP_MASTER ) ) &&
//  846        (   APSME_LookupExtAddr( ind->srcAddr, initExtAddr )      == TRUE ) )
        ; Setup parameters for call to function APSME_LookupNwkAddr
        MOV     A,#0x1
        LCALL   ?XSTACK_DISP102_8
        MOV     A,R6
        ADD     A,#0x5
        MOV     R2,A
        CLR     A
        ADDC    A,R7
        MOV     R3,A
        LCALL   `??APSME_LookupNwkAddr::?relay`; Banked call to: APSME_LookupNwkAddr
        MOV     A,R1
        XRL     A,#0x1
        JZ      ??ZDSecMgrTclkReq_0
        MOV     DPL,R6
        MOV     DPH,R7
        INC     DPTR
        INC     DPTR
        INC     DPTR
        INC     DPTR
        MOVX    A,@DPTR
        XRL     A,#0x2
        JNZ     $+5
        LJMP    ??ZDSecMgrTclkReq_1 & 0xFFFF
??ZDSecMgrTclkReq_0:
        MOV     A,R6
        ADD     A,#0x2
        CLR     A
        ADDC    A,R7
        INC     R6
        INC     R6
        MOV     R7,A
        ; Setup parameters for call to function APSME_LookupExtAddr
        MOV     A,#0x10
        LCALL   ?XSTACK_DISP102_8
        MOV     DPL,R6
        MOV     DPH,R7
        LCALL   ??Subroutine62_0 & 0xFFFF
??CrossCallReturnLabel_109:
        LCALL   `??APSME_LookupExtAddr::?relay`; Banked call to: APSME_LookupExtAddr
        MOV     A,R1
        XRL     A,#0x1
        JZ      $+5
        LJMP    ??ZDSecMgrTclkReq_1 & 0xFFFF
//  847   {
//  848     // point the key to some memory
//  849     req.key = key;
        MOV     A,#0x2b
        LCALL   ?XSTACK_DISP100_8
        MOV     A,#0x7
        LCALL   ?XSTACK_DISP0_8
        LCALL   ??Subroutine63_0 & 0xFFFF
//  850 
//  851     //Search for the entry
//  852     APSME_SearchTCLinkKeyEntry(initExtAddr,&found, &TCLKDevEntry);
??CrossCallReturnLabel_131:
        ; Setup parameters for call to function APSME_SearchTCLinkKeyEntry
        MOV     A,#0x18
        LCALL   ?XSTACK_DISP100_8
        MOV     ?V0,R0
        MOV     ?V1,R1
        MOV     R0,#?V0
        LCALL   ?PUSH_XSTACK_I_TWO
          CFI CFA_XSP16 add(XSP16, 71)
        MOV     A,#0x2
        LCALL   ?XSTACK_DISP102_8
        MOV     A,#0x12
        LCALL   ?XSTACK_DISP101_8
        LCALL   `??APSME_SearchTCLinkKeyEntry::?relay`; Banked call to: APSME_SearchTCLinkKeyEntry
        MOV     A,#0x2
        LCALL   ?DEALLOC_XSTACK8
          CFI CFA_XSP16 add(XSP16, 69)
//  853 
//  854     //If found, generate the key accordingly to the key attribute
//  855     if(found)
        MOV     DPL,?XSP + 0
        MOV     DPH,?XSP + 1
        MOVX    A,@DPTR
        JZ      ??ZDSecMgrTclkReq_1
//  856     {
//  857       //Generate key from the seed, which would be the unique key
//  858       ZDSecMgrGenerateKeyFromSeed(TCLKDevEntry.extAddr,TCLKDevEntry.SeedShift_IcIndex,req.key);
        ; Setup parameters for call to function ZDSecMgrGenerateKeyFromSeed
        MOV     A,#0x7
        LCALL   ?XSTACK_DISP0_8
        LCALL   ?Subroutine35 & 0xFFFF
??CrossCallReturnLabel_42:
        MOV     A,#0x2a
        LCALL   ?XSTACK_DISP0_8
        MOVX    A,@DPTR
        MOV     R1,A
        MOV     A,#0x20
        LCALL   ?XSTACK_DISP0_8
        MOV     R2,DPL
        MOV     R3,DPH
        LCALL   `??ZDSecMgrGenerateKeyFromSeed::?relay`; Banked call to: ZDSecMgrGenerateKeyFromSeed
//  859     
//  860       // always secure
//  861       req.nwkSecure = TRUE;
        MOV     A,#0xd
        LCALL   ?XSTACK_DISP0_8
        MOV     A,#0x1
        MOVX    @DPTR,A
//  862       req.apsSecure = TRUE;
        MOV     A,#0xc
        LCALL   ?XSTACK_DISP0_8
        MOV     A,#0x1
        MOVX    @DPTR,A
//  863       req.tunnel    = NULL;
        MOV     A,#0xe
        LCALL   ?XSTACK_DISP0_8
        LCALL   ?Subroutine16 & 0xFFFF
//  864 
//  865       // send key to initiator device
//  866       req.dstAddr   = ind->srcAddr;
??CrossCallReturnLabel_9:
        MOV     A,#0x3
        LCALL   ?XSTACK_DISP0_8
        LCALL   ??Subroutine63_0 & 0xFFFF
//  867       req.extAddr   = initExtAddr;
??CrossCallReturnLabel_132:
        MOV     A,#0x10
        LCALL   ?XSTACK_DISP100_8
        MOV     A,#0x9
        LCALL   ?XSTACK_DISP0_8
        LCALL   ?Subroutine21 & 0xFFFF
//  868       req.initiator = TRUE;
??CrossCallReturnLabel_17:
        LCALL   ?XSTACK_DISP0_8
        MOV     A,#0x1
        MOVX    @DPTR,A
//  869       req.keyType   = KEY_TYPE_TC_LINK;
        MOV     A,#0x5
        LCALL   ?XSTACK_DISP0_8
        MOV     A,#0x4
        MOVX    @DPTR,A
//  870         
//  871       APSME_TransportKeyReq( &req );
        ; Setup parameters for call to function APSME_TransportKeyReq
        DEC     A
        LCALL   ?XSTACK_DISP101_8
        LCALL   `??APSME_TransportKeyReq::?relay`; Banked call to: APSME_TransportKeyReq
//  872         
//  873       // clear copy of key in RAM
//  874       osal_memset( key, 0x00, SEC_KEY_LEN);
        ; Setup parameters for call to function osal_memset
        MOV     R4,#0x10
        MOV     R5,#0x0
        MOV     R1,#0x0
        MOV     A,#0x2b
        LCALL   ?XSTACK_DISP101_8
        LCALL   `??osal_memset::?relay`; Banked call to: osal_memset
//  875     
//  876     }
//  877   }
//  878 }
??ZDSecMgrTclkReq_1:
        MOV     A,#0x3b
        LJMP    ?Subroutine4 & 0xFFFF
          CFI EndBlock cfiBlock93

        RSEG BANKED_CODE:CODE:NOROOT(0)
?Subroutine35:
          CFI Block cfiCond94 Using cfiCommon0
          CFI Function ZDSecMgrEntryLookup
          CFI Conditional ??CrossCallReturnLabel_40
          CFI R6 load(1, XDATA, add(CFA_XSP16, literal(-9)))
          CFI VB load(1, XDATA, add(CFA_XSP16, literal(-8)))
          CFI V0 load(1, XDATA, add(CFA_XSP16, literal(-7)))
          CFI R7 load(1, XDATA, add(CFA_XSP16, literal(-6)))
          CFI ?RET_LOW load(1, XDATA, add(CFA_XSP16, literal(-5)))
          CFI ?RET_HIGH load(1, XDATA, add(CFA_XSP16, literal(-4)))
          CFI ?BRET_EXT load(1, XDATA, add(CFA_XSP16, literal(-3)))
          CFI DPL0 load(1, XDATA, add(CFA_XSP16, literal(-2)))
          CFI DPH0 load(1, XDATA, add(CFA_XSP16, literal(-1)))
          CFI CFA_SP SP+-2
          CFI CFA_XSP16 add(XSP16, 22)
          CFI Block cfiCond95 Using cfiCommon0
          CFI (cfiCond95) Function ZDSecMgrEntryLookupExtGetIndex
          CFI (cfiCond95) Conditional ??CrossCallReturnLabel_41
          CFI (cfiCond95) R6 load(1, XDATA, add(CFA_XSP16, literal(-9)))
          CFI (cfiCond95) VB load(1, XDATA, add(CFA_XSP16, literal(-8)))
          CFI (cfiCond95) V0 load(1, XDATA, add(CFA_XSP16, literal(-7)))
          CFI (cfiCond95) R7 load(1, XDATA, add(CFA_XSP16, literal(-6)))
          CFI (cfiCond95) ?RET_LOW load(1, XDATA, add(CFA_XSP16, literal(-5)))
          CFI (cfiCond95) ?RET_HIGH load(1, XDATA, add(CFA_XSP16, literal(-4)))
          CFI (cfiCond95) ?BRET_EXT load(1, XDATA, add(CFA_XSP16, literal(-3)))
          CFI (cfiCond95) DPL0 load(1, XDATA, add(CFA_XSP16, literal(-2)))
          CFI (cfiCond95) DPH0 load(1, XDATA, add(CFA_XSP16, literal(-1)))
          CFI (cfiCond95) CFA_SP SP+-2
          CFI (cfiCond95) CFA_XSP16 add(XSP16, 11)
          CFI Block cfiCond96 Using cfiCommon0
          CFI (cfiCond96) Function ZDSecMgrTclkReq
          CFI (cfiCond96) Conditional ??CrossCallReturnLabel_42
          CFI (cfiCond96) R6 load(1, XDATA, add(CFA_XSP16, literal(-10)))
          CFI (cfiCond96) VB load(1, XDATA, add(CFA_XSP16, literal(-9)))
          CFI (cfiCond96) V0 load(1, XDATA, add(CFA_XSP16, literal(-8)))
          CFI (cfiCond96) V1 load(1, XDATA, add(CFA_XSP16, literal(-7)))
          CFI (cfiCond96) R7 load(1, XDATA, add(CFA_XSP16, literal(-6)))
          CFI (cfiCond96) ?RET_LOW load(1, XDATA, add(CFA_XSP16, literal(-5)))
          CFI (cfiCond96) ?RET_HIGH load(1, XDATA, add(CFA_XSP16, literal(-4)))
          CFI (cfiCond96) ?BRET_EXT load(1, XDATA, add(CFA_XSP16, literal(-3)))
          CFI (cfiCond96) DPL0 load(1, XDATA, add(CFA_XSP16, literal(-2)))
          CFI (cfiCond96) DPH0 load(1, XDATA, add(CFA_XSP16, literal(-1)))
          CFI (cfiCond96) CFA_SP SP+-2
          CFI (cfiCond96) CFA_XSP16 add(XSP16, 69)
          CFI Block cfiCond97 Using cfiCommon0
          CFI (cfiCond97) Function ZDSecMgrDeviceJoin
          CFI (cfiCond97) Conditional ??CrossCallReturnLabel_43
          CFI (cfiCond97) R6 load(1, XDATA, add(CFA_XSP16, literal(-16)))
          CFI (cfiCond97) VB load(1, XDATA, add(CFA_XSP16, literal(-15)))
          CFI (cfiCond97) V0 load(1, XDATA, add(CFA_XSP16, literal(-14)))
          CFI (cfiCond97) V1 load(1, XDATA, add(CFA_XSP16, literal(-13)))
          CFI (cfiCond97) V2 load(1, XDATA, add(CFA_XSP16, literal(-12)))
          CFI (cfiCond97) V3 load(1, XDATA, add(CFA_XSP16, literal(-11)))
          CFI (cfiCond97) V4 load(1, XDATA, add(CFA_XSP16, literal(-10)))
          CFI (cfiCond97) V5 load(1, XDATA, add(CFA_XSP16, literal(-9)))
          CFI (cfiCond97) V6 load(1, XDATA, add(CFA_XSP16, literal(-8)))
          CFI (cfiCond97) V7 load(1, XDATA, add(CFA_XSP16, literal(-7)))
          CFI (cfiCond97) R7 load(1, XDATA, add(CFA_XSP16, literal(-6)))
          CFI (cfiCond97) ?RET_LOW load(1, XDATA, add(CFA_XSP16, literal(-5)))
          CFI (cfiCond97) ?RET_HIGH load(1, XDATA, add(CFA_XSP16, literal(-4)))
          CFI (cfiCond97) ?BRET_EXT load(1, XDATA, add(CFA_XSP16, literal(-3)))
          CFI (cfiCond97) DPL0 load(1, XDATA, add(CFA_XSP16, literal(-2)))
          CFI (cfiCond97) DPH0 load(1, XDATA, add(CFA_XSP16, literal(-1)))
          CFI (cfiCond97) CFA_SP SP+-2
          CFI (cfiCond97) CFA_XSP16 add(XSP16, 32)
          CFI Block cfiCond98 Using cfiCommon0
          CFI (cfiCond98) Function ZDSecMgrAddLinkKey
          CFI (cfiCond98) Conditional ??CrossCallReturnLabel_44
          CFI (cfiCond98) R6 load(1, XDATA, add(CFA_XSP16, literal(-10)))
          CFI (cfiCond98) VB load(1, XDATA, add(CFA_XSP16, literal(-9)))
          CFI (cfiCond98) V0 load(1, XDATA, add(CFA_XSP16, literal(-8)))
          CFI (cfiCond98) V1 load(1, XDATA, add(CFA_XSP16, literal(-7)))
          CFI (cfiCond98) R7 load(1, XDATA, add(CFA_XSP16, literal(-6)))
          CFI (cfiCond98) ?RET_LOW load(1, XDATA, add(CFA_XSP16, literal(-5)))
          CFI (cfiCond98) ?RET_HIGH load(1, XDATA, add(CFA_XSP16, literal(-4)))
          CFI (cfiCond98) ?BRET_EXT load(1, XDATA, add(CFA_XSP16, literal(-3)))
          CFI (cfiCond98) DPL0 load(1, XDATA, add(CFA_XSP16, literal(-2)))
          CFI (cfiCond98) DPH0 load(1, XDATA, add(CFA_XSP16, literal(-1)))
          CFI (cfiCond98) CFA_SP SP+-2
          CFI (cfiCond98) CFA_XSP16 add(XSP16, 14)
          CFI Block cfiPicker99 Using cfiCommon1
          CFI (cfiPicker99) NoFunction
          CFI (cfiPicker99) Picker
        MOVX    A,@DPTR
        MOV     R4,A
        INC     DPTR
        MOVX    A,@DPTR
        MOV     R5,A
        RET
          CFI EndBlock cfiCond94
          CFI EndBlock cfiCond95
          CFI EndBlock cfiCond96
          CFI EndBlock cfiCond97
          CFI EndBlock cfiCond98
          CFI EndBlock cfiPicker99

        RSEG BANKED_CODE:CODE:NOROOT(0)
?Subroutine16:
          CFI Block cfiCond100 Using cfiCommon0
          CFI Function ZDSecMgrAppKeyReq
          CFI Conditional ??CrossCallReturnLabel_8
          CFI R6 load(1, XDATA, add(CFA_XSP16, literal(-12)))
          CFI VB load(1, XDATA, add(CFA_XSP16, literal(-11)))
          CFI V0 load(1, XDATA, add(CFA_XSP16, literal(-10)))
          CFI V1 load(1, XDATA, add(CFA_XSP16, literal(-9)))
          CFI V2 load(1, XDATA, add(CFA_XSP16, literal(-8)))
          CFI V3 load(1, XDATA, add(CFA_XSP16, literal(-7)))
          CFI R7 load(1, XDATA, add(CFA_XSP16, literal(-6)))
          CFI ?RET_LOW load(1, XDATA, add(CFA_XSP16, literal(-5)))
          CFI ?RET_HIGH load(1, XDATA, add(CFA_XSP16, literal(-4)))
          CFI ?BRET_EXT load(1, XDATA, add(CFA_XSP16, literal(-3)))
          CFI DPL0 load(1, XDATA, add(CFA_XSP16, literal(-2)))
          CFI DPH0 load(1, XDATA, add(CFA_XSP16, literal(-1)))
          CFI CFA_SP SP+-2
          CFI CFA_XSP16 add(XSP16, 51)
          CFI Block cfiCond101 Using cfiCommon0
          CFI (cfiCond101) Function ZDSecMgrTclkReq
          CFI (cfiCond101) Conditional ??CrossCallReturnLabel_9
          CFI (cfiCond101) R6 load(1, XDATA, add(CFA_XSP16, literal(-10)))
          CFI (cfiCond101) VB load(1, XDATA, add(CFA_XSP16, literal(-9)))
          CFI (cfiCond101) V0 load(1, XDATA, add(CFA_XSP16, literal(-8)))
          CFI (cfiCond101) V1 load(1, XDATA, add(CFA_XSP16, literal(-7)))
          CFI (cfiCond101) R7 load(1, XDATA, add(CFA_XSP16, literal(-6)))
          CFI (cfiCond101) ?RET_LOW load(1, XDATA, add(CFA_XSP16, literal(-5)))
          CFI (cfiCond101) ?RET_HIGH load(1, XDATA, add(CFA_XSP16, literal(-4)))
          CFI (cfiCond101) ?BRET_EXT load(1, XDATA, add(CFA_XSP16, literal(-3)))
          CFI (cfiCond101) DPL0 load(1, XDATA, add(CFA_XSP16, literal(-2)))
          CFI (cfiCond101) DPH0 load(1, XDATA, add(CFA_XSP16, literal(-1)))
          CFI (cfiCond101) CFA_SP SP+-2
          CFI (cfiCond101) CFA_XSP16 add(XSP16, 69)
          CFI Block cfiPicker102 Using cfiCommon1
          CFI (cfiPicker102) NoFunction
          CFI (cfiPicker102) Picker
        CLR     A
        MOVX    @DPTR,A
        INC     DPTR
        LCALL   ?Subroutine48 & 0xFFFF
??CrossCallReturnLabel_66:
        LCALL   ?Subroutine53 & 0xFFFF
??CrossCallReturnLabel_182:
        RET
          CFI EndBlock cfiCond100
          CFI EndBlock cfiCond101
          CFI EndBlock cfiPicker102

        RSEG BANKED_CODE:CODE:NOROOT(0)
?Subroutine48:
          CFI Block cfiCond103 Using cfiCommon0
          CFI Function ZDSecMgrEntryFree
          CFI Conditional ??CrossCallReturnLabel_65
          CFI R6 load(1, XDATA, add(CFA_XSP16, literal(-16)))
          CFI VB load(1, XDATA, add(CFA_XSP16, literal(-15)))
          CFI V0 load(1, XDATA, add(CFA_XSP16, literal(-14)))
          CFI V1 load(1, XDATA, add(CFA_XSP16, literal(-13)))
          CFI V2 load(1, XDATA, add(CFA_XSP16, literal(-12)))
          CFI V3 load(1, XDATA, add(CFA_XSP16, literal(-11)))
          CFI V4 load(1, XDATA, add(CFA_XSP16, literal(-10)))
          CFI V5 load(1, XDATA, add(CFA_XSP16, literal(-9)))
          CFI V6 load(1, XDATA, add(CFA_XSP16, literal(-8)))
          CFI V7 load(1, XDATA, add(CFA_XSP16, literal(-7)))
          CFI R7 load(1, XDATA, add(CFA_XSP16, literal(-6)))
          CFI ?RET_LOW load(1, XDATA, add(CFA_XSP16, literal(-5)))
          CFI ?RET_HIGH load(1, XDATA, add(CFA_XSP16, literal(-4)))
          CFI ?BRET_EXT load(1, XDATA, add(CFA_XSP16, literal(-3)))
          CFI DPL0 load(1, XDATA, add(CFA_XSP16, literal(-2)))
          CFI DPH0 load(1, XDATA, add(CFA_XSP16, literal(-1)))
          CFI CFA_SP SP+-2
          CFI CFA_XSP16 add(XSP16, 20)
          CFI Block cfiCond104 Using cfiCommon0
          CFI (cfiCond104) Function ZDSecMgrAppKeyReq
          CFI (cfiCond104) Conditional ??CrossCallReturnLabel_66, ??CrossCallReturnLabel_8
          CFI (cfiCond104) R6 load(1, XDATA, add(CFA_XSP16, literal(-12)))
          CFI (cfiCond104) VB load(1, XDATA, add(CFA_XSP16, literal(-11)))
          CFI (cfiCond104) V0 load(1, XDATA, add(CFA_XSP16, literal(-10)))
          CFI (cfiCond104) V1 load(1, XDATA, add(CFA_XSP16, literal(-9)))
          CFI (cfiCond104) V2 load(1, XDATA, add(CFA_XSP16, literal(-8)))
          CFI (cfiCond104) V3 load(1, XDATA, add(CFA_XSP16, literal(-7)))
          CFI (cfiCond104) R7 load(1, XDATA, add(CFA_XSP16, literal(-6)))
          CFI (cfiCond104) ?RET_LOW load(1, XDATA, add(CFA_XSP16, literal(-5)))
          CFI (cfiCond104) ?RET_HIGH load(1, XDATA, add(CFA_XSP16, literal(-4)))
          CFI (cfiCond104) ?BRET_EXT load(1, XDATA, add(CFA_XSP16, literal(-3)))
          CFI (cfiCond104) DPL0 load(1, XDATA, add(CFA_XSP16, literal(-2)))
          CFI (cfiCond104) DPH0 load(1, XDATA, add(CFA_XSP16, literal(-1)))
          CFI (cfiCond104) CFA_SP SP+-4
          CFI (cfiCond104) CFA_XSP16 add(XSP16, 51)
          CFI Block cfiCond105 Using cfiCommon0
          CFI (cfiCond105) Function ZDSecMgrTclkReq
          CFI (cfiCond105) Conditional ??CrossCallReturnLabel_66, ??CrossCallReturnLabel_9
          CFI (cfiCond105) R6 load(1, XDATA, add(CFA_XSP16, literal(-10)))
          CFI (cfiCond105) VB load(1, XDATA, add(CFA_XSP16, literal(-9)))
          CFI (cfiCond105) V0 load(1, XDATA, add(CFA_XSP16, literal(-8)))
          CFI (cfiCond105) V1 load(1, XDATA, add(CFA_XSP16, literal(-7)))
          CFI (cfiCond105) R7 load(1, XDATA, add(CFA_XSP16, literal(-6)))
          CFI (cfiCond105) ?RET_LOW load(1, XDATA, add(CFA_XSP16, literal(-5)))
          CFI (cfiCond105) ?RET_HIGH load(1, XDATA, add(CFA_XSP16, literal(-4)))
          CFI (cfiCond105) ?BRET_EXT load(1, XDATA, add(CFA_XSP16, literal(-3)))
          CFI (cfiCond105) DPL0 load(1, XDATA, add(CFA_XSP16, literal(-2)))
          CFI (cfiCond105) DPH0 load(1, XDATA, add(CFA_XSP16, literal(-1)))
          CFI (cfiCond105) CFA_SP SP+-4
          CFI (cfiCond105) CFA_XSP16 add(XSP16, 69)
          CFI Block cfiCond106 Using cfiCommon0
          CFI (cfiCond106) Function ZDSecMgrNewDeviceEvent
          CFI (cfiCond106) Conditional ??CrossCallReturnLabel_67
          CFI (cfiCond106) R6 load(1, XDATA, add(CFA_XSP16, literal(-12)))
          CFI (cfiCond106) VB load(1, XDATA, add(CFA_XSP16, literal(-11)))
          CFI (cfiCond106) V0 load(1, XDATA, add(CFA_XSP16, literal(-10)))
          CFI (cfiCond106) V1 load(1, XDATA, add(CFA_XSP16, literal(-9)))
          CFI (cfiCond106) V2 load(1, XDATA, add(CFA_XSP16, literal(-8)))
          CFI (cfiCond106) V3 load(1, XDATA, add(CFA_XSP16, literal(-7)))
          CFI (cfiCond106) R7 load(1, XDATA, add(CFA_XSP16, literal(-6)))
          CFI (cfiCond106) ?RET_LOW load(1, XDATA, add(CFA_XSP16, literal(-5)))
          CFI (cfiCond106) ?RET_HIGH load(1, XDATA, add(CFA_XSP16, literal(-4)))
          CFI (cfiCond106) ?BRET_EXT load(1, XDATA, add(CFA_XSP16, literal(-3)))
          CFI (cfiCond106) DPL0 load(1, XDATA, add(CFA_XSP16, literal(-2)))
          CFI (cfiCond106) DPH0 load(1, XDATA, add(CFA_XSP16, literal(-1)))
          CFI (cfiCond106) CFA_SP SP+-2
          CFI (cfiCond106) CFA_XSP16 add(XSP16, 33)
          CFI Block cfiCond107 Using cfiCommon0
          CFI (cfiCond107) Function ZDSecMgrNewDeviceEvent
          CFI (cfiCond107) Conditional ??CrossCallReturnLabel_68
          CFI (cfiCond107) R6 load(1, XDATA, add(CFA_XSP16, literal(-12)))
          CFI (cfiCond107) VB load(1, XDATA, add(CFA_XSP16, literal(-11)))
          CFI (cfiCond107) V0 load(1, XDATA, add(CFA_XSP16, literal(-10)))
          CFI (cfiCond107) V1 load(1, XDATA, add(CFA_XSP16, literal(-9)))
          CFI (cfiCond107) V2 load(1, XDATA, add(CFA_XSP16, literal(-8)))
          CFI (cfiCond107) V3 load(1, XDATA, add(CFA_XSP16, literal(-7)))
          CFI (cfiCond107) R7 load(1, XDATA, add(CFA_XSP16, literal(-6)))
          CFI (cfiCond107) ?RET_LOW load(1, XDATA, add(CFA_XSP16, literal(-5)))
          CFI (cfiCond107) ?RET_HIGH load(1, XDATA, add(CFA_XSP16, literal(-4)))
          CFI (cfiCond107) ?BRET_EXT load(1, XDATA, add(CFA_XSP16, literal(-3)))
          CFI (cfiCond107) DPL0 load(1, XDATA, add(CFA_XSP16, literal(-2)))
          CFI (cfiCond107) DPH0 load(1, XDATA, add(CFA_XSP16, literal(-1)))
          CFI (cfiCond107) CFA_SP SP+-2
          CFI (cfiCond107) CFA_XSP16 add(XSP16, 33)
          CFI Block cfiPicker108 Using cfiCommon1
          CFI (cfiPicker108) NoFunction
          CFI (cfiPicker108) Picker
        MOVX    @DPTR,A
        MOV     DPL,R6
        MOV     DPH,R7
        RET
          CFI EndBlock cfiCond103
          CFI EndBlock cfiCond104
          CFI EndBlock cfiCond105
          CFI EndBlock cfiCond106
          CFI EndBlock cfiCond107
          CFI EndBlock cfiPicker108
//  879 
//  880 /******************************************************************************
//  881  * @fn          ZDSecMgrAppConfKeyReq
//  882  *
//  883  * @brief       Process request for APP key between two devices.
//  884  *
//  885  * @param       device - [in] ZDO_VerifyKeyInd_t, request info
//  886  *
//  887  * @return      none
//  888  */

        RSEG BANKED_CODE:CODE:NOROOT(0)
//  889 void ZDSecMgrAppConfKeyReq( ZDO_VerifyKeyInd_t* ind )
ZDSecMgrAppConfKeyReq:
          CFI Block cfiBlock109 Using cfiCommon0
          CFI Function ZDSecMgrAppConfKeyReq
        CODE
//  890 {
        ; Saved register size: 0
        ; Auto size: 0
//  891   APSME_ConfirmKeyReq_t   req;
//  892 
//  893   // send key to initiator device
//  894   req.dstAddr      = ind->srcAddr;
//  895   req.status       = ind->verifyKeyStatus;
//  896   req.dstExtAddr   = ind->extAddr;
//  897   req.keyType      = ind->keyType;
//  898 
//  899   if ( ( ZSTACK_DEVICE_BUILD & DEVICE_BUILD_COORDINATOR ) != 0 )
//  900   {
//  901     APSME_ConfirmKeyReq( &req );
//  902   }
//  903   
//  904 }
        LJMP    ?BRET
          CFI EndBlock cfiBlock109
//  905 
//  906 
//  907 /******************************************************************************
//  908  * @fn          ZDSecMgrSendNwkKey
//  909  *
//  910  * @brief       Send NWK key to device joining network.
//  911  *
//  912  * @param       device - [in] ZDSecMgrDevice_t, device info
//  913  *
//  914  * @return      ZStatus_t
//  915  */

        RSEG BANKED_CODE:CODE:NOROOT(0)
//  916 ZStatus_t ZDSecMgrSendNwkKey( ZDSecMgrDevice_t* device )
ZDSecMgrSendNwkKey:
          CFI Block cfiBlock110 Using cfiCommon0
          CFI Function ZDSecMgrSendNwkKey
        CODE
//  917 {
        FUNCALL ZDSecMgrSendNwkKey, NLME_ReadNwkKeyInfo
        LOCFRAME ISTACK, 0, STACK
        LOCFRAME PSTACK, 0, STACK
        LOCFRAME XSTACK, 50, STACK
        LOCFRAME IOVERLAY, 0, STATIC
        LOCFRAME DOVERLAY, 0, STATIC
        ARGFRAME ISTACK, 0, STACK
        ARGFRAME PSTACK, 0, STACK
        ARGFRAME XSTACK, 50, STACK
        ARGFRAME IOVERLAY, 0, STATIC
        ARGFRAME DOVERLAY, 0, STATIC
        FUNCALL ZDSecMgrSendNwkKey, osal_memset
        LOCFRAME ISTACK, 0, STACK
        LOCFRAME PSTACK, 0, STACK
        LOCFRAME XSTACK, 46, STACK
        LOCFRAME IOVERLAY, 0, STATIC
        LOCFRAME DOVERLAY, 0, STATIC
        ARGFRAME ISTACK, 0, STACK
        ARGFRAME PSTACK, 0, STACK
        ARGFRAME XSTACK, 46, STACK
        ARGFRAME IOVERLAY, 0, STATIC
        ARGFRAME DOVERLAY, 0, STATIC
        FUNCALL ZDSecMgrSendNwkKey, NLME_GetShortAddr
        LOCFRAME ISTACK, 0, STACK
        LOCFRAME PSTACK, 0, STACK
        LOCFRAME XSTACK, 46, STACK
        LOCFRAME IOVERLAY, 0, STATIC
        LOCFRAME DOVERLAY, 0, STATIC
        ARGFRAME ISTACK, 0, STACK
        ARGFRAME PSTACK, 0, STACK
        ARGFRAME XSTACK, 46, STACK
        ARGFRAME IOVERLAY, 0, STATIC
        ARGFRAME DOVERLAY, 0, STATIC
        FUNCALL ZDSecMgrSendNwkKey, APSME_TransportKeyReq
        LOCFRAME ISTACK, 0, STACK
        LOCFRAME PSTACK, 0, STACK
        LOCFRAME XSTACK, 46, STACK
        LOCFRAME IOVERLAY, 0, STATIC
        LOCFRAME DOVERLAY, 0, STATIC
        ARGFRAME ISTACK, 0, STACK
        ARGFRAME PSTACK, 0, STACK
        ARGFRAME XSTACK, 46, STACK
        ARGFRAME IOVERLAY, 0, STATIC
        ARGFRAME DOVERLAY, 0, STATIC
        FUNCALL ZDSecMgrSendNwkKey, osal_memset
        LOCFRAME ISTACK, 0, STACK
        LOCFRAME PSTACK, 0, STACK
        LOCFRAME XSTACK, 46, STACK
        LOCFRAME IOVERLAY, 0, STATIC
        LOCFRAME DOVERLAY, 0, STATIC
        ARGFRAME ISTACK, 0, STACK
        ARGFRAME PSTACK, 0, STACK
        ARGFRAME XSTACK, 46, STACK
        ARGFRAME IOVERLAY, 0, STATIC
        ARGFRAME DOVERLAY, 0, STATIC
        REQUIRE ?V0
        REQUIRE ?V1
        REQUIRE ?V2
        REQUIRE ?V3
        MOV     A,#-0xc
        LCALL   ?BANKED_ENTER_XDATA
          CFI DPH0 load(1, XDATA, add(CFA_XSP16, literal(-1)))
          CFI DPL0 load(1, XDATA, add(CFA_XSP16, literal(-2)))
          CFI ?BRET_EXT load(1, XDATA, add(CFA_XSP16, literal(-3)))
          CFI ?RET_HIGH load(1, XDATA, add(CFA_XSP16, literal(-4)))
          CFI ?RET_LOW load(1, XDATA, add(CFA_XSP16, literal(-5)))
          CFI R7 load(1, XDATA, add(CFA_XSP16, literal(-6)))
          CFI V3 load(1, XDATA, add(CFA_XSP16, literal(-7)))
          CFI V2 load(1, XDATA, add(CFA_XSP16, literal(-8)))
          CFI V1 load(1, XDATA, add(CFA_XSP16, literal(-9)))
          CFI V0 load(1, XDATA, add(CFA_XSP16, literal(-10)))
          CFI VB load(1, XDATA, add(CFA_XSP16, literal(-11)))
          CFI R6 load(1, XDATA, add(CFA_XSP16, literal(-12)))
          CFI CFA_SP SP+0
          CFI CFA_XSP16 add(XSP16, 12)
        ; Saved register size: 12
        ; Auto size: 34
        MOV     A,#-0x22
        LCALL   ?ALLOC_XSTACK8
          CFI CFA_XSP16 add(XSP16, 46)
        MOV     A,R2
        MOV     R6,A
        MOV     A,R3
        MOV     R7,A
//  918   ZStatus_t status;
//  919   APSME_TransportKeyReq_t req;
//  920   APSDE_FrameTunnel_t tunnel;
//  921   nwkKeyDesc tmpKey;
//  922 
//  923   req.dstAddr   = device->nwkAddr;
        MOV     DPL,R6
        MOV     DPH,R7
        LCALL   ??Subroutine74_0 & 0xFFFF
??CrossCallReturnLabel_171:
        MOV     A,#0x4
        LCALL   ?XSTACK_DISP0_8
        LCALL   ??Subroutine63_0 & 0xFFFF
//  924   req.extAddr   = device->extAddr;
??CrossCallReturnLabel_133:
        LCALL   ?Subroutine43 & 0xFFFF
??CrossCallReturnLabel_58:
        MOV     DPL,R0
        MOV     DPH,A
        LCALL   ??Subroutine74_0 & 0xFFFF
??CrossCallReturnLabel_172:
        MOV     A,#0xa
        LCALL   ?XSTACK_DISP0_8
        LCALL   ??Subroutine63_0 & 0xFFFF
//  925 
//  926   req.keyType   = KEY_TYPE_NWK;
??CrossCallReturnLabel_134:
        MOV     A,#0x6
        LCALL   ?XSTACK_DISP0_8
        MOV     A,#0x1
        MOVX    @DPTR,A
//  927 
//  928   // get the Active Key into a local variable
//  929   if ( NLME_ReadNwkKeyInfo( 0, sizeof(tmpKey), &tmpKey,
//  930                            ZCD_NV_NWK_ACTIVE_KEY_INFO ) != SUCCESS )
        ; Setup parameters for call to function NLME_ReadNwkKeyInfo
        MOV     ?V2,#0x3a
        MOV     ?V3,#0x0
        MOV     R0,#?V2
        LCALL   ?PUSH_XSTACK_I_TWO
          CFI CFA_XSP16 add(XSP16, 48)
        MOV     A,#0x13
        LCALL   ?XSTACK_DISP100_8
        MOV     ?V2,R0
        MOV     ?V3,R1
        MOV     R0,#?V2
        LCALL   ?PUSH_XSTACK_I_TWO
          CFI CFA_XSP16 add(XSP16, 50)
        MOV     R4,#0x11
        MOV     R5,#0x0
        MOV     R2,#0x0
        MOV     R3,#0x0
        LCALL   `??NLME_ReadNwkKeyInfo::?relay`; Banked call to: NLME_ReadNwkKeyInfo
        MOV     A,#0x4
        LCALL   ?DEALLOC_XSTACK8
          CFI CFA_XSP16 add(XSP16, 46)
        MOV     A,R1
        JZ      ??ZDSecMgrSendNwkKey_0
//  931   {
//  932     // set key data to all 0s if NV read fails
//  933     osal_memset(&tmpKey, 0x00, sizeof(tmpKey));
        ; Setup parameters for call to function osal_memset
        MOV     R4,#0x11
        MOV     R5,#0x0
        MOV     R1,#0x0
        MOV     A,R4
        LCALL   ?XSTACK_DISP101_8
        LCALL   `??osal_memset::?relay`; Banked call to: osal_memset
//  934   }
//  935 
//  936   if ( ZG_CHECK_SECURITY_MODE == ZG_SECURITY_SE_STANDARD )
//  937   {
//  938     // set values
//  939     req.keySeqNum = tmpKey.keySeqNum;
??ZDSecMgrSendNwkKey_0:
        MOV     A,#0x11
        LCALL   ?XSTACK_DISP0_8
        MOVX    A,@DPTR
        PUSH    A
          CFI CFA_SP SP+-1
        MOV     A,#0x7
        LCALL   ?XSTACK_DISP0_8
        POP     A
          CFI CFA_SP SP+0
        MOVX    @DPTR,A
//  940     req.key       = tmpKey.key;
        MOV     A,#0x12
        LCALL   ?XSTACK_DISP0_8
        MOV     R0,DPL
        MOV     R1,DPH
        MOV     A,#0x8
        LCALL   ?XSTACK_DISP0_8
        LCALL   ??Subroutine63_0 & 0xFFFF
//  941 
//  942     //devtag.pro.security.todo - make sure that if there is no link key the NWK
//  943     //key isn't used to secure the frame at the APS layer -- since the receiving
//  944     //device may not have a NWK key yet
//  945     req.apsSecure = TRUE;
??CrossCallReturnLabel_135:
        MOV     A,#0xd
        LCALL   ?XSTACK_DISP0_8
        MOV     A,#0x1
        MOVX    @DPTR,A
//  946 
//  947     // check if using secure hop to parent
//  948     if ( device->parentAddr == NLME_GetShortAddr() )
        ; Setup parameters for call to function NLME_GetShortAddr
        LCALL   `??NLME_GetShortAddr::?relay`; Banked call to: NLME_GetShortAddr
        MOV     A,R6
        ADD     A,#0x4
        MOV     R0,A
        CLR     A
        ADDC    A,R7
        MOV     R1,A
        MOV     DPL,R0
        MOV     DPH,R1
        MOVX    A,@DPTR
        XRL     A,R2
        JNZ     ??ZDSecMgrSendNwkKey_1
        INC     DPTR
        MOVX    A,@DPTR
        XRL     A,R3
??ZDSecMgrSendNwkKey_1:
        JNZ     ??ZDSecMgrSendNwkKey_2
//  949     {
//  950       req.nwkSecure = FALSE;
        MOV     A,#0xe
        LCALL   ?XSTACK_DISP0_8
        CLR     A
        MOVX    @DPTR,A
//  951       req.tunnel    = NULL;
        MOV     A,#0xf
        LCALL   ?XSTACK_DISP0_8
        CLR     A
        MOVX    @DPTR,A
        INC     DPTR
        SJMP    ??ZDSecMgrSendNwkKey_3
//  952     }
//  953     else
//  954     {
//  955       req.nwkSecure   = TRUE;
??ZDSecMgrSendNwkKey_2:
        MOV     A,#0xe
        LCALL   ?XSTACK_DISP0_8
        MOV     A,#0x1
        MOVX    @DPTR,A
//  956       req.tunnel      = &tunnel;
        MOV     A,#0xf
        LCALL   ?XSTACK_DISP0_8
        MOV     A,?XSP + 0
        MOVX    @DPTR,A
        INC     DPTR
        MOV     A,?XSP + 1
        LCALL   ?Subroutine19 & 0xFFFF
//  957       req.tunnel->tna = device->parentAddr;
//  958       req.tunnel->dea = device->extAddr;
//  959     }
//  960   }
??CrossCallReturnLabel_12:
        MOV     DPL,?XSP + 0
        MOV     DPH,?XSP + 1
        LCALL   ?Subroutine17 & 0xFFFF
??CrossCallReturnLabel_10:
        MOV     R0,A
        INC     DPTR
        MOVX    A,@DPTR
        MOV     R1,A
        MOV     A,#0x2
        LCALL   ?XSTACK_DISP0_8
        MOV     A,R0
        MOVX    @DPTR,A
        INC     DPTR
        MOV     A,R1
??ZDSecMgrSendNwkKey_3:
        MOVX    @DPTR,A
//  961   else
//  962   {
//  963     // default values
//  964     //devtag.0604.verify
//  965     req.nwkSecure = TRUE;
//  966     req.apsSecure = FALSE;
//  967     req.tunnel    = NULL;
//  968 
//  969     if ( device->parentAddr != NLME_GetShortAddr() )
//  970     {
//  971       req.dstAddr = device->parentAddr;
//  972     }
//  973 
//  974     // send the real key
//  975     if ( zgPreConfigKeys == FALSE )
//  976     {
//  977       req.keySeqNum = tmpKey.keySeqNum;
//  978       req.key       = tmpKey.key;
//  979 
//  980       // check if using secure hop to to parent
//  981       if ( device->parentAddr == NLME_GetShortAddr() )
//  982       {
//  983         req.nwkSecure = FALSE;
//  984       }
//  985     }
//  986     else
//  987     {
//  988       // this is to send the all zero key when the NWK key has been preconfigured
//  989       req.key       = NULL;
//  990       req.keySeqNum = 0;
//  991     }
//  992   }
//  993 
//  994   status = APSME_TransportKeyReq( &req );
        ; Setup parameters for call to function APSME_TransportKeyReq
        MOV     A,#0x4
        LCALL   ?XSTACK_DISP101_8
        LCALL   `??APSME_TransportKeyReq::?relay`; Banked call to: APSME_TransportKeyReq
        MOV     A,R1
        MOV     R6,A
//  995 
//  996   // clear copy of key in RAM before return
//  997   osal_memset( &tmpKey, 0x00, sizeof(nwkKeyDesc) );
        ; Setup parameters for call to function osal_memset
        MOV     R4,#0x11
        MOV     R5,#0x0
        MOV     R1,#0x0
        MOV     A,R4
        LCALL   ?XSTACK_DISP101_8
        LCALL   `??osal_memset::?relay`; Banked call to: osal_memset
//  998 
//  999   return status;
        MOV     A,R6
        MOV     R1,A
        MOV     A,#0x22
        LJMP    ?Subroutine3 & 0xFFFF
// 1000 }
          CFI EndBlock cfiBlock110

        RSEG BANKED_CODE:CODE:NOROOT(0)
?Subroutine43:
          CFI Block cfiCond111 Using cfiCommon0
          CFI Function ZDSecMgrEntryFree
          CFI Conditional ??CrossCallReturnLabel_57
          CFI R6 load(1, XDATA, add(CFA_XSP16, literal(-16)))
          CFI VB load(1, XDATA, add(CFA_XSP16, literal(-15)))
          CFI V0 load(1, XDATA, add(CFA_XSP16, literal(-14)))
          CFI V1 load(1, XDATA, add(CFA_XSP16, literal(-13)))
          CFI V2 load(1, XDATA, add(CFA_XSP16, literal(-12)))
          CFI V3 load(1, XDATA, add(CFA_XSP16, literal(-11)))
          CFI V4 load(1, XDATA, add(CFA_XSP16, literal(-10)))
          CFI V5 load(1, XDATA, add(CFA_XSP16, literal(-9)))
          CFI V6 load(1, XDATA, add(CFA_XSP16, literal(-8)))
          CFI V7 load(1, XDATA, add(CFA_XSP16, literal(-7)))
          CFI R7 load(1, XDATA, add(CFA_XSP16, literal(-6)))
          CFI ?RET_LOW load(1, XDATA, add(CFA_XSP16, literal(-5)))
          CFI ?RET_HIGH load(1, XDATA, add(CFA_XSP16, literal(-4)))
          CFI ?BRET_EXT load(1, XDATA, add(CFA_XSP16, literal(-3)))
          CFI DPL0 load(1, XDATA, add(CFA_XSP16, literal(-2)))
          CFI DPH0 load(1, XDATA, add(CFA_XSP16, literal(-1)))
          CFI CFA_SP SP+-2
          CFI CFA_XSP16 add(XSP16, 20)
          CFI Block cfiCond112 Using cfiCommon0
          CFI (cfiCond112) Function ZDSecMgrSendNwkKey
          CFI (cfiCond112) Conditional ??CrossCallReturnLabel_58
          CFI (cfiCond112) R6 load(1, XDATA, add(CFA_XSP16, literal(-12)))
          CFI (cfiCond112) VB load(1, XDATA, add(CFA_XSP16, literal(-11)))
          CFI (cfiCond112) V0 load(1, XDATA, add(CFA_XSP16, literal(-10)))
          CFI (cfiCond112) V1 load(1, XDATA, add(CFA_XSP16, literal(-9)))
          CFI (cfiCond112) V2 load(1, XDATA, add(CFA_XSP16, literal(-8)))
          CFI (cfiCond112) V3 load(1, XDATA, add(CFA_XSP16, literal(-7)))
          CFI (cfiCond112) R7 load(1, XDATA, add(CFA_XSP16, literal(-6)))
          CFI (cfiCond112) ?RET_LOW load(1, XDATA, add(CFA_XSP16, literal(-5)))
          CFI (cfiCond112) ?RET_HIGH load(1, XDATA, add(CFA_XSP16, literal(-4)))
          CFI (cfiCond112) ?BRET_EXT load(1, XDATA, add(CFA_XSP16, literal(-3)))
          CFI (cfiCond112) DPL0 load(1, XDATA, add(CFA_XSP16, literal(-2)))
          CFI (cfiCond112) DPH0 load(1, XDATA, add(CFA_XSP16, literal(-1)))
          CFI (cfiCond112) CFA_SP SP+-2
          CFI (cfiCond112) CFA_XSP16 add(XSP16, 46)
          CFI Block cfiPicker113 Using cfiCommon1
          CFI (cfiPicker113) NoFunction
          CFI (cfiPicker113) Picker
        MOV     A,R6
        ADD     A,#0x2
        MOV     R0,A
        CLR     A
        ADDC    A,R7
        MOV     R1,A
        MOV     ?V0,R0
        MOV     ?V1,R1
        RET
          CFI EndBlock cfiCond111
          CFI EndBlock cfiCond112
          CFI EndBlock cfiPicker113
// 1001 
// 1002 /******************************************************************************
// 1003  * @fn          ZDSecMgrDeviceRemoveByExtAddr
// 1004  *
// 1005  * @brief       Remove device entry by its ext address.
// 1006  *
// 1007  * @param       pAddr - pointer to the extended address
// 1008  *
// 1009  * @return      ZStatus_t
// 1010  */

        RSEG BANKED_CODE:CODE:NOROOT(0)
// 1011 ZStatus_t ZDSecMgrDeviceRemoveByExtAddr( uint8 *pAddr )
ZDSecMgrDeviceRemoveByExtAddr:
          CFI Block cfiBlock114 Using cfiCommon0
          CFI Function ZDSecMgrDeviceRemoveByExtAddr
        CODE
// 1012 {
        FUNCALL ZDSecMgrDeviceRemoveByExtAddr, ZDSecMgrEntryLookupExt
        LOCFRAME ISTACK, 0, STACK
        LOCFRAME PSTACK, 0, STACK
        LOCFRAME XSTACK, 11, STACK
        LOCFRAME IOVERLAY, 0, STATIC
        LOCFRAME DOVERLAY, 0, STATIC
        ARGFRAME ISTACK, 0, STACK
        ARGFRAME PSTACK, 0, STACK
        ARGFRAME XSTACK, 11, STACK
        ARGFRAME IOVERLAY, 0, STATIC
        ARGFRAME DOVERLAY, 0, STATIC
        FUNCALL ZDSecMgrDeviceRemoveByExtAddr, ZDSecMgrEntryFree
        LOCFRAME ISTACK, 0, STACK
        LOCFRAME PSTACK, 0, STACK
        LOCFRAME XSTACK, 11, STACK
        LOCFRAME IOVERLAY, 0, STATIC
        LOCFRAME DOVERLAY, 0, STATIC
        ARGFRAME ISTACK, 0, STACK
        ARGFRAME PSTACK, 0, STACK
        ARGFRAME XSTACK, 11, STACK
        ARGFRAME IOVERLAY, 0, STATIC
        ARGFRAME DOVERLAY, 0, STATIC
        MOV     A,#-0x9
        LCALL   ?BANKED_ENTER_XDATA
          CFI DPH0 load(1, XDATA, add(CFA_XSP16, literal(-1)))
          CFI DPL0 load(1, XDATA, add(CFA_XSP16, literal(-2)))
          CFI ?BRET_EXT load(1, XDATA, add(CFA_XSP16, literal(-3)))
          CFI ?RET_HIGH load(1, XDATA, add(CFA_XSP16, literal(-4)))
          CFI ?RET_LOW load(1, XDATA, add(CFA_XSP16, literal(-5)))
          CFI R7 load(1, XDATA, add(CFA_XSP16, literal(-6)))
          CFI V0 load(1, XDATA, add(CFA_XSP16, literal(-7)))
          CFI VB load(1, XDATA, add(CFA_XSP16, literal(-8)))
          CFI R6 load(1, XDATA, add(CFA_XSP16, literal(-9)))
          CFI CFA_SP SP+0
          CFI CFA_XSP16 add(XSP16, 9)
        ; Saved register size: 9
        ; Auto size: 2
        MOV     A,#-0x2
        LCALL   ?ALLOC_XSTACK8
          CFI CFA_XSP16 add(XSP16, 11)
// 1013   ZDSecMgrEntry_t *pEntry;
// 1014   uint8           retValue;
// 1015 
// 1016   retValue = (uint8)ZDSecMgrEntryLookupExt( pAddr, &pEntry );
        ; Setup parameters for call to function ZDSecMgrEntryLookupExt
        MOV     R4,?XSP + 0
        MOV     R5,?XSP + 1
        LCALL   `??ZDSecMgrEntryLookupExt::?relay`; Banked call to: ZDSecMgrEntryLookupExt
        MOV     A,R1
        MOV     R6,A
// 1017 
// 1018   if( retValue == ZSuccess )
        JNZ     ??ZDSecMgrDeviceRemoveByExtAddr_0
// 1019   {
// 1020     // remove device from entry data
// 1021     ZDSecMgrEntryFree( pEntry );
        ; Setup parameters for call to function ZDSecMgrEntryFree
        MOV     DPL,?XSP + 0
        MOV     DPH,?XSP + 1
        LCALL   ??Subroutine62_0 & 0xFFFF
// 1022   }
??CrossCallReturnLabel_110:
        LCALL   `??ZDSecMgrEntryFree::?relay`; Banked call to: ZDSecMgrEntryFree
// 1023 
// 1024   return retValue;
??ZDSecMgrDeviceRemoveByExtAddr_0:
        MOV     A,R6
        MOV     R1,A
          CFI EndBlock cfiBlock114
        REQUIRE ?Subroutine8
        ; // Fall through to label ?Subroutine8
// 1025 }

        RSEG BANKED_CODE:CODE:NOROOT(0)
?Subroutine8:
          CFI Block cfiBlock115 Using cfiCommon0
          CFI NoFunction
          CFI CFA_SP SP+0
          CFI CFA_XSP16 add(XSP16, 11)
          CFI VB load(1, XDATA, add(CFA_XSP16, literal(-8)))
          CFI DPL0 load(1, XDATA, add(CFA_XSP16, literal(-2)))
          CFI DPH0 load(1, XDATA, add(CFA_XSP16, literal(-1)))
          CFI R6 load(1, XDATA, add(CFA_XSP16, literal(-9)))
          CFI R7 load(1, XDATA, add(CFA_XSP16, literal(-6)))
          CFI V0 load(1, XDATA, add(CFA_XSP16, literal(-7)))
          CFI ?BRET_EXT load(1, XDATA, add(CFA_XSP16, literal(-3)))
          CFI ?RET_HIGH load(1, XDATA, add(CFA_XSP16, literal(-4)))
          CFI ?RET_LOW load(1, XDATA, add(CFA_XSP16, literal(-5)))
        MOV     A,#0x2
        LJMP    ??Subroutine70_0 & 0xFFFF
          CFI EndBlock cfiBlock115
// 1026 
// 1027 /******************************************************************************
// 1028  * @fn          ZDSecMgrDeviceRemove
// 1029  *
// 1030  * @brief       Remove device from network.
// 1031  *
// 1032  * @param       device - [in] ZDSecMgrDevice_t, device info
// 1033  *
// 1034  * @return      none
// 1035  */

        RSEG BANKED_CODE:CODE:NOROOT(0)
// 1036 void ZDSecMgrDeviceRemove( ZDSecMgrDevice_t* device )
ZDSecMgrDeviceRemove:
          CFI Block cfiBlock116 Using cfiCommon0
          CFI Function ZDSecMgrDeviceRemove
        CODE
// 1037 {
        FUNCALL ZDSecMgrDeviceRemove, NLME_GetShortAddr
        LOCFRAME ISTACK, 0, STACK
        LOCFRAME PSTACK, 0, STACK
        LOCFRAME XSTACK, 29, STACK
        LOCFRAME IOVERLAY, 0, STATIC
        LOCFRAME DOVERLAY, 0, STATIC
        ARGFRAME ISTACK, 0, STACK
        ARGFRAME PSTACK, 0, STACK
        ARGFRAME XSTACK, 29, STACK
        ARGFRAME IOVERLAY, 0, STATIC
        ARGFRAME DOVERLAY, 0, STATIC
        FUNCALL ZDSecMgrDeviceRemove, AssocGetWithExt
        LOCFRAME ISTACK, 0, STACK
        LOCFRAME PSTACK, 0, STACK
        LOCFRAME XSTACK, 29, STACK
        LOCFRAME IOVERLAY, 0, STATIC
        LOCFRAME DOVERLAY, 0, STATIC
        ARGFRAME ISTACK, 0, STACK
        ARGFRAME PSTACK, 0, STACK
        ARGFRAME XSTACK, 29, STACK
        ARGFRAME IOVERLAY, 0, STATIC
        ARGFRAME DOVERLAY, 0, STATIC
        FUNCALL ZDSecMgrDeviceRemove, NLME_LeaveReq
        LOCFRAME ISTACK, 0, STACK
        LOCFRAME PSTACK, 0, STACK
        LOCFRAME XSTACK, 29, STACK
        LOCFRAME IOVERLAY, 0, STATIC
        LOCFRAME DOVERLAY, 0, STATIC
        ARGFRAME ISTACK, 0, STACK
        ARGFRAME PSTACK, 0, STACK
        ARGFRAME XSTACK, 29, STACK
        ARGFRAME IOVERLAY, 0, STATIC
        ARGFRAME DOVERLAY, 0, STATIC
        FUNCALL ZDSecMgrDeviceRemove, NLME_GetShortAddr
        LOCFRAME ISTACK, 0, STACK
        LOCFRAME PSTACK, 0, STACK
        LOCFRAME XSTACK, 29, STACK
        LOCFRAME IOVERLAY, 0, STATIC
        LOCFRAME DOVERLAY, 0, STATIC
        ARGFRAME ISTACK, 0, STACK
        ARGFRAME PSTACK, 0, STACK
        ARGFRAME XSTACK, 29, STACK
        ARGFRAME IOVERLAY, 0, STATIC
        ARGFRAME DOVERLAY, 0, STATIC
        FUNCALL ZDSecMgrDeviceRemove, NLME_LeaveReq
        LOCFRAME ISTACK, 0, STACK
        LOCFRAME PSTACK, 0, STACK
        LOCFRAME XSTACK, 29, STACK
        LOCFRAME IOVERLAY, 0, STATIC
        LOCFRAME DOVERLAY, 0, STATIC
        ARGFRAME ISTACK, 0, STACK
        ARGFRAME PSTACK, 0, STACK
        ARGFRAME XSTACK, 29, STACK
        ARGFRAME IOVERLAY, 0, STATIC
        ARGFRAME DOVERLAY, 0, STATIC
        FUNCALL ZDSecMgrDeviceRemove, APSME_GetRequest
        LOCFRAME ISTACK, 0, STACK
        LOCFRAME PSTACK, 0, STACK
        LOCFRAME XSTACK, 29, STACK
        LOCFRAME IOVERLAY, 0, STATIC
        LOCFRAME DOVERLAY, 0, STATIC
        ARGFRAME ISTACK, 0, STACK
        ARGFRAME PSTACK, 0, STACK
        ARGFRAME XSTACK, 29, STACK
        ARGFRAME IOVERLAY, 0, STATIC
        ARGFRAME DOVERLAY, 0, STATIC
        FUNCALL ZDSecMgrDeviceRemove, APSME_SearchTCLinkKeyEntry
        LOCFRAME ISTACK, 0, STACK
        LOCFRAME PSTACK, 0, STACK
        LOCFRAME XSTACK, 31, STACK
        LOCFRAME IOVERLAY, 0, STATIC
        LOCFRAME DOVERLAY, 0, STATIC
        ARGFRAME ISTACK, 0, STACK
        ARGFRAME PSTACK, 0, STACK
        ARGFRAME XSTACK, 31, STACK
        ARGFRAME IOVERLAY, 0, STATIC
        ARGFRAME DOVERLAY, 0, STATIC
        FUNCALL ZDSecMgrDeviceRemove, APSME_RemoveDeviceReq
        LOCFRAME ISTACK, 0, STACK
        LOCFRAME PSTACK, 0, STACK
        LOCFRAME XSTACK, 29, STACK
        LOCFRAME IOVERLAY, 0, STATIC
        LOCFRAME DOVERLAY, 0, STATIC
        ARGFRAME ISTACK, 0, STACK
        ARGFRAME PSTACK, 0, STACK
        ARGFRAME XSTACK, 29, STACK
        ARGFRAME IOVERLAY, 0, STATIC
        ARGFRAME DOVERLAY, 0, STATIC
        FUNCALL ZDSecMgrDeviceRemove, APSME_RemoveDeviceReq
        LOCFRAME ISTACK, 0, STACK
        LOCFRAME PSTACK, 0, STACK
        LOCFRAME XSTACK, 29, STACK
        LOCFRAME IOVERLAY, 0, STATIC
        LOCFRAME DOVERLAY, 0, STATIC
        ARGFRAME ISTACK, 0, STACK
        ARGFRAME PSTACK, 0, STACK
        ARGFRAME XSTACK, 29, STACK
        ARGFRAME IOVERLAY, 0, STATIC
        ARGFRAME DOVERLAY, 0, STATIC
        REQUIRE ?V0
        REQUIRE ?V1
        MOV     A,#-0xa
        LCALL   ?BANKED_ENTER_XDATA
          CFI DPH0 load(1, XDATA, add(CFA_XSP16, literal(-1)))
          CFI DPL0 load(1, XDATA, add(CFA_XSP16, literal(-2)))
          CFI ?BRET_EXT load(1, XDATA, add(CFA_XSP16, literal(-3)))
          CFI ?RET_HIGH load(1, XDATA, add(CFA_XSP16, literal(-4)))
          CFI ?RET_LOW load(1, XDATA, add(CFA_XSP16, literal(-5)))
          CFI R7 load(1, XDATA, add(CFA_XSP16, literal(-6)))
          CFI V1 load(1, XDATA, add(CFA_XSP16, literal(-7)))
          CFI V0 load(1, XDATA, add(CFA_XSP16, literal(-8)))
          CFI VB load(1, XDATA, add(CFA_XSP16, literal(-9)))
          CFI R6 load(1, XDATA, add(CFA_XSP16, literal(-10)))
          CFI CFA_SP SP+0
          CFI CFA_XSP16 add(XSP16, 10)
        ; Saved register size: 10
        ; Auto size: 19
        MOV     A,#-0x13
        LCALL   ?ALLOC_XSTACK8
          CFI CFA_XSP16 add(XSP16, 29)
        MOV     A,R2
        MOV     R6,A
        MOV     A,R3
        MOV     R7,A
// 1038   APSME_RemoveDeviceReq_t remDevReq;
// 1039   NLME_LeaveReq_t         leaveReq;
// 1040   associated_devices_t*   assoc;
// 1041   uint8 TC_ExtAddr[Z_EXTADDR_LEN];
// 1042 
// 1043   // check if parent, remove the device
// 1044   if ( device->parentAddr == NLME_GetShortAddr() )
        ; Setup parameters for call to function NLME_GetShortAddr
        LCALL   `??NLME_GetShortAddr::?relay`; Banked call to: NLME_GetShortAddr
        MOV     ?V0,R2
        MOV     ?V1,R3
        MOV     DPL,R6
        MOV     DPH,R7
        INC     DPTR
        INC     DPTR
        LCALL   ??Subroutine61_0 & 0xFFFF
??CrossCallReturnLabel_119:
        MOV     A,R6
        ADD     A,#0x2
        MOV     R0,A
        CLR     A
        ADDC    A,R7
        MOV     R1,A
        MOV     A,?V0
        XRL     A,R2
        JNZ     ??ZDSecMgrDeviceRemove_0
        MOV     A,?V1
        XRL     A,R3
??ZDSecMgrDeviceRemove_0:
        JZ      $+5
        LJMP    ??ZDSecMgrDeviceRemove_1 & 0xFFFF
// 1045   {
// 1046     // this is the parent of the device
// 1047     leaveReq.extAddr        = device->extAddr;
        MOV     DPL,R0
        MOV     DPH,R1
        LCALL   ??Subroutine62_0 & 0xFFFF
??CrossCallReturnLabel_111:
        MOV     A,#0x1
        LCALL   ?XSTACK_DISP0_8
        LCALL   ?Subroutine15 & 0xFFFF
// 1048     leaveReq.removeChildren = FALSE;
??CrossCallReturnLabel_6:
        LCALL   ?XSTACK_DISP0_8
        CLR     A
        MOVX    @DPTR,A
// 1049     leaveReq.rejoin         = FALSE;
        MOV     A,#0x4
        LCALL   ?XSTACK_DISP0_8
        CLR     A
        MOVX    @DPTR,A
// 1050 
// 1051     // find child association
// 1052     assoc = AssocGetWithExt( device->extAddr );
        ; Setup parameters for call to function AssocGetWithExt
        MOV     DPL,R0
        MOV     DPH,R1
        LCALL   ??Subroutine62_0 & 0xFFFF
??CrossCallReturnLabel_112:
        LCALL   `??AssocGetWithExt::?relay`; Banked call to: AssocGetWithExt
        MOV     ?V0,R2
        MOV     ?V1,R3
        MOV     R0,?V0
        MOV     R1,?V1
// 1053 
// 1054     if ( ( assoc != NULL                            ) &&
// 1055          ( assoc->nodeRelation >= CHILD_RFD         ) &&
// 1056          ( assoc->nodeRelation <= CHILD_FFD_RX_IDLE )    )
        MOV     A,R0
        ORL     A,R1
        JZ      ??ZDSecMgrDeviceRemove_2
        MOV     DPL,R0
        MOV     DPH,R1
        INC     DPTR
        INC     DPTR
        INC     DPTR
        INC     DPTR
        MOVX    A,@DPTR
        JZ      ??ZDSecMgrDeviceRemove_2
        CLR     C
        SUBB    A,#0x5
        JNC     ??ZDSecMgrDeviceRemove_2
// 1057     {
// 1058       // check if associated device is authenticated
// 1059       if ( assoc->devStatus & DEV_SEC_AUTH_STATUS )
        MOV     DPL,R0
        MOV     DPH,R1
        INC     DPTR
        INC     DPTR
        INC     DPTR
        INC     DPTR
        INC     DPTR
        MOVX    A,@DPTR
        MOV     C,0xE0 /* A   */.3
        MOV     A,#0x5
        JNC     ??ZDSecMgrDeviceRemove_3
// 1060       {
// 1061         leaveReq.silent = FALSE;
        LCALL   ?XSTACK_DISP0_8
        CLR     A
        SJMP    ??ZDSecMgrDeviceRemove_4
// 1062       }
// 1063       else
// 1064       {
// 1065         leaveReq.silent = TRUE;
??ZDSecMgrDeviceRemove_3:
        LCALL   ?XSTACK_DISP0_8
        MOV     A,#0x1
??ZDSecMgrDeviceRemove_4:
        MOVX    @DPTR,A
// 1066       }
// 1067 
// 1068       NLME_LeaveReq( &leaveReq );
        ; Setup parameters for call to function NLME_LeaveReq
        MOV     A,#0x1
        SJMP    ??ZDSecMgrDeviceRemove_5
// 1069     }
// 1070     else if ( device->nwkAddr == NLME_GetShortAddr() )
??ZDSecMgrDeviceRemove_2:
        ; Setup parameters for call to function NLME_GetShortAddr
        LCALL   `??NLME_GetShortAddr::?relay`; Banked call to: NLME_GetShortAddr
        MOV     ?V0,R2
        MOV     ?V1,R3
        MOV     R0,?V0
        MOV     R1,?V1
        MOV     DPL,R6
        MOV     DPH,R7
        MOVX    A,@DPTR
        XRL     A,R0
        JNZ     ??ZDSecMgrDeviceRemove_6
        INC     DPTR
        MOVX    A,@DPTR
        XRL     A,R1
??ZDSecMgrDeviceRemove_6:
        JZ      $+5
        LJMP    ??ZDSecMgrDeviceRemove_7 & 0xFFFF
// 1071     {
// 1072       // this is when ZC wants that ZR removes itself from the network
// 1073       leaveReq.extAddr = NULL;
        MOV     A,#0x1
        LCALL   ?XSTACK_DISP0_8
        CLR     A
        MOVX    @DPTR,A
        INC     DPTR
        MOVX    @DPTR,A
// 1074       leaveReq.silent = FALSE;
        MOV     A,#0x5
        LCALL   ?XSTACK_DISP0_8
        CLR     A
        MOVX    @DPTR,A
// 1075 
// 1076       NLME_LeaveReq( &leaveReq );
        ; Setup parameters for call to function NLME_LeaveReq
        INC     A
??ZDSecMgrDeviceRemove_5:
        LCALL   ?XSTACK_DISP101_8
        LCALL   `??NLME_LeaveReq::?relay`; Banked call to: NLME_LeaveReq
        SJMP    ??ZDSecMgrDeviceRemove_7
// 1077     }
// 1078   }
// 1079   else
// 1080   {
// 1081     // this is not the parent of the device
// 1082     remDevReq.parentAddr   = device->parentAddr;
??ZDSecMgrDeviceRemove_1:
        MOV     A,#0x6
        LCALL   ?XSTACK_DISP0_8
        MOV     A,R2
        MOVX    @DPTR,A
        INC     DPTR
        MOV     A,R3
        LCALL   ?Subroutine19 & 0xFFFF
// 1083     remDevReq.childExtAddr = device->extAddr;
??CrossCallReturnLabel_13:
        MOV     A,#0x8
        LCALL   ?XSTACK_DISP0_8
        LCALL   ?Subroutine21 & 0xFFFF
// 1084 
// 1085     if ( ZG_CHECK_SECURITY_MODE == ZG_SECURITY_SE_STANDARD )
// 1086     {
// 1087       uint8 found;
// 1088       APSME_GetRequest( apsTrustCenterAddress,0, TC_ExtAddr );
??CrossCallReturnLabel_18:
        LCALL   ?XSTACK_DISP102_8
        MOV     R2,#0x0
        MOV     R3,#0x0
        MOV     R1,#-0x55
        LCALL   `??APSME_GetRequest::?relay`; Banked call to: APSME_GetRequest
// 1089       
// 1090       APSME_SearchTCLinkKeyEntry(TC_ExtAddr,&found,NULL);
        ; Setup parameters for call to function APSME_SearchTCLinkKeyEntry
        CLR     A
        MOV     ?V0,A
        MOV     ?V1,A
        MOV     R0,#?V0
        LCALL   ?PUSH_XSTACK_I_TWO
          CFI CFA_XSP16 add(XSP16, 31)
        MOV     A,#0x2
        LCALL   ?XSTACK_DISP102_8
        MOV     A,#0xd
        LCALL   ?XSTACK_DISP101_8
        LCALL   `??APSME_SearchTCLinkKeyEntry::?relay`; Banked call to: APSME_SearchTCLinkKeyEntry
        MOV     A,#0x2
        LCALL   ?DEALLOC_XSTACK8
          CFI CFA_XSP16 add(XSP16, 29)
// 1091       
// 1092       // For ZG_GLOBAL_LINK_KEY the message has to be sent twice, one
// 1093       // APS un-encrypted and one APS encrypted, to make sure that it can interoperate
// 1094       // with legacy Coordinator devices which can only handle one or the other.
// 1095 #if defined ( APP_TP2_TEST_MODE )
// 1096       if ( ( zgApsLinkKeyType == ZG_GLOBAL_LINK_KEY ) && ( found == FALSE ) && ( guTxApsSecON != TRUE ) )
// 1097 #else
// 1098       if ( ( zgApsLinkKeyType == ZG_GLOBAL_LINK_KEY ) && ( found == FALSE ) )
        MOV     DPTR,#zgApsLinkKeyType
        MOVX    A,@DPTR
        XRL     A,#0x1
        JNZ     ??ZDSecMgrDeviceRemove_8
        MOV     DPL,?XSP + 0
        MOV     DPH,?XSP + 1
        MOVX    A,@DPTR
        JNZ     ??ZDSecMgrDeviceRemove_8
// 1099 #endif
// 1100       {
// 1101         remDevReq.apsSecure = FALSE;
        MOV     A,#0xa
        LCALL   ?XSTACK_DISP0_8
        CLR     A
        MOVX    @DPTR,A
// 1102 
// 1103         APSME_RemoveDeviceReq( &remDevReq );
        ; Setup parameters for call to function APSME_RemoveDeviceReq
        MOV     A,#0x6
        LCALL   ?XSTACK_DISP101_8
        LCALL   `??APSME_RemoveDeviceReq::?relay`; Banked call to: APSME_RemoveDeviceReq
// 1104       }
// 1105 
// 1106 #if defined ( APP_TP2_TEST_MODE )
// 1107       if ( guTxApsSecON != FALSE )
// 1108       {
// 1109         remDevReq.apsSecure = TRUE;
// 1110 
// 1111         APSME_RemoveDeviceReq( &remDevReq );
// 1112       }
// 1113 #else
// 1114       remDevReq.apsSecure = TRUE;
??ZDSecMgrDeviceRemove_8:
        MOV     A,#0xa
        LCALL   ?XSTACK_DISP0_8
        MOV     A,#0x1
        MOVX    @DPTR,A
// 1115 
// 1116       APSME_RemoveDeviceReq( &remDevReq );
        ; Setup parameters for call to function APSME_RemoveDeviceReq
        MOV     A,#0x6
        LCALL   ?XSTACK_DISP101_8
        LCALL   `??APSME_RemoveDeviceReq::?relay`; Banked call to: APSME_RemoveDeviceReq
// 1117 #endif
// 1118     }
// 1119     else
// 1120     {
// 1121       remDevReq.apsSecure = FALSE;
// 1122 
// 1123       APSME_RemoveDeviceReq( &remDevReq );
// 1124     }
// 1125   }
// 1126 }
??ZDSecMgrDeviceRemove_7:
        MOV     A,#0x13
        LJMP    ?Subroutine4 & 0xFFFF
          CFI EndBlock cfiBlock116

        RSEG BANKED_CODE:CODE:NOROOT(0)
?Subroutine21:
          CFI Block cfiCond117 Using cfiCommon0
          CFI Function ZDSecMgrTclkReq
          CFI Conditional ??CrossCallReturnLabel_17
          CFI R6 load(1, XDATA, add(CFA_XSP16, literal(-10)))
          CFI VB load(1, XDATA, add(CFA_XSP16, literal(-9)))
          CFI V0 load(1, XDATA, add(CFA_XSP16, literal(-8)))
          CFI V1 load(1, XDATA, add(CFA_XSP16, literal(-7)))
          CFI R7 load(1, XDATA, add(CFA_XSP16, literal(-6)))
          CFI ?RET_LOW load(1, XDATA, add(CFA_XSP16, literal(-5)))
          CFI ?RET_HIGH load(1, XDATA, add(CFA_XSP16, literal(-4)))
          CFI ?BRET_EXT load(1, XDATA, add(CFA_XSP16, literal(-3)))
          CFI DPL0 load(1, XDATA, add(CFA_XSP16, literal(-2)))
          CFI DPH0 load(1, XDATA, add(CFA_XSP16, literal(-1)))
          CFI CFA_SP SP+-2
          CFI CFA_XSP16 add(XSP16, 69)
          CFI Block cfiCond118 Using cfiCommon0
          CFI (cfiCond118) Function ZDSecMgrDeviceRemove
          CFI (cfiCond118) Conditional ??CrossCallReturnLabel_18
          CFI (cfiCond118) R6 load(1, XDATA, add(CFA_XSP16, literal(-10)))
          CFI (cfiCond118) VB load(1, XDATA, add(CFA_XSP16, literal(-9)))
          CFI (cfiCond118) V0 load(1, XDATA, add(CFA_XSP16, literal(-8)))
          CFI (cfiCond118) V1 load(1, XDATA, add(CFA_XSP16, literal(-7)))
          CFI (cfiCond118) R7 load(1, XDATA, add(CFA_XSP16, literal(-6)))
          CFI (cfiCond118) ?RET_LOW load(1, XDATA, add(CFA_XSP16, literal(-5)))
          CFI (cfiCond118) ?RET_HIGH load(1, XDATA, add(CFA_XSP16, literal(-4)))
          CFI (cfiCond118) ?BRET_EXT load(1, XDATA, add(CFA_XSP16, literal(-3)))
          CFI (cfiCond118) DPL0 load(1, XDATA, add(CFA_XSP16, literal(-2)))
          CFI (cfiCond118) DPH0 load(1, XDATA, add(CFA_XSP16, literal(-1)))
          CFI (cfiCond118) CFA_SP SP+-2
          CFI (cfiCond118) CFA_XSP16 add(XSP16, 29)
          CFI Block cfiCond119 Using cfiCommon0
          CFI (cfiCond119) Function ZDSecMgrNewDeviceEvent
          CFI (cfiCond119) Conditional ??CrossCallReturnLabel_19
          CFI (cfiCond119) R6 load(1, XDATA, add(CFA_XSP16, literal(-12)))
          CFI (cfiCond119) VB load(1, XDATA, add(CFA_XSP16, literal(-11)))
          CFI (cfiCond119) V0 load(1, XDATA, add(CFA_XSP16, literal(-10)))
          CFI (cfiCond119) V1 load(1, XDATA, add(CFA_XSP16, literal(-9)))
          CFI (cfiCond119) V2 load(1, XDATA, add(CFA_XSP16, literal(-8)))
          CFI (cfiCond119) V3 load(1, XDATA, add(CFA_XSP16, literal(-7)))
          CFI (cfiCond119) R7 load(1, XDATA, add(CFA_XSP16, literal(-6)))
          CFI (cfiCond119) ?RET_LOW load(1, XDATA, add(CFA_XSP16, literal(-5)))
          CFI (cfiCond119) ?RET_HIGH load(1, XDATA, add(CFA_XSP16, literal(-4)))
          CFI (cfiCond119) ?BRET_EXT load(1, XDATA, add(CFA_XSP16, literal(-3)))
          CFI (cfiCond119) DPL0 load(1, XDATA, add(CFA_XSP16, literal(-2)))
          CFI (cfiCond119) DPH0 load(1, XDATA, add(CFA_XSP16, literal(-1)))
          CFI (cfiCond119) CFA_SP SP+-2
          CFI (cfiCond119) CFA_XSP16 add(XSP16, 33)
          CFI Block cfiPicker120 Using cfiCommon1
          CFI (cfiPicker120) NoFunction
          CFI (cfiPicker120) Picker
        LCALL   ?Subroutine49 & 0xFFFF
??CrossCallReturnLabel_148:
        ; Setup parameters for call to function APSME_GetRequest
        MOV     A,#0xb
        RET
          CFI EndBlock cfiCond117
          CFI EndBlock cfiCond118
          CFI EndBlock cfiCond119
          CFI EndBlock cfiPicker120

        RSEG BANKED_CODE:CODE:NOROOT(0)
?Subroutine19:
          CFI Block cfiCond121 Using cfiCommon0
          CFI Function ZDSecMgrSendNwkKey
          CFI Conditional ??CrossCallReturnLabel_12
          CFI R6 load(1, XDATA, add(CFA_XSP16, literal(-12)))
          CFI VB load(1, XDATA, add(CFA_XSP16, literal(-11)))
          CFI V0 load(1, XDATA, add(CFA_XSP16, literal(-10)))
          CFI V1 load(1, XDATA, add(CFA_XSP16, literal(-9)))
          CFI V2 load(1, XDATA, add(CFA_XSP16, literal(-8)))
          CFI V3 load(1, XDATA, add(CFA_XSP16, literal(-7)))
          CFI R7 load(1, XDATA, add(CFA_XSP16, literal(-6)))
          CFI ?RET_LOW load(1, XDATA, add(CFA_XSP16, literal(-5)))
          CFI ?RET_HIGH load(1, XDATA, add(CFA_XSP16, literal(-4)))
          CFI ?BRET_EXT load(1, XDATA, add(CFA_XSP16, literal(-3)))
          CFI DPL0 load(1, XDATA, add(CFA_XSP16, literal(-2)))
          CFI DPH0 load(1, XDATA, add(CFA_XSP16, literal(-1)))
          CFI CFA_SP SP+-2
          CFI CFA_XSP16 add(XSP16, 46)
          CFI Block cfiCond122 Using cfiCommon0
          CFI (cfiCond122) Function ZDSecMgrDeviceRemove
          CFI (cfiCond122) Conditional ??CrossCallReturnLabel_13
          CFI (cfiCond122) R6 load(1, XDATA, add(CFA_XSP16, literal(-10)))
          CFI (cfiCond122) VB load(1, XDATA, add(CFA_XSP16, literal(-9)))
          CFI (cfiCond122) V0 load(1, XDATA, add(CFA_XSP16, literal(-8)))
          CFI (cfiCond122) V1 load(1, XDATA, add(CFA_XSP16, literal(-7)))
          CFI (cfiCond122) R7 load(1, XDATA, add(CFA_XSP16, literal(-6)))
          CFI (cfiCond122) ?RET_LOW load(1, XDATA, add(CFA_XSP16, literal(-5)))
          CFI (cfiCond122) ?RET_HIGH load(1, XDATA, add(CFA_XSP16, literal(-4)))
          CFI (cfiCond122) ?BRET_EXT load(1, XDATA, add(CFA_XSP16, literal(-3)))
          CFI (cfiCond122) DPL0 load(1, XDATA, add(CFA_XSP16, literal(-2)))
          CFI (cfiCond122) DPH0 load(1, XDATA, add(CFA_XSP16, literal(-1)))
          CFI (cfiCond122) CFA_SP SP+-2
          CFI (cfiCond122) CFA_XSP16 add(XSP16, 29)
          CFI Block cfiPicker123 Using cfiCommon1
          CFI (cfiPicker123) NoFunction
          CFI (cfiPicker123) Picker
        MOVX    @DPTR,A
        MOV     DPL,R0
        MOV     DPH,R1
        LCALL   ?Subroutine53 & 0xFFFF
??CrossCallReturnLabel_183:
        RET
          CFI EndBlock cfiCond121
          CFI EndBlock cfiCond122
          CFI EndBlock cfiPicker123

        RSEG BANKED_CODE:CODE:NOROOT(0)
?Subroutine15:
          CFI Block cfiCond124 Using cfiCommon0
          CFI Function ZDSecMgrAddrStore
          CFI Conditional ??CrossCallReturnLabel_4
          CFI R6 load(1, XDATA, add(CFA_XSP16, literal(-9)))
          CFI VB load(1, XDATA, add(CFA_XSP16, literal(-8)))
          CFI V0 load(1, XDATA, add(CFA_XSP16, literal(-7)))
          CFI R7 load(1, XDATA, add(CFA_XSP16, literal(-6)))
          CFI ?RET_LOW load(1, XDATA, add(CFA_XSP16, literal(-5)))
          CFI ?RET_HIGH load(1, XDATA, add(CFA_XSP16, literal(-4)))
          CFI ?BRET_EXT load(1, XDATA, add(CFA_XSP16, literal(-3)))
          CFI DPL0 load(1, XDATA, add(CFA_XSP16, literal(-2)))
          CFI DPH0 load(1, XDATA, add(CFA_XSP16, literal(-1)))
          CFI CFA_SP SP+-2
          CFI CFA_XSP16 add(XSP16, 22)
          CFI Block cfiCond125 Using cfiCommon0
          CFI (cfiCond125) Function ZDSecMgrExtAddrStore
          CFI (cfiCond125) Conditional ??CrossCallReturnLabel_5
          CFI (cfiCond125) R6 load(1, XDATA, add(CFA_XSP16, literal(-9)))
          CFI (cfiCond125) VB load(1, XDATA, add(CFA_XSP16, literal(-8)))
          CFI (cfiCond125) V0 load(1, XDATA, add(CFA_XSP16, literal(-7)))
          CFI (cfiCond125) R7 load(1, XDATA, add(CFA_XSP16, literal(-6)))
          CFI (cfiCond125) ?RET_LOW load(1, XDATA, add(CFA_XSP16, literal(-5)))
          CFI (cfiCond125) ?RET_HIGH load(1, XDATA, add(CFA_XSP16, literal(-4)))
          CFI (cfiCond125) ?BRET_EXT load(1, XDATA, add(CFA_XSP16, literal(-3)))
          CFI (cfiCond125) DPL0 load(1, XDATA, add(CFA_XSP16, literal(-2)))
          CFI (cfiCond125) DPH0 load(1, XDATA, add(CFA_XSP16, literal(-1)))
          CFI (cfiCond125) CFA_SP SP+-2
          CFI (cfiCond125) CFA_XSP16 add(XSP16, 22)
          CFI Block cfiCond126 Using cfiCommon0
          CFI (cfiCond126) Function ZDSecMgrDeviceRemove
          CFI (cfiCond126) Conditional ??CrossCallReturnLabel_6
          CFI (cfiCond126) R6 load(1, XDATA, add(CFA_XSP16, literal(-10)))
          CFI (cfiCond126) VB load(1, XDATA, add(CFA_XSP16, literal(-9)))
          CFI (cfiCond126) V0 load(1, XDATA, add(CFA_XSP16, literal(-8)))
          CFI (cfiCond126) V1 load(1, XDATA, add(CFA_XSP16, literal(-7)))
          CFI (cfiCond126) R7 load(1, XDATA, add(CFA_XSP16, literal(-6)))
          CFI (cfiCond126) ?RET_LOW load(1, XDATA, add(CFA_XSP16, literal(-5)))
          CFI (cfiCond126) ?RET_HIGH load(1, XDATA, add(CFA_XSP16, literal(-4)))
          CFI (cfiCond126) ?BRET_EXT load(1, XDATA, add(CFA_XSP16, literal(-3)))
          CFI (cfiCond126) DPL0 load(1, XDATA, add(CFA_XSP16, literal(-2)))
          CFI (cfiCond126) DPH0 load(1, XDATA, add(CFA_XSP16, literal(-1)))
          CFI (cfiCond126) CFA_SP SP+-2
          CFI (cfiCond126) CFA_XSP16 add(XSP16, 29)
          CFI Block cfiCond127 Using cfiCommon0
          CFI (cfiCond127) Function ZDSecMgrSetupPartner
          CFI (cfiCond127) Conditional ??CrossCallReturnLabel_7
          CFI (cfiCond127) R6 load(1, XDATA, add(CFA_XSP16, literal(-12)))
          CFI (cfiCond127) VB load(1, XDATA, add(CFA_XSP16, literal(-11)))
          CFI (cfiCond127) V0 load(1, XDATA, add(CFA_XSP16, literal(-10)))
          CFI (cfiCond127) V1 load(1, XDATA, add(CFA_XSP16, literal(-9)))
          CFI (cfiCond127) V2 load(1, XDATA, add(CFA_XSP16, literal(-8)))
          CFI (cfiCond127) V3 load(1, XDATA, add(CFA_XSP16, literal(-7)))
          CFI (cfiCond127) R7 load(1, XDATA, add(CFA_XSP16, literal(-6)))
          CFI (cfiCond127) ?RET_LOW load(1, XDATA, add(CFA_XSP16, literal(-5)))
          CFI (cfiCond127) ?RET_HIGH load(1, XDATA, add(CFA_XSP16, literal(-4)))
          CFI (cfiCond127) ?BRET_EXT load(1, XDATA, add(CFA_XSP16, literal(-3)))
          CFI (cfiCond127) DPL0 load(1, XDATA, add(CFA_XSP16, literal(-2)))
          CFI (cfiCond127) DPH0 load(1, XDATA, add(CFA_XSP16, literal(-1)))
          CFI (cfiCond127) CFA_SP SP+-2
          CFI (cfiCond127) CFA_XSP16 add(XSP16, 25)
          CFI Block cfiPicker128 Using cfiCommon1
          CFI (cfiPicker128) NoFunction
          CFI (cfiPicker128) Picker
        LCALL   ?Subroutine50 & 0xFFFF
??CrossCallReturnLabel_74:
        ; Setup parameters for call to function AddrMgrExtAddrSet
        ; Setup parameters for call to function AddrMgrExtAddrSet
        ; Setup parameters for call to function AddrMgrExtAddrSet
        MOV     A,#0x3
        RET
          CFI EndBlock cfiCond124
          CFI EndBlock cfiCond125
          CFI EndBlock cfiCond126
          CFI EndBlock cfiCond127
          CFI EndBlock cfiPicker128
// 1127 
// 1128 /******************************************************************************
// 1129  * @fn          ZDSecMgrDeviceValidateRM (RESIDENTIAL MODE)
// 1130  *
// 1131  * @brief       Decide whether device is allowed.
// 1132  *
// 1133  * @param       device - [in] ZDSecMgrDevice_t, device info
// 1134  *
// 1135  * @return      ZStatus_t
// 1136  */

        RSEG BANKED_CODE:CODE:NOROOT(0)
// 1137 ZStatus_t ZDSecMgrDeviceValidateRM( ZDSecMgrDevice_t* device )
ZDSecMgrDeviceValidateRM:
          CFI Block cfiBlock129 Using cfiCommon0
          CFI Function ZDSecMgrDeviceValidateRM
        CODE
// 1138 {
        PUSH    DPL
          CFI DPL0 Frame(CFA_SP, 4)
          CFI CFA_SP SP+-4
        PUSH    DPH
          CFI DPH0 Frame(CFA_SP, 5)
          CFI CFA_SP SP+-5
        ; Saved register size: 2
        ; Auto size: 0
// 1139   ZStatus_t status;
// 1140 
// 1141   status = ZSuccess;
        MOV     R1,#0x0
// 1142 
// 1143   (void)device;  // Intentionally unreferenced parameter
// 1144 
// 1145   // For test purpose, turning off the zgSecurePermitJoin flag will force
// 1146   // the trust center to reject any newly joining devices by sending
// 1147   // Remove-device to the parents.
// 1148   if ( zgSecurePermitJoin == FALSE )
        MOV     DPTR,#zgSecurePermitJoin
        MOVX    A,@DPTR
        JNZ     ??ZDSecMgrDeviceValidateRM_0
// 1149   {
// 1150     status = ZNwkUnknownDevice;
        MOV     R1,#-0x38
// 1151   }
// 1152 
// 1153 
// 1154 
// 1155 #if 0  // Taken out because the following functionality is only used for test
// 1156        // purpose. A more efficient (above) way is used. It can be put
// 1157        // back in if customers request for a white/black list feature.
// 1158        // ZDSecMgrStoredDeviceList[] is defined in ZDSecMgr.c
// 1159 
// 1160   // The following code processes the device black list (stored device list)
// 1161   // If the joining device is not part of the forbidden device list
// 1162   // Return ZSuccess. Otherwise, return ZNwkUnknownDevice. The trust center
// 1163   // will send Remove-device and ban the device from joining.
// 1164 
// 1165   uint8     index;
// 1166   uint8*    restricted;
// 1167 
// 1168   // Look through the stored device list - used for restricted devices
// 1169   for ( index = 0; index < ZDSECMGR_STORED_DEVICES; index++ )
// 1170   {
// 1171     restricted = ZDSecMgrStoredDeviceList[index];
// 1172 
// 1173     if ( AddrMgrExtAddrEqual( restricted, device->extAddr )  == TRUE )
// 1174     {
// 1175       // return as unknown device in regards to validation
// 1176       status = ZNwkUnknownDevice;
// 1177 
// 1178       // break from loop
// 1179       index = ZDSECMGR_STORED_DEVICES;
// 1180     }
// 1181   }
// 1182 
// 1183 #endif
// 1184 
// 1185   return status;
??ZDSecMgrDeviceValidateRM_0:
        LJMP    ??Subroutine65_0 & 0xFFFF
// 1186 }
          CFI EndBlock cfiBlock129
// 1187 
// 1188 /******************************************************************************
// 1189  * @fn          ZDSecMgrDeviceValidate
// 1190  *
// 1191  * @brief       Decide whether device is allowed.
// 1192  *
// 1193  * @param       device - [in] ZDSecMgrDevice_t, device info
// 1194  *
// 1195  * @return      ZStatus_t
// 1196  */

        RSEG BANKED_CODE:CODE:NOROOT(0)
// 1197 ZStatus_t ZDSecMgrDeviceValidate( ZDSecMgrDevice_t* device )
ZDSecMgrDeviceValidate:
          CFI Block cfiBlock130 Using cfiCommon0
          CFI Function ZDSecMgrDeviceValidate
        CODE
// 1198 {
        FUNCALL ZDSecMgrDeviceValidate, ZDSecMgrDeviceValidateRM
        LOCFRAME ISTACK, 2, STACK
        LOCFRAME PSTACK, 0, STACK
        LOCFRAME XSTACK, 0, STACK
        LOCFRAME IOVERLAY, 0, STATIC
        LOCFRAME DOVERLAY, 0, STATIC
        ARGFRAME ISTACK, 2, STACK
        ARGFRAME PSTACK, 0, STACK
        ARGFRAME XSTACK, 0, STACK
        ARGFRAME IOVERLAY, 0, STATIC
        ARGFRAME DOVERLAY, 0, STATIC
        PUSH    DPL
          CFI DPL0 Frame(CFA_SP, 4)
          CFI CFA_SP SP+-4
        PUSH    DPH
          CFI DPH0 Frame(CFA_SP, 5)
          CFI CFA_SP SP+-5
        ; Saved register size: 2
        ; Auto size: 0
// 1199   ZStatus_t status;
// 1200 
// 1201   if ( ZDSecMgrPermitJoiningEnabled == TRUE )
        MOV     DPTR,#ZDSecMgrPermitJoiningEnabled
        MOVX    A,@DPTR
        XRL     A,#0x1
        JNZ     ??ZDSecMgrDeviceValidate_0
// 1202   {
// 1203     status = ZDSecMgrDeviceValidateRM( device );
        ; Setup parameters for call to function ZDSecMgrDeviceValidateRM
        LCALL   `??ZDSecMgrDeviceValidateRM::?relay`; Banked call to: ZDSecMgrDeviceValidateRM
        MOV     A,R1
        MOV     R1,A
        SJMP    ??ZDSecMgrDeviceValidate_1
// 1204   }
// 1205   else
// 1206   {
// 1207     status = ZNwkUnknownDevice;
??ZDSecMgrDeviceValidate_0:
        MOV     R1,#-0x38
// 1208   }
// 1209 
// 1210   return status;
??ZDSecMgrDeviceValidate_1:
        LJMP    ??Subroutine65_0 & 0xFFFF
// 1211 }
          CFI EndBlock cfiBlock130
// 1212 
// 1213 /******************************************************************************
// 1214  * @fn          ZDSecMgrDeviceJoin
// 1215  *
// 1216  * @brief       Try to join this device.
// 1217  *
// 1218  * @param       device - [in] ZDSecMgrDevice_t, device info
// 1219  *
// 1220  * @return      ZStatus_t
// 1221  */

        RSEG BANKED_CODE:CODE:NOROOT(0)
// 1222 ZStatus_t ZDSecMgrDeviceJoin( ZDSecMgrDevice_t* device )
ZDSecMgrDeviceJoin:
          CFI Block cfiBlock131 Using cfiCommon0
          CFI Function ZDSecMgrDeviceJoin
        CODE
// 1223 {
        FUNCALL ZDSecMgrDeviceJoin, ZDSecMgrDeviceValidate
        LOCFRAME ISTACK, 0, STACK
        LOCFRAME PSTACK, 0, STACK
        LOCFRAME XSTACK, 30, STACK
        LOCFRAME IOVERLAY, 0, STATIC
        LOCFRAME DOVERLAY, 0, STATIC
        ARGFRAME ISTACK, 0, STACK
        ARGFRAME PSTACK, 0, STACK
        ARGFRAME XSTACK, 30, STACK
        ARGFRAME IOVERLAY, 0, STATIC
        ARGFRAME DOVERLAY, 0, STATIC
        FUNCALL ZDSecMgrDeviceJoin, ZDSecMgrAddrStore
        LOCFRAME ISTACK, 0, STACK
        LOCFRAME PSTACK, 0, STACK
        LOCFRAME XSTACK, 32, STACK
        LOCFRAME IOVERLAY, 0, STATIC
        LOCFRAME DOVERLAY, 0, STATIC
        ARGFRAME ISTACK, 0, STACK
        ARGFRAME PSTACK, 0, STACK
        ARGFRAME XSTACK, 32, STACK
        ARGFRAME IOVERLAY, 0, STATIC
        ARGFRAME DOVERLAY, 0, STATIC
        FUNCALL ZDSecMgrDeviceJoin, ZDSecMgrSendNwkKey
        LOCFRAME ISTACK, 0, STACK
        LOCFRAME PSTACK, 0, STACK
        LOCFRAME XSTACK, 30, STACK
        LOCFRAME IOVERLAY, 0, STATIC
        LOCFRAME DOVERLAY, 0, STATIC
        ARGFRAME ISTACK, 0, STACK
        ARGFRAME PSTACK, 0, STACK
        ARGFRAME XSTACK, 30, STACK
        ARGFRAME IOVERLAY, 0, STATIC
        ARGFRAME DOVERLAY, 0, STATIC
        FUNCALL ZDSecMgrDeviceJoin, ZDSecMgrAddrClear
        LOCFRAME ISTACK, 0, STACK
        LOCFRAME PSTACK, 0, STACK
        LOCFRAME XSTACK, 30, STACK
        LOCFRAME IOVERLAY, 0, STATIC
        LOCFRAME DOVERLAY, 0, STATIC
        ARGFRAME ISTACK, 0, STACK
        ARGFRAME PSTACK, 0, STACK
        ARGFRAME XSTACK, 30, STACK
        ARGFRAME IOVERLAY, 0, STATIC
        ARGFRAME DOVERLAY, 0, STATIC
        FUNCALL ZDSecMgrDeviceJoin, ZDSecMgrDeviceRemove
        LOCFRAME ISTACK, 0, STACK
        LOCFRAME PSTACK, 0, STACK
        LOCFRAME XSTACK, 30, STACK
        LOCFRAME IOVERLAY, 0, STATIC
        LOCFRAME DOVERLAY, 0, STATIC
        ARGFRAME ISTACK, 0, STACK
        ARGFRAME PSTACK, 0, STACK
        ARGFRAME XSTACK, 30, STACK
        ARGFRAME IOVERLAY, 0, STATIC
        ARGFRAME DOVERLAY, 0, STATIC
        FUNCALL ZDSecMgrDeviceJoin, osal_memcpy
        LOCFRAME ISTACK, 0, STACK
        LOCFRAME PSTACK, 0, STACK
        LOCFRAME XSTACK, 33, STACK
        LOCFRAME IOVERLAY, 0, STATIC
        LOCFRAME DOVERLAY, 0, STATIC
        ARGFRAME ISTACK, 0, STACK
        ARGFRAME PSTACK, 0, STACK
        ARGFRAME XSTACK, 33, STACK
        ARGFRAME IOVERLAY, 0, STATIC
        ARGFRAME DOVERLAY, 0, STATIC
        REQUIRE ?V0
        REQUIRE ?V1
        REQUIRE ?V2
        REQUIRE ?V3
        REQUIRE ?V4
        REQUIRE ?V6
        REQUIRE ?V7
        MOV     A,#-0x10
        LCALL   ?BANKED_ENTER_XDATA
          CFI DPH0 load(1, XDATA, add(CFA_XSP16, literal(-1)))
          CFI DPL0 load(1, XDATA, add(CFA_XSP16, literal(-2)))
          CFI ?BRET_EXT load(1, XDATA, add(CFA_XSP16, literal(-3)))
          CFI ?RET_HIGH load(1, XDATA, add(CFA_XSP16, literal(-4)))
          CFI ?RET_LOW load(1, XDATA, add(CFA_XSP16, literal(-5)))
          CFI R7 load(1, XDATA, add(CFA_XSP16, literal(-6)))
          CFI V7 load(1, XDATA, add(CFA_XSP16, literal(-7)))
          CFI V6 load(1, XDATA, add(CFA_XSP16, literal(-8)))
          CFI V5 load(1, XDATA, add(CFA_XSP16, literal(-9)))
          CFI V4 load(1, XDATA, add(CFA_XSP16, literal(-10)))
          CFI V3 load(1, XDATA, add(CFA_XSP16, literal(-11)))
          CFI V2 load(1, XDATA, add(CFA_XSP16, literal(-12)))
          CFI V1 load(1, XDATA, add(CFA_XSP16, literal(-13)))
          CFI V0 load(1, XDATA, add(CFA_XSP16, literal(-14)))
          CFI VB load(1, XDATA, add(CFA_XSP16, literal(-15)))
          CFI R6 load(1, XDATA, add(CFA_XSP16, literal(-16)))
          CFI CFA_SP SP+0
          CFI CFA_XSP16 add(XSP16, 16)
        ; Saved register size: 16
        ; Auto size: 14
        MOV     A,#-0xe
        LCALL   ?ALLOC_XSTACK8
          CFI CFA_XSP16 add(XSP16, 30)
        MOV     A,R2
        MOV     R6,A
        MOV     A,R3
        MOV     R7,A
// 1224   ZStatus_t status = ZSuccess;
        MOV     ?V4,#0x0
// 1225   uint16    ami;
// 1226 
// 1227   // attempt to validate device that joined/rejoined without security
// 1228   if ( device->secure == FALSE )
        MOV     A,R6
        ADD     A,#0x2
        MOV     ?V0,A
        CLR     A
        ADDC    A,R7
        MOV     ?V1,A
        MOV     A,R6
        ADD     A,#0x6
        MOV     R0,A
        CLR     A
        ADDC    A,R7
        MOV     R1,A
        MOV     ?V2,R0
        MOV     ?V3,R1
        MOV     DPL,R0
        MOV     DPH,A
        MOVX    A,@DPTR
        JNZ     ??ZDSecMgrDeviceJoin_0
// 1229   {
// 1230     status = ZDSecMgrDeviceValidate( device );
        ; Setup parameters for call to function ZDSecMgrDeviceValidate
        LCALL   `??ZDSecMgrDeviceValidate::?relay`; Banked call to: ZDSecMgrDeviceValidate
        MOV     A,R1
        MOV     ?V4,A
// 1231   }
// 1232 
// 1233   if ( status == ZSuccess )
        JNZ     ??ZDSecMgrDeviceJoin_1
// 1234   {
// 1235     // Add the device to the address manager
// 1236     ZDSecMgrAddrStore( device->nwkAddr, device->extAddr, &ami );
??ZDSecMgrDeviceJoin_0:
        ; Setup parameters for call to function ZDSecMgrAddrStore
        MOV     R0,?XSP + 0
        MOV     R1,?XSP + 1
        MOV     ?V6,R0
        MOV     ?V7,R1
        MOV     R0,#?V6
        LCALL   ?PUSH_XSTACK_I_TWO
          CFI CFA_XSP16 add(XSP16, 32)
        MOV     DPL,?V0
        MOV     DPH,?V1
        LCALL   ?Subroutine35 & 0xFFFF
??CrossCallReturnLabel_43:
        MOV     DPL,R6
        MOV     DPH,R7
        LCALL   ??Subroutine62_0 & 0xFFFF
??CrossCallReturnLabel_113:
        LCALL   `??ZDSecMgrAddrStore::?relay`; Banked call to: ZDSecMgrAddrStore
        MOV     A,#0x2
        LCALL   ?DEALLOC_XSTACK8
          CFI CFA_XSP16 add(XSP16, 30)
// 1237 
// 1238     // Only send the key to devices that have not been authenticated
// 1239     if ( ( device->devStatus & DEV_SEC_INIT_STATUS ) &&
// 1240          ( device->secure == FALSE ) )
        MOV     DPL,R6
        MOV     DPH,R7
        INC     DPTR
        INC     DPTR
        INC     DPTR
        INC     DPTR
        INC     DPTR
        INC     DPTR
        INC     DPTR
        MOVX    A,@DPTR
        MOV     C,0xE0 /* A   */.2
        JNC     ??ZDSecMgrDeviceJoin_1
        MOV     DPL,?V2
        MOV     DPH,?V3
        MOVX    A,@DPTR
        JNZ     ??ZDSecMgrDeviceJoin_1
// 1241     {
// 1242       //send the nwk key data to the joining device
// 1243       status = ZDSecMgrSendNwkKey( device );
        ; Setup parameters for call to function ZDSecMgrSendNwkKey
        MOV     A,R6
        MOV     R2,A
        MOV     A,R7
        MOV     R3,A
        LCALL   `??ZDSecMgrSendNwkKey::?relay`; Banked call to: ZDSecMgrSendNwkKey
        MOV     A,R1
        MOV     ?V4,A
// 1244     }
// 1245 
// 1246     if ( status != ZSuccess )
        JZ      ??ZDSecMgrDeviceJoin_2
// 1247     {
// 1248       ZDSecMgrAddrClear( device->extAddr );
        ; Setup parameters for call to function ZDSecMgrAddrClear
        MOV     DPL,?V0
        MOV     DPH,?V1
        LCALL   ??Subroutine62_0 & 0xFFFF
// 1249     }
// 1250   }
??CrossCallReturnLabel_114:
        LCALL   `??ZDSecMgrAddrClear::?relay`; Banked call to: ZDSecMgrAddrClear
        SJMP    ??ZDSecMgrDeviceJoin_3
// 1251 
// 1252   if ( status != ZSuccess )
??ZDSecMgrDeviceJoin_1:
        MOV     A,?V4
        JZ      ??ZDSecMgrDeviceJoin_2
// 1253   {
// 1254     // not allowed or transport key failed, remove the device
// 1255     ZDSecMgrDeviceRemove( device );
??ZDSecMgrDeviceJoin_3:
        ; Setup parameters for call to function ZDSecMgrDeviceRemove
        MOV     A,R6
        MOV     R2,A
        MOV     A,R7
        MOV     R3,A
        LCALL   `??ZDSecMgrDeviceRemove::?relay`; Banked call to: ZDSecMgrDeviceRemove
        SJMP    ??ZDSecMgrDeviceJoin_4
// 1256   }
// 1257   else
// 1258   {
// 1259     // Pass the Trust Center Device Indication to higher layer if callback registered
// 1260     if (zdoCBFunc[ZDO_TC_DEVICE_CBID] != NULL )
??ZDSecMgrDeviceJoin_2:
        MOV     DPTR,#zdoCBFunc + 16
        LCALL   ??Subroutine66_0 & 0xFFFF
??CrossCallReturnLabel_156:
        JZ      ??ZDSecMgrDeviceJoin_4
// 1261     {
// 1262       ZDO_TC_Device_t dev;
// 1263 
// 1264       dev.nwkAddr = device->nwkAddr;
        MOV     DPL,R6
        MOV     DPH,R7
        LCALL   ??Subroutine74_0 & 0xFFFF
??CrossCallReturnLabel_173:
        MOV     A,#0x2
        LCALL   ?XSTACK_DISP0_8
        LCALL   ?Subroutine17 & 0xFFFF
// 1265       osal_memcpy( dev.extAddr, device->extAddr, Z_EXTADDR_LEN );
??CrossCallReturnLabel_11:
        MOV     ?V0,A
        INC     DPTR
        MOVX    A,@DPTR
        MOV     ?V1,A
        MOV     ?V2,#0x0
        MOV     R0,#?V0
        LCALL   ?PUSH_XSTACK_I_THREE
          CFI CFA_XSP16 add(XSP16, 33)
        MOV     R4,#0x8
        MOV     R5,#0x0
        MOV     A,#0x7
        LCALL   ?XSTACK_DISP0_8
        MOV     R2,DPL
        MOV     R3,DPH
        LCALL   `??osal_memcpy::?relay`; Banked call to: osal_memcpy
        MOV     A,#0x3
        LCALL   ?DEALLOC_XSTACK8
          CFI CFA_XSP16 add(XSP16, 30)
// 1266       dev.parentAddr = device->parentAddr;
        MOV     DPL,R6
        MOV     DPH,R7
        INC     DPTR
        INC     DPTR
        INC     DPTR
        INC     DPTR
        LCALL   ??Subroutine74_0 & 0xFFFF
??CrossCallReturnLabel_174:
        MOV     A,#0xc
        LCALL   ?XSTACK_DISP0_8
        LCALL   ??Subroutine63_0 & 0xFFFF
// 1267 
// 1268       zdoCBFunc[ZDO_TC_DEVICE_CBID]( (void*)&dev );
??CrossCallReturnLabel_136:
        ; Setup parameters for indirect call
        MOV     A,#0x2
        LCALL   ?XSTACK_DISP101_8
        MOV     DPTR,#zdoCBFunc + 16
        LCALL   ?Subroutine33 & 0xFFFF
// 1269     }
// 1270   }
??CrossCallReturnLabel_36:
        LCALL   ?CALL_IND
// 1271 
// 1272   return status;
??ZDSecMgrDeviceJoin_4:
        MOV     R1,?V4
        MOV     A,#0xe
        LJMP    ?Subroutine1 & 0xFFFF
// 1273 }
          CFI EndBlock cfiBlock131

        RSEG BANKED_CODE:CODE:NOROOT(0)
?Subroutine33:
          CFI Block cfiCond132 Using cfiCommon0
          CFI Function ZDSecMgrAppKeyGet
          CFI Conditional ??CrossCallReturnLabel_34
          CFI DPL0 Frame(CFA_SP, 4)
          CFI DPH0 Frame(CFA_SP, 5)
          CFI CFA_SP SP+-7
          CFI Block cfiCond133 Using cfiCommon0
          CFI (cfiCond133) Function ZDSecMgrAppKeyGet
          CFI (cfiCond133) Conditional ??CrossCallReturnLabel_35
          CFI (cfiCond133) DPL0 Frame(CFA_SP, 4)
          CFI (cfiCond133) DPH0 Frame(CFA_SP, 5)
          CFI (cfiCond133) CFA_SP SP+-8
          CFI Block cfiCond134 Using cfiCommon0
          CFI (cfiCond134) Function ZDSecMgrDeviceJoin
          CFI (cfiCond134) Conditional ??CrossCallReturnLabel_36
          CFI (cfiCond134) R6 load(1, XDATA, add(CFA_XSP16, literal(-16)))
          CFI (cfiCond134) VB load(1, XDATA, add(CFA_XSP16, literal(-15)))
          CFI (cfiCond134) V0 load(1, XDATA, add(CFA_XSP16, literal(-14)))
          CFI (cfiCond134) V1 load(1, XDATA, add(CFA_XSP16, literal(-13)))
          CFI (cfiCond134) V2 load(1, XDATA, add(CFA_XSP16, literal(-12)))
          CFI (cfiCond134) V3 load(1, XDATA, add(CFA_XSP16, literal(-11)))
          CFI (cfiCond134) V4 load(1, XDATA, add(CFA_XSP16, literal(-10)))
          CFI (cfiCond134) V5 load(1, XDATA, add(CFA_XSP16, literal(-9)))
          CFI (cfiCond134) V6 load(1, XDATA, add(CFA_XSP16, literal(-8)))
          CFI (cfiCond134) V7 load(1, XDATA, add(CFA_XSP16, literal(-7)))
          CFI (cfiCond134) R7 load(1, XDATA, add(CFA_XSP16, literal(-6)))
          CFI (cfiCond134) ?RET_LOW load(1, XDATA, add(CFA_XSP16, literal(-5)))
          CFI (cfiCond134) ?RET_HIGH load(1, XDATA, add(CFA_XSP16, literal(-4)))
          CFI (cfiCond134) ?BRET_EXT load(1, XDATA, add(CFA_XSP16, literal(-3)))
          CFI (cfiCond134) DPL0 load(1, XDATA, add(CFA_XSP16, literal(-2)))
          CFI (cfiCond134) DPH0 load(1, XDATA, add(CFA_XSP16, literal(-1)))
          CFI (cfiCond134) CFA_SP SP+-2
          CFI (cfiCond134) CFA_XSP16 add(XSP16, 30)
          CFI Block cfiCond135 Using cfiCommon0
          CFI (cfiCond135) Function APSME_LinkKeySet
          CFI (cfiCond135) Conditional ??CrossCallReturnLabel_37
          CFI (cfiCond135) R6 load(1, XDATA, add(CFA_XSP16, literal(-15)))
          CFI (cfiCond135) VB load(1, XDATA, add(CFA_XSP16, literal(-14)))
          CFI (cfiCond135) V0 load(1, XDATA, add(CFA_XSP16, literal(-13)))
          CFI (cfiCond135) V1 load(1, XDATA, add(CFA_XSP16, literal(-12)))
          CFI (cfiCond135) V2 load(1, XDATA, add(CFA_XSP16, literal(-11)))
          CFI (cfiCond135) V3 load(1, XDATA, add(CFA_XSP16, literal(-10)))
          CFI (cfiCond135) V4 load(1, XDATA, add(CFA_XSP16, literal(-9)))
          CFI (cfiCond135) V5 load(1, XDATA, add(CFA_XSP16, literal(-8)))
          CFI (cfiCond135) V6 load(1, XDATA, add(CFA_XSP16, literal(-7)))
          CFI (cfiCond135) R7 load(1, XDATA, add(CFA_XSP16, literal(-6)))
          CFI (cfiCond135) ?RET_LOW load(1, XDATA, add(CFA_XSP16, literal(-5)))
          CFI (cfiCond135) ?RET_HIGH load(1, XDATA, add(CFA_XSP16, literal(-4)))
          CFI (cfiCond135) ?BRET_EXT load(1, XDATA, add(CFA_XSP16, literal(-3)))
          CFI (cfiCond135) DPL0 load(1, XDATA, add(CFA_XSP16, literal(-2)))
          CFI (cfiCond135) DPH0 load(1, XDATA, add(CFA_XSP16, literal(-1)))
          CFI (cfiCond135) CFA_SP SP+-2
          CFI (cfiCond135) CFA_XSP16 add(XSP16, 19)
          CFI Block cfiPicker136 Using cfiCommon1
          CFI (cfiPicker136) NoFunction
          CFI (cfiPicker136) Picker
        LCALL   ?Subroutine51 & 0xFFFF
??CrossCallReturnLabel_77:
        RET
          CFI EndBlock cfiCond132
          CFI EndBlock cfiCond133
          CFI EndBlock cfiCond134
          CFI EndBlock cfiCond135
          CFI EndBlock cfiPicker136

        RSEG BANKED_CODE:CODE:NOROOT(0)
?Subroutine51:
          CFI Block cfiCond137 Using cfiCommon0
          CFI Function ZDSecMgrAppKeyGet
          CFI Conditional ??CrossCallReturnLabel_77, ??CrossCallReturnLabel_34
          CFI DPL0 Frame(CFA_SP, 4)
          CFI DPH0 Frame(CFA_SP, 5)
          CFI CFA_SP SP+-9
          CFI Block cfiCond138 Using cfiCommon0
          CFI (cfiCond138) Function ZDSecMgrAppKeyGet
          CFI (cfiCond138) Conditional ??CrossCallReturnLabel_77, ??CrossCallReturnLabel_35
          CFI (cfiCond138) DPL0 Frame(CFA_SP, 4)
          CFI (cfiCond138) DPH0 Frame(CFA_SP, 5)
          CFI (cfiCond138) CFA_SP SP+-10
          CFI Block cfiCond139 Using cfiCommon0
          CFI (cfiCond139) Function ZDSecMgrDeviceJoin
          CFI (cfiCond139) Conditional ??CrossCallReturnLabel_77, ??CrossCallReturnLabel_36
          CFI (cfiCond139) R6 load(1, XDATA, add(CFA_XSP16, literal(-16)))
          CFI (cfiCond139) VB load(1, XDATA, add(CFA_XSP16, literal(-15)))
          CFI (cfiCond139) V0 load(1, XDATA, add(CFA_XSP16, literal(-14)))
          CFI (cfiCond139) V1 load(1, XDATA, add(CFA_XSP16, literal(-13)))
          CFI (cfiCond139) V2 load(1, XDATA, add(CFA_XSP16, literal(-12)))
          CFI (cfiCond139) V3 load(1, XDATA, add(CFA_XSP16, literal(-11)))
          CFI (cfiCond139) V4 load(1, XDATA, add(CFA_XSP16, literal(-10)))
          CFI (cfiCond139) V5 load(1, XDATA, add(CFA_XSP16, literal(-9)))
          CFI (cfiCond139) V6 load(1, XDATA, add(CFA_XSP16, literal(-8)))
          CFI (cfiCond139) V7 load(1, XDATA, add(CFA_XSP16, literal(-7)))
          CFI (cfiCond139) R7 load(1, XDATA, add(CFA_XSP16, literal(-6)))
          CFI (cfiCond139) ?RET_LOW load(1, XDATA, add(CFA_XSP16, literal(-5)))
          CFI (cfiCond139) ?RET_HIGH load(1, XDATA, add(CFA_XSP16, literal(-4)))
          CFI (cfiCond139) ?BRET_EXT load(1, XDATA, add(CFA_XSP16, literal(-3)))
          CFI (cfiCond139) DPL0 load(1, XDATA, add(CFA_XSP16, literal(-2)))
          CFI (cfiCond139) DPH0 load(1, XDATA, add(CFA_XSP16, literal(-1)))
          CFI (cfiCond139) CFA_SP SP+-4
          CFI (cfiCond139) CFA_XSP16 add(XSP16, 30)
          CFI Block cfiCond140 Using cfiCommon0
          CFI (cfiCond140) Function APSME_LinkKeySet
          CFI (cfiCond140) Conditional ??CrossCallReturnLabel_77, ??CrossCallReturnLabel_37
          CFI (cfiCond140) R6 load(1, XDATA, add(CFA_XSP16, literal(-15)))
          CFI (cfiCond140) VB load(1, XDATA, add(CFA_XSP16, literal(-14)))
          CFI (cfiCond140) V0 load(1, XDATA, add(CFA_XSP16, literal(-13)))
          CFI (cfiCond140) V1 load(1, XDATA, add(CFA_XSP16, literal(-12)))
          CFI (cfiCond140) V2 load(1, XDATA, add(CFA_XSP16, literal(-11)))
          CFI (cfiCond140) V3 load(1, XDATA, add(CFA_XSP16, literal(-10)))
          CFI (cfiCond140) V4 load(1, XDATA, add(CFA_XSP16, literal(-9)))
          CFI (cfiCond140) V5 load(1, XDATA, add(CFA_XSP16, literal(-8)))
          CFI (cfiCond140) V6 load(1, XDATA, add(CFA_XSP16, literal(-7)))
          CFI (cfiCond140) R7 load(1, XDATA, add(CFA_XSP16, literal(-6)))
          CFI (cfiCond140) ?RET_LOW load(1, XDATA, add(CFA_XSP16, literal(-5)))
          CFI (cfiCond140) ?RET_HIGH load(1, XDATA, add(CFA_XSP16, literal(-4)))
          CFI (cfiCond140) ?BRET_EXT load(1, XDATA, add(CFA_XSP16, literal(-3)))
          CFI (cfiCond140) DPL0 load(1, XDATA, add(CFA_XSP16, literal(-2)))
          CFI (cfiCond140) DPH0 load(1, XDATA, add(CFA_XSP16, literal(-1)))
          CFI (cfiCond140) CFA_SP SP+-4
          CFI (cfiCond140) CFA_XSP16 add(XSP16, 19)
          CFI Block cfiCond141 Using cfiCommon0
          CFI (cfiCond141) Function APSME_LinkKeySet
          CFI (cfiCond141) Conditional ??CrossCallReturnLabel_75, ??CrossCallReturnLabel_123
          CFI (cfiCond141) R6 load(1, XDATA, add(CFA_XSP16, literal(-15)))
          CFI (cfiCond141) VB load(1, XDATA, add(CFA_XSP16, literal(-14)))
          CFI (cfiCond141) V0 load(1, XDATA, add(CFA_XSP16, literal(-13)))
          CFI (cfiCond141) V1 load(1, XDATA, add(CFA_XSP16, literal(-12)))
          CFI (cfiCond141) V2 load(1, XDATA, add(CFA_XSP16, literal(-11)))
          CFI (cfiCond141) V3 load(1, XDATA, add(CFA_XSP16, literal(-10)))
          CFI (cfiCond141) V4 load(1, XDATA, add(CFA_XSP16, literal(-9)))
          CFI (cfiCond141) V5 load(1, XDATA, add(CFA_XSP16, literal(-8)))
          CFI (cfiCond141) V6 load(1, XDATA, add(CFA_XSP16, literal(-7)))
          CFI (cfiCond141) R7 load(1, XDATA, add(CFA_XSP16, literal(-6)))
          CFI (cfiCond141) ?RET_LOW load(1, XDATA, add(CFA_XSP16, literal(-5)))
          CFI (cfiCond141) ?RET_HIGH load(1, XDATA, add(CFA_XSP16, literal(-4)))
          CFI (cfiCond141) ?BRET_EXT load(1, XDATA, add(CFA_XSP16, literal(-3)))
          CFI (cfiCond141) DPL0 load(1, XDATA, add(CFA_XSP16, literal(-2)))
          CFI (cfiCond141) DPH0 load(1, XDATA, add(CFA_XSP16, literal(-1)))
          CFI (cfiCond141) CFA_SP SP+-4
          CFI (cfiCond141) CFA_XSP16 add(XSP16, 23)
          CFI Block cfiCond142 Using cfiCommon0
          CFI (cfiCond142) Function APSME_LinkKeySet
          CFI (cfiCond142) Conditional ??CrossCallReturnLabel_75, ??CrossCallReturnLabel_124
          CFI (cfiCond142) R6 load(1, XDATA, add(CFA_XSP16, literal(-15)))
          CFI (cfiCond142) VB load(1, XDATA, add(CFA_XSP16, literal(-14)))
          CFI (cfiCond142) V0 load(1, XDATA, add(CFA_XSP16, literal(-13)))
          CFI (cfiCond142) V1 load(1, XDATA, add(CFA_XSP16, literal(-12)))
          CFI (cfiCond142) V2 load(1, XDATA, add(CFA_XSP16, literal(-11)))
          CFI (cfiCond142) V3 load(1, XDATA, add(CFA_XSP16, literal(-10)))
          CFI (cfiCond142) V4 load(1, XDATA, add(CFA_XSP16, literal(-9)))
          CFI (cfiCond142) V5 load(1, XDATA, add(CFA_XSP16, literal(-8)))
          CFI (cfiCond142) V6 load(1, XDATA, add(CFA_XSP16, literal(-7)))
          CFI (cfiCond142) R7 load(1, XDATA, add(CFA_XSP16, literal(-6)))
          CFI (cfiCond142) ?RET_LOW load(1, XDATA, add(CFA_XSP16, literal(-5)))
          CFI (cfiCond142) ?RET_HIGH load(1, XDATA, add(CFA_XSP16, literal(-4)))
          CFI (cfiCond142) ?BRET_EXT load(1, XDATA, add(CFA_XSP16, literal(-3)))
          CFI (cfiCond142) DPL0 load(1, XDATA, add(CFA_XSP16, literal(-2)))
          CFI (cfiCond142) DPH0 load(1, XDATA, add(CFA_XSP16, literal(-1)))
          CFI (cfiCond142) CFA_SP SP+-4
          CFI (cfiCond142) CFA_XSP16 add(XSP16, 23)
          CFI Block cfiCond143 Using cfiCommon0
          CFI (cfiCond143) Function APSME_LinkKeyNVIdGet
          CFI (cfiCond143) Conditional ??CrossCallReturnLabel_75, ??CrossCallReturnLabel_125
          CFI (cfiCond143) R6 load(1, XDATA, add(CFA_XSP16, literal(-9)))
          CFI (cfiCond143) VB load(1, XDATA, add(CFA_XSP16, literal(-8)))
          CFI (cfiCond143) V0 load(1, XDATA, add(CFA_XSP16, literal(-7)))
          CFI (cfiCond143) R7 load(1, XDATA, add(CFA_XSP16, literal(-6)))
          CFI (cfiCond143) ?RET_LOW load(1, XDATA, add(CFA_XSP16, literal(-5)))
          CFI (cfiCond143) ?RET_HIGH load(1, XDATA, add(CFA_XSP16, literal(-4)))
          CFI (cfiCond143) ?BRET_EXT load(1, XDATA, add(CFA_XSP16, literal(-3)))
          CFI (cfiCond143) DPL0 load(1, XDATA, add(CFA_XSP16, literal(-2)))
          CFI (cfiCond143) DPH0 load(1, XDATA, add(CFA_XSP16, literal(-1)))
          CFI (cfiCond143) CFA_SP SP+-4
          CFI (cfiCond143) CFA_XSP16 add(XSP16, 11)
          CFI Block cfiCond144 Using cfiCommon0
          CFI (cfiCond144) Function ZDSecMgrAuthenticationSet
          CFI (cfiCond144) Conditional ??CrossCallReturnLabel_76, ??CrossCallReturnLabel_32
          CFI (cfiCond144) R6 load(1, XDATA, add(CFA_XSP16, literal(-9)))
          CFI (cfiCond144) VB load(1, XDATA, add(CFA_XSP16, literal(-8)))
          CFI (cfiCond144) V0 load(1, XDATA, add(CFA_XSP16, literal(-7)))
          CFI (cfiCond144) R7 load(1, XDATA, add(CFA_XSP16, literal(-6)))
          CFI (cfiCond144) ?RET_LOW load(1, XDATA, add(CFA_XSP16, literal(-5)))
          CFI (cfiCond144) ?RET_HIGH load(1, XDATA, add(CFA_XSP16, literal(-4)))
          CFI (cfiCond144) ?BRET_EXT load(1, XDATA, add(CFA_XSP16, literal(-3)))
          CFI (cfiCond144) DPL0 load(1, XDATA, add(CFA_XSP16, literal(-2)))
          CFI (cfiCond144) DPH0 load(1, XDATA, add(CFA_XSP16, literal(-1)))
          CFI (cfiCond144) CFA_SP SP+-4
          CFI (cfiCond144) CFA_XSP16 add(XSP16, 11)
          CFI Block cfiCond145 Using cfiCommon0
          CFI (cfiCond145) Function ZDSecMgrAuthenticationCheck
          CFI (cfiCond145) Conditional ??CrossCallReturnLabel_76, ??CrossCallReturnLabel_33
          CFI (cfiCond145) R6 load(1, XDATA, add(CFA_XSP16, literal(-10)))
          CFI (cfiCond145) VB load(1, XDATA, add(CFA_XSP16, literal(-9)))
          CFI (cfiCond145) V0 load(1, XDATA, add(CFA_XSP16, literal(-8)))
          CFI (cfiCond145) V1 load(1, XDATA, add(CFA_XSP16, literal(-7)))
          CFI (cfiCond145) R7 load(1, XDATA, add(CFA_XSP16, literal(-6)))
          CFI (cfiCond145) ?RET_LOW load(1, XDATA, add(CFA_XSP16, literal(-5)))
          CFI (cfiCond145) ?RET_HIGH load(1, XDATA, add(CFA_XSP16, literal(-4)))
          CFI (cfiCond145) ?BRET_EXT load(1, XDATA, add(CFA_XSP16, literal(-3)))
          CFI (cfiCond145) DPL0 load(1, XDATA, add(CFA_XSP16, literal(-2)))
          CFI (cfiCond145) DPH0 load(1, XDATA, add(CFA_XSP16, literal(-1)))
          CFI (cfiCond145) CFA_SP SP+-4
          CFI (cfiCond145) CFA_XSP16 add(XSP16, 22)
          CFI Block cfiPicker146 Using cfiCommon1
          CFI (cfiPicker146) NoFunction
          CFI (cfiPicker146) Picker
        MOVX    A,@DPTR
        MOV     R0,A
        INC     DPTR
        MOVX    A,@DPTR
        MOV     DPH,A
        MOV     DPL,R0
        RET
          CFI EndBlock cfiCond137
          CFI EndBlock cfiCond138
          CFI EndBlock cfiCond139
          CFI EndBlock cfiCond140
          CFI EndBlock cfiCond141
          CFI EndBlock cfiCond142
          CFI EndBlock cfiCond143
          CFI EndBlock cfiCond144
          CFI EndBlock cfiCond145
          CFI EndBlock cfiPicker146

        RSEG BANKED_CODE:CODE:NOROOT(0)
?Subroutine17:
          CFI Block cfiCond147 Using cfiCommon0
          CFI Function ZDSecMgrSendNwkKey
          CFI Conditional ??CrossCallReturnLabel_10
          CFI R6 load(1, XDATA, add(CFA_XSP16, literal(-12)))
          CFI VB load(1, XDATA, add(CFA_XSP16, literal(-11)))
          CFI V0 load(1, XDATA, add(CFA_XSP16, literal(-10)))
          CFI V1 load(1, XDATA, add(CFA_XSP16, literal(-9)))
          CFI V2 load(1, XDATA, add(CFA_XSP16, literal(-8)))
          CFI V3 load(1, XDATA, add(CFA_XSP16, literal(-7)))
          CFI R7 load(1, XDATA, add(CFA_XSP16, literal(-6)))
          CFI ?RET_LOW load(1, XDATA, add(CFA_XSP16, literal(-5)))
          CFI ?RET_HIGH load(1, XDATA, add(CFA_XSP16, literal(-4)))
          CFI ?BRET_EXT load(1, XDATA, add(CFA_XSP16, literal(-3)))
          CFI DPL0 load(1, XDATA, add(CFA_XSP16, literal(-2)))
          CFI DPH0 load(1, XDATA, add(CFA_XSP16, literal(-1)))
          CFI CFA_SP SP+-2
          CFI CFA_XSP16 add(XSP16, 46)
          CFI Block cfiCond148 Using cfiCommon0
          CFI (cfiCond148) Function ZDSecMgrDeviceJoin
          CFI (cfiCond148) Conditional ??CrossCallReturnLabel_11
          CFI (cfiCond148) R6 load(1, XDATA, add(CFA_XSP16, literal(-16)))
          CFI (cfiCond148) VB load(1, XDATA, add(CFA_XSP16, literal(-15)))
          CFI (cfiCond148) V0 load(1, XDATA, add(CFA_XSP16, literal(-14)))
          CFI (cfiCond148) V1 load(1, XDATA, add(CFA_XSP16, literal(-13)))
          CFI (cfiCond148) V2 load(1, XDATA, add(CFA_XSP16, literal(-12)))
          CFI (cfiCond148) V3 load(1, XDATA, add(CFA_XSP16, literal(-11)))
          CFI (cfiCond148) V4 load(1, XDATA, add(CFA_XSP16, literal(-10)))
          CFI (cfiCond148) V5 load(1, XDATA, add(CFA_XSP16, literal(-9)))
          CFI (cfiCond148) V6 load(1, XDATA, add(CFA_XSP16, literal(-8)))
          CFI (cfiCond148) V7 load(1, XDATA, add(CFA_XSP16, literal(-7)))
          CFI (cfiCond148) R7 load(1, XDATA, add(CFA_XSP16, literal(-6)))
          CFI (cfiCond148) ?RET_LOW load(1, XDATA, add(CFA_XSP16, literal(-5)))
          CFI (cfiCond148) ?RET_HIGH load(1, XDATA, add(CFA_XSP16, literal(-4)))
          CFI (cfiCond148) ?BRET_EXT load(1, XDATA, add(CFA_XSP16, literal(-3)))
          CFI (cfiCond148) DPL0 load(1, XDATA, add(CFA_XSP16, literal(-2)))
          CFI (cfiCond148) DPH0 load(1, XDATA, add(CFA_XSP16, literal(-1)))
          CFI (cfiCond148) CFA_SP SP+-2
          CFI (cfiCond148) CFA_XSP16 add(XSP16, 30)
          CFI Block cfiPicker149 Using cfiCommon1
          CFI (cfiPicker149) NoFunction
          CFI (cfiPicker149) Picker
        LCALL   ?Subroutine49 & 0xFFFF
??CrossCallReturnLabel_146:
        ; Setup parameters for call to function osal_memcpy
        MOV     DPL,?V0
        MOV     DPH,?V1
        MOVX    A,@DPTR
        RET
          CFI EndBlock cfiCond147
          CFI EndBlock cfiCond148
          CFI EndBlock cfiPicker149
// 1274 
// 1275 /******************************************************************************
// 1276  * @fn          ZDSecMgrDeviceJoinDirect
// 1277  *
// 1278  * @brief       Try to join this device as a direct child.
// 1279  *
// 1280  * @param       device - [in] ZDSecMgrDevice_t, device info
// 1281  *
// 1282  * @return      ZStatus_t
// 1283  */

        RSEG BANKED_CODE:CODE:NOROOT(0)
// 1284 ZStatus_t ZDSecMgrDeviceJoinDirect( ZDSecMgrDevice_t* device )
ZDSecMgrDeviceJoinDirect:
          CFI Block cfiBlock150 Using cfiCommon0
          CFI Function ZDSecMgrDeviceJoinDirect
        CODE
// 1285 {
        FUNCALL ZDSecMgrDeviceJoinDirect, APSME_SearchTCLinkKeyEntry
        LOCFRAME ISTACK, 0, STACK
        LOCFRAME PSTACK, 0, STACK
        LOCFRAME XSTACK, 34, STACK
        LOCFRAME IOVERLAY, 0, STATIC
        LOCFRAME DOVERLAY, 0, STATIC
        ARGFRAME ISTACK, 0, STACK
        ARGFRAME PSTACK, 0, STACK
        ARGFRAME XSTACK, 34, STACK
        ARGFRAME IOVERLAY, 0, STATIC
        ARGFRAME DOVERLAY, 0, STATIC
        FUNCALL ZDSecMgrDeviceJoinDirect, osal_nv_write
        LOCFRAME ISTACK, 0, STACK
        LOCFRAME PSTACK, 0, STACK
        LOCFRAME XSTACK, 36, STACK
        LOCFRAME IOVERLAY, 0, STATIC
        LOCFRAME DOVERLAY, 0, STATIC
        ARGFRAME ISTACK, 0, STACK
        ARGFRAME PSTACK, 0, STACK
        ARGFRAME XSTACK, 36, STACK
        ARGFRAME IOVERLAY, 0, STATIC
        ARGFRAME DOVERLAY, 0, STATIC
        FUNCALL ZDSecMgrDeviceJoinDirect, ZDSecMgrDeviceJoin
        LOCFRAME ISTACK, 0, STACK
        LOCFRAME PSTACK, 0, STACK
        LOCFRAME XSTACK, 32, STACK
        LOCFRAME IOVERLAY, 0, STATIC
        LOCFRAME DOVERLAY, 0, STATIC
        ARGFRAME ISTACK, 0, STACK
        ARGFRAME PSTACK, 0, STACK
        ARGFRAME XSTACK, 32, STACK
        ARGFRAME IOVERLAY, 0, STATIC
        ARGFRAME DOVERLAY, 0, STATIC
        FUNCALL ZDSecMgrDeviceJoinDirect, AssocGetWithShort
        LOCFRAME ISTACK, 0, STACK
        LOCFRAME PSTACK, 0, STACK
        LOCFRAME XSTACK, 32, STACK
        LOCFRAME IOVERLAY, 0, STATIC
        LOCFRAME DOVERLAY, 0, STATIC
        ARGFRAME ISTACK, 0, STACK
        ARGFRAME PSTACK, 0, STACK
        ARGFRAME XSTACK, 32, STACK
        ARGFRAME IOVERLAY, 0, STATIC
        ARGFRAME DOVERLAY, 0, STATIC
        FUNCALL ZDSecMgrDeviceJoinDirect, ZDSecMgrAssocDeviceAuth
        LOCFRAME ISTACK, 0, STACK
        LOCFRAME PSTACK, 0, STACK
        LOCFRAME XSTACK, 32, STACK
        LOCFRAME IOVERLAY, 0, STATIC
        LOCFRAME DOVERLAY, 0, STATIC
        ARGFRAME ISTACK, 0, STACK
        ARGFRAME PSTACK, 0, STACK
        ARGFRAME XSTACK, 32, STACK
        ARGFRAME IOVERLAY, 0, STATIC
        ARGFRAME DOVERLAY, 0, STATIC
        REQUIRE ?V0
        REQUIRE ?V1
        REQUIRE ?V2
        REQUIRE ?V3
        MOV     A,#-0xc
        LCALL   ?BANKED_ENTER_XDATA
          CFI DPH0 load(1, XDATA, add(CFA_XSP16, literal(-1)))
          CFI DPL0 load(1, XDATA, add(CFA_XSP16, literal(-2)))
          CFI ?BRET_EXT load(1, XDATA, add(CFA_XSP16, literal(-3)))
          CFI ?RET_HIGH load(1, XDATA, add(CFA_XSP16, literal(-4)))
          CFI ?RET_LOW load(1, XDATA, add(CFA_XSP16, literal(-5)))
          CFI R7 load(1, XDATA, add(CFA_XSP16, literal(-6)))
          CFI V3 load(1, XDATA, add(CFA_XSP16, literal(-7)))
          CFI V2 load(1, XDATA, add(CFA_XSP16, literal(-8)))
          CFI V1 load(1, XDATA, add(CFA_XSP16, literal(-9)))
          CFI V0 load(1, XDATA, add(CFA_XSP16, literal(-10)))
          CFI VB load(1, XDATA, add(CFA_XSP16, literal(-11)))
          CFI R6 load(1, XDATA, add(CFA_XSP16, literal(-12)))
          CFI CFA_SP SP+0
          CFI CFA_XSP16 add(XSP16, 12)
        ; Saved register size: 12
        ; Auto size: 20
        MOV     A,#-0x14
        LCALL   ?ALLOC_XSTACK8
          CFI CFA_XSP16 add(XSP16, 32)
        MOV     ?V2,R2
        MOV     ?V3,R3
// 1286   ZStatus_t status;
// 1287   
// 1288   if(device->secure == FALSE)
        MOV     DPL,R2
        MOV     DPH,R3
        INC     DPTR
        INC     DPTR
        INC     DPTR
        INC     DPTR
        INC     DPTR
        INC     DPTR
        MOVX    A,@DPTR
        JZ      $+5
        LJMP    ??ZDSecMgrDeviceJoinDirect_0 & 0xFFFF
// 1289   {  
// 1290     uint8  found;
// 1291     uint16 keyNvIndex;
// 1292     APSME_TCLKDevEntry_t TCLKDevEntry;
// 1293     
// 1294     keyNvIndex = APSME_SearchTCLinkKeyEntry(device->extAddr,&found, &TCLKDevEntry);
        ; Setup parameters for call to function APSME_SearchTCLinkKeyEntry
        MOV     A,#0x1
        LCALL   ?XSTACK_DISP100_8
        MOV     ?V0,R0
        MOV     ?V1,R1
        MOV     R0,#?V0
        LCALL   ?PUSH_XSTACK_I_TWO
          CFI CFA_XSP16 add(XSP16, 34)
        MOV     A,#0x2
        LCALL   ?XSTACK_DISP102_8
        MOV     DPL,R2
        MOV     DPH,R3
        LCALL   ??Subroutine61_0 & 0xFFFF
??CrossCallReturnLabel_120:
        LCALL   `??APSME_SearchTCLinkKeyEntry::?relay`; Banked call to: APSME_SearchTCLinkKeyEntry
        MOV     A,#0x2
        LCALL   ?DEALLOC_XSTACK8
          CFI CFA_XSP16 add(XSP16, 32)
// 1295     
// 1296     //If found and it was verified, then allow it to join in a fresh state by erasing the key entry
// 1297     if((found == TRUE) && (TCLKDevEntry.keyAttributes == ZG_VERIFIED_KEY))
        MOV     DPL,?XSP + 0
        MOV     DPH,?XSP + 1
        MOVX    A,@DPTR
        XRL     A,#0x1
        JNZ     ??ZDSecMgrDeviceJoinDirect_0
        MOV     A,#0x11
        LCALL   ?XSTACK_DISP0_8
        MOVX    A,@DPTR
        XRL     A,#0x2
        JNZ     ??ZDSecMgrDeviceJoinDirect_0
// 1298     {
// 1299       uint8 index;
// 1300       TCLKDevEntry.keyAttributes = ZG_DEFAULT_KEY;
        MOV     A,#-0x1
        MOVX    @DPTR,A
// 1301       //Increase the shift by one. Validate the maximum shift of the seed which is 15
// 1302       TCLKDevEntry.SeedShift_IcIndex++;
// 1303       TCLKDevEntry.SeedShift_IcIndex &= 0x0F;
        MOV     A,#0x13
        LCALL   ?XSTACK_DISP0_8
        MOVX    A,@DPTR
        INC     A
        MOVX    @DPTR,A
        ANL     A,#0xf
        MOVX    @DPTR,A
// 1304       
// 1305       TCLKDevEntry.rxFrmCntr = 0;
        MOV     A,#0x5
        LCALL   ?XSTACK_DISP0_8
        LCALL   ?Subroutine13 & 0xFFFF
// 1306       TCLKDevEntry.txFrmCntr = 0;
??CrossCallReturnLabel_192:
        LCALL   ?XSTACK_DISP0_8
        LCALL   ?Subroutine25 & 0xFFFF
// 1307       
// 1308       index = keyNvIndex - ZCD_NV_TCLK_TABLE_START;
??CrossCallReturnLabel_25:
        LCALL   ?Subroutine46 & 0xFFFF
// 1309       
// 1310       TCLinkKeyFrmCntr[index].rxFrmCntr = 0;
??CrossCallReturnLabel_63:
        MOV     ?V0,A
        MOV     A,#(TCLinkKeyFrmCntr >> 8) & 0xff
        ADDC    A,R1
        MOV     ?V1,A
        MOV     DPL,?V0
        MOV     DPH,A
        INC     DPTR
        INC     DPTR
        INC     DPTR
        INC     DPTR
        LCALL   ??Subroutine68_0 & 0xFFFF
// 1311       TCLinkKeyFrmCntr[index].txFrmCntr = 0;
??CrossCallReturnLabel_166:
        MOV     DPL,?V0
        MOV     DPH,?V1
        LCALL   ??Subroutine78_0 & 0xFFFF
// 1312       
// 1313       //Update the entry
// 1314       osal_nv_write(keyNvIndex,0,sizeof(APSME_TCLKDevEntry_t), &TCLKDevEntry );
// 1315     }
// 1316     
// 1317   }
??CrossCallReturnLabel_194:
        LCALL   ?XSTACK_DISP100_8
        MOV     ?V0,R0
        MOV     ?V1,R1
        MOV     R0,#?V0
        LCALL   ?PUSH_XSTACK_I_TWO
          CFI CFA_XSP16 add(XSP16, 34)
        MOV     ?V0,#0x13
        MOV     ?V1,#0x0
        MOV     R0,#?V0
        LCALL   ?PUSH_XSTACK_I_TWO
          CFI CFA_XSP16 add(XSP16, 36)
        MOV     R4,#0x0
        MOV     R5,#0x0
        LCALL   `??osal_nv_write::?relay`; Banked call to: osal_nv_write
        MOV     A,#0x4
        LCALL   ?DEALLOC_XSTACK8
          CFI CFA_XSP16 add(XSP16, 32)
// 1318 
// 1319   status = ZDSecMgrDeviceJoin( device );
??ZDSecMgrDeviceJoinDirect_0:
        ; Setup parameters for call to function ZDSecMgrDeviceJoin
        MOV     R2,?V2
        MOV     R3,?V3
        LCALL   `??ZDSecMgrDeviceJoin::?relay`; Banked call to: ZDSecMgrDeviceJoin
        MOV     A,R1
        MOV     R6,A
// 1320 
// 1321   if ( status == ZSuccess )
        JNZ     ??ZDSecMgrDeviceJoinDirect_1
// 1322   {
// 1323     // set association status to authenticated
// 1324     ZDSecMgrAssocDeviceAuth( AssocGetWithShort( device->nwkAddr ) );
        ; Setup parameters for call to function AssocGetWithShort
        MOV     DPL,?V2
        MOV     DPH,?V3
        LCALL   ??Subroutine62_0 & 0xFFFF
// 1325     
// 1326   #if (ZG_BUILD_COORDINATOR_TYPE)    
// 1327     //Add the device as joining device, if it did join unsecured
// 1328     if(device->secure == FALSE)
// 1329     {
// 1330       bdb_TCAddJoiningDevice(NLME_GetShortAddr(),device->extAddr);
// 1331     }
// 1332   #endif
// 1333   }
??CrossCallReturnLabel_115:
        LCALL   `??AssocGetWithShort::?relay`; Banked call to: AssocGetWithShort
        ; Setup parameters for call to function ZDSecMgrAssocDeviceAuth
        LCALL   `??ZDSecMgrAssocDeviceAuth::?relay`; Banked call to: ZDSecMgrAssocDeviceAuth
// 1334 
// 1335   return status;
??ZDSecMgrDeviceJoinDirect_1:
        MOV     A,R6
        MOV     R1,A
        MOV     A,#0x14
        LJMP    ?Subroutine3 & 0xFFFF
// 1336 }
          CFI EndBlock cfiBlock150

        RSEG BANKED_CODE:CODE:NOROOT(0)
?Subroutine27:
          CFI Block cfiCond151 Using cfiCommon0
          CFI Function APSME_LinkKeySet
          CFI Conditional ??CrossCallReturnLabel_123
          CFI R6 load(1, XDATA, add(CFA_XSP16, literal(-15)))
          CFI VB load(1, XDATA, add(CFA_XSP16, literal(-14)))
          CFI V0 load(1, XDATA, add(CFA_XSP16, literal(-13)))
          CFI V1 load(1, XDATA, add(CFA_XSP16, literal(-12)))
          CFI V2 load(1, XDATA, add(CFA_XSP16, literal(-11)))
          CFI V3 load(1, XDATA, add(CFA_XSP16, literal(-10)))
          CFI V4 load(1, XDATA, add(CFA_XSP16, literal(-9)))
          CFI V5 load(1, XDATA, add(CFA_XSP16, literal(-8)))
          CFI V6 load(1, XDATA, add(CFA_XSP16, literal(-7)))
          CFI R7 load(1, XDATA, add(CFA_XSP16, literal(-6)))
          CFI ?RET_LOW load(1, XDATA, add(CFA_XSP16, literal(-5)))
          CFI ?RET_HIGH load(1, XDATA, add(CFA_XSP16, literal(-4)))
          CFI ?BRET_EXT load(1, XDATA, add(CFA_XSP16, literal(-3)))
          CFI DPL0 load(1, XDATA, add(CFA_XSP16, literal(-2)))
          CFI DPH0 load(1, XDATA, add(CFA_XSP16, literal(-1)))
          CFI CFA_SP SP+-2
          CFI CFA_XSP16 add(XSP16, 23)
          CFI Block cfiCond152 Using cfiCommon0
          CFI (cfiCond152) Function APSME_LinkKeySet
          CFI (cfiCond152) Conditional ??CrossCallReturnLabel_124
          CFI (cfiCond152) R6 load(1, XDATA, add(CFA_XSP16, literal(-15)))
          CFI (cfiCond152) VB load(1, XDATA, add(CFA_XSP16, literal(-14)))
          CFI (cfiCond152) V0 load(1, XDATA, add(CFA_XSP16, literal(-13)))
          CFI (cfiCond152) V1 load(1, XDATA, add(CFA_XSP16, literal(-12)))
          CFI (cfiCond152) V2 load(1, XDATA, add(CFA_XSP16, literal(-11)))
          CFI (cfiCond152) V3 load(1, XDATA, add(CFA_XSP16, literal(-10)))
          CFI (cfiCond152) V4 load(1, XDATA, add(CFA_XSP16, literal(-9)))
          CFI (cfiCond152) V5 load(1, XDATA, add(CFA_XSP16, literal(-8)))
          CFI (cfiCond152) V6 load(1, XDATA, add(CFA_XSP16, literal(-7)))
          CFI (cfiCond152) R7 load(1, XDATA, add(CFA_XSP16, literal(-6)))
          CFI (cfiCond152) ?RET_LOW load(1, XDATA, add(CFA_XSP16, literal(-5)))
          CFI (cfiCond152) ?RET_HIGH load(1, XDATA, add(CFA_XSP16, literal(-4)))
          CFI (cfiCond152) ?BRET_EXT load(1, XDATA, add(CFA_XSP16, literal(-3)))
          CFI (cfiCond152) DPL0 load(1, XDATA, add(CFA_XSP16, literal(-2)))
          CFI (cfiCond152) DPH0 load(1, XDATA, add(CFA_XSP16, literal(-1)))
          CFI (cfiCond152) CFA_SP SP+-2
          CFI (cfiCond152) CFA_XSP16 add(XSP16, 23)
          CFI Block cfiCond153 Using cfiCommon0
          CFI (cfiCond153) Function APSME_LinkKeyNVIdGet
          CFI (cfiCond153) Conditional ??CrossCallReturnLabel_125
          CFI (cfiCond153) R6 load(1, XDATA, add(CFA_XSP16, literal(-9)))
          CFI (cfiCond153) VB load(1, XDATA, add(CFA_XSP16, literal(-8)))
          CFI (cfiCond153) V0 load(1, XDATA, add(CFA_XSP16, literal(-7)))
          CFI (cfiCond153) R7 load(1, XDATA, add(CFA_XSP16, literal(-6)))
          CFI (cfiCond153) ?RET_LOW load(1, XDATA, add(CFA_XSP16, literal(-5)))
          CFI (cfiCond153) ?RET_HIGH load(1, XDATA, add(CFA_XSP16, literal(-4)))
          CFI (cfiCond153) ?BRET_EXT load(1, XDATA, add(CFA_XSP16, literal(-3)))
          CFI (cfiCond153) DPL0 load(1, XDATA, add(CFA_XSP16, literal(-2)))
          CFI (cfiCond153) DPH0 load(1, XDATA, add(CFA_XSP16, literal(-1)))
          CFI (cfiCond153) CFA_SP SP+-2
          CFI (cfiCond153) CFA_XSP16 add(XSP16, 11)
          CFI Block cfiPicker154 Using cfiCommon1
          CFI (cfiPicker154) NoFunction
          CFI (cfiPicker154) Picker
        LCALL   ?Subroutine51 & 0xFFFF
??CrossCallReturnLabel_75:
          CFI EndBlock cfiCond151
          CFI EndBlock cfiCond152
          CFI EndBlock cfiCond153
          CFI EndBlock cfiPicker154
        REQUIRE ??Subroutine61_0
        ; // Fall through to label ??Subroutine61_0

        RSEG BANKED_CODE:CODE:NOROOT(0)
??Subroutine61_0:
          CFI Block cfiCond155 Using cfiCommon0
          CFI Function ZDSecMgrDeviceRemove
          CFI Conditional ??CrossCallReturnLabel_119
          CFI R6 load(1, XDATA, add(CFA_XSP16, literal(-10)))
          CFI VB load(1, XDATA, add(CFA_XSP16, literal(-9)))
          CFI V0 load(1, XDATA, add(CFA_XSP16, literal(-8)))
          CFI V1 load(1, XDATA, add(CFA_XSP16, literal(-7)))
          CFI R7 load(1, XDATA, add(CFA_XSP16, literal(-6)))
          CFI ?RET_LOW load(1, XDATA, add(CFA_XSP16, literal(-5)))
          CFI ?RET_HIGH load(1, XDATA, add(CFA_XSP16, literal(-4)))
          CFI ?BRET_EXT load(1, XDATA, add(CFA_XSP16, literal(-3)))
          CFI DPL0 load(1, XDATA, add(CFA_XSP16, literal(-2)))
          CFI DPH0 load(1, XDATA, add(CFA_XSP16, literal(-1)))
          CFI CFA_SP SP+-2
          CFI CFA_XSP16 add(XSP16, 29)
          CFI Block cfiCond156 Using cfiCommon0
          CFI (cfiCond156) Function ZDSecMgrDeviceJoinDirect
          CFI (cfiCond156) Conditional ??CrossCallReturnLabel_120
          CFI (cfiCond156) R6 load(1, XDATA, add(CFA_XSP16, literal(-12)))
          CFI (cfiCond156) VB load(1, XDATA, add(CFA_XSP16, literal(-11)))
          CFI (cfiCond156) V0 load(1, XDATA, add(CFA_XSP16, literal(-10)))
          CFI (cfiCond156) V1 load(1, XDATA, add(CFA_XSP16, literal(-9)))
          CFI (cfiCond156) V2 load(1, XDATA, add(CFA_XSP16, literal(-8)))
          CFI (cfiCond156) V3 load(1, XDATA, add(CFA_XSP16, literal(-7)))
          CFI (cfiCond156) R7 load(1, XDATA, add(CFA_XSP16, literal(-6)))
          CFI (cfiCond156) ?RET_LOW load(1, XDATA, add(CFA_XSP16, literal(-5)))
          CFI (cfiCond156) ?RET_HIGH load(1, XDATA, add(CFA_XSP16, literal(-4)))
          CFI (cfiCond156) ?BRET_EXT load(1, XDATA, add(CFA_XSP16, literal(-3)))
          CFI (cfiCond156) DPL0 load(1, XDATA, add(CFA_XSP16, literal(-2)))
          CFI (cfiCond156) DPH0 load(1, XDATA, add(CFA_XSP16, literal(-1)))
          CFI (cfiCond156) CFA_SP SP+-2
          CFI (cfiCond156) CFA_XSP16 add(XSP16, 34)
          CFI Block cfiCond157 Using cfiCommon0
          CFI (cfiCond157) Function APSME_KeyFwdToChild
          CFI (cfiCond157) Conditional ??CrossCallReturnLabel_121
          CFI (cfiCond157) R6 load(1, XDATA, add(CFA_XSP16, literal(-10)))
          CFI (cfiCond157) VB load(1, XDATA, add(CFA_XSP16, literal(-9)))
          CFI (cfiCond157) V0 load(1, XDATA, add(CFA_XSP16, literal(-8)))
          CFI (cfiCond157) V1 load(1, XDATA, add(CFA_XSP16, literal(-7)))
          CFI (cfiCond157) R7 load(1, XDATA, add(CFA_XSP16, literal(-6)))
          CFI (cfiCond157) ?RET_LOW load(1, XDATA, add(CFA_XSP16, literal(-5)))
          CFI (cfiCond157) ?RET_HIGH load(1, XDATA, add(CFA_XSP16, literal(-4)))
          CFI (cfiCond157) ?BRET_EXT load(1, XDATA, add(CFA_XSP16, literal(-3)))
          CFI (cfiCond157) DPL0 load(1, XDATA, add(CFA_XSP16, literal(-2)))
          CFI (cfiCond157) DPH0 load(1, XDATA, add(CFA_XSP16, literal(-1)))
          CFI (cfiCond157) CFA_SP SP+-2
          CFI (cfiCond157) CFA_XSP16 add(XSP16, 10)
          CFI Block cfiCond158 Using cfiCommon0
          CFI (cfiCond158) Function ZDSecMgrRestoreFromNV
          CFI (cfiCond158) Conditional ??CrossCallReturnLabel_122
          CFI (cfiCond158) R6 load(1, XDATA, add(CFA_XSP16, literal(-18)))
          CFI (cfiCond158) VB load(1, XDATA, add(CFA_XSP16, literal(-17)))
          CFI (cfiCond158) V0 load(1, XDATA, add(CFA_XSP16, literal(-16)))
          CFI (cfiCond158) V1 load(1, XDATA, add(CFA_XSP16, literal(-15)))
          CFI (cfiCond158) V2 load(1, XDATA, add(CFA_XSP16, literal(-14)))
          CFI (cfiCond158) V3 load(1, XDATA, add(CFA_XSP16, literal(-13)))
          CFI (cfiCond158) V4 load(1, XDATA, add(CFA_XSP16, literal(-12)))
          CFI (cfiCond158) V5 load(1, XDATA, add(CFA_XSP16, literal(-11)))
          CFI (cfiCond158) V6 load(1, XDATA, add(CFA_XSP16, literal(-10)))
          CFI (cfiCond158) V7 load(1, XDATA, add(CFA_XSP16, literal(-9)))
          CFI (cfiCond158) V8 load(1, XDATA, add(CFA_XSP16, literal(-8)))
          CFI (cfiCond158) V9 load(1, XDATA, add(CFA_XSP16, literal(-7)))
          CFI (cfiCond158) R7 load(1, XDATA, add(CFA_XSP16, literal(-6)))
          CFI (cfiCond158) ?RET_LOW load(1, XDATA, add(CFA_XSP16, literal(-5)))
          CFI (cfiCond158) ?RET_HIGH load(1, XDATA, add(CFA_XSP16, literal(-4)))
          CFI (cfiCond158) ?BRET_EXT load(1, XDATA, add(CFA_XSP16, literal(-3)))
          CFI (cfiCond158) DPL0 load(1, XDATA, add(CFA_XSP16, literal(-2)))
          CFI (cfiCond158) DPH0 load(1, XDATA, add(CFA_XSP16, literal(-1)))
          CFI (cfiCond158) CFA_SP SP+-2
          CFI (cfiCond158) CFA_XSP16 add(XSP16, 24)
          CFI Block cfiCond159 Using cfiCommon0
          CFI (cfiCond159) Function APSME_LinkKeySet
          CFI (cfiCond159) Conditional ??CrossCallReturnLabel_123
          CFI (cfiCond159) R6 load(1, XDATA, add(CFA_XSP16, literal(-15)))
          CFI (cfiCond159) VB load(1, XDATA, add(CFA_XSP16, literal(-14)))
          CFI (cfiCond159) V0 load(1, XDATA, add(CFA_XSP16, literal(-13)))
          CFI (cfiCond159) V1 load(1, XDATA, add(CFA_XSP16, literal(-12)))
          CFI (cfiCond159) V2 load(1, XDATA, add(CFA_XSP16, literal(-11)))
          CFI (cfiCond159) V3 load(1, XDATA, add(CFA_XSP16, literal(-10)))
          CFI (cfiCond159) V4 load(1, XDATA, add(CFA_XSP16, literal(-9)))
          CFI (cfiCond159) V5 load(1, XDATA, add(CFA_XSP16, literal(-8)))
          CFI (cfiCond159) V6 load(1, XDATA, add(CFA_XSP16, literal(-7)))
          CFI (cfiCond159) R7 load(1, XDATA, add(CFA_XSP16, literal(-6)))
          CFI (cfiCond159) ?RET_LOW load(1, XDATA, add(CFA_XSP16, literal(-5)))
          CFI (cfiCond159) ?RET_HIGH load(1, XDATA, add(CFA_XSP16, literal(-4)))
          CFI (cfiCond159) ?BRET_EXT load(1, XDATA, add(CFA_XSP16, literal(-3)))
          CFI (cfiCond159) DPL0 load(1, XDATA, add(CFA_XSP16, literal(-2)))
          CFI (cfiCond159) DPH0 load(1, XDATA, add(CFA_XSP16, literal(-1)))
          CFI (cfiCond159) CFA_SP SP+-2
          CFI (cfiCond159) CFA_XSP16 add(XSP16, 23)
          CFI Block cfiCond160 Using cfiCommon0
          CFI (cfiCond160) Function APSME_LinkKeySet
          CFI (cfiCond160) Conditional ??CrossCallReturnLabel_124
          CFI (cfiCond160) R6 load(1, XDATA, add(CFA_XSP16, literal(-15)))
          CFI (cfiCond160) VB load(1, XDATA, add(CFA_XSP16, literal(-14)))
          CFI (cfiCond160) V0 load(1, XDATA, add(CFA_XSP16, literal(-13)))
          CFI (cfiCond160) V1 load(1, XDATA, add(CFA_XSP16, literal(-12)))
          CFI (cfiCond160) V2 load(1, XDATA, add(CFA_XSP16, literal(-11)))
          CFI (cfiCond160) V3 load(1, XDATA, add(CFA_XSP16, literal(-10)))
          CFI (cfiCond160) V4 load(1, XDATA, add(CFA_XSP16, literal(-9)))
          CFI (cfiCond160) V5 load(1, XDATA, add(CFA_XSP16, literal(-8)))
          CFI (cfiCond160) V6 load(1, XDATA, add(CFA_XSP16, literal(-7)))
          CFI (cfiCond160) R7 load(1, XDATA, add(CFA_XSP16, literal(-6)))
          CFI (cfiCond160) ?RET_LOW load(1, XDATA, add(CFA_XSP16, literal(-5)))
          CFI (cfiCond160) ?RET_HIGH load(1, XDATA, add(CFA_XSP16, literal(-4)))
          CFI (cfiCond160) ?BRET_EXT load(1, XDATA, add(CFA_XSP16, literal(-3)))
          CFI (cfiCond160) DPL0 load(1, XDATA, add(CFA_XSP16, literal(-2)))
          CFI (cfiCond160) DPH0 load(1, XDATA, add(CFA_XSP16, literal(-1)))
          CFI (cfiCond160) CFA_SP SP+-2
          CFI (cfiCond160) CFA_XSP16 add(XSP16, 23)
          CFI Block cfiCond161 Using cfiCommon0
          CFI (cfiCond161) Function APSME_LinkKeyNVIdGet
          CFI (cfiCond161) Conditional ??CrossCallReturnLabel_125
          CFI (cfiCond161) R6 load(1, XDATA, add(CFA_XSP16, literal(-9)))
          CFI (cfiCond161) VB load(1, XDATA, add(CFA_XSP16, literal(-8)))
          CFI (cfiCond161) V0 load(1, XDATA, add(CFA_XSP16, literal(-7)))
          CFI (cfiCond161) R7 load(1, XDATA, add(CFA_XSP16, literal(-6)))
          CFI (cfiCond161) ?RET_LOW load(1, XDATA, add(CFA_XSP16, literal(-5)))
          CFI (cfiCond161) ?RET_HIGH load(1, XDATA, add(CFA_XSP16, literal(-4)))
          CFI (cfiCond161) ?BRET_EXT load(1, XDATA, add(CFA_XSP16, literal(-3)))
          CFI (cfiCond161) DPL0 load(1, XDATA, add(CFA_XSP16, literal(-2)))
          CFI (cfiCond161) DPH0 load(1, XDATA, add(CFA_XSP16, literal(-1)))
          CFI (cfiCond161) CFA_SP SP+-2
          CFI (cfiCond161) CFA_XSP16 add(XSP16, 11)
          CFI Block cfiPicker162 Using cfiCommon1
          CFI (cfiPicker162) NoFunction
          CFI (cfiPicker162) Picker
        INC     DPTR
        INC     DPTR
          CFI EndBlock cfiCond155
          CFI EndBlock cfiCond156
          CFI EndBlock cfiCond157
          CFI EndBlock cfiCond158
          CFI EndBlock cfiCond159
          CFI EndBlock cfiCond160
          CFI EndBlock cfiCond161
          CFI EndBlock cfiPicker162
        REQUIRE ??Subroutine62_0
        ; // Fall through to label ??Subroutine62_0

        RSEG BANKED_CODE:CODE:NOROOT(0)
??Subroutine62_0:
          CFI Block cfiCond163 Using cfiCommon0
          CFI Function ZDSecMgrEntryLookupExt
          CFI Conditional ??CrossCallReturnLabel_102
          CFI R6 load(1, XDATA, add(CFA_XSP16, literal(-9)))
          CFI VB load(1, XDATA, add(CFA_XSP16, literal(-8)))
          CFI V0 load(1, XDATA, add(CFA_XSP16, literal(-7)))
          CFI R7 load(1, XDATA, add(CFA_XSP16, literal(-6)))
          CFI ?RET_LOW load(1, XDATA, add(CFA_XSP16, literal(-5)))
          CFI ?RET_HIGH load(1, XDATA, add(CFA_XSP16, literal(-4)))
          CFI ?BRET_EXT load(1, XDATA, add(CFA_XSP16, literal(-3)))
          CFI DPL0 load(1, XDATA, add(CFA_XSP16, literal(-2)))
          CFI DPH0 load(1, XDATA, add(CFA_XSP16, literal(-1)))
          CFI CFA_SP SP+-2
          CFI CFA_XSP16 add(XSP16, 11)
          CFI Block cfiCond164 Using cfiCommon0
          CFI (cfiCond164) Function ZDSecMgrEntryFree
          CFI (cfiCond164) Conditional ??CrossCallReturnLabel_103
          CFI (cfiCond164) R6 load(1, XDATA, add(CFA_XSP16, literal(-16)))
          CFI (cfiCond164) VB load(1, XDATA, add(CFA_XSP16, literal(-15)))
          CFI (cfiCond164) V0 load(1, XDATA, add(CFA_XSP16, literal(-14)))
          CFI (cfiCond164) V1 load(1, XDATA, add(CFA_XSP16, literal(-13)))
          CFI (cfiCond164) V2 load(1, XDATA, add(CFA_XSP16, literal(-12)))
          CFI (cfiCond164) V3 load(1, XDATA, add(CFA_XSP16, literal(-11)))
          CFI (cfiCond164) V4 load(1, XDATA, add(CFA_XSP16, literal(-10)))
          CFI (cfiCond164) V5 load(1, XDATA, add(CFA_XSP16, literal(-9)))
          CFI (cfiCond164) V6 load(1, XDATA, add(CFA_XSP16, literal(-8)))
          CFI (cfiCond164) V7 load(1, XDATA, add(CFA_XSP16, literal(-7)))
          CFI (cfiCond164) R7 load(1, XDATA, add(CFA_XSP16, literal(-6)))
          CFI (cfiCond164) ?RET_LOW load(1, XDATA, add(CFA_XSP16, literal(-5)))
          CFI (cfiCond164) ?RET_HIGH load(1, XDATA, add(CFA_XSP16, literal(-4)))
          CFI (cfiCond164) ?BRET_EXT load(1, XDATA, add(CFA_XSP16, literal(-3)))
          CFI (cfiCond164) DPL0 load(1, XDATA, add(CFA_XSP16, literal(-2)))
          CFI (cfiCond164) DPH0 load(1, XDATA, add(CFA_XSP16, literal(-1)))
          CFI (cfiCond164) CFA_SP SP+-2
          CFI (cfiCond164) CFA_XSP16 add(XSP16, 20)
          CFI Block cfiCond165 Using cfiCommon0
          CFI (cfiCond165) Function ZDSecMgrEntryFree
          CFI (cfiCond165) Conditional ??CrossCallReturnLabel_104
          CFI (cfiCond165) R6 load(1, XDATA, add(CFA_XSP16, literal(-16)))
          CFI (cfiCond165) VB load(1, XDATA, add(CFA_XSP16, literal(-15)))
          CFI (cfiCond165) V0 load(1, XDATA, add(CFA_XSP16, literal(-14)))
          CFI (cfiCond165) V1 load(1, XDATA, add(CFA_XSP16, literal(-13)))
          CFI (cfiCond165) V2 load(1, XDATA, add(CFA_XSP16, literal(-12)))
          CFI (cfiCond165) V3 load(1, XDATA, add(CFA_XSP16, literal(-11)))
          CFI (cfiCond165) V4 load(1, XDATA, add(CFA_XSP16, literal(-10)))
          CFI (cfiCond165) V5 load(1, XDATA, add(CFA_XSP16, literal(-9)))
          CFI (cfiCond165) V6 load(1, XDATA, add(CFA_XSP16, literal(-8)))
          CFI (cfiCond165) V7 load(1, XDATA, add(CFA_XSP16, literal(-7)))
          CFI (cfiCond165) R7 load(1, XDATA, add(CFA_XSP16, literal(-6)))
          CFI (cfiCond165) ?RET_LOW load(1, XDATA, add(CFA_XSP16, literal(-5)))
          CFI (cfiCond165) ?RET_HIGH load(1, XDATA, add(CFA_XSP16, literal(-4)))
          CFI (cfiCond165) ?BRET_EXT load(1, XDATA, add(CFA_XSP16, literal(-3)))
          CFI (cfiCond165) DPL0 load(1, XDATA, add(CFA_XSP16, literal(-2)))
          CFI (cfiCond165) DPH0 load(1, XDATA, add(CFA_XSP16, literal(-1)))
          CFI (cfiCond165) CFA_SP SP+-2
          CFI (cfiCond165) CFA_XSP16 add(XSP16, 24)
          CFI Block cfiCond166 Using cfiCommon0
          CFI (cfiCond166) Function ZDSecMgrEntryFree
          CFI (cfiCond166) Conditional ??CrossCallReturnLabel_105
          CFI (cfiCond166) R6 load(1, XDATA, add(CFA_XSP16, literal(-16)))
          CFI (cfiCond166) VB load(1, XDATA, add(CFA_XSP16, literal(-15)))
          CFI (cfiCond166) V0 load(1, XDATA, add(CFA_XSP16, literal(-14)))
          CFI (cfiCond166) V1 load(1, XDATA, add(CFA_XSP16, literal(-13)))
          CFI (cfiCond166) V2 load(1, XDATA, add(CFA_XSP16, literal(-12)))
          CFI (cfiCond166) V3 load(1, XDATA, add(CFA_XSP16, literal(-11)))
          CFI (cfiCond166) V4 load(1, XDATA, add(CFA_XSP16, literal(-10)))
          CFI (cfiCond166) V5 load(1, XDATA, add(CFA_XSP16, literal(-9)))
          CFI (cfiCond166) V6 load(1, XDATA, add(CFA_XSP16, literal(-8)))
          CFI (cfiCond166) V7 load(1, XDATA, add(CFA_XSP16, literal(-7)))
          CFI (cfiCond166) R7 load(1, XDATA, add(CFA_XSP16, literal(-6)))
          CFI (cfiCond166) ?RET_LOW load(1, XDATA, add(CFA_XSP16, literal(-5)))
          CFI (cfiCond166) ?RET_HIGH load(1, XDATA, add(CFA_XSP16, literal(-4)))
          CFI (cfiCond166) ?BRET_EXT load(1, XDATA, add(CFA_XSP16, literal(-3)))
          CFI (cfiCond166) DPL0 load(1, XDATA, add(CFA_XSP16, literal(-2)))
          CFI (cfiCond166) DPH0 load(1, XDATA, add(CFA_XSP16, literal(-1)))
          CFI (cfiCond166) CFA_SP SP+-2
          CFI (cfiCond166) CFA_XSP16 add(XSP16, 20)
          CFI Block cfiCond167 Using cfiCommon0
          CFI (cfiCond167) Function ZDSecMgrAppKeyGet
          CFI (cfiCond167) Conditional ??CrossCallReturnLabel_106
          CFI (cfiCond167) DPL0 Frame(CFA_SP, 4)
          CFI (cfiCond167) DPH0 Frame(CFA_SP, 5)
          CFI (cfiCond167) CFA_SP SP+-7
          CFI Block cfiCond168 Using cfiCommon0
          CFI (cfiCond168) Function ZDSecMgrAppKeyReq
          CFI (cfiCond168) Conditional ??CrossCallReturnLabel_107
          CFI (cfiCond168) R6 load(1, XDATA, add(CFA_XSP16, literal(-12)))
          CFI (cfiCond168) VB load(1, XDATA, add(CFA_XSP16, literal(-11)))
          CFI (cfiCond168) V0 load(1, XDATA, add(CFA_XSP16, literal(-10)))
          CFI (cfiCond168) V1 load(1, XDATA, add(CFA_XSP16, literal(-9)))
          CFI (cfiCond168) V2 load(1, XDATA, add(CFA_XSP16, literal(-8)))
          CFI (cfiCond168) V3 load(1, XDATA, add(CFA_XSP16, literal(-7)))
          CFI (cfiCond168) R7 load(1, XDATA, add(CFA_XSP16, literal(-6)))
          CFI (cfiCond168) ?RET_LOW load(1, XDATA, add(CFA_XSP16, literal(-5)))
          CFI (cfiCond168) ?RET_HIGH load(1, XDATA, add(CFA_XSP16, literal(-4)))
          CFI (cfiCond168) ?BRET_EXT load(1, XDATA, add(CFA_XSP16, literal(-3)))
          CFI (cfiCond168) DPL0 load(1, XDATA, add(CFA_XSP16, literal(-2)))
          CFI (cfiCond168) DPH0 load(1, XDATA, add(CFA_XSP16, literal(-1)))
          CFI (cfiCond168) CFA_SP SP+-2
          CFI (cfiCond168) CFA_XSP16 add(XSP16, 51)
          CFI Block cfiCond169 Using cfiCommon0
          CFI (cfiCond169) Function ZDSecMgrAppKeyReq
          CFI (cfiCond169) Conditional ??CrossCallReturnLabel_108
          CFI (cfiCond169) R6 load(1, XDATA, add(CFA_XSP16, literal(-12)))
          CFI (cfiCond169) VB load(1, XDATA, add(CFA_XSP16, literal(-11)))
          CFI (cfiCond169) V0 load(1, XDATA, add(CFA_XSP16, literal(-10)))
          CFI (cfiCond169) V1 load(1, XDATA, add(CFA_XSP16, literal(-9)))
          CFI (cfiCond169) V2 load(1, XDATA, add(CFA_XSP16, literal(-8)))
          CFI (cfiCond169) V3 load(1, XDATA, add(CFA_XSP16, literal(-7)))
          CFI (cfiCond169) R7 load(1, XDATA, add(CFA_XSP16, literal(-6)))
          CFI (cfiCond169) ?RET_LOW load(1, XDATA, add(CFA_XSP16, literal(-5)))
          CFI (cfiCond169) ?RET_HIGH load(1, XDATA, add(CFA_XSP16, literal(-4)))
          CFI (cfiCond169) ?BRET_EXT load(1, XDATA, add(CFA_XSP16, literal(-3)))
          CFI (cfiCond169) DPL0 load(1, XDATA, add(CFA_XSP16, literal(-2)))
          CFI (cfiCond169) DPH0 load(1, XDATA, add(CFA_XSP16, literal(-1)))
          CFI (cfiCond169) CFA_SP SP+-2
          CFI (cfiCond169) CFA_XSP16 add(XSP16, 59)
          CFI Block cfiCond170 Using cfiCommon0
          CFI (cfiCond170) Function ZDSecMgrTclkReq
          CFI (cfiCond170) Conditional ??CrossCallReturnLabel_109
          CFI (cfiCond170) R6 load(1, XDATA, add(CFA_XSP16, literal(-10)))
          CFI (cfiCond170) VB load(1, XDATA, add(CFA_XSP16, literal(-9)))
          CFI (cfiCond170) V0 load(1, XDATA, add(CFA_XSP16, literal(-8)))
          CFI (cfiCond170) V1 load(1, XDATA, add(CFA_XSP16, literal(-7)))
          CFI (cfiCond170) R7 load(1, XDATA, add(CFA_XSP16, literal(-6)))
          CFI (cfiCond170) ?RET_LOW load(1, XDATA, add(CFA_XSP16, literal(-5)))
          CFI (cfiCond170) ?RET_HIGH load(1, XDATA, add(CFA_XSP16, literal(-4)))
          CFI (cfiCond170) ?BRET_EXT load(1, XDATA, add(CFA_XSP16, literal(-3)))
          CFI (cfiCond170) DPL0 load(1, XDATA, add(CFA_XSP16, literal(-2)))
          CFI (cfiCond170) DPH0 load(1, XDATA, add(CFA_XSP16, literal(-1)))
          CFI (cfiCond170) CFA_SP SP+-2
          CFI (cfiCond170) CFA_XSP16 add(XSP16, 69)
          CFI Block cfiCond171 Using cfiCommon0
          CFI (cfiCond171) Function ZDSecMgrDeviceRemoveByExtAddr
          CFI (cfiCond171) Conditional ??CrossCallReturnLabel_110
          CFI (cfiCond171) R6 load(1, XDATA, add(CFA_XSP16, literal(-9)))
          CFI (cfiCond171) VB load(1, XDATA, add(CFA_XSP16, literal(-8)))
          CFI (cfiCond171) V0 load(1, XDATA, add(CFA_XSP16, literal(-7)))
          CFI (cfiCond171) R7 load(1, XDATA, add(CFA_XSP16, literal(-6)))
          CFI (cfiCond171) ?RET_LOW load(1, XDATA, add(CFA_XSP16, literal(-5)))
          CFI (cfiCond171) ?RET_HIGH load(1, XDATA, add(CFA_XSP16, literal(-4)))
          CFI (cfiCond171) ?BRET_EXT load(1, XDATA, add(CFA_XSP16, literal(-3)))
          CFI (cfiCond171) DPL0 load(1, XDATA, add(CFA_XSP16, literal(-2)))
          CFI (cfiCond171) DPH0 load(1, XDATA, add(CFA_XSP16, literal(-1)))
          CFI (cfiCond171) CFA_SP SP+-2
          CFI (cfiCond171) CFA_XSP16 add(XSP16, 11)
          CFI Block cfiCond172 Using cfiCommon0
          CFI (cfiCond172) Function ZDSecMgrDeviceRemove
          CFI (cfiCond172) Conditional ??CrossCallReturnLabel_111
          CFI (cfiCond172) R6 load(1, XDATA, add(CFA_XSP16, literal(-10)))
          CFI (cfiCond172) VB load(1, XDATA, add(CFA_XSP16, literal(-9)))
          CFI (cfiCond172) V0 load(1, XDATA, add(CFA_XSP16, literal(-8)))
          CFI (cfiCond172) V1 load(1, XDATA, add(CFA_XSP16, literal(-7)))
          CFI (cfiCond172) R7 load(1, XDATA, add(CFA_XSP16, literal(-6)))
          CFI (cfiCond172) ?RET_LOW load(1, XDATA, add(CFA_XSP16, literal(-5)))
          CFI (cfiCond172) ?RET_HIGH load(1, XDATA, add(CFA_XSP16, literal(-4)))
          CFI (cfiCond172) ?BRET_EXT load(1, XDATA, add(CFA_XSP16, literal(-3)))
          CFI (cfiCond172) DPL0 load(1, XDATA, add(CFA_XSP16, literal(-2)))
          CFI (cfiCond172) DPH0 load(1, XDATA, add(CFA_XSP16, literal(-1)))
          CFI (cfiCond172) CFA_SP SP+-2
          CFI (cfiCond172) CFA_XSP16 add(XSP16, 29)
          CFI Block cfiCond173 Using cfiCommon0
          CFI (cfiCond173) Function ZDSecMgrDeviceRemove
          CFI (cfiCond173) Conditional ??CrossCallReturnLabel_112
          CFI (cfiCond173) R6 load(1, XDATA, add(CFA_XSP16, literal(-10)))
          CFI (cfiCond173) VB load(1, XDATA, add(CFA_XSP16, literal(-9)))
          CFI (cfiCond173) V0 load(1, XDATA, add(CFA_XSP16, literal(-8)))
          CFI (cfiCond173) V1 load(1, XDATA, add(CFA_XSP16, literal(-7)))
          CFI (cfiCond173) R7 load(1, XDATA, add(CFA_XSP16, literal(-6)))
          CFI (cfiCond173) ?RET_LOW load(1, XDATA, add(CFA_XSP16, literal(-5)))
          CFI (cfiCond173) ?RET_HIGH load(1, XDATA, add(CFA_XSP16, literal(-4)))
          CFI (cfiCond173) ?BRET_EXT load(1, XDATA, add(CFA_XSP16, literal(-3)))
          CFI (cfiCond173) DPL0 load(1, XDATA, add(CFA_XSP16, literal(-2)))
          CFI (cfiCond173) DPH0 load(1, XDATA, add(CFA_XSP16, literal(-1)))
          CFI (cfiCond173) CFA_SP SP+-2
          CFI (cfiCond173) CFA_XSP16 add(XSP16, 29)
          CFI Block cfiCond174 Using cfiCommon0
          CFI (cfiCond174) Function ZDSecMgrDeviceJoin
          CFI (cfiCond174) Conditional ??CrossCallReturnLabel_113
          CFI (cfiCond174) R6 load(1, XDATA, add(CFA_XSP16, literal(-16)))
          CFI (cfiCond174) VB load(1, XDATA, add(CFA_XSP16, literal(-15)))
          CFI (cfiCond174) V0 load(1, XDATA, add(CFA_XSP16, literal(-14)))
          CFI (cfiCond174) V1 load(1, XDATA, add(CFA_XSP16, literal(-13)))
          CFI (cfiCond174) V2 load(1, XDATA, add(CFA_XSP16, literal(-12)))
          CFI (cfiCond174) V3 load(1, XDATA, add(CFA_XSP16, literal(-11)))
          CFI (cfiCond174) V4 load(1, XDATA, add(CFA_XSP16, literal(-10)))
          CFI (cfiCond174) V5 load(1, XDATA, add(CFA_XSP16, literal(-9)))
          CFI (cfiCond174) V6 load(1, XDATA, add(CFA_XSP16, literal(-8)))
          CFI (cfiCond174) V7 load(1, XDATA, add(CFA_XSP16, literal(-7)))
          CFI (cfiCond174) R7 load(1, XDATA, add(CFA_XSP16, literal(-6)))
          CFI (cfiCond174) ?RET_LOW load(1, XDATA, add(CFA_XSP16, literal(-5)))
          CFI (cfiCond174) ?RET_HIGH load(1, XDATA, add(CFA_XSP16, literal(-4)))
          CFI (cfiCond174) ?BRET_EXT load(1, XDATA, add(CFA_XSP16, literal(-3)))
          CFI (cfiCond174) DPL0 load(1, XDATA, add(CFA_XSP16, literal(-2)))
          CFI (cfiCond174) DPH0 load(1, XDATA, add(CFA_XSP16, literal(-1)))
          CFI (cfiCond174) CFA_SP SP+-2
          CFI (cfiCond174) CFA_XSP16 add(XSP16, 32)
          CFI Block cfiCond175 Using cfiCommon0
          CFI (cfiCond175) Function ZDSecMgrDeviceJoin
          CFI (cfiCond175) Conditional ??CrossCallReturnLabel_114
          CFI (cfiCond175) R6 load(1, XDATA, add(CFA_XSP16, literal(-16)))
          CFI (cfiCond175) VB load(1, XDATA, add(CFA_XSP16, literal(-15)))
          CFI (cfiCond175) V0 load(1, XDATA, add(CFA_XSP16, literal(-14)))
          CFI (cfiCond175) V1 load(1, XDATA, add(CFA_XSP16, literal(-13)))
          CFI (cfiCond175) V2 load(1, XDATA, add(CFA_XSP16, literal(-12)))
          CFI (cfiCond175) V3 load(1, XDATA, add(CFA_XSP16, literal(-11)))
          CFI (cfiCond175) V4 load(1, XDATA, add(CFA_XSP16, literal(-10)))
          CFI (cfiCond175) V5 load(1, XDATA, add(CFA_XSP16, literal(-9)))
          CFI (cfiCond175) V6 load(1, XDATA, add(CFA_XSP16, literal(-8)))
          CFI (cfiCond175) V7 load(1, XDATA, add(CFA_XSP16, literal(-7)))
          CFI (cfiCond175) R7 load(1, XDATA, add(CFA_XSP16, literal(-6)))
          CFI (cfiCond175) ?RET_LOW load(1, XDATA, add(CFA_XSP16, literal(-5)))
          CFI (cfiCond175) ?RET_HIGH load(1, XDATA, add(CFA_XSP16, literal(-4)))
          CFI (cfiCond175) ?BRET_EXT load(1, XDATA, add(CFA_XSP16, literal(-3)))
          CFI (cfiCond175) DPL0 load(1, XDATA, add(CFA_XSP16, literal(-2)))
          CFI (cfiCond175) DPH0 load(1, XDATA, add(CFA_XSP16, literal(-1)))
          CFI (cfiCond175) CFA_SP SP+-2
          CFI (cfiCond175) CFA_XSP16 add(XSP16, 30)
          CFI Block cfiCond176 Using cfiCommon0
          CFI (cfiCond176) Function ZDSecMgrDeviceJoinDirect
          CFI (cfiCond176) Conditional ??CrossCallReturnLabel_115
          CFI (cfiCond176) R6 load(1, XDATA, add(CFA_XSP16, literal(-12)))
          CFI (cfiCond176) VB load(1, XDATA, add(CFA_XSP16, literal(-11)))
          CFI (cfiCond176) V0 load(1, XDATA, add(CFA_XSP16, literal(-10)))
          CFI (cfiCond176) V1 load(1, XDATA, add(CFA_XSP16, literal(-9)))
          CFI (cfiCond176) V2 load(1, XDATA, add(CFA_XSP16, literal(-8)))
          CFI (cfiCond176) V3 load(1, XDATA, add(CFA_XSP16, literal(-7)))
          CFI (cfiCond176) R7 load(1, XDATA, add(CFA_XSP16, literal(-6)))
          CFI (cfiCond176) ?RET_LOW load(1, XDATA, add(CFA_XSP16, literal(-5)))
          CFI (cfiCond176) ?RET_HIGH load(1, XDATA, add(CFA_XSP16, literal(-4)))
          CFI (cfiCond176) ?BRET_EXT load(1, XDATA, add(CFA_XSP16, literal(-3)))
          CFI (cfiCond176) DPL0 load(1, XDATA, add(CFA_XSP16, literal(-2)))
          CFI (cfiCond176) DPH0 load(1, XDATA, add(CFA_XSP16, literal(-1)))
          CFI (cfiCond176) CFA_SP SP+-2
          CFI (cfiCond176) CFA_XSP16 add(XSP16, 32)
          CFI Block cfiCond177 Using cfiCommon0
          CFI (cfiCond177) Function ZDSecMgrTransportKeyInd
          CFI (cfiCond177) Conditional ??CrossCallReturnLabel_116
          CFI (cfiCond177) R6 load(1, XDATA, add(CFA_XSP16, literal(-14)))
          CFI (cfiCond177) VB load(1, XDATA, add(CFA_XSP16, literal(-13)))
          CFI (cfiCond177) V0 load(1, XDATA, add(CFA_XSP16, literal(-12)))
          CFI (cfiCond177) V1 load(1, XDATA, add(CFA_XSP16, literal(-11)))
          CFI (cfiCond177) V2 load(1, XDATA, add(CFA_XSP16, literal(-10)))
          CFI (cfiCond177) V3 load(1, XDATA, add(CFA_XSP16, literal(-9)))
          CFI (cfiCond177) V4 load(1, XDATA, add(CFA_XSP16, literal(-8)))
          CFI (cfiCond177) V5 load(1, XDATA, add(CFA_XSP16, literal(-7)))
          CFI (cfiCond177) R7 load(1, XDATA, add(CFA_XSP16, literal(-6)))
          CFI (cfiCond177) ?RET_LOW load(1, XDATA, add(CFA_XSP16, literal(-5)))
          CFI (cfiCond177) ?RET_HIGH load(1, XDATA, add(CFA_XSP16, literal(-4)))
          CFI (cfiCond177) ?BRET_EXT load(1, XDATA, add(CFA_XSP16, literal(-3)))
          CFI (cfiCond177) DPL0 load(1, XDATA, add(CFA_XSP16, literal(-2)))
          CFI (cfiCond177) DPH0 load(1, XDATA, add(CFA_XSP16, literal(-1)))
          CFI (cfiCond177) CFA_SP SP+-2
          CFI (cfiCond177) CFA_XSP16 add(XSP16, 54)
          CFI Block cfiCond178 Using cfiCommon0
          CFI (cfiCond178) Function APSME_IsLinkKeyValid
          CFI (cfiCond178) Conditional ??CrossCallReturnLabel_117
          CFI (cfiCond178) R6 load(1, XDATA, add(CFA_XSP16, literal(-15)))
          CFI (cfiCond178) VB load(1, XDATA, add(CFA_XSP16, literal(-14)))
          CFI (cfiCond178) V0 load(1, XDATA, add(CFA_XSP16, literal(-13)))
          CFI (cfiCond178) V1 load(1, XDATA, add(CFA_XSP16, literal(-12)))
          CFI (cfiCond178) V2 load(1, XDATA, add(CFA_XSP16, literal(-11)))
          CFI (cfiCond178) V3 load(1, XDATA, add(CFA_XSP16, literal(-10)))
          CFI (cfiCond178) V4 load(1, XDATA, add(CFA_XSP16, literal(-9)))
          CFI (cfiCond178) V5 load(1, XDATA, add(CFA_XSP16, literal(-8)))
          CFI (cfiCond178) V6 load(1, XDATA, add(CFA_XSP16, literal(-7)))
          CFI (cfiCond178) R7 load(1, XDATA, add(CFA_XSP16, literal(-6)))
          CFI (cfiCond178) ?RET_LOW load(1, XDATA, add(CFA_XSP16, literal(-5)))
          CFI (cfiCond178) ?RET_HIGH load(1, XDATA, add(CFA_XSP16, literal(-4)))
          CFI (cfiCond178) ?BRET_EXT load(1, XDATA, add(CFA_XSP16, literal(-3)))
          CFI (cfiCond178) DPL0 load(1, XDATA, add(CFA_XSP16, literal(-2)))
          CFI (cfiCond178) DPH0 load(1, XDATA, add(CFA_XSP16, literal(-1)))
          CFI (cfiCond178) CFA_SP SP+-2
          CFI (cfiCond178) CFA_XSP16 add(XSP16, 37)
          CFI Block cfiCond179 Using cfiCommon0
          CFI (cfiCond179) Function ZDSecMgrAddLinkKey
          CFI (cfiCond179) Conditional ??CrossCallReturnLabel_118
          CFI (cfiCond179) R6 load(1, XDATA, add(CFA_XSP16, literal(-10)))
          CFI (cfiCond179) VB load(1, XDATA, add(CFA_XSP16, literal(-9)))
          CFI (cfiCond179) V0 load(1, XDATA, add(CFA_XSP16, literal(-8)))
          CFI (cfiCond179) V1 load(1, XDATA, add(CFA_XSP16, literal(-7)))
          CFI (cfiCond179) R7 load(1, XDATA, add(CFA_XSP16, literal(-6)))
          CFI (cfiCond179) ?RET_LOW load(1, XDATA, add(CFA_XSP16, literal(-5)))
          CFI (cfiCond179) ?RET_HIGH load(1, XDATA, add(CFA_XSP16, literal(-4)))
          CFI (cfiCond179) ?BRET_EXT load(1, XDATA, add(CFA_XSP16, literal(-3)))
          CFI (cfiCond179) DPL0 load(1, XDATA, add(CFA_XSP16, literal(-2)))
          CFI (cfiCond179) DPH0 load(1, XDATA, add(CFA_XSP16, literal(-1)))
          CFI (cfiCond179) CFA_SP SP+-2
          CFI (cfiCond179) CFA_XSP16 add(XSP16, 14)
          CFI Block cfiCond180 Using cfiCommon0
          CFI (cfiCond180) Function ZDSecMgrDeviceRemove
          CFI (cfiCond180) Conditional ??CrossCallReturnLabel_119
          CFI (cfiCond180) R6 load(1, XDATA, add(CFA_XSP16, literal(-10)))
          CFI (cfiCond180) VB load(1, XDATA, add(CFA_XSP16, literal(-9)))
          CFI (cfiCond180) V0 load(1, XDATA, add(CFA_XSP16, literal(-8)))
          CFI (cfiCond180) V1 load(1, XDATA, add(CFA_XSP16, literal(-7)))
          CFI (cfiCond180) R7 load(1, XDATA, add(CFA_XSP16, literal(-6)))
          CFI (cfiCond180) ?RET_LOW load(1, XDATA, add(CFA_XSP16, literal(-5)))
          CFI (cfiCond180) ?RET_HIGH load(1, XDATA, add(CFA_XSP16, literal(-4)))
          CFI (cfiCond180) ?BRET_EXT load(1, XDATA, add(CFA_XSP16, literal(-3)))
          CFI (cfiCond180) DPL0 load(1, XDATA, add(CFA_XSP16, literal(-2)))
          CFI (cfiCond180) DPH0 load(1, XDATA, add(CFA_XSP16, literal(-1)))
          CFI (cfiCond180) CFA_SP SP+-2
          CFI (cfiCond180) CFA_XSP16 add(XSP16, 29)
          CFI Block cfiCond181 Using cfiCommon0
          CFI (cfiCond181) Function ZDSecMgrDeviceJoinDirect
          CFI (cfiCond181) Conditional ??CrossCallReturnLabel_120
          CFI (cfiCond181) R6 load(1, XDATA, add(CFA_XSP16, literal(-12)))
          CFI (cfiCond181) VB load(1, XDATA, add(CFA_XSP16, literal(-11)))
          CFI (cfiCond181) V0 load(1, XDATA, add(CFA_XSP16, literal(-10)))
          CFI (cfiCond181) V1 load(1, XDATA, add(CFA_XSP16, literal(-9)))
          CFI (cfiCond181) V2 load(1, XDATA, add(CFA_XSP16, literal(-8)))
          CFI (cfiCond181) V3 load(1, XDATA, add(CFA_XSP16, literal(-7)))
          CFI (cfiCond181) R7 load(1, XDATA, add(CFA_XSP16, literal(-6)))
          CFI (cfiCond181) ?RET_LOW load(1, XDATA, add(CFA_XSP16, literal(-5)))
          CFI (cfiCond181) ?RET_HIGH load(1, XDATA, add(CFA_XSP16, literal(-4)))
          CFI (cfiCond181) ?BRET_EXT load(1, XDATA, add(CFA_XSP16, literal(-3)))
          CFI (cfiCond181) DPL0 load(1, XDATA, add(CFA_XSP16, literal(-2)))
          CFI (cfiCond181) DPH0 load(1, XDATA, add(CFA_XSP16, literal(-1)))
          CFI (cfiCond181) CFA_SP SP+-2
          CFI (cfiCond181) CFA_XSP16 add(XSP16, 34)
          CFI Block cfiCond182 Using cfiCommon0
          CFI (cfiCond182) Function APSME_KeyFwdToChild
          CFI (cfiCond182) Conditional ??CrossCallReturnLabel_121
          CFI (cfiCond182) R6 load(1, XDATA, add(CFA_XSP16, literal(-10)))
          CFI (cfiCond182) VB load(1, XDATA, add(CFA_XSP16, literal(-9)))
          CFI (cfiCond182) V0 load(1, XDATA, add(CFA_XSP16, literal(-8)))
          CFI (cfiCond182) V1 load(1, XDATA, add(CFA_XSP16, literal(-7)))
          CFI (cfiCond182) R7 load(1, XDATA, add(CFA_XSP16, literal(-6)))
          CFI (cfiCond182) ?RET_LOW load(1, XDATA, add(CFA_XSP16, literal(-5)))
          CFI (cfiCond182) ?RET_HIGH load(1, XDATA, add(CFA_XSP16, literal(-4)))
          CFI (cfiCond182) ?BRET_EXT load(1, XDATA, add(CFA_XSP16, literal(-3)))
          CFI (cfiCond182) DPL0 load(1, XDATA, add(CFA_XSP16, literal(-2)))
          CFI (cfiCond182) DPH0 load(1, XDATA, add(CFA_XSP16, literal(-1)))
          CFI (cfiCond182) CFA_SP SP+-2
          CFI (cfiCond182) CFA_XSP16 add(XSP16, 10)
          CFI Block cfiCond183 Using cfiCommon0
          CFI (cfiCond183) Function ZDSecMgrRestoreFromNV
          CFI (cfiCond183) Conditional ??CrossCallReturnLabel_122
          CFI (cfiCond183) R6 load(1, XDATA, add(CFA_XSP16, literal(-18)))
          CFI (cfiCond183) VB load(1, XDATA, add(CFA_XSP16, literal(-17)))
          CFI (cfiCond183) V0 load(1, XDATA, add(CFA_XSP16, literal(-16)))
          CFI (cfiCond183) V1 load(1, XDATA, add(CFA_XSP16, literal(-15)))
          CFI (cfiCond183) V2 load(1, XDATA, add(CFA_XSP16, literal(-14)))
          CFI (cfiCond183) V3 load(1, XDATA, add(CFA_XSP16, literal(-13)))
          CFI (cfiCond183) V4 load(1, XDATA, add(CFA_XSP16, literal(-12)))
          CFI (cfiCond183) V5 load(1, XDATA, add(CFA_XSP16, literal(-11)))
          CFI (cfiCond183) V6 load(1, XDATA, add(CFA_XSP16, literal(-10)))
          CFI (cfiCond183) V7 load(1, XDATA, add(CFA_XSP16, literal(-9)))
          CFI (cfiCond183) V8 load(1, XDATA, add(CFA_XSP16, literal(-8)))
          CFI (cfiCond183) V9 load(1, XDATA, add(CFA_XSP16, literal(-7)))
          CFI (cfiCond183) R7 load(1, XDATA, add(CFA_XSP16, literal(-6)))
          CFI (cfiCond183) ?RET_LOW load(1, XDATA, add(CFA_XSP16, literal(-5)))
          CFI (cfiCond183) ?RET_HIGH load(1, XDATA, add(CFA_XSP16, literal(-4)))
          CFI (cfiCond183) ?BRET_EXT load(1, XDATA, add(CFA_XSP16, literal(-3)))
          CFI (cfiCond183) DPL0 load(1, XDATA, add(CFA_XSP16, literal(-2)))
          CFI (cfiCond183) DPH0 load(1, XDATA, add(CFA_XSP16, literal(-1)))
          CFI (cfiCond183) CFA_SP SP+-2
          CFI (cfiCond183) CFA_XSP16 add(XSP16, 24)
          CFI Block cfiCond184 Using cfiCommon0
          CFI (cfiCond184) Function APSME_LinkKeySet
          CFI (cfiCond184) Conditional ??CrossCallReturnLabel_123
          CFI (cfiCond184) R6 load(1, XDATA, add(CFA_XSP16, literal(-15)))
          CFI (cfiCond184) VB load(1, XDATA, add(CFA_XSP16, literal(-14)))
          CFI (cfiCond184) V0 load(1, XDATA, add(CFA_XSP16, literal(-13)))
          CFI (cfiCond184) V1 load(1, XDATA, add(CFA_XSP16, literal(-12)))
          CFI (cfiCond184) V2 load(1, XDATA, add(CFA_XSP16, literal(-11)))
          CFI (cfiCond184) V3 load(1, XDATA, add(CFA_XSP16, literal(-10)))
          CFI (cfiCond184) V4 load(1, XDATA, add(CFA_XSP16, literal(-9)))
          CFI (cfiCond184) V5 load(1, XDATA, add(CFA_XSP16, literal(-8)))
          CFI (cfiCond184) V6 load(1, XDATA, add(CFA_XSP16, literal(-7)))
          CFI (cfiCond184) R7 load(1, XDATA, add(CFA_XSP16, literal(-6)))
          CFI (cfiCond184) ?RET_LOW load(1, XDATA, add(CFA_XSP16, literal(-5)))
          CFI (cfiCond184) ?RET_HIGH load(1, XDATA, add(CFA_XSP16, literal(-4)))
          CFI (cfiCond184) ?BRET_EXT load(1, XDATA, add(CFA_XSP16, literal(-3)))
          CFI (cfiCond184) DPL0 load(1, XDATA, add(CFA_XSP16, literal(-2)))
          CFI (cfiCond184) DPH0 load(1, XDATA, add(CFA_XSP16, literal(-1)))
          CFI (cfiCond184) CFA_SP SP+-2
          CFI (cfiCond184) CFA_XSP16 add(XSP16, 23)
          CFI Block cfiCond185 Using cfiCommon0
          CFI (cfiCond185) Function APSME_LinkKeySet
          CFI (cfiCond185) Conditional ??CrossCallReturnLabel_124
          CFI (cfiCond185) R6 load(1, XDATA, add(CFA_XSP16, literal(-15)))
          CFI (cfiCond185) VB load(1, XDATA, add(CFA_XSP16, literal(-14)))
          CFI (cfiCond185) V0 load(1, XDATA, add(CFA_XSP16, literal(-13)))
          CFI (cfiCond185) V1 load(1, XDATA, add(CFA_XSP16, literal(-12)))
          CFI (cfiCond185) V2 load(1, XDATA, add(CFA_XSP16, literal(-11)))
          CFI (cfiCond185) V3 load(1, XDATA, add(CFA_XSP16, literal(-10)))
          CFI (cfiCond185) V4 load(1, XDATA, add(CFA_XSP16, literal(-9)))
          CFI (cfiCond185) V5 load(1, XDATA, add(CFA_XSP16, literal(-8)))
          CFI (cfiCond185) V6 load(1, XDATA, add(CFA_XSP16, literal(-7)))
          CFI (cfiCond185) R7 load(1, XDATA, add(CFA_XSP16, literal(-6)))
          CFI (cfiCond185) ?RET_LOW load(1, XDATA, add(CFA_XSP16, literal(-5)))
          CFI (cfiCond185) ?RET_HIGH load(1, XDATA, add(CFA_XSP16, literal(-4)))
          CFI (cfiCond185) ?BRET_EXT load(1, XDATA, add(CFA_XSP16, literal(-3)))
          CFI (cfiCond185) DPL0 load(1, XDATA, add(CFA_XSP16, literal(-2)))
          CFI (cfiCond185) DPH0 load(1, XDATA, add(CFA_XSP16, literal(-1)))
          CFI (cfiCond185) CFA_SP SP+-2
          CFI (cfiCond185) CFA_XSP16 add(XSP16, 23)
          CFI Block cfiCond186 Using cfiCommon0
          CFI (cfiCond186) Function APSME_LinkKeyNVIdGet
          CFI (cfiCond186) Conditional ??CrossCallReturnLabel_125
          CFI (cfiCond186) R6 load(1, XDATA, add(CFA_XSP16, literal(-9)))
          CFI (cfiCond186) VB load(1, XDATA, add(CFA_XSP16, literal(-8)))
          CFI (cfiCond186) V0 load(1, XDATA, add(CFA_XSP16, literal(-7)))
          CFI (cfiCond186) R7 load(1, XDATA, add(CFA_XSP16, literal(-6)))
          CFI (cfiCond186) ?RET_LOW load(1, XDATA, add(CFA_XSP16, literal(-5)))
          CFI (cfiCond186) ?RET_HIGH load(1, XDATA, add(CFA_XSP16, literal(-4)))
          CFI (cfiCond186) ?BRET_EXT load(1, XDATA, add(CFA_XSP16, literal(-3)))
          CFI (cfiCond186) DPL0 load(1, XDATA, add(CFA_XSP16, literal(-2)))
          CFI (cfiCond186) DPH0 load(1, XDATA, add(CFA_XSP16, literal(-1)))
          CFI (cfiCond186) CFA_SP SP+-2
          CFI (cfiCond186) CFA_XSP16 add(XSP16, 11)
          CFI Block cfiPicker187 Using cfiCommon1
          CFI (cfiPicker187) NoFunction
          CFI (cfiPicker187) Picker
        MOVX    A,@DPTR
        MOV     R2,A
        INC     DPTR
        MOVX    A,@DPTR
        MOV     R3,A
        RET
          CFI EndBlock cfiCond163
          CFI EndBlock cfiCond164
          CFI EndBlock cfiCond165
          CFI EndBlock cfiCond166
          CFI EndBlock cfiCond167
          CFI EndBlock cfiCond168
          CFI EndBlock cfiCond169
          CFI EndBlock cfiCond170
          CFI EndBlock cfiCond171
          CFI EndBlock cfiCond172
          CFI EndBlock cfiCond173
          CFI EndBlock cfiCond174
          CFI EndBlock cfiCond175
          CFI EndBlock cfiCond176
          CFI EndBlock cfiCond177
          CFI EndBlock cfiCond178
          CFI EndBlock cfiCond179
          CFI EndBlock cfiCond180
          CFI EndBlock cfiCond181
          CFI EndBlock cfiCond182
          CFI EndBlock cfiCond183
          CFI EndBlock cfiCond184
          CFI EndBlock cfiCond185
          CFI EndBlock cfiCond186
          CFI EndBlock cfiPicker187
// 1337 
// 1338 /******************************************************************************
// 1339  * @fn          ZDSecMgrDeviceJoinFwd
// 1340  *
// 1341  * @brief       Forward join to Trust Center.
// 1342  *
// 1343  * @param       device - [in] ZDSecMgrDevice_t, device info
// 1344  *
// 1345  * @return      ZStatus_t
// 1346  */

        RSEG BANKED_CODE:CODE:NOROOT(0)
// 1347 ZStatus_t ZDSecMgrDeviceJoinFwd( ZDSecMgrDevice_t* device )
ZDSecMgrDeviceJoinFwd:
          CFI Block cfiBlock188 Using cfiCommon0
          CFI Function ZDSecMgrDeviceJoinFwd
        CODE
// 1348 {
        FUNCALL ZDSecMgrDeviceJoinFwd, AssocGetWithShort
        LOCFRAME ISTACK, 0, STACK
        LOCFRAME PSTACK, 0, STACK
        LOCFRAME XSTACK, 27, STACK
        LOCFRAME IOVERLAY, 0, STATIC
        LOCFRAME DOVERLAY, 0, STATIC
        ARGFRAME ISTACK, 0, STACK
        ARGFRAME PSTACK, 0, STACK
        ARGFRAME XSTACK, 27, STACK
        ARGFRAME IOVERLAY, 0, STATIC
        ARGFRAME DOVERLAY, 0, STATIC
        FUNCALL ZDSecMgrDeviceJoinFwd, ZDSecMgrAssocDeviceAuth
        LOCFRAME ISTACK, 0, STACK
        LOCFRAME PSTACK, 0, STACK
        LOCFRAME XSTACK, 27, STACK
        LOCFRAME IOVERLAY, 0, STATIC
        LOCFRAME DOVERLAY, 0, STATIC
        ARGFRAME ISTACK, 0, STACK
        ARGFRAME PSTACK, 0, STACK
        ARGFRAME XSTACK, 27, STACK
        ARGFRAME IOVERLAY, 0, STATIC
        ARGFRAME DOVERLAY, 0, STATIC
        FUNCALL ZDSecMgrDeviceJoinFwd, APSME_GetRequest
        LOCFRAME ISTACK, 0, STACK
        LOCFRAME PSTACK, 0, STACK
        LOCFRAME XSTACK, 27, STACK
        LOCFRAME IOVERLAY, 0, STATIC
        LOCFRAME DOVERLAY, 0, STATIC
        ARGFRAME ISTACK, 0, STACK
        ARGFRAME PSTACK, 0, STACK
        ARGFRAME XSTACK, 27, STACK
        ARGFRAME IOVERLAY, 0, STATIC
        ARGFRAME DOVERLAY, 0, STATIC
        FUNCALL ZDSecMgrDeviceJoinFwd, APSME_SearchTCLinkKeyEntry
        LOCFRAME ISTACK, 0, STACK
        LOCFRAME PSTACK, 0, STACK
        LOCFRAME XSTACK, 29, STACK
        LOCFRAME IOVERLAY, 0, STATIC
        LOCFRAME DOVERLAY, 0, STATIC
        ARGFRAME ISTACK, 0, STACK
        ARGFRAME PSTACK, 0, STACK
        ARGFRAME XSTACK, 29, STACK
        ARGFRAME IOVERLAY, 0, STATIC
        ARGFRAME DOVERLAY, 0, STATIC
        FUNCALL ZDSecMgrDeviceJoinFwd, APSME_UpdateDeviceReq
        LOCFRAME ISTACK, 0, STACK
        LOCFRAME PSTACK, 0, STACK
        LOCFRAME XSTACK, 27, STACK
        LOCFRAME IOVERLAY, 0, STATIC
        LOCFRAME DOVERLAY, 0, STATIC
        ARGFRAME ISTACK, 0, STACK
        ARGFRAME PSTACK, 0, STACK
        ARGFRAME XSTACK, 27, STACK
        ARGFRAME IOVERLAY, 0, STATIC
        ARGFRAME DOVERLAY, 0, STATIC
        FUNCALL ZDSecMgrDeviceJoinFwd, APSME_UpdateDeviceReq
        LOCFRAME ISTACK, 0, STACK
        LOCFRAME PSTACK, 0, STACK
        LOCFRAME XSTACK, 27, STACK
        LOCFRAME IOVERLAY, 0, STATIC
        LOCFRAME DOVERLAY, 0, STATIC
        ARGFRAME ISTACK, 0, STACK
        ARGFRAME PSTACK, 0, STACK
        ARGFRAME XSTACK, 27, STACK
        ARGFRAME IOVERLAY, 0, STATIC
        ARGFRAME DOVERLAY, 0, STATIC
        REQUIRE ?V0
        REQUIRE ?V1
        MOV     A,#-0xa
        LCALL   ?BANKED_ENTER_XDATA
          CFI DPH0 load(1, XDATA, add(CFA_XSP16, literal(-1)))
          CFI DPL0 load(1, XDATA, add(CFA_XSP16, literal(-2)))
          CFI ?BRET_EXT load(1, XDATA, add(CFA_XSP16, literal(-3)))
          CFI ?RET_HIGH load(1, XDATA, add(CFA_XSP16, literal(-4)))
          CFI ?RET_LOW load(1, XDATA, add(CFA_XSP16, literal(-5)))
          CFI R7 load(1, XDATA, add(CFA_XSP16, literal(-6)))
          CFI V1 load(1, XDATA, add(CFA_XSP16, literal(-7)))
          CFI V0 load(1, XDATA, add(CFA_XSP16, literal(-8)))
          CFI VB load(1, XDATA, add(CFA_XSP16, literal(-9)))
          CFI R6 load(1, XDATA, add(CFA_XSP16, literal(-10)))
          CFI CFA_SP SP+0
          CFI CFA_XSP16 add(XSP16, 10)
        ; Saved register size: 10
        ; Auto size: 17
        MOV     A,#-0x11
        LCALL   ?ALLOC_XSTACK8
          CFI CFA_XSP16 add(XSP16, 27)
// 1349   ZStatus_t               status;
// 1350   APSME_UpdateDeviceReq_t req;
// 1351   uint8 TC_ExtAddr[Z_EXTADDR_LEN];
// 1352 
// 1353   // forward any joining device to the Trust Center -- the Trust Center will
// 1354   // decide if the device is allowed to join
// 1355   status = ZSuccess;
// 1356 
// 1357   // forward authorization to the Trust Center
// 1358   req.dstAddr    = APSME_TRUSTCENTER_NWKADDR;
        MOV     A,#0x1
        LCALL   ?XSTACK_DISP0_8
        CLR     A
        MOVX    @DPTR,A
        INC     DPTR
        LCALL   ?Subroutine24 & 0xFFFF
// 1359   req.devAddr    = device->nwkAddr;
??CrossCallReturnLabel_22:
        MOV     R0,A
        INC     DPTR
        MOVX    A,@DPTR
        MOV     R1,A
        MOV     A,#0x3
        LCALL   ?XSTACK_DISP0_8
        LCALL   ?Subroutine12 & 0xFFFF
// 1360   req.devExtAddr = device->extAddr;
??CrossCallReturnLabel_0:
        MOV     A,#0x5
        LCALL   ?XSTACK_DISP0_8
        LCALL   ??Subroutine63_0 & 0xFFFF
// 1361 
// 1362   // set security status, option for router to reject if policy set
// 1363   if ( (device->devStatus & DEV_HIGH_SEC_STATUS) )
??CrossCallReturnLabel_137:
        MOV     A,R2
        ADD     A,#0x7
        MOV     DPL,A
        CLR     A
        ADDC    A,R3
        MOV     DPH,A
        MOVX    A,@DPTR
        MOV     C,0xE0 /* A   */.7
        JNC     ??ZDSecMgrDeviceJoinFwd_0
// 1364   {
// 1365     if ( device->devStatus & DEV_REJOIN_STATUS )
        MOV     C,0xE0 /* A   */.6
        JNC     ??ZDSecMgrDeviceJoinFwd_1
// 1366     {
// 1367       if ( device->secure == TRUE )
        MOV     DPL,R2
        MOV     DPH,R3
        INC     DPTR
        INC     DPTR
        INC     DPTR
        INC     DPTR
        INC     DPTR
        INC     DPTR
        MOVX    A,@DPTR
        XRL     A,#0x1
        JNZ     ??ZDSecMgrDeviceJoinFwd_2
// 1368       {
// 1369         req.status = APSME_UD_HIGH_SECURED_REJOIN;
        MOV     A,#0x7
        LCALL   ?XSTACK_DISP0_8
        MOV     A,#0x4
        SJMP    ??ZDSecMgrDeviceJoinFwd_3
// 1370       }
// 1371       else
// 1372       {
// 1373         req.status = APSME_UD_HIGH_UNSECURED_REJOIN;
??ZDSecMgrDeviceJoinFwd_2:
        MOV     A,#0x7
        LCALL   ?XSTACK_DISP0_8
        MOV     A,#0x7
        SJMP    ??ZDSecMgrDeviceJoinFwd_3
// 1374       }
// 1375     }
// 1376     else
// 1377     {
// 1378       req.status = APSME_UD_HIGH_UNSECURED_JOIN;
??ZDSecMgrDeviceJoinFwd_1:
        MOV     A,#0x7
        LCALL   ?XSTACK_DISP0_8
        MOV     A,#0x5
        SJMP    ??ZDSecMgrDeviceJoinFwd_3
// 1379     }
// 1380   }
// 1381   else
// 1382   {
// 1383     if ( device->devStatus & DEV_REJOIN_STATUS )
??ZDSecMgrDeviceJoinFwd_0:
        MOV     C,0xE0 /* A   */.6
        JNC     ??ZDSecMgrDeviceJoinFwd_4
// 1384     {
// 1385       if ( device->secure == TRUE )
        MOV     DPL,R2
        MOV     DPH,R3
        INC     DPTR
        INC     DPTR
        INC     DPTR
        INC     DPTR
        INC     DPTR
        INC     DPTR
        MOVX    A,@DPTR
        XRL     A,#0x1
        JNZ     ??ZDSecMgrDeviceJoinFwd_5
// 1386       {
// 1387         req.status = APSME_UD_STANDARD_SECURED_REJOIN;
        MOV     A,#0x7
        LCALL   ?XSTACK_DISP0_8
        CLR     A
        SJMP    ??ZDSecMgrDeviceJoinFwd_3
// 1388       }
// 1389       else
// 1390       {
// 1391         req.status = APSME_UD_STANDARD_TRUST_CENTER_REJOIN;
??ZDSecMgrDeviceJoinFwd_5:
        MOV     A,#0x7
        LCALL   ?XSTACK_DISP0_8
        MOV     A,#0x3
        SJMP    ??ZDSecMgrDeviceJoinFwd_3
// 1392       }
// 1393     }
// 1394     else
// 1395     {
// 1396       req.status = APSME_UD_STANDARD_UNSECURED_JOIN;
??ZDSecMgrDeviceJoinFwd_4:
        MOV     A,#0x7
        LCALL   ?XSTACK_DISP0_8
        MOV     A,#0x1
// 1397     }
// 1398   }
??ZDSecMgrDeviceJoinFwd_3:
        LCALL   ?Subroutine24 & 0xFFFF
// 1399 
// 1400   // set association status to authenticated
// 1401   ZDSecMgrAssocDeviceAuth( AssocGetWithShort( device->nwkAddr ) );
??CrossCallReturnLabel_23:
        MOV     R2,A
        INC     DPTR
        MOVX    A,@DPTR
        MOV     R3,A
        LCALL   `??AssocGetWithShort::?relay`; Banked call to: AssocGetWithShort
        ; Setup parameters for call to function ZDSecMgrAssocDeviceAuth
        LCALL   `??ZDSecMgrAssocDeviceAuth::?relay`; Banked call to: ZDSecMgrAssocDeviceAuth
// 1402 
// 1403   if ( ZG_CHECK_SECURITY_MODE == ZG_SECURITY_SE_STANDARD )
// 1404   {
// 1405     uint8 found;
// 1406     APSME_GetRequest( apsTrustCenterAddress,0, TC_ExtAddr );
        ; Setup parameters for call to function APSME_GetRequest
        MOV     A,#0x9
        LCALL   ?XSTACK_DISP102_8
        MOV     R2,#0x0
        MOV     R3,#0x0
        MOV     R1,#-0x55
        LCALL   `??APSME_GetRequest::?relay`; Banked call to: APSME_GetRequest
// 1407     
// 1408     APSME_SearchTCLinkKeyEntry(TC_ExtAddr,&found,NULL);
        ; Setup parameters for call to function APSME_SearchTCLinkKeyEntry
        CLR     A
        MOV     ?V0,A
        MOV     ?V1,A
        MOV     R0,#?V0
        LCALL   ?PUSH_XSTACK_I_TWO
          CFI CFA_XSP16 add(XSP16, 29)
        MOV     A,#0x2
        LCALL   ?XSTACK_DISP102_8
        MOV     A,#0xb
        LCALL   ?XSTACK_DISP101_8
        LCALL   `??APSME_SearchTCLinkKeyEntry::?relay`; Banked call to: APSME_SearchTCLinkKeyEntry
        MOV     A,#0x2
        LCALL   ?DEALLOC_XSTACK8
          CFI CFA_XSP16 add(XSP16, 27)
// 1409     
// 1410     // For ZG_GLOBAL_LINK_KEY the message has to be sent twice one
// 1411     // un-encrypted and one APS encrypted, to make sure that it can interoperate
// 1412     // with legacy Coordinator devices which can only handle one or the other.
// 1413 #if defined ( APP_TP2_TEST_MODE )
// 1414     if ( ( zgApsLinkKeyType == ZG_GLOBAL_LINK_KEY ) && ( found == FALSE ) && ( guTxApsSecON != TRUE ) )
// 1415 #else
// 1416     if ( ( zgApsLinkKeyType == ZG_GLOBAL_LINK_KEY ) && ( found == FALSE ) )
        MOV     DPTR,#zgApsLinkKeyType
        MOVX    A,@DPTR
        XRL     A,#0x1
        JNZ     ??ZDSecMgrDeviceJoinFwd_6
        MOV     DPL,?XSP + 0
        MOV     DPH,?XSP + 1
        MOVX    A,@DPTR
        JNZ     ??ZDSecMgrDeviceJoinFwd_6
// 1417 #endif
// 1418     {
// 1419       req.apsSecure = FALSE;
        MOV     A,#0x8
        LCALL   ?XSTACK_DISP0_8
        CLR     A
        MOVX    @DPTR,A
// 1420 
// 1421       // send and APSME_UPDATE_DEVICE request to the trust center
// 1422       status = APSME_UpdateDeviceReq( &req );
        ; Setup parameters for call to function APSME_UpdateDeviceReq
        INC     A
        LCALL   ?XSTACK_DISP101_8
        LCALL   `??APSME_UpdateDeviceReq::?relay`; Banked call to: APSME_UpdateDeviceReq
// 1423     }
// 1424 
// 1425 #if defined ( APP_TP2_TEST_MODE )
// 1426     if ( guTxApsSecON != FALSE )
// 1427     {
// 1428       // send the message APS encrypted
// 1429       req.apsSecure = TRUE;
// 1430 
// 1431       // send and APSME_UPDATE_DEVICE request to the trust center
// 1432       status = APSME_UpdateDeviceReq( &req );
// 1433     }
// 1434 #else
// 1435     // send the message APS encrypted
// 1436     req.apsSecure = TRUE;
??ZDSecMgrDeviceJoinFwd_6:
        MOV     A,#0x8
        LCALL   ?XSTACK_DISP0_8
        MOV     A,#0x1
        MOVX    @DPTR,A
// 1437 
// 1438     // send and APSME_UPDATE_DEVICE request to the trust center
// 1439     status = APSME_UpdateDeviceReq( &req );
// 1440 #endif
// 1441   }
// 1442   else
// 1443   {
// 1444     req.apsSecure = FALSE;
// 1445 
// 1446     // send and APSME_UPDATE_DEVICE request to the trust center
// 1447     status = APSME_UpdateDeviceReq( &req );
// 1448   }
// 1449 
// 1450   return status;
        ; Setup parameters for call to function APSME_UpdateDeviceReq
        LCALL   ?XSTACK_DISP101_8
        LCALL   `??APSME_UpdateDeviceReq::?relay`; Banked call to: APSME_UpdateDeviceReq
        MOV     A,#0x11
        LJMP    ?Subroutine4 & 0xFFFF
// 1451 }
          CFI EndBlock cfiBlock188

        RSEG BANKED_CODE:CODE:NOROOT(0)
?Subroutine22:
          CFI Block cfiCond189 Using cfiCommon0
          CFI Function ZDSecMgrTransportKeyInd
          CFI Conditional ??CrossCallReturnLabel_143
          CFI R6 load(1, XDATA, add(CFA_XSP16, literal(-14)))
          CFI VB load(1, XDATA, add(CFA_XSP16, literal(-13)))
          CFI V0 load(1, XDATA, add(CFA_XSP16, literal(-12)))
          CFI V1 load(1, XDATA, add(CFA_XSP16, literal(-11)))
          CFI V2 load(1, XDATA, add(CFA_XSP16, literal(-10)))
          CFI V3 load(1, XDATA, add(CFA_XSP16, literal(-9)))
          CFI V4 load(1, XDATA, add(CFA_XSP16, literal(-8)))
          CFI V5 load(1, XDATA, add(CFA_XSP16, literal(-7)))
          CFI R7 load(1, XDATA, add(CFA_XSP16, literal(-6)))
          CFI ?RET_LOW load(1, XDATA, add(CFA_XSP16, literal(-5)))
          CFI ?RET_HIGH load(1, XDATA, add(CFA_XSP16, literal(-4)))
          CFI ?BRET_EXT load(1, XDATA, add(CFA_XSP16, literal(-3)))
          CFI DPL0 load(1, XDATA, add(CFA_XSP16, literal(-2)))
          CFI DPH0 load(1, XDATA, add(CFA_XSP16, literal(-1)))
          CFI CFA_SP SP+-2
          CFI CFA_XSP16 add(XSP16, 54)
          CFI Block cfiCond190 Using cfiCommon0
          CFI (cfiCond190) Function ZDSecMgrAddLinkKey
          CFI (cfiCond190) Conditional ??CrossCallReturnLabel_144
          CFI (cfiCond190) R6 load(1, XDATA, add(CFA_XSP16, literal(-10)))
          CFI (cfiCond190) VB load(1, XDATA, add(CFA_XSP16, literal(-9)))
          CFI (cfiCond190) V0 load(1, XDATA, add(CFA_XSP16, literal(-8)))
          CFI (cfiCond190) V1 load(1, XDATA, add(CFA_XSP16, literal(-7)))
          CFI (cfiCond190) R7 load(1, XDATA, add(CFA_XSP16, literal(-6)))
          CFI (cfiCond190) ?RET_LOW load(1, XDATA, add(CFA_XSP16, literal(-5)))
          CFI (cfiCond190) ?RET_HIGH load(1, XDATA, add(CFA_XSP16, literal(-4)))
          CFI (cfiCond190) ?BRET_EXT load(1, XDATA, add(CFA_XSP16, literal(-3)))
          CFI (cfiCond190) DPL0 load(1, XDATA, add(CFA_XSP16, literal(-2)))
          CFI (cfiCond190) DPH0 load(1, XDATA, add(CFA_XSP16, literal(-1)))
          CFI (cfiCond190) CFA_SP SP+-2
          CFI (cfiCond190) CFA_XSP16 add(XSP16, 14)
          CFI Block cfiPicker191 Using cfiCommon1
          CFI (cfiPicker191) NoFunction
          CFI (cfiPicker191) Picker
        LCALL   ?Subroutine54 & 0xFFFF
??CrossCallReturnLabel_78:
          CFI EndBlock cfiCond189
          CFI EndBlock cfiCond190
          CFI EndBlock cfiPicker191
        REQUIRE ??Subroutine63_0
        ; // Fall through to label ??Subroutine63_0

        RSEG BANKED_CODE:CODE:NOROOT(0)
??Subroutine63_0:
          CFI Block cfiCond192 Using cfiCommon0
          CFI Function ZDSecMgrAddrClear
          CFI Conditional ??CrossCallReturnLabel_126
          CFI R6 load(1, XDATA, add(CFA_XSP16, literal(-9)))
          CFI VB load(1, XDATA, add(CFA_XSP16, literal(-8)))
          CFI V0 load(1, XDATA, add(CFA_XSP16, literal(-7)))
          CFI R7 load(1, XDATA, add(CFA_XSP16, literal(-6)))
          CFI ?RET_LOW load(1, XDATA, add(CFA_XSP16, literal(-5)))
          CFI ?RET_HIGH load(1, XDATA, add(CFA_XSP16, literal(-4)))
          CFI ?BRET_EXT load(1, XDATA, add(CFA_XSP16, literal(-3)))
          CFI DPL0 load(1, XDATA, add(CFA_XSP16, literal(-2)))
          CFI DPH0 load(1, XDATA, add(CFA_XSP16, literal(-1)))
          CFI CFA_SP SP+-2
          CFI CFA_XSP16 add(XSP16, 24)
          CFI Block cfiCond193 Using cfiCommon0
          CFI (cfiCond193) Function ZDSecMgrAppKeyReq
          CFI (cfiCond193) Conditional ??CrossCallReturnLabel_127
          CFI (cfiCond193) R6 load(1, XDATA, add(CFA_XSP16, literal(-12)))
          CFI (cfiCond193) VB load(1, XDATA, add(CFA_XSP16, literal(-11)))
          CFI (cfiCond193) V0 load(1, XDATA, add(CFA_XSP16, literal(-10)))
          CFI (cfiCond193) V1 load(1, XDATA, add(CFA_XSP16, literal(-9)))
          CFI (cfiCond193) V2 load(1, XDATA, add(CFA_XSP16, literal(-8)))
          CFI (cfiCond193) V3 load(1, XDATA, add(CFA_XSP16, literal(-7)))
          CFI (cfiCond193) R7 load(1, XDATA, add(CFA_XSP16, literal(-6)))
          CFI (cfiCond193) ?RET_LOW load(1, XDATA, add(CFA_XSP16, literal(-5)))
          CFI (cfiCond193) ?RET_HIGH load(1, XDATA, add(CFA_XSP16, literal(-4)))
          CFI (cfiCond193) ?BRET_EXT load(1, XDATA, add(CFA_XSP16, literal(-3)))
          CFI (cfiCond193) DPL0 load(1, XDATA, add(CFA_XSP16, literal(-2)))
          CFI (cfiCond193) DPH0 load(1, XDATA, add(CFA_XSP16, literal(-1)))
          CFI (cfiCond193) CFA_SP SP+-2
          CFI (cfiCond193) CFA_XSP16 add(XSP16, 51)
          CFI Block cfiCond194 Using cfiCommon0
          CFI (cfiCond194) Function ZDSecMgrAppKeyReq
          CFI (cfiCond194) Conditional ??CrossCallReturnLabel_128
          CFI (cfiCond194) R6 load(1, XDATA, add(CFA_XSP16, literal(-12)))
          CFI (cfiCond194) VB load(1, XDATA, add(CFA_XSP16, literal(-11)))
          CFI (cfiCond194) V0 load(1, XDATA, add(CFA_XSP16, literal(-10)))
          CFI (cfiCond194) V1 load(1, XDATA, add(CFA_XSP16, literal(-9)))
          CFI (cfiCond194) V2 load(1, XDATA, add(CFA_XSP16, literal(-8)))
          CFI (cfiCond194) V3 load(1, XDATA, add(CFA_XSP16, literal(-7)))
          CFI (cfiCond194) R7 load(1, XDATA, add(CFA_XSP16, literal(-6)))
          CFI (cfiCond194) ?RET_LOW load(1, XDATA, add(CFA_XSP16, literal(-5)))
          CFI (cfiCond194) ?RET_HIGH load(1, XDATA, add(CFA_XSP16, literal(-4)))
          CFI (cfiCond194) ?BRET_EXT load(1, XDATA, add(CFA_XSP16, literal(-3)))
          CFI (cfiCond194) DPL0 load(1, XDATA, add(CFA_XSP16, literal(-2)))
          CFI (cfiCond194) DPH0 load(1, XDATA, add(CFA_XSP16, literal(-1)))
          CFI (cfiCond194) CFA_SP SP+-2
          CFI (cfiCond194) CFA_XSP16 add(XSP16, 51)
          CFI Block cfiCond195 Using cfiCommon0
          CFI (cfiCond195) Function ZDSecMgrAppKeyReq
          CFI (cfiCond195) Conditional ??CrossCallReturnLabel_129
          CFI (cfiCond195) R6 load(1, XDATA, add(CFA_XSP16, literal(-12)))
          CFI (cfiCond195) VB load(1, XDATA, add(CFA_XSP16, literal(-11)))
          CFI (cfiCond195) V0 load(1, XDATA, add(CFA_XSP16, literal(-10)))
          CFI (cfiCond195) V1 load(1, XDATA, add(CFA_XSP16, literal(-9)))
          CFI (cfiCond195) V2 load(1, XDATA, add(CFA_XSP16, literal(-8)))
          CFI (cfiCond195) V3 load(1, XDATA, add(CFA_XSP16, literal(-7)))
          CFI (cfiCond195) R7 load(1, XDATA, add(CFA_XSP16, literal(-6)))
          CFI (cfiCond195) ?RET_LOW load(1, XDATA, add(CFA_XSP16, literal(-5)))
          CFI (cfiCond195) ?RET_HIGH load(1, XDATA, add(CFA_XSP16, literal(-4)))
          CFI (cfiCond195) ?BRET_EXT load(1, XDATA, add(CFA_XSP16, literal(-3)))
          CFI (cfiCond195) DPL0 load(1, XDATA, add(CFA_XSP16, literal(-2)))
          CFI (cfiCond195) DPH0 load(1, XDATA, add(CFA_XSP16, literal(-1)))
          CFI (cfiCond195) CFA_SP SP+-2
          CFI (cfiCond195) CFA_XSP16 add(XSP16, 51)
          CFI Block cfiCond196 Using cfiCommon0
          CFI (cfiCond196) Function ZDSecMgrAppKeyReq
          CFI (cfiCond196) Conditional ??CrossCallReturnLabel_130
          CFI (cfiCond196) R6 load(1, XDATA, add(CFA_XSP16, literal(-12)))
          CFI (cfiCond196) VB load(1, XDATA, add(CFA_XSP16, literal(-11)))
          CFI (cfiCond196) V0 load(1, XDATA, add(CFA_XSP16, literal(-10)))
          CFI (cfiCond196) V1 load(1, XDATA, add(CFA_XSP16, literal(-9)))
          CFI (cfiCond196) V2 load(1, XDATA, add(CFA_XSP16, literal(-8)))
          CFI (cfiCond196) V3 load(1, XDATA, add(CFA_XSP16, literal(-7)))
          CFI (cfiCond196) R7 load(1, XDATA, add(CFA_XSP16, literal(-6)))
          CFI (cfiCond196) ?RET_LOW load(1, XDATA, add(CFA_XSP16, literal(-5)))
          CFI (cfiCond196) ?RET_HIGH load(1, XDATA, add(CFA_XSP16, literal(-4)))
          CFI (cfiCond196) ?BRET_EXT load(1, XDATA, add(CFA_XSP16, literal(-3)))
          CFI (cfiCond196) DPL0 load(1, XDATA, add(CFA_XSP16, literal(-2)))
          CFI (cfiCond196) DPH0 load(1, XDATA, add(CFA_XSP16, literal(-1)))
          CFI (cfiCond196) CFA_SP SP+-2
          CFI (cfiCond196) CFA_XSP16 add(XSP16, 51)
          CFI Block cfiCond197 Using cfiCommon0
          CFI (cfiCond197) Function ZDSecMgrTclkReq
          CFI (cfiCond197) Conditional ??CrossCallReturnLabel_131
          CFI (cfiCond197) R6 load(1, XDATA, add(CFA_XSP16, literal(-10)))
          CFI (cfiCond197) VB load(1, XDATA, add(CFA_XSP16, literal(-9)))
          CFI (cfiCond197) V0 load(1, XDATA, add(CFA_XSP16, literal(-8)))
          CFI (cfiCond197) V1 load(1, XDATA, add(CFA_XSP16, literal(-7)))
          CFI (cfiCond197) R7 load(1, XDATA, add(CFA_XSP16, literal(-6)))
          CFI (cfiCond197) ?RET_LOW load(1, XDATA, add(CFA_XSP16, literal(-5)))
          CFI (cfiCond197) ?RET_HIGH load(1, XDATA, add(CFA_XSP16, literal(-4)))
          CFI (cfiCond197) ?BRET_EXT load(1, XDATA, add(CFA_XSP16, literal(-3)))
          CFI (cfiCond197) DPL0 load(1, XDATA, add(CFA_XSP16, literal(-2)))
          CFI (cfiCond197) DPH0 load(1, XDATA, add(CFA_XSP16, literal(-1)))
          CFI (cfiCond197) CFA_SP SP+-2
          CFI (cfiCond197) CFA_XSP16 add(XSP16, 69)
          CFI Block cfiCond198 Using cfiCommon0
          CFI (cfiCond198) Function ZDSecMgrTclkReq
          CFI (cfiCond198) Conditional ??CrossCallReturnLabel_132
          CFI (cfiCond198) R6 load(1, XDATA, add(CFA_XSP16, literal(-10)))
          CFI (cfiCond198) VB load(1, XDATA, add(CFA_XSP16, literal(-9)))
          CFI (cfiCond198) V0 load(1, XDATA, add(CFA_XSP16, literal(-8)))
          CFI (cfiCond198) V1 load(1, XDATA, add(CFA_XSP16, literal(-7)))
          CFI (cfiCond198) R7 load(1, XDATA, add(CFA_XSP16, literal(-6)))
          CFI (cfiCond198) ?RET_LOW load(1, XDATA, add(CFA_XSP16, literal(-5)))
          CFI (cfiCond198) ?RET_HIGH load(1, XDATA, add(CFA_XSP16, literal(-4)))
          CFI (cfiCond198) ?BRET_EXT load(1, XDATA, add(CFA_XSP16, literal(-3)))
          CFI (cfiCond198) DPL0 load(1, XDATA, add(CFA_XSP16, literal(-2)))
          CFI (cfiCond198) DPH0 load(1, XDATA, add(CFA_XSP16, literal(-1)))
          CFI (cfiCond198) CFA_SP SP+-2
          CFI (cfiCond198) CFA_XSP16 add(XSP16, 69)
          CFI Block cfiCond199 Using cfiCommon0
          CFI (cfiCond199) Function ZDSecMgrSendNwkKey
          CFI (cfiCond199) Conditional ??CrossCallReturnLabel_133
          CFI (cfiCond199) R6 load(1, XDATA, add(CFA_XSP16, literal(-12)))
          CFI (cfiCond199) VB load(1, XDATA, add(CFA_XSP16, literal(-11)))
          CFI (cfiCond199) V0 load(1, XDATA, add(CFA_XSP16, literal(-10)))
          CFI (cfiCond199) V1 load(1, XDATA, add(CFA_XSP16, literal(-9)))
          CFI (cfiCond199) V2 load(1, XDATA, add(CFA_XSP16, literal(-8)))
          CFI (cfiCond199) V3 load(1, XDATA, add(CFA_XSP16, literal(-7)))
          CFI (cfiCond199) R7 load(1, XDATA, add(CFA_XSP16, literal(-6)))
          CFI (cfiCond199) ?RET_LOW load(1, XDATA, add(CFA_XSP16, literal(-5)))
          CFI (cfiCond199) ?RET_HIGH load(1, XDATA, add(CFA_XSP16, literal(-4)))
          CFI (cfiCond199) ?BRET_EXT load(1, XDATA, add(CFA_XSP16, literal(-3)))
          CFI (cfiCond199) DPL0 load(1, XDATA, add(CFA_XSP16, literal(-2)))
          CFI (cfiCond199) DPH0 load(1, XDATA, add(CFA_XSP16, literal(-1)))
          CFI (cfiCond199) CFA_SP SP+-2
          CFI (cfiCond199) CFA_XSP16 add(XSP16, 46)
          CFI Block cfiCond200 Using cfiCommon0
          CFI (cfiCond200) Function ZDSecMgrSendNwkKey
          CFI (cfiCond200) Conditional ??CrossCallReturnLabel_134
          CFI (cfiCond200) R6 load(1, XDATA, add(CFA_XSP16, literal(-12)))
          CFI (cfiCond200) VB load(1, XDATA, add(CFA_XSP16, literal(-11)))
          CFI (cfiCond200) V0 load(1, XDATA, add(CFA_XSP16, literal(-10)))
          CFI (cfiCond200) V1 load(1, XDATA, add(CFA_XSP16, literal(-9)))
          CFI (cfiCond200) V2 load(1, XDATA, add(CFA_XSP16, literal(-8)))
          CFI (cfiCond200) V3 load(1, XDATA, add(CFA_XSP16, literal(-7)))
          CFI (cfiCond200) R7 load(1, XDATA, add(CFA_XSP16, literal(-6)))
          CFI (cfiCond200) ?RET_LOW load(1, XDATA, add(CFA_XSP16, literal(-5)))
          CFI (cfiCond200) ?RET_HIGH load(1, XDATA, add(CFA_XSP16, literal(-4)))
          CFI (cfiCond200) ?BRET_EXT load(1, XDATA, add(CFA_XSP16, literal(-3)))
          CFI (cfiCond200) DPL0 load(1, XDATA, add(CFA_XSP16, literal(-2)))
          CFI (cfiCond200) DPH0 load(1, XDATA, add(CFA_XSP16, literal(-1)))
          CFI (cfiCond200) CFA_SP SP+-2
          CFI (cfiCond200) CFA_XSP16 add(XSP16, 46)
          CFI Block cfiCond201 Using cfiCommon0
          CFI (cfiCond201) Function ZDSecMgrSendNwkKey
          CFI (cfiCond201) Conditional ??CrossCallReturnLabel_135
          CFI (cfiCond201) R6 load(1, XDATA, add(CFA_XSP16, literal(-12)))
          CFI (cfiCond201) VB load(1, XDATA, add(CFA_XSP16, literal(-11)))
          CFI (cfiCond201) V0 load(1, XDATA, add(CFA_XSP16, literal(-10)))
          CFI (cfiCond201) V1 load(1, XDATA, add(CFA_XSP16, literal(-9)))
          CFI (cfiCond201) V2 load(1, XDATA, add(CFA_XSP16, literal(-8)))
          CFI (cfiCond201) V3 load(1, XDATA, add(CFA_XSP16, literal(-7)))
          CFI (cfiCond201) R7 load(1, XDATA, add(CFA_XSP16, literal(-6)))
          CFI (cfiCond201) ?RET_LOW load(1, XDATA, add(CFA_XSP16, literal(-5)))
          CFI (cfiCond201) ?RET_HIGH load(1, XDATA, add(CFA_XSP16, literal(-4)))
          CFI (cfiCond201) ?BRET_EXT load(1, XDATA, add(CFA_XSP16, literal(-3)))
          CFI (cfiCond201) DPL0 load(1, XDATA, add(CFA_XSP16, literal(-2)))
          CFI (cfiCond201) DPH0 load(1, XDATA, add(CFA_XSP16, literal(-1)))
          CFI (cfiCond201) CFA_SP SP+-2
          CFI (cfiCond201) CFA_XSP16 add(XSP16, 46)
          CFI Block cfiCond202 Using cfiCommon0
          CFI (cfiCond202) Function ZDSecMgrDeviceJoin
          CFI (cfiCond202) Conditional ??CrossCallReturnLabel_136
          CFI (cfiCond202) R6 load(1, XDATA, add(CFA_XSP16, literal(-16)))
          CFI (cfiCond202) VB load(1, XDATA, add(CFA_XSP16, literal(-15)))
          CFI (cfiCond202) V0 load(1, XDATA, add(CFA_XSP16, literal(-14)))
          CFI (cfiCond202) V1 load(1, XDATA, add(CFA_XSP16, literal(-13)))
          CFI (cfiCond202) V2 load(1, XDATA, add(CFA_XSP16, literal(-12)))
          CFI (cfiCond202) V3 load(1, XDATA, add(CFA_XSP16, literal(-11)))
          CFI (cfiCond202) V4 load(1, XDATA, add(CFA_XSP16, literal(-10)))
          CFI (cfiCond202) V5 load(1, XDATA, add(CFA_XSP16, literal(-9)))
          CFI (cfiCond202) V6 load(1, XDATA, add(CFA_XSP16, literal(-8)))
          CFI (cfiCond202) V7 load(1, XDATA, add(CFA_XSP16, literal(-7)))
          CFI (cfiCond202) R7 load(1, XDATA, add(CFA_XSP16, literal(-6)))
          CFI (cfiCond202) ?RET_LOW load(1, XDATA, add(CFA_XSP16, literal(-5)))
          CFI (cfiCond202) ?RET_HIGH load(1, XDATA, add(CFA_XSP16, literal(-4)))
          CFI (cfiCond202) ?BRET_EXT load(1, XDATA, add(CFA_XSP16, literal(-3)))
          CFI (cfiCond202) DPL0 load(1, XDATA, add(CFA_XSP16, literal(-2)))
          CFI (cfiCond202) DPH0 load(1, XDATA, add(CFA_XSP16, literal(-1)))
          CFI (cfiCond202) CFA_SP SP+-2
          CFI (cfiCond202) CFA_XSP16 add(XSP16, 30)
          CFI Block cfiCond203 Using cfiCommon0
          CFI (cfiCond203) Function ZDSecMgrDeviceJoinFwd
          CFI (cfiCond203) Conditional ??CrossCallReturnLabel_137
          CFI (cfiCond203) R6 load(1, XDATA, add(CFA_XSP16, literal(-10)))
          CFI (cfiCond203) VB load(1, XDATA, add(CFA_XSP16, literal(-9)))
          CFI (cfiCond203) V0 load(1, XDATA, add(CFA_XSP16, literal(-8)))
          CFI (cfiCond203) V1 load(1, XDATA, add(CFA_XSP16, literal(-7)))
          CFI (cfiCond203) R7 load(1, XDATA, add(CFA_XSP16, literal(-6)))
          CFI (cfiCond203) ?RET_LOW load(1, XDATA, add(CFA_XSP16, literal(-5)))
          CFI (cfiCond203) ?RET_HIGH load(1, XDATA, add(CFA_XSP16, literal(-4)))
          CFI (cfiCond203) ?BRET_EXT load(1, XDATA, add(CFA_XSP16, literal(-3)))
          CFI (cfiCond203) DPL0 load(1, XDATA, add(CFA_XSP16, literal(-2)))
          CFI (cfiCond203) DPH0 load(1, XDATA, add(CFA_XSP16, literal(-1)))
          CFI (cfiCond203) CFA_SP SP+-2
          CFI (cfiCond203) CFA_XSP16 add(XSP16, 27)
          CFI Block cfiCond204 Using cfiCommon0
          CFI (cfiCond204) Function ZDSecMgrNewDeviceEvent
          CFI (cfiCond204) Conditional ??CrossCallReturnLabel_138
          CFI (cfiCond204) R6 load(1, XDATA, add(CFA_XSP16, literal(-12)))
          CFI (cfiCond204) VB load(1, XDATA, add(CFA_XSP16, literal(-11)))
          CFI (cfiCond204) V0 load(1, XDATA, add(CFA_XSP16, literal(-10)))
          CFI (cfiCond204) V1 load(1, XDATA, add(CFA_XSP16, literal(-9)))
          CFI (cfiCond204) V2 load(1, XDATA, add(CFA_XSP16, literal(-8)))
          CFI (cfiCond204) V3 load(1, XDATA, add(CFA_XSP16, literal(-7)))
          CFI (cfiCond204) R7 load(1, XDATA, add(CFA_XSP16, literal(-6)))
          CFI (cfiCond204) ?RET_LOW load(1, XDATA, add(CFA_XSP16, literal(-5)))
          CFI (cfiCond204) ?RET_HIGH load(1, XDATA, add(CFA_XSP16, literal(-4)))
          CFI (cfiCond204) ?BRET_EXT load(1, XDATA, add(CFA_XSP16, literal(-3)))
          CFI (cfiCond204) DPL0 load(1, XDATA, add(CFA_XSP16, literal(-2)))
          CFI (cfiCond204) DPH0 load(1, XDATA, add(CFA_XSP16, literal(-1)))
          CFI (cfiCond204) CFA_SP SP+-2
          CFI (cfiCond204) CFA_XSP16 add(XSP16, 33)
          CFI Block cfiCond205 Using cfiCommon0
          CFI (cfiCond205) Function ZDSecMgrNewDeviceEvent
          CFI (cfiCond205) Conditional ??CrossCallReturnLabel_139
          CFI (cfiCond205) R6 load(1, XDATA, add(CFA_XSP16, literal(-12)))
          CFI (cfiCond205) VB load(1, XDATA, add(CFA_XSP16, literal(-11)))
          CFI (cfiCond205) V0 load(1, XDATA, add(CFA_XSP16, literal(-10)))
          CFI (cfiCond205) V1 load(1, XDATA, add(CFA_XSP16, literal(-9)))
          CFI (cfiCond205) V2 load(1, XDATA, add(CFA_XSP16, literal(-8)))
          CFI (cfiCond205) V3 load(1, XDATA, add(CFA_XSP16, literal(-7)))
          CFI (cfiCond205) R7 load(1, XDATA, add(CFA_XSP16, literal(-6)))
          CFI (cfiCond205) ?RET_LOW load(1, XDATA, add(CFA_XSP16, literal(-5)))
          CFI (cfiCond205) ?RET_HIGH load(1, XDATA, add(CFA_XSP16, literal(-4)))
          CFI (cfiCond205) ?BRET_EXT load(1, XDATA, add(CFA_XSP16, literal(-3)))
          CFI (cfiCond205) DPL0 load(1, XDATA, add(CFA_XSP16, literal(-2)))
          CFI (cfiCond205) DPH0 load(1, XDATA, add(CFA_XSP16, literal(-1)))
          CFI (cfiCond205) CFA_SP SP+-2
          CFI (cfiCond205) CFA_XSP16 add(XSP16, 33)
          CFI Block cfiCond206 Using cfiCommon0
          CFI (cfiCond206) Function ZDSecMgrUpdateDeviceInd
          CFI (cfiCond206) Conditional ??CrossCallReturnLabel_140
          CFI (cfiCond206) DPL0 Frame(CFA_SP, 4)
          CFI (cfiCond206) DPH0 Frame(CFA_SP, 5)
          CFI (cfiCond206) CFA_SP SP+-7
          CFI (cfiCond206) CFA_XSP16 add(XSP16, 8)
          CFI Block cfiCond207 Using cfiCommon0
          CFI (cfiCond207) Function ZDSecMgrUpdateDeviceInd
          CFI (cfiCond207) Conditional ??CrossCallReturnLabel_141
          CFI (cfiCond207) DPL0 Frame(CFA_SP, 4)
          CFI (cfiCond207) DPH0 Frame(CFA_SP, 5)
          CFI (cfiCond207) CFA_SP SP+-7
          CFI (cfiCond207) CFA_XSP16 add(XSP16, 8)
          CFI Block cfiCond208 Using cfiCommon0
          CFI (cfiCond208) Function APSME_LinkKeySet
          CFI (cfiCond208) Conditional ??CrossCallReturnLabel_142
          CFI (cfiCond208) R6 load(1, XDATA, add(CFA_XSP16, literal(-15)))
          CFI (cfiCond208) VB load(1, XDATA, add(CFA_XSP16, literal(-14)))
          CFI (cfiCond208) V0 load(1, XDATA, add(CFA_XSP16, literal(-13)))
          CFI (cfiCond208) V1 load(1, XDATA, add(CFA_XSP16, literal(-12)))
          CFI (cfiCond208) V2 load(1, XDATA, add(CFA_XSP16, literal(-11)))
          CFI (cfiCond208) V3 load(1, XDATA, add(CFA_XSP16, literal(-10)))
          CFI (cfiCond208) V4 load(1, XDATA, add(CFA_XSP16, literal(-9)))
          CFI (cfiCond208) V5 load(1, XDATA, add(CFA_XSP16, literal(-8)))
          CFI (cfiCond208) V6 load(1, XDATA, add(CFA_XSP16, literal(-7)))
          CFI (cfiCond208) R7 load(1, XDATA, add(CFA_XSP16, literal(-6)))
          CFI (cfiCond208) ?RET_LOW load(1, XDATA, add(CFA_XSP16, literal(-5)))
          CFI (cfiCond208) ?RET_HIGH load(1, XDATA, add(CFA_XSP16, literal(-4)))
          CFI (cfiCond208) ?BRET_EXT load(1, XDATA, add(CFA_XSP16, literal(-3)))
          CFI (cfiCond208) DPL0 load(1, XDATA, add(CFA_XSP16, literal(-2)))
          CFI (cfiCond208) DPH0 load(1, XDATA, add(CFA_XSP16, literal(-1)))
          CFI (cfiCond208) CFA_SP SP+-2
          CFI (cfiCond208) CFA_XSP16 add(XSP16, 19)
          CFI Block cfiCond209 Using cfiCommon0
          CFI (cfiCond209) Function ZDSecMgrTransportKeyInd
          CFI (cfiCond209) Conditional ??CrossCallReturnLabel_143
          CFI (cfiCond209) R6 load(1, XDATA, add(CFA_XSP16, literal(-14)))
          CFI (cfiCond209) VB load(1, XDATA, add(CFA_XSP16, literal(-13)))
          CFI (cfiCond209) V0 load(1, XDATA, add(CFA_XSP16, literal(-12)))
          CFI (cfiCond209) V1 load(1, XDATA, add(CFA_XSP16, literal(-11)))
          CFI (cfiCond209) V2 load(1, XDATA, add(CFA_XSP16, literal(-10)))
          CFI (cfiCond209) V3 load(1, XDATA, add(CFA_XSP16, literal(-9)))
          CFI (cfiCond209) V4 load(1, XDATA, add(CFA_XSP16, literal(-8)))
          CFI (cfiCond209) V5 load(1, XDATA, add(CFA_XSP16, literal(-7)))
          CFI (cfiCond209) R7 load(1, XDATA, add(CFA_XSP16, literal(-6)))
          CFI (cfiCond209) ?RET_LOW load(1, XDATA, add(CFA_XSP16, literal(-5)))
          CFI (cfiCond209) ?RET_HIGH load(1, XDATA, add(CFA_XSP16, literal(-4)))
          CFI (cfiCond209) ?BRET_EXT load(1, XDATA, add(CFA_XSP16, literal(-3)))
          CFI (cfiCond209) DPL0 load(1, XDATA, add(CFA_XSP16, literal(-2)))
          CFI (cfiCond209) DPH0 load(1, XDATA, add(CFA_XSP16, literal(-1)))
          CFI (cfiCond209) CFA_SP SP+-2
          CFI (cfiCond209) CFA_XSP16 add(XSP16, 54)
          CFI Block cfiCond210 Using cfiCommon0
          CFI (cfiCond210) Function ZDSecMgrAddLinkKey
          CFI (cfiCond210) Conditional ??CrossCallReturnLabel_144
          CFI (cfiCond210) R6 load(1, XDATA, add(CFA_XSP16, literal(-10)))
          CFI (cfiCond210) VB load(1, XDATA, add(CFA_XSP16, literal(-9)))
          CFI (cfiCond210) V0 load(1, XDATA, add(CFA_XSP16, literal(-8)))
          CFI (cfiCond210) V1 load(1, XDATA, add(CFA_XSP16, literal(-7)))
          CFI (cfiCond210) R7 load(1, XDATA, add(CFA_XSP16, literal(-6)))
          CFI (cfiCond210) ?RET_LOW load(1, XDATA, add(CFA_XSP16, literal(-5)))
          CFI (cfiCond210) ?RET_HIGH load(1, XDATA, add(CFA_XSP16, literal(-4)))
          CFI (cfiCond210) ?BRET_EXT load(1, XDATA, add(CFA_XSP16, literal(-3)))
          CFI (cfiCond210) DPL0 load(1, XDATA, add(CFA_XSP16, literal(-2)))
          CFI (cfiCond210) DPH0 load(1, XDATA, add(CFA_XSP16, literal(-1)))
          CFI (cfiCond210) CFA_SP SP+-2
          CFI (cfiCond210) CFA_XSP16 add(XSP16, 14)
          CFI Block cfiPicker211 Using cfiCommon1
          CFI (cfiPicker211) NoFunction
          CFI (cfiPicker211) Picker
        LCALL   ?Subroutine49 & 0xFFFF
??CrossCallReturnLabel_150:
        RET
          CFI EndBlock cfiCond192
          CFI EndBlock cfiCond193
          CFI EndBlock cfiCond194
          CFI EndBlock cfiCond195
          CFI EndBlock cfiCond196
          CFI EndBlock cfiCond197
          CFI EndBlock cfiCond198
          CFI EndBlock cfiCond199
          CFI EndBlock cfiCond200
          CFI EndBlock cfiCond201
          CFI EndBlock cfiCond202
          CFI EndBlock cfiCond203
          CFI EndBlock cfiCond204
          CFI EndBlock cfiCond205
          CFI EndBlock cfiCond206
          CFI EndBlock cfiCond207
          CFI EndBlock cfiCond208
          CFI EndBlock cfiCond209
          CFI EndBlock cfiCond210
          CFI EndBlock cfiPicker211

        RSEG BANKED_CODE:CODE:NOROOT(0)
?Subroutine49:
          CFI Block cfiCond212 Using cfiCommon0
          CFI Function ZDSecMgrAddrStore
          CFI Conditional ??CrossCallReturnLabel_147, ??CrossCallReturnLabel_14
          CFI R6 load(1, XDATA, add(CFA_XSP16, literal(-9)))
          CFI VB load(1, XDATA, add(CFA_XSP16, literal(-8)))
          CFI V0 load(1, XDATA, add(CFA_XSP16, literal(-7)))
          CFI R7 load(1, XDATA, add(CFA_XSP16, literal(-6)))
          CFI ?RET_LOW load(1, XDATA, add(CFA_XSP16, literal(-5)))
          CFI ?RET_HIGH load(1, XDATA, add(CFA_XSP16, literal(-4)))
          CFI ?BRET_EXT load(1, XDATA, add(CFA_XSP16, literal(-3)))
          CFI DPL0 load(1, XDATA, add(CFA_XSP16, literal(-2)))
          CFI DPH0 load(1, XDATA, add(CFA_XSP16, literal(-1)))
          CFI CFA_SP SP+-4
          CFI CFA_XSP16 add(XSP16, 22)
          CFI Block cfiCond213 Using cfiCommon0
          CFI (cfiCond213) Function ZDSecMgrExtAddrStore
          CFI (cfiCond213) Conditional ??CrossCallReturnLabel_147, ??CrossCallReturnLabel_15
          CFI (cfiCond213) R6 load(1, XDATA, add(CFA_XSP16, literal(-9)))
          CFI (cfiCond213) VB load(1, XDATA, add(CFA_XSP16, literal(-8)))
          CFI (cfiCond213) V0 load(1, XDATA, add(CFA_XSP16, literal(-7)))
          CFI (cfiCond213) R7 load(1, XDATA, add(CFA_XSP16, literal(-6)))
          CFI (cfiCond213) ?RET_LOW load(1, XDATA, add(CFA_XSP16, literal(-5)))
          CFI (cfiCond213) ?RET_HIGH load(1, XDATA, add(CFA_XSP16, literal(-4)))
          CFI (cfiCond213) ?BRET_EXT load(1, XDATA, add(CFA_XSP16, literal(-3)))
          CFI (cfiCond213) DPL0 load(1, XDATA, add(CFA_XSP16, literal(-2)))
          CFI (cfiCond213) DPH0 load(1, XDATA, add(CFA_XSP16, literal(-1)))
          CFI (cfiCond213) CFA_SP SP+-4
          CFI (cfiCond213) CFA_XSP16 add(XSP16, 22)
          CFI Block cfiCond214 Using cfiCommon0
          CFI (cfiCond214) Function ZDSecMgrExtAddrLookup
          CFI (cfiCond214) Conditional ??CrossCallReturnLabel_147, ??CrossCallReturnLabel_16
          CFI (cfiCond214) R6 load(1, XDATA, add(CFA_XSP16, literal(-9)))
          CFI (cfiCond214) VB load(1, XDATA, add(CFA_XSP16, literal(-8)))
          CFI (cfiCond214) V0 load(1, XDATA, add(CFA_XSP16, literal(-7)))
          CFI (cfiCond214) R7 load(1, XDATA, add(CFA_XSP16, literal(-6)))
          CFI (cfiCond214) ?RET_LOW load(1, XDATA, add(CFA_XSP16, literal(-5)))
          CFI (cfiCond214) ?RET_HIGH load(1, XDATA, add(CFA_XSP16, literal(-4)))
          CFI (cfiCond214) ?BRET_EXT load(1, XDATA, add(CFA_XSP16, literal(-3)))
          CFI (cfiCond214) DPL0 load(1, XDATA, add(CFA_XSP16, literal(-2)))
          CFI (cfiCond214) DPH0 load(1, XDATA, add(CFA_XSP16, literal(-1)))
          CFI (cfiCond214) CFA_SP SP+-4
          CFI (cfiCond214) CFA_XSP16 add(XSP16, 22)
          CFI Block cfiCond215 Using cfiCommon0
          CFI (cfiCond215) Function ZDSecMgrAddrStore
          CFI (cfiCond215) Conditional ??CrossCallReturnLabel_149, ??CrossCallReturnLabel_84
          CFI (cfiCond215) R6 load(1, XDATA, add(CFA_XSP16, literal(-9)))
          CFI (cfiCond215) VB load(1, XDATA, add(CFA_XSP16, literal(-8)))
          CFI (cfiCond215) V0 load(1, XDATA, add(CFA_XSP16, literal(-7)))
          CFI (cfiCond215) R7 load(1, XDATA, add(CFA_XSP16, literal(-6)))
          CFI (cfiCond215) ?RET_LOW load(1, XDATA, add(CFA_XSP16, literal(-5)))
          CFI (cfiCond215) ?RET_HIGH load(1, XDATA, add(CFA_XSP16, literal(-4)))
          CFI (cfiCond215) ?BRET_EXT load(1, XDATA, add(CFA_XSP16, literal(-3)))
          CFI (cfiCond215) DPL0 load(1, XDATA, add(CFA_XSP16, literal(-2)))
          CFI (cfiCond215) DPH0 load(1, XDATA, add(CFA_XSP16, literal(-1)))
          CFI (cfiCond215) CFA_SP SP+-4
          CFI (cfiCond215) CFA_XSP16 add(XSP16, 22)
          CFI Block cfiCond216 Using cfiCommon0
          CFI (cfiCond216) Function ZDSecMgrExtAddrStore
          CFI (cfiCond216) Conditional ??CrossCallReturnLabel_149, ??CrossCallReturnLabel_85
          CFI (cfiCond216) R6 load(1, XDATA, add(CFA_XSP16, literal(-9)))
          CFI (cfiCond216) VB load(1, XDATA, add(CFA_XSP16, literal(-8)))
          CFI (cfiCond216) V0 load(1, XDATA, add(CFA_XSP16, literal(-7)))
          CFI (cfiCond216) R7 load(1, XDATA, add(CFA_XSP16, literal(-6)))
          CFI (cfiCond216) ?RET_LOW load(1, XDATA, add(CFA_XSP16, literal(-5)))
          CFI (cfiCond216) ?RET_HIGH load(1, XDATA, add(CFA_XSP16, literal(-4)))
          CFI (cfiCond216) ?BRET_EXT load(1, XDATA, add(CFA_XSP16, literal(-3)))
          CFI (cfiCond216) DPL0 load(1, XDATA, add(CFA_XSP16, literal(-2)))
          CFI (cfiCond216) DPH0 load(1, XDATA, add(CFA_XSP16, literal(-1)))
          CFI (cfiCond216) CFA_SP SP+-4
          CFI (cfiCond216) CFA_XSP16 add(XSP16, 22)
          CFI Block cfiCond217 Using cfiCommon0
          CFI (cfiCond217) Function ZDSecMgrExtAddrLookup
          CFI (cfiCond217) Conditional ??CrossCallReturnLabel_149, ??CrossCallReturnLabel_86
          CFI (cfiCond217) R6 load(1, XDATA, add(CFA_XSP16, literal(-9)))
          CFI (cfiCond217) VB load(1, XDATA, add(CFA_XSP16, literal(-8)))
          CFI (cfiCond217) V0 load(1, XDATA, add(CFA_XSP16, literal(-7)))
          CFI (cfiCond217) R7 load(1, XDATA, add(CFA_XSP16, literal(-6)))
          CFI (cfiCond217) ?RET_LOW load(1, XDATA, add(CFA_XSP16, literal(-5)))
          CFI (cfiCond217) ?RET_HIGH load(1, XDATA, add(CFA_XSP16, literal(-4)))
          CFI (cfiCond217) ?BRET_EXT load(1, XDATA, add(CFA_XSP16, literal(-3)))
          CFI (cfiCond217) DPL0 load(1, XDATA, add(CFA_XSP16, literal(-2)))
          CFI (cfiCond217) DPH0 load(1, XDATA, add(CFA_XSP16, literal(-1)))
          CFI (cfiCond217) CFA_SP SP+-4
          CFI (cfiCond217) CFA_XSP16 add(XSP16, 22)
          CFI Block cfiCond218 Using cfiCommon0
          CFI (cfiCond218) Function ZDSecMgrEntryLookup
          CFI (cfiCond218) Conditional ??CrossCallReturnLabel_149, ??CrossCallReturnLabel_87
          CFI (cfiCond218) R6 load(1, XDATA, add(CFA_XSP16, literal(-9)))
          CFI (cfiCond218) VB load(1, XDATA, add(CFA_XSP16, literal(-8)))
          CFI (cfiCond218) V0 load(1, XDATA, add(CFA_XSP16, literal(-7)))
          CFI (cfiCond218) R7 load(1, XDATA, add(CFA_XSP16, literal(-6)))
          CFI (cfiCond218) ?RET_LOW load(1, XDATA, add(CFA_XSP16, literal(-5)))
          CFI (cfiCond218) ?RET_HIGH load(1, XDATA, add(CFA_XSP16, literal(-4)))
          CFI (cfiCond218) ?BRET_EXT load(1, XDATA, add(CFA_XSP16, literal(-3)))
          CFI (cfiCond218) DPL0 load(1, XDATA, add(CFA_XSP16, literal(-2)))
          CFI (cfiCond218) DPH0 load(1, XDATA, add(CFA_XSP16, literal(-1)))
          CFI (cfiCond218) CFA_SP SP+-4
          CFI (cfiCond218) CFA_XSP16 add(XSP16, 22)
          CFI Block cfiCond219 Using cfiCommon0
          CFI (cfiCond219) Function ZDSecMgrEntryLookupAMI
          CFI (cfiCond219) Conditional ??CrossCallReturnLabel_149, ??CrossCallReturnLabel_88
          CFI (cfiCond219) R6 load(1, XDATA, add(CFA_XSP16, literal(-9)))
          CFI (cfiCond219) VB load(1, XDATA, add(CFA_XSP16, literal(-8)))
          CFI (cfiCond219) V0 load(1, XDATA, add(CFA_XSP16, literal(-7)))
          CFI (cfiCond219) R7 load(1, XDATA, add(CFA_XSP16, literal(-6)))
          CFI (cfiCond219) ?RET_LOW load(1, XDATA, add(CFA_XSP16, literal(-5)))
          CFI (cfiCond219) ?RET_HIGH load(1, XDATA, add(CFA_XSP16, literal(-4)))
          CFI (cfiCond219) ?BRET_EXT load(1, XDATA, add(CFA_XSP16, literal(-3)))
          CFI (cfiCond219) DPL0 load(1, XDATA, add(CFA_XSP16, literal(-2)))
          CFI (cfiCond219) DPH0 load(1, XDATA, add(CFA_XSP16, literal(-1)))
          CFI (cfiCond219) CFA_SP SP+-4
          CFI (cfiCond219) CFA_XSP16 add(XSP16, 9)
          CFI Block cfiCond220 Using cfiCommon0
          CFI (cfiCond220) Function ZDSecMgrEntryLookupExtGetIndex
          CFI (cfiCond220) Conditional ??CrossCallReturnLabel_149, ??CrossCallReturnLabel_89
          CFI (cfiCond220) R6 load(1, XDATA, add(CFA_XSP16, literal(-9)))
          CFI (cfiCond220) VB load(1, XDATA, add(CFA_XSP16, literal(-8)))
          CFI (cfiCond220) V0 load(1, XDATA, add(CFA_XSP16, literal(-7)))
          CFI (cfiCond220) R7 load(1, XDATA, add(CFA_XSP16, literal(-6)))
          CFI (cfiCond220) ?RET_LOW load(1, XDATA, add(CFA_XSP16, literal(-5)))
          CFI (cfiCond220) ?RET_HIGH load(1, XDATA, add(CFA_XSP16, literal(-4)))
          CFI (cfiCond220) ?BRET_EXT load(1, XDATA, add(CFA_XSP16, literal(-3)))
          CFI (cfiCond220) DPL0 load(1, XDATA, add(CFA_XSP16, literal(-2)))
          CFI (cfiCond220) DPH0 load(1, XDATA, add(CFA_XSP16, literal(-1)))
          CFI (cfiCond220) CFA_SP SP+-4
          CFI (cfiCond220) CFA_XSP16 add(XSP16, 11)
          CFI Block cfiCond221 Using cfiCommon0
          CFI (cfiCond221) Function ZDSecMgrEntryLookupAMIGetIndex
          CFI (cfiCond221) Conditional ??CrossCallReturnLabel_149, ??CrossCallReturnLabel_90
          CFI (cfiCond221) R6 load(1, XDATA, add(CFA_XSP16, literal(-9)))
          CFI (cfiCond221) VB load(1, XDATA, add(CFA_XSP16, literal(-8)))
          CFI (cfiCond221) V0 load(1, XDATA, add(CFA_XSP16, literal(-7)))
          CFI (cfiCond221) R7 load(1, XDATA, add(CFA_XSP16, literal(-6)))
          CFI (cfiCond221) ?RET_LOW load(1, XDATA, add(CFA_XSP16, literal(-5)))
          CFI (cfiCond221) ?RET_HIGH load(1, XDATA, add(CFA_XSP16, literal(-4)))
          CFI (cfiCond221) ?BRET_EXT load(1, XDATA, add(CFA_XSP16, literal(-3)))
          CFI (cfiCond221) DPL0 load(1, XDATA, add(CFA_XSP16, literal(-2)))
          CFI (cfiCond221) DPH0 load(1, XDATA, add(CFA_XSP16, literal(-1)))
          CFI (cfiCond221) CFA_SP SP+-4
          CFI (cfiCond221) CFA_XSP16 add(XSP16, 9)
          CFI Block cfiCond222 Using cfiCommon0
          CFI (cfiCond222) Function ZDSecMgrTclkReq
          CFI (cfiCond222) Conditional ??CrossCallReturnLabel_148, ??CrossCallReturnLabel_17
          CFI (cfiCond222) R6 load(1, XDATA, add(CFA_XSP16, literal(-10)))
          CFI (cfiCond222) VB load(1, XDATA, add(CFA_XSP16, literal(-9)))
          CFI (cfiCond222) V0 load(1, XDATA, add(CFA_XSP16, literal(-8)))
          CFI (cfiCond222) V1 load(1, XDATA, add(CFA_XSP16, literal(-7)))
          CFI (cfiCond222) R7 load(1, XDATA, add(CFA_XSP16, literal(-6)))
          CFI (cfiCond222) ?RET_LOW load(1, XDATA, add(CFA_XSP16, literal(-5)))
          CFI (cfiCond222) ?RET_HIGH load(1, XDATA, add(CFA_XSP16, literal(-4)))
          CFI (cfiCond222) ?BRET_EXT load(1, XDATA, add(CFA_XSP16, literal(-3)))
          CFI (cfiCond222) DPL0 load(1, XDATA, add(CFA_XSP16, literal(-2)))
          CFI (cfiCond222) DPH0 load(1, XDATA, add(CFA_XSP16, literal(-1)))
          CFI (cfiCond222) CFA_SP SP+-4
          CFI (cfiCond222) CFA_XSP16 add(XSP16, 69)
          CFI Block cfiCond223 Using cfiCommon0
          CFI (cfiCond223) Function ZDSecMgrDeviceRemove
          CFI (cfiCond223) Conditional ??CrossCallReturnLabel_148, ??CrossCallReturnLabel_18
          CFI (cfiCond223) R6 load(1, XDATA, add(CFA_XSP16, literal(-10)))
          CFI (cfiCond223) VB load(1, XDATA, add(CFA_XSP16, literal(-9)))
          CFI (cfiCond223) V0 load(1, XDATA, add(CFA_XSP16, literal(-8)))
          CFI (cfiCond223) V1 load(1, XDATA, add(CFA_XSP16, literal(-7)))
          CFI (cfiCond223) R7 load(1, XDATA, add(CFA_XSP16, literal(-6)))
          CFI (cfiCond223) ?RET_LOW load(1, XDATA, add(CFA_XSP16, literal(-5)))
          CFI (cfiCond223) ?RET_HIGH load(1, XDATA, add(CFA_XSP16, literal(-4)))
          CFI (cfiCond223) ?BRET_EXT load(1, XDATA, add(CFA_XSP16, literal(-3)))
          CFI (cfiCond223) DPL0 load(1, XDATA, add(CFA_XSP16, literal(-2)))
          CFI (cfiCond223) DPH0 load(1, XDATA, add(CFA_XSP16, literal(-1)))
          CFI (cfiCond223) CFA_SP SP+-4
          CFI (cfiCond223) CFA_XSP16 add(XSP16, 29)
          CFI Block cfiCond224 Using cfiCommon0
          CFI (cfiCond224) Function ZDSecMgrNewDeviceEvent
          CFI (cfiCond224) Conditional ??CrossCallReturnLabel_148, ??CrossCallReturnLabel_19
          CFI (cfiCond224) R6 load(1, XDATA, add(CFA_XSP16, literal(-12)))
          CFI (cfiCond224) VB load(1, XDATA, add(CFA_XSP16, literal(-11)))
          CFI (cfiCond224) V0 load(1, XDATA, add(CFA_XSP16, literal(-10)))
          CFI (cfiCond224) V1 load(1, XDATA, add(CFA_XSP16, literal(-9)))
          CFI (cfiCond224) V2 load(1, XDATA, add(CFA_XSP16, literal(-8)))
          CFI (cfiCond224) V3 load(1, XDATA, add(CFA_XSP16, literal(-7)))
          CFI (cfiCond224) R7 load(1, XDATA, add(CFA_XSP16, literal(-6)))
          CFI (cfiCond224) ?RET_LOW load(1, XDATA, add(CFA_XSP16, literal(-5)))
          CFI (cfiCond224) ?RET_HIGH load(1, XDATA, add(CFA_XSP16, literal(-4)))
          CFI (cfiCond224) ?BRET_EXT load(1, XDATA, add(CFA_XSP16, literal(-3)))
          CFI (cfiCond224) DPL0 load(1, XDATA, add(CFA_XSP16, literal(-2)))
          CFI (cfiCond224) DPH0 load(1, XDATA, add(CFA_XSP16, literal(-1)))
          CFI (cfiCond224) CFA_SP SP+-4
          CFI (cfiCond224) CFA_XSP16 add(XSP16, 33)
          CFI Block cfiCond225 Using cfiCommon0
          CFI (cfiCond225) Function ZDSecMgrSendNwkKey
          CFI (cfiCond225) Conditional ??CrossCallReturnLabel_146, ??CrossCallReturnLabel_10
          CFI (cfiCond225) R6 load(1, XDATA, add(CFA_XSP16, literal(-12)))
          CFI (cfiCond225) VB load(1, XDATA, add(CFA_XSP16, literal(-11)))
          CFI (cfiCond225) V0 load(1, XDATA, add(CFA_XSP16, literal(-10)))
          CFI (cfiCond225) V1 load(1, XDATA, add(CFA_XSP16, literal(-9)))
          CFI (cfiCond225) V2 load(1, XDATA, add(CFA_XSP16, literal(-8)))
          CFI (cfiCond225) V3 load(1, XDATA, add(CFA_XSP16, literal(-7)))
          CFI (cfiCond225) R7 load(1, XDATA, add(CFA_XSP16, literal(-6)))
          CFI (cfiCond225) ?RET_LOW load(1, XDATA, add(CFA_XSP16, literal(-5)))
          CFI (cfiCond225) ?RET_HIGH load(1, XDATA, add(CFA_XSP16, literal(-4)))
          CFI (cfiCond225) ?BRET_EXT load(1, XDATA, add(CFA_XSP16, literal(-3)))
          CFI (cfiCond225) DPL0 load(1, XDATA, add(CFA_XSP16, literal(-2)))
          CFI (cfiCond225) DPH0 load(1, XDATA, add(CFA_XSP16, literal(-1)))
          CFI (cfiCond225) CFA_SP SP+-4
          CFI (cfiCond225) CFA_XSP16 add(XSP16, 46)
          CFI Block cfiCond226 Using cfiCommon0
          CFI (cfiCond226) Function ZDSecMgrDeviceJoin
          CFI (cfiCond226) Conditional ??CrossCallReturnLabel_146, ??CrossCallReturnLabel_11
          CFI (cfiCond226) R6 load(1, XDATA, add(CFA_XSP16, literal(-16)))
          CFI (cfiCond226) VB load(1, XDATA, add(CFA_XSP16, literal(-15)))
          CFI (cfiCond226) V0 load(1, XDATA, add(CFA_XSP16, literal(-14)))
          CFI (cfiCond226) V1 load(1, XDATA, add(CFA_XSP16, literal(-13)))
          CFI (cfiCond226) V2 load(1, XDATA, add(CFA_XSP16, literal(-12)))
          CFI (cfiCond226) V3 load(1, XDATA, add(CFA_XSP16, literal(-11)))
          CFI (cfiCond226) V4 load(1, XDATA, add(CFA_XSP16, literal(-10)))
          CFI (cfiCond226) V5 load(1, XDATA, add(CFA_XSP16, literal(-9)))
          CFI (cfiCond226) V6 load(1, XDATA, add(CFA_XSP16, literal(-8)))
          CFI (cfiCond226) V7 load(1, XDATA, add(CFA_XSP16, literal(-7)))
          CFI (cfiCond226) R7 load(1, XDATA, add(CFA_XSP16, literal(-6)))
          CFI (cfiCond226) ?RET_LOW load(1, XDATA, add(CFA_XSP16, literal(-5)))
          CFI (cfiCond226) ?RET_HIGH load(1, XDATA, add(CFA_XSP16, literal(-4)))
          CFI (cfiCond226) ?BRET_EXT load(1, XDATA, add(CFA_XSP16, literal(-3)))
          CFI (cfiCond226) DPL0 load(1, XDATA, add(CFA_XSP16, literal(-2)))
          CFI (cfiCond226) DPH0 load(1, XDATA, add(CFA_XSP16, literal(-1)))
          CFI (cfiCond226) CFA_SP SP+-4
          CFI (cfiCond226) CFA_XSP16 add(XSP16, 30)
          CFI Block cfiCond227 Using cfiCommon0
          CFI (cfiCond227) Function ZDSecMgrTransportKeyInd
          CFI (cfiCond227) Conditional ??CrossCallReturnLabel_150, ??CrossCallReturnLabel_143
          CFI (cfiCond227) R6 load(1, XDATA, add(CFA_XSP16, literal(-14)))
          CFI (cfiCond227) VB load(1, XDATA, add(CFA_XSP16, literal(-13)))
          CFI (cfiCond227) V0 load(1, XDATA, add(CFA_XSP16, literal(-12)))
          CFI (cfiCond227) V1 load(1, XDATA, add(CFA_XSP16, literal(-11)))
          CFI (cfiCond227) V2 load(1, XDATA, add(CFA_XSP16, literal(-10)))
          CFI (cfiCond227) V3 load(1, XDATA, add(CFA_XSP16, literal(-9)))
          CFI (cfiCond227) V4 load(1, XDATA, add(CFA_XSP16, literal(-8)))
          CFI (cfiCond227) V5 load(1, XDATA, add(CFA_XSP16, literal(-7)))
          CFI (cfiCond227) R7 load(1, XDATA, add(CFA_XSP16, literal(-6)))
          CFI (cfiCond227) ?RET_LOW load(1, XDATA, add(CFA_XSP16, literal(-5)))
          CFI (cfiCond227) ?RET_HIGH load(1, XDATA, add(CFA_XSP16, literal(-4)))
          CFI (cfiCond227) ?BRET_EXT load(1, XDATA, add(CFA_XSP16, literal(-3)))
          CFI (cfiCond227) DPL0 load(1, XDATA, add(CFA_XSP16, literal(-2)))
          CFI (cfiCond227) DPH0 load(1, XDATA, add(CFA_XSP16, literal(-1)))
          CFI (cfiCond227) CFA_SP SP+-4
          CFI (cfiCond227) CFA_XSP16 add(XSP16, 54)
          CFI Block cfiCond228 Using cfiCommon0
          CFI (cfiCond228) Function ZDSecMgrAddLinkKey
          CFI (cfiCond228) Conditional ??CrossCallReturnLabel_150, ??CrossCallReturnLabel_144
          CFI (cfiCond228) R6 load(1, XDATA, add(CFA_XSP16, literal(-10)))
          CFI (cfiCond228) VB load(1, XDATA, add(CFA_XSP16, literal(-9)))
          CFI (cfiCond228) V0 load(1, XDATA, add(CFA_XSP16, literal(-8)))
          CFI (cfiCond228) V1 load(1, XDATA, add(CFA_XSP16, literal(-7)))
          CFI (cfiCond228) R7 load(1, XDATA, add(CFA_XSP16, literal(-6)))
          CFI (cfiCond228) ?RET_LOW load(1, XDATA, add(CFA_XSP16, literal(-5)))
          CFI (cfiCond228) ?RET_HIGH load(1, XDATA, add(CFA_XSP16, literal(-4)))
          CFI (cfiCond228) ?BRET_EXT load(1, XDATA, add(CFA_XSP16, literal(-3)))
          CFI (cfiCond228) DPL0 load(1, XDATA, add(CFA_XSP16, literal(-2)))
          CFI (cfiCond228) DPH0 load(1, XDATA, add(CFA_XSP16, literal(-1)))
          CFI (cfiCond228) CFA_SP SP+-4
          CFI (cfiCond228) CFA_XSP16 add(XSP16, 14)
          CFI Block cfiCond229 Using cfiCommon0
          CFI (cfiCond229) Function ZDSecMgrAddrClear
          CFI (cfiCond229) Conditional ??CrossCallReturnLabel_150, ??CrossCallReturnLabel_126
          CFI (cfiCond229) R6 load(1, XDATA, add(CFA_XSP16, literal(-9)))
          CFI (cfiCond229) VB load(1, XDATA, add(CFA_XSP16, literal(-8)))
          CFI (cfiCond229) V0 load(1, XDATA, add(CFA_XSP16, literal(-7)))
          CFI (cfiCond229) R7 load(1, XDATA, add(CFA_XSP16, literal(-6)))
          CFI (cfiCond229) ?RET_LOW load(1, XDATA, add(CFA_XSP16, literal(-5)))
          CFI (cfiCond229) ?RET_HIGH load(1, XDATA, add(CFA_XSP16, literal(-4)))
          CFI (cfiCond229) ?BRET_EXT load(1, XDATA, add(CFA_XSP16, literal(-3)))
          CFI (cfiCond229) DPL0 load(1, XDATA, add(CFA_XSP16, literal(-2)))
          CFI (cfiCond229) DPH0 load(1, XDATA, add(CFA_XSP16, literal(-1)))
          CFI (cfiCond229) CFA_SP SP+-4
          CFI (cfiCond229) CFA_XSP16 add(XSP16, 24)
          CFI Block cfiCond230 Using cfiCommon0
          CFI (cfiCond230) Function ZDSecMgrAppKeyReq
          CFI (cfiCond230) Conditional ??CrossCallReturnLabel_150, ??CrossCallReturnLabel_127
          CFI (cfiCond230) R6 load(1, XDATA, add(CFA_XSP16, literal(-12)))
          CFI (cfiCond230) VB load(1, XDATA, add(CFA_XSP16, literal(-11)))
          CFI (cfiCond230) V0 load(1, XDATA, add(CFA_XSP16, literal(-10)))
          CFI (cfiCond230) V1 load(1, XDATA, add(CFA_XSP16, literal(-9)))
          CFI (cfiCond230) V2 load(1, XDATA, add(CFA_XSP16, literal(-8)))
          CFI (cfiCond230) V3 load(1, XDATA, add(CFA_XSP16, literal(-7)))
          CFI (cfiCond230) R7 load(1, XDATA, add(CFA_XSP16, literal(-6)))
          CFI (cfiCond230) ?RET_LOW load(1, XDATA, add(CFA_XSP16, literal(-5)))
          CFI (cfiCond230) ?RET_HIGH load(1, XDATA, add(CFA_XSP16, literal(-4)))
          CFI (cfiCond230) ?BRET_EXT load(1, XDATA, add(CFA_XSP16, literal(-3)))
          CFI (cfiCond230) DPL0 load(1, XDATA, add(CFA_XSP16, literal(-2)))
          CFI (cfiCond230) DPH0 load(1, XDATA, add(CFA_XSP16, literal(-1)))
          CFI (cfiCond230) CFA_SP SP+-4
          CFI (cfiCond230) CFA_XSP16 add(XSP16, 51)
          CFI Block cfiCond231 Using cfiCommon0
          CFI (cfiCond231) Function ZDSecMgrAppKeyReq
          CFI (cfiCond231) Conditional ??CrossCallReturnLabel_150, ??CrossCallReturnLabel_128
          CFI (cfiCond231) R6 load(1, XDATA, add(CFA_XSP16, literal(-12)))
          CFI (cfiCond231) VB load(1, XDATA, add(CFA_XSP16, literal(-11)))
          CFI (cfiCond231) V0 load(1, XDATA, add(CFA_XSP16, literal(-10)))
          CFI (cfiCond231) V1 load(1, XDATA, add(CFA_XSP16, literal(-9)))
          CFI (cfiCond231) V2 load(1, XDATA, add(CFA_XSP16, literal(-8)))
          CFI (cfiCond231) V3 load(1, XDATA, add(CFA_XSP16, literal(-7)))
          CFI (cfiCond231) R7 load(1, XDATA, add(CFA_XSP16, literal(-6)))
          CFI (cfiCond231) ?RET_LOW load(1, XDATA, add(CFA_XSP16, literal(-5)))
          CFI (cfiCond231) ?RET_HIGH load(1, XDATA, add(CFA_XSP16, literal(-4)))
          CFI (cfiCond231) ?BRET_EXT load(1, XDATA, add(CFA_XSP16, literal(-3)))
          CFI (cfiCond231) DPL0 load(1, XDATA, add(CFA_XSP16, literal(-2)))
          CFI (cfiCond231) DPH0 load(1, XDATA, add(CFA_XSP16, literal(-1)))
          CFI (cfiCond231) CFA_SP SP+-4
          CFI (cfiCond231) CFA_XSP16 add(XSP16, 51)
          CFI Block cfiCond232 Using cfiCommon0
          CFI (cfiCond232) Function ZDSecMgrAppKeyReq
          CFI (cfiCond232) Conditional ??CrossCallReturnLabel_150, ??CrossCallReturnLabel_129
          CFI (cfiCond232) R6 load(1, XDATA, add(CFA_XSP16, literal(-12)))
          CFI (cfiCond232) VB load(1, XDATA, add(CFA_XSP16, literal(-11)))
          CFI (cfiCond232) V0 load(1, XDATA, add(CFA_XSP16, literal(-10)))
          CFI (cfiCond232) V1 load(1, XDATA, add(CFA_XSP16, literal(-9)))
          CFI (cfiCond232) V2 load(1, XDATA, add(CFA_XSP16, literal(-8)))
          CFI (cfiCond232) V3 load(1, XDATA, add(CFA_XSP16, literal(-7)))
          CFI (cfiCond232) R7 load(1, XDATA, add(CFA_XSP16, literal(-6)))
          CFI (cfiCond232) ?RET_LOW load(1, XDATA, add(CFA_XSP16, literal(-5)))
          CFI (cfiCond232) ?RET_HIGH load(1, XDATA, add(CFA_XSP16, literal(-4)))
          CFI (cfiCond232) ?BRET_EXT load(1, XDATA, add(CFA_XSP16, literal(-3)))
          CFI (cfiCond232) DPL0 load(1, XDATA, add(CFA_XSP16, literal(-2)))
          CFI (cfiCond232) DPH0 load(1, XDATA, add(CFA_XSP16, literal(-1)))
          CFI (cfiCond232) CFA_SP SP+-4
          CFI (cfiCond232) CFA_XSP16 add(XSP16, 51)
          CFI Block cfiCond233 Using cfiCommon0
          CFI (cfiCond233) Function ZDSecMgrAppKeyReq
          CFI (cfiCond233) Conditional ??CrossCallReturnLabel_150, ??CrossCallReturnLabel_130
          CFI (cfiCond233) R6 load(1, XDATA, add(CFA_XSP16, literal(-12)))
          CFI (cfiCond233) VB load(1, XDATA, add(CFA_XSP16, literal(-11)))
          CFI (cfiCond233) V0 load(1, XDATA, add(CFA_XSP16, literal(-10)))
          CFI (cfiCond233) V1 load(1, XDATA, add(CFA_XSP16, literal(-9)))
          CFI (cfiCond233) V2 load(1, XDATA, add(CFA_XSP16, literal(-8)))
          CFI (cfiCond233) V3 load(1, XDATA, add(CFA_XSP16, literal(-7)))
          CFI (cfiCond233) R7 load(1, XDATA, add(CFA_XSP16, literal(-6)))
          CFI (cfiCond233) ?RET_LOW load(1, XDATA, add(CFA_XSP16, literal(-5)))
          CFI (cfiCond233) ?RET_HIGH load(1, XDATA, add(CFA_XSP16, literal(-4)))
          CFI (cfiCond233) ?BRET_EXT load(1, XDATA, add(CFA_XSP16, literal(-3)))
          CFI (cfiCond233) DPL0 load(1, XDATA, add(CFA_XSP16, literal(-2)))
          CFI (cfiCond233) DPH0 load(1, XDATA, add(CFA_XSP16, literal(-1)))
          CFI (cfiCond233) CFA_SP SP+-4
          CFI (cfiCond233) CFA_XSP16 add(XSP16, 51)
          CFI Block cfiCond234 Using cfiCommon0
          CFI (cfiCond234) Function ZDSecMgrTclkReq
          CFI (cfiCond234) Conditional ??CrossCallReturnLabel_150, ??CrossCallReturnLabel_131
          CFI (cfiCond234) R6 load(1, XDATA, add(CFA_XSP16, literal(-10)))
          CFI (cfiCond234) VB load(1, XDATA, add(CFA_XSP16, literal(-9)))
          CFI (cfiCond234) V0 load(1, XDATA, add(CFA_XSP16, literal(-8)))
          CFI (cfiCond234) V1 load(1, XDATA, add(CFA_XSP16, literal(-7)))
          CFI (cfiCond234) R7 load(1, XDATA, add(CFA_XSP16, literal(-6)))
          CFI (cfiCond234) ?RET_LOW load(1, XDATA, add(CFA_XSP16, literal(-5)))
          CFI (cfiCond234) ?RET_HIGH load(1, XDATA, add(CFA_XSP16, literal(-4)))
          CFI (cfiCond234) ?BRET_EXT load(1, XDATA, add(CFA_XSP16, literal(-3)))
          CFI (cfiCond234) DPL0 load(1, XDATA, add(CFA_XSP16, literal(-2)))
          CFI (cfiCond234) DPH0 load(1, XDATA, add(CFA_XSP16, literal(-1)))
          CFI (cfiCond234) CFA_SP SP+-4
          CFI (cfiCond234) CFA_XSP16 add(XSP16, 69)
          CFI Block cfiCond235 Using cfiCommon0
          CFI (cfiCond235) Function ZDSecMgrTclkReq
          CFI (cfiCond235) Conditional ??CrossCallReturnLabel_150, ??CrossCallReturnLabel_132
          CFI (cfiCond235) R6 load(1, XDATA, add(CFA_XSP16, literal(-10)))
          CFI (cfiCond235) VB load(1, XDATA, add(CFA_XSP16, literal(-9)))
          CFI (cfiCond235) V0 load(1, XDATA, add(CFA_XSP16, literal(-8)))
          CFI (cfiCond235) V1 load(1, XDATA, add(CFA_XSP16, literal(-7)))
          CFI (cfiCond235) R7 load(1, XDATA, add(CFA_XSP16, literal(-6)))
          CFI (cfiCond235) ?RET_LOW load(1, XDATA, add(CFA_XSP16, literal(-5)))
          CFI (cfiCond235) ?RET_HIGH load(1, XDATA, add(CFA_XSP16, literal(-4)))
          CFI (cfiCond235) ?BRET_EXT load(1, XDATA, add(CFA_XSP16, literal(-3)))
          CFI (cfiCond235) DPL0 load(1, XDATA, add(CFA_XSP16, literal(-2)))
          CFI (cfiCond235) DPH0 load(1, XDATA, add(CFA_XSP16, literal(-1)))
          CFI (cfiCond235) CFA_SP SP+-4
          CFI (cfiCond235) CFA_XSP16 add(XSP16, 69)
          CFI Block cfiCond236 Using cfiCommon0
          CFI (cfiCond236) Function ZDSecMgrSendNwkKey
          CFI (cfiCond236) Conditional ??CrossCallReturnLabel_150, ??CrossCallReturnLabel_133
          CFI (cfiCond236) R6 load(1, XDATA, add(CFA_XSP16, literal(-12)))
          CFI (cfiCond236) VB load(1, XDATA, add(CFA_XSP16, literal(-11)))
          CFI (cfiCond236) V0 load(1, XDATA, add(CFA_XSP16, literal(-10)))
          CFI (cfiCond236) V1 load(1, XDATA, add(CFA_XSP16, literal(-9)))
          CFI (cfiCond236) V2 load(1, XDATA, add(CFA_XSP16, literal(-8)))
          CFI (cfiCond236) V3 load(1, XDATA, add(CFA_XSP16, literal(-7)))
          CFI (cfiCond236) R7 load(1, XDATA, add(CFA_XSP16, literal(-6)))
          CFI (cfiCond236) ?RET_LOW load(1, XDATA, add(CFA_XSP16, literal(-5)))
          CFI (cfiCond236) ?RET_HIGH load(1, XDATA, add(CFA_XSP16, literal(-4)))
          CFI (cfiCond236) ?BRET_EXT load(1, XDATA, add(CFA_XSP16, literal(-3)))
          CFI (cfiCond236) DPL0 load(1, XDATA, add(CFA_XSP16, literal(-2)))
          CFI (cfiCond236) DPH0 load(1, XDATA, add(CFA_XSP16, literal(-1)))
          CFI (cfiCond236) CFA_SP SP+-4
          CFI (cfiCond236) CFA_XSP16 add(XSP16, 46)
          CFI Block cfiCond237 Using cfiCommon0
          CFI (cfiCond237) Function ZDSecMgrSendNwkKey
          CFI (cfiCond237) Conditional ??CrossCallReturnLabel_150, ??CrossCallReturnLabel_134
          CFI (cfiCond237) R6 load(1, XDATA, add(CFA_XSP16, literal(-12)))
          CFI (cfiCond237) VB load(1, XDATA, add(CFA_XSP16, literal(-11)))
          CFI (cfiCond237) V0 load(1, XDATA, add(CFA_XSP16, literal(-10)))
          CFI (cfiCond237) V1 load(1, XDATA, add(CFA_XSP16, literal(-9)))
          CFI (cfiCond237) V2 load(1, XDATA, add(CFA_XSP16, literal(-8)))
          CFI (cfiCond237) V3 load(1, XDATA, add(CFA_XSP16, literal(-7)))
          CFI (cfiCond237) R7 load(1, XDATA, add(CFA_XSP16, literal(-6)))
          CFI (cfiCond237) ?RET_LOW load(1, XDATA, add(CFA_XSP16, literal(-5)))
          CFI (cfiCond237) ?RET_HIGH load(1, XDATA, add(CFA_XSP16, literal(-4)))
          CFI (cfiCond237) ?BRET_EXT load(1, XDATA, add(CFA_XSP16, literal(-3)))
          CFI (cfiCond237) DPL0 load(1, XDATA, add(CFA_XSP16, literal(-2)))
          CFI (cfiCond237) DPH0 load(1, XDATA, add(CFA_XSP16, literal(-1)))
          CFI (cfiCond237) CFA_SP SP+-4
          CFI (cfiCond237) CFA_XSP16 add(XSP16, 46)
          CFI Block cfiCond238 Using cfiCommon0
          CFI (cfiCond238) Function ZDSecMgrSendNwkKey
          CFI (cfiCond238) Conditional ??CrossCallReturnLabel_150, ??CrossCallReturnLabel_135
          CFI (cfiCond238) R6 load(1, XDATA, add(CFA_XSP16, literal(-12)))
          CFI (cfiCond238) VB load(1, XDATA, add(CFA_XSP16, literal(-11)))
          CFI (cfiCond238) V0 load(1, XDATA, add(CFA_XSP16, literal(-10)))
          CFI (cfiCond238) V1 load(1, XDATA, add(CFA_XSP16, literal(-9)))
          CFI (cfiCond238) V2 load(1, XDATA, add(CFA_XSP16, literal(-8)))
          CFI (cfiCond238) V3 load(1, XDATA, add(CFA_XSP16, literal(-7)))
          CFI (cfiCond238) R7 load(1, XDATA, add(CFA_XSP16, literal(-6)))
          CFI (cfiCond238) ?RET_LOW load(1, XDATA, add(CFA_XSP16, literal(-5)))
          CFI (cfiCond238) ?RET_HIGH load(1, XDATA, add(CFA_XSP16, literal(-4)))
          CFI (cfiCond238) ?BRET_EXT load(1, XDATA, add(CFA_XSP16, literal(-3)))
          CFI (cfiCond238) DPL0 load(1, XDATA, add(CFA_XSP16, literal(-2)))
          CFI (cfiCond238) DPH0 load(1, XDATA, add(CFA_XSP16, literal(-1)))
          CFI (cfiCond238) CFA_SP SP+-4
          CFI (cfiCond238) CFA_XSP16 add(XSP16, 46)
          CFI Block cfiCond239 Using cfiCommon0
          CFI (cfiCond239) Function ZDSecMgrDeviceJoin
          CFI (cfiCond239) Conditional ??CrossCallReturnLabel_150, ??CrossCallReturnLabel_136
          CFI (cfiCond239) R6 load(1, XDATA, add(CFA_XSP16, literal(-16)))
          CFI (cfiCond239) VB load(1, XDATA, add(CFA_XSP16, literal(-15)))
          CFI (cfiCond239) V0 load(1, XDATA, add(CFA_XSP16, literal(-14)))
          CFI (cfiCond239) V1 load(1, XDATA, add(CFA_XSP16, literal(-13)))
          CFI (cfiCond239) V2 load(1, XDATA, add(CFA_XSP16, literal(-12)))
          CFI (cfiCond239) V3 load(1, XDATA, add(CFA_XSP16, literal(-11)))
          CFI (cfiCond239) V4 load(1, XDATA, add(CFA_XSP16, literal(-10)))
          CFI (cfiCond239) V5 load(1, XDATA, add(CFA_XSP16, literal(-9)))
          CFI (cfiCond239) V6 load(1, XDATA, add(CFA_XSP16, literal(-8)))
          CFI (cfiCond239) V7 load(1, XDATA, add(CFA_XSP16, literal(-7)))
          CFI (cfiCond239) R7 load(1, XDATA, add(CFA_XSP16, literal(-6)))
          CFI (cfiCond239) ?RET_LOW load(1, XDATA, add(CFA_XSP16, literal(-5)))
          CFI (cfiCond239) ?RET_HIGH load(1, XDATA, add(CFA_XSP16, literal(-4)))
          CFI (cfiCond239) ?BRET_EXT load(1, XDATA, add(CFA_XSP16, literal(-3)))
          CFI (cfiCond239) DPL0 load(1, XDATA, add(CFA_XSP16, literal(-2)))
          CFI (cfiCond239) DPH0 load(1, XDATA, add(CFA_XSP16, literal(-1)))
          CFI (cfiCond239) CFA_SP SP+-4
          CFI (cfiCond239) CFA_XSP16 add(XSP16, 30)
          CFI Block cfiCond240 Using cfiCommon0
          CFI (cfiCond240) Function ZDSecMgrDeviceJoinFwd
          CFI (cfiCond240) Conditional ??CrossCallReturnLabel_150, ??CrossCallReturnLabel_137
          CFI (cfiCond240) R6 load(1, XDATA, add(CFA_XSP16, literal(-10)))
          CFI (cfiCond240) VB load(1, XDATA, add(CFA_XSP16, literal(-9)))
          CFI (cfiCond240) V0 load(1, XDATA, add(CFA_XSP16, literal(-8)))
          CFI (cfiCond240) V1 load(1, XDATA, add(CFA_XSP16, literal(-7)))
          CFI (cfiCond240) R7 load(1, XDATA, add(CFA_XSP16, literal(-6)))
          CFI (cfiCond240) ?RET_LOW load(1, XDATA, add(CFA_XSP16, literal(-5)))
          CFI (cfiCond240) ?RET_HIGH load(1, XDATA, add(CFA_XSP16, literal(-4)))
          CFI (cfiCond240) ?BRET_EXT load(1, XDATA, add(CFA_XSP16, literal(-3)))
          CFI (cfiCond240) DPL0 load(1, XDATA, add(CFA_XSP16, literal(-2)))
          CFI (cfiCond240) DPH0 load(1, XDATA, add(CFA_XSP16, literal(-1)))
          CFI (cfiCond240) CFA_SP SP+-4
          CFI (cfiCond240) CFA_XSP16 add(XSP16, 27)
          CFI Block cfiCond241 Using cfiCommon0
          CFI (cfiCond241) Function ZDSecMgrNewDeviceEvent
          CFI (cfiCond241) Conditional ??CrossCallReturnLabel_150, ??CrossCallReturnLabel_138
          CFI (cfiCond241) R6 load(1, XDATA, add(CFA_XSP16, literal(-12)))
          CFI (cfiCond241) VB load(1, XDATA, add(CFA_XSP16, literal(-11)))
          CFI (cfiCond241) V0 load(1, XDATA, add(CFA_XSP16, literal(-10)))
          CFI (cfiCond241) V1 load(1, XDATA, add(CFA_XSP16, literal(-9)))
          CFI (cfiCond241) V2 load(1, XDATA, add(CFA_XSP16, literal(-8)))
          CFI (cfiCond241) V3 load(1, XDATA, add(CFA_XSP16, literal(-7)))
          CFI (cfiCond241) R7 load(1, XDATA, add(CFA_XSP16, literal(-6)))
          CFI (cfiCond241) ?RET_LOW load(1, XDATA, add(CFA_XSP16, literal(-5)))
          CFI (cfiCond241) ?RET_HIGH load(1, XDATA, add(CFA_XSP16, literal(-4)))
          CFI (cfiCond241) ?BRET_EXT load(1, XDATA, add(CFA_XSP16, literal(-3)))
          CFI (cfiCond241) DPL0 load(1, XDATA, add(CFA_XSP16, literal(-2)))
          CFI (cfiCond241) DPH0 load(1, XDATA, add(CFA_XSP16, literal(-1)))
          CFI (cfiCond241) CFA_SP SP+-4
          CFI (cfiCond241) CFA_XSP16 add(XSP16, 33)
          CFI Block cfiCond242 Using cfiCommon0
          CFI (cfiCond242) Function ZDSecMgrNewDeviceEvent
          CFI (cfiCond242) Conditional ??CrossCallReturnLabel_150, ??CrossCallReturnLabel_139
          CFI (cfiCond242) R6 load(1, XDATA, add(CFA_XSP16, literal(-12)))
          CFI (cfiCond242) VB load(1, XDATA, add(CFA_XSP16, literal(-11)))
          CFI (cfiCond242) V0 load(1, XDATA, add(CFA_XSP16, literal(-10)))
          CFI (cfiCond242) V1 load(1, XDATA, add(CFA_XSP16, literal(-9)))
          CFI (cfiCond242) V2 load(1, XDATA, add(CFA_XSP16, literal(-8)))
          CFI (cfiCond242) V3 load(1, XDATA, add(CFA_XSP16, literal(-7)))
          CFI (cfiCond242) R7 load(1, XDATA, add(CFA_XSP16, literal(-6)))
          CFI (cfiCond242) ?RET_LOW load(1, XDATA, add(CFA_XSP16, literal(-5)))
          CFI (cfiCond242) ?RET_HIGH load(1, XDATA, add(CFA_XSP16, literal(-4)))
          CFI (cfiCond242) ?BRET_EXT load(1, XDATA, add(CFA_XSP16, literal(-3)))
          CFI (cfiCond242) DPL0 load(1, XDATA, add(CFA_XSP16, literal(-2)))
          CFI (cfiCond242) DPH0 load(1, XDATA, add(CFA_XSP16, literal(-1)))
          CFI (cfiCond242) CFA_SP SP+-4
          CFI (cfiCond242) CFA_XSP16 add(XSP16, 33)
          CFI Block cfiCond243 Using cfiCommon0
          CFI (cfiCond243) Function ZDSecMgrUpdateDeviceInd
          CFI (cfiCond243) Conditional ??CrossCallReturnLabel_150, ??CrossCallReturnLabel_140
          CFI (cfiCond243) DPL0 Frame(CFA_SP, 4)
          CFI (cfiCond243) DPH0 Frame(CFA_SP, 5)
          CFI (cfiCond243) CFA_SP SP+-9
          CFI (cfiCond243) CFA_XSP16 add(XSP16, 8)
          CFI Block cfiCond244 Using cfiCommon0
          CFI (cfiCond244) Function ZDSecMgrUpdateDeviceInd
          CFI (cfiCond244) Conditional ??CrossCallReturnLabel_150, ??CrossCallReturnLabel_141
          CFI (cfiCond244) DPL0 Frame(CFA_SP, 4)
          CFI (cfiCond244) DPH0 Frame(CFA_SP, 5)
          CFI (cfiCond244) CFA_SP SP+-9
          CFI (cfiCond244) CFA_XSP16 add(XSP16, 8)
          CFI Block cfiCond245 Using cfiCommon0
          CFI (cfiCond245) Function APSME_LinkKeySet
          CFI (cfiCond245) Conditional ??CrossCallReturnLabel_150, ??CrossCallReturnLabel_142
          CFI (cfiCond245) R6 load(1, XDATA, add(CFA_XSP16, literal(-15)))
          CFI (cfiCond245) VB load(1, XDATA, add(CFA_XSP16, literal(-14)))
          CFI (cfiCond245) V0 load(1, XDATA, add(CFA_XSP16, literal(-13)))
          CFI (cfiCond245) V1 load(1, XDATA, add(CFA_XSP16, literal(-12)))
          CFI (cfiCond245) V2 load(1, XDATA, add(CFA_XSP16, literal(-11)))
          CFI (cfiCond245) V3 load(1, XDATA, add(CFA_XSP16, literal(-10)))
          CFI (cfiCond245) V4 load(1, XDATA, add(CFA_XSP16, literal(-9)))
          CFI (cfiCond245) V5 load(1, XDATA, add(CFA_XSP16, literal(-8)))
          CFI (cfiCond245) V6 load(1, XDATA, add(CFA_XSP16, literal(-7)))
          CFI (cfiCond245) R7 load(1, XDATA, add(CFA_XSP16, literal(-6)))
          CFI (cfiCond245) ?RET_LOW load(1, XDATA, add(CFA_XSP16, literal(-5)))
          CFI (cfiCond245) ?RET_HIGH load(1, XDATA, add(CFA_XSP16, literal(-4)))
          CFI (cfiCond245) ?BRET_EXT load(1, XDATA, add(CFA_XSP16, literal(-3)))
          CFI (cfiCond245) DPL0 load(1, XDATA, add(CFA_XSP16, literal(-2)))
          CFI (cfiCond245) DPH0 load(1, XDATA, add(CFA_XSP16, literal(-1)))
          CFI (cfiCond245) CFA_SP SP+-4
          CFI (cfiCond245) CFA_XSP16 add(XSP16, 19)
          CFI Block cfiCond246 Using cfiCommon0
          CFI (cfiCond246) Function ZDSecMgrDeviceJoinFwd
          CFI (cfiCond246) Conditional ??CrossCallReturnLabel_145, ??CrossCallReturnLabel_0
          CFI (cfiCond246) R6 load(1, XDATA, add(CFA_XSP16, literal(-10)))
          CFI (cfiCond246) VB load(1, XDATA, add(CFA_XSP16, literal(-9)))
          CFI (cfiCond246) V0 load(1, XDATA, add(CFA_XSP16, literal(-8)))
          CFI (cfiCond246) V1 load(1, XDATA, add(CFA_XSP16, literal(-7)))
          CFI (cfiCond246) R7 load(1, XDATA, add(CFA_XSP16, literal(-6)))
          CFI (cfiCond246) ?RET_LOW load(1, XDATA, add(CFA_XSP16, literal(-5)))
          CFI (cfiCond246) ?RET_HIGH load(1, XDATA, add(CFA_XSP16, literal(-4)))
          CFI (cfiCond246) ?BRET_EXT load(1, XDATA, add(CFA_XSP16, literal(-3)))
          CFI (cfiCond246) DPL0 load(1, XDATA, add(CFA_XSP16, literal(-2)))
          CFI (cfiCond246) DPH0 load(1, XDATA, add(CFA_XSP16, literal(-1)))
          CFI (cfiCond246) CFA_SP SP+-4
          CFI (cfiCond246) CFA_XSP16 add(XSP16, 27)
          CFI Block cfiCond247 Using cfiCommon0
          CFI (cfiCond247) Function ZDSecMgrUpdateDeviceInd
          CFI (cfiCond247) Conditional ??CrossCallReturnLabel_145, ??CrossCallReturnLabel_1
          CFI (cfiCond247) DPL0 Frame(CFA_SP, 4)
          CFI (cfiCond247) DPH0 Frame(CFA_SP, 5)
          CFI (cfiCond247) CFA_SP SP+-9
          CFI (cfiCond247) CFA_XSP16 add(XSP16, 8)
          CFI Block cfiPicker248 Using cfiCommon1
          CFI (cfiPicker248) NoFunction
          CFI (cfiPicker248) Picker
        MOV     A,R0
        MOVX    @DPTR,A
        INC     DPTR
        MOV     A,R1
        MOVX    @DPTR,A
        RET
          CFI EndBlock cfiCond212
          CFI EndBlock cfiCond213
          CFI EndBlock cfiCond214
          CFI EndBlock cfiCond215
          CFI EndBlock cfiCond216
          CFI EndBlock cfiCond217
          CFI EndBlock cfiCond218
          CFI EndBlock cfiCond219
          CFI EndBlock cfiCond220
          CFI EndBlock cfiCond221
          CFI EndBlock cfiCond222
          CFI EndBlock cfiCond223
          CFI EndBlock cfiCond224
          CFI EndBlock cfiCond225
          CFI EndBlock cfiCond226
          CFI EndBlock cfiCond227
          CFI EndBlock cfiCond228
          CFI EndBlock cfiCond229
          CFI EndBlock cfiCond230
          CFI EndBlock cfiCond231
          CFI EndBlock cfiCond232
          CFI EndBlock cfiCond233
          CFI EndBlock cfiCond234
          CFI EndBlock cfiCond235
          CFI EndBlock cfiCond236
          CFI EndBlock cfiCond237
          CFI EndBlock cfiCond238
          CFI EndBlock cfiCond239
          CFI EndBlock cfiCond240
          CFI EndBlock cfiCond241
          CFI EndBlock cfiCond242
          CFI EndBlock cfiCond243
          CFI EndBlock cfiCond244
          CFI EndBlock cfiCond245
          CFI EndBlock cfiCond246
          CFI EndBlock cfiCond247
          CFI EndBlock cfiPicker248
// 1452 
// 1453 /******************************************************************************
// 1454  * @fn          ZDSecMgrDeviceNew
// 1455  *
// 1456  * @brief       Process a new device.
// 1457  *
// 1458  * @param       device - [in] ZDSecMgrDevice_t, device info
// 1459  *
// 1460  * @return      ZStatus_t
// 1461  */

        RSEG BANKED_CODE:CODE:NOROOT(0)
// 1462 ZStatus_t ZDSecMgrDeviceNew( ZDSecMgrDevice_t* joiner )
ZDSecMgrDeviceNew:
          CFI Block cfiBlock249 Using cfiCommon0
          CFI Function ZDSecMgrDeviceNew
        CODE
// 1463 {
        FUNCALL ZDSecMgrDeviceNew, ZDSecMgrDeviceJoinFwd
        LOCFRAME ISTACK, 2, STACK
        LOCFRAME PSTACK, 0, STACK
        LOCFRAME XSTACK, 0, STACK
        LOCFRAME IOVERLAY, 0, STATIC
        LOCFRAME DOVERLAY, 0, STATIC
        ARGFRAME ISTACK, 2, STACK
        ARGFRAME PSTACK, 0, STACK
        ARGFRAME XSTACK, 0, STACK
        ARGFRAME IOVERLAY, 0, STATIC
        ARGFRAME DOVERLAY, 0, STATIC
        PUSH    DPL
          CFI DPL0 Frame(CFA_SP, 4)
          CFI CFA_SP SP+-4
        PUSH    DPH
          CFI DPH0 Frame(CFA_SP, 5)
          CFI CFA_SP SP+-5
        ; Saved register size: 2
        ; Auto size: 0
// 1464   ZStatus_t status;
// 1465 
// 1466   if ( ( ( ZG_BUILD_COORDINATOR_TYPE ) && ( ZG_DEVICE_COORDINATOR_TYPE ) )
// 1467       || ( ( ZG_BUILD_RTR_TYPE ) && APSME_IsDistributedSecurity() ) )
// 1468   {
// 1469     // try to join this device
// 1470     status = ZDSecMgrDeviceJoinDirect( joiner );
// 1471   }
// 1472   else
// 1473   {
// 1474     status = ZDSecMgrDeviceJoinFwd( joiner );
// 1475   }
// 1476 
// 1477   return status;
        ; Setup parameters for call to function ZDSecMgrDeviceJoinFwd
        LCALL   `??ZDSecMgrDeviceJoinFwd::?relay`; Banked call to: ZDSecMgrDeviceJoinFwd
        SJMP    ??Subroutine65_0
// 1478 }
          CFI EndBlock cfiBlock249
// 1479 
// 1480 /******************************************************************************
// 1481  * @fn          ZDSecMgrAssocDeviceAuth
// 1482  *
// 1483  * @brief       Set associated device status to authenticated
// 1484  *
// 1485  * @param       assoc - [in, out] associated_devices_t
// 1486  *
// 1487  * @return      none
// 1488  */

        RSEG BANKED_CODE:CODE:NOROOT(0)
// 1489 void ZDSecMgrAssocDeviceAuth( associated_devices_t* assoc )
ZDSecMgrAssocDeviceAuth:
          CFI Block cfiBlock250 Using cfiCommon0
          CFI Function ZDSecMgrAssocDeviceAuth
        CODE
// 1490 {
        PUSH    DPL
          CFI DPL0 Frame(CFA_SP, 4)
          CFI CFA_SP SP+-4
        PUSH    DPH
          CFI DPH0 Frame(CFA_SP, 5)
          CFI CFA_SP SP+-5
        ; Saved register size: 2
        ; Auto size: 0
// 1491   if ( assoc != NULL )
        MOV     A,R2
        ORL     A,R3
        JZ      ??ZDSecMgrAssocDeviceAuth_0
// 1492   {
// 1493     assoc->devStatus |= DEV_SEC_AUTH_STATUS;
        MOV     DPL,R2
        MOV     DPH,R3
        INC     DPTR
        INC     DPTR
        INC     DPTR
        INC     DPTR
        INC     DPTR
        MOVX    A,@DPTR
        SETB    0xE0 /* A   */.3
        MOVX    @DPTR,A
// 1494   }
// 1495 }
??ZDSecMgrAssocDeviceAuth_0:
        SJMP    ??Subroutine65_0
          CFI EndBlock cfiBlock250

        RSEG BANKED_CODE:CODE:NOROOT(0)
?Subroutine2:
          CFI Block cfiBlock251 Using cfiCommon0
          CFI NoFunction
          CFI CFA_SP SP+-5
          CFI CFA_XSP16 add(XSP16, 8)
          CFI DPL0 Frame(CFA_SP, 4)
          CFI DPH0 Frame(CFA_SP, 5)
        MOV     A,#0x8
          CFI EndBlock cfiBlock251
        REQUIRE ??Subroutine64_0
        ; // Fall through to label ??Subroutine64_0

        RSEG BANKED_CODE:CODE:NOROOT(0)
??Subroutine64_0:
          CFI Block cfiBlock252 Using cfiCommon0
          CFI NoFunction
          CFI CFA_SP SP+-5
          CFI CFA_XSP16 add(XSP16, 4)
          CFI DPL0 Frame(CFA_SP, 4)
          CFI DPH0 Frame(CFA_SP, 5)
          CFI Invalid
        LCALL   ?DEALLOC_XSTACK8
          CFI EndBlock cfiBlock252
        REQUIRE ??Subroutine65_0
        ; // Fall through to label ??Subroutine65_0

        RSEG BANKED_CODE:CODE:NOROOT(0)
??Subroutine65_0:
          CFI Block cfiBlock253 Using cfiCommon0
          CFI NoFunction
          CFI CFA_SP SP+-5
          CFI DPL0 Frame(CFA_SP, 4)
          CFI DPH0 Frame(CFA_SP, 5)
        POP     DPH
          CFI CFA_SP SP+-4
          CFI DPH0 SameValue
        POP     DPL
          CFI CFA_SP SP+-3
          CFI DPL0 SameValue
        LJMP    ?BRET
          CFI EndBlock cfiBlock253
// 1496 
// 1497 /******************************************************************************
// 1498  * @fn          ZDSecMgrAuthNwkKey
// 1499  *
// 1500  * @brief       Handle next step in authentication process
// 1501  *
// 1502  * @param       none
// 1503  *
// 1504  * @return      none
// 1505  */

        RSEG BANKED_CODE:CODE:NOROOT(0)
// 1506 void ZDSecMgrAuthNwkKey()
ZDSecMgrAuthNwkKey:
          CFI Block cfiBlock254 Using cfiCommon0
          CFI Function ZDSecMgrAuthNwkKey
        CODE
// 1507 {
        FUNCALL ZDSecMgrAuthNwkKey, osal_set_event
        LOCFRAME ISTACK, 2, STACK
        LOCFRAME PSTACK, 0, STACK
        LOCFRAME XSTACK, 0, STACK
        LOCFRAME IOVERLAY, 0, STATIC
        LOCFRAME DOVERLAY, 0, STATIC
        ARGFRAME ISTACK, 2, STACK
        ARGFRAME PSTACK, 0, STACK
        ARGFRAME XSTACK, 0, STACK
        ARGFRAME IOVERLAY, 0, STATIC
        ARGFRAME DOVERLAY, 0, STATIC
        PUSH    DPL
          CFI DPL0 Frame(CFA_SP, 4)
          CFI CFA_SP SP+-4
        PUSH    DPH
          CFI DPH0 Frame(CFA_SP, 5)
          CFI CFA_SP SP+-5
        ; Saved register size: 2
        ; Auto size: 0
// 1508   if ( devState == DEV_END_DEVICE_UNAUTH )
        MOV     DPTR,#devState
        MOVX    A,@DPTR
        XRL     A,#0x5
        JNZ     ??ZDSecMgrAuthNwkKey_0
// 1509   {
// 1510     // inform ZDO that device has been authenticated
// 1511     osal_set_event ( ZDAppTaskID, ZDO_DEVICE_AUTH );
        ; Setup parameters for call to function osal_set_event
        MOV     R2,#-0x80
        MOV     R3,#0x0
        MOV     DPTR,#ZDAppTaskID
        MOVX    A,@DPTR
        MOV     R1,A
        LCALL   `??osal_set_event::?relay`; Banked call to: osal_set_event
// 1512   }
// 1513 }
??ZDSecMgrAuthNwkKey_0:
        SJMP    ??Subroutine65_0
          CFI EndBlock cfiBlock254
// 1514 
// 1515 /******************************************************************************
// 1516  * PUBLIC FUNCTIONS
// 1517  */
// 1518 /******************************************************************************
// 1519  * @fn          ZDSecMgrInit
// 1520  *
// 1521  * @brief       Initialize ZigBee Device Security Manager.
// 1522  *
// 1523  * @param       state - device initialization state
// 1524  *
// 1525  * @return      none
// 1526  */
// 1527 #if ( ADDRMGR_CALLBACK_ENABLED == 1 )
// 1528 void ZDSecMgrAddrMgrCB( uint8 update, AddrMgrEntry_t* newEntry, AddrMgrEntry_t* oldEntry );
// 1529 void ZDSecMgrAddrMgrCB( uint8           update,
// 1530                         AddrMgrEntry_t* newEntry,
// 1531                         AddrMgrEntry_t* oldEntry )
// 1532 {
// 1533   (void)update;
// 1534   (void)newEntry;
// 1535   (void)oldEntry;
// 1536 }
// 1537 #endif // ( ADDRMGR_CALLBACK_ENABLED == 1 )
// 1538 

        RSEG BANKED_CODE:CODE:NOROOT(0)
// 1539 void ZDSecMgrInit(uint8 state)
ZDSecMgrInit:
          CFI Block cfiBlock255 Using cfiCommon0
          CFI Function ZDSecMgrInit
        CODE
// 1540 {
        FUNCALL ZDSecMgrInit, ZDSecMgrEntryInit
        LOCFRAME ISTACK, 0, STACK
        LOCFRAME PSTACK, 0, STACK
        LOCFRAME XSTACK, 9, STACK
        LOCFRAME IOVERLAY, 0, STATIC
        LOCFRAME DOVERLAY, 0, STATIC
        ARGFRAME ISTACK, 0, STACK
        ARGFRAME PSTACK, 0, STACK
        ARGFRAME XSTACK, 9, STACK
        ARGFRAME IOVERLAY, 0, STATIC
        ARGFRAME DOVERLAY, 0, STATIC
        FUNCALL ZDSecMgrInit, SSP_Init
        LOCFRAME ISTACK, 0, STACK
        LOCFRAME PSTACK, 0, STACK
        LOCFRAME XSTACK, 9, STACK
        LOCFRAME IOVERLAY, 0, STATIC
        LOCFRAME DOVERLAY, 0, STATIC
        ARGFRAME ISTACK, 0, STACK
        ARGFRAME PSTACK, 0, STACK
        ARGFRAME XSTACK, 9, STACK
        ARGFRAME IOVERLAY, 0, STATIC
        ARGFRAME DOVERLAY, 0, STATIC
        FUNCALL ZDSecMgrInit, APSME_SecurityCM_ED
        LOCFRAME ISTACK, 0, STACK
        LOCFRAME PSTACK, 0, STACK
        LOCFRAME XSTACK, 9, STACK
        LOCFRAME IOVERLAY, 0, STATIC
        LOCFRAME DOVERLAY, 0, STATIC
        ARGFRAME ISTACK, 0, STACK
        ARGFRAME PSTACK, 0, STACK
        ARGFRAME XSTACK, 9, STACK
        ARGFRAME IOVERLAY, 0, STATIC
        ARGFRAME DOVERLAY, 0, STATIC
        MOV     A,#-0x9
        LCALL   ?BANKED_ENTER_XDATA
          CFI DPH0 load(1, XDATA, add(CFA_XSP16, literal(-1)))
          CFI DPL0 load(1, XDATA, add(CFA_XSP16, literal(-2)))
          CFI ?BRET_EXT load(1, XDATA, add(CFA_XSP16, literal(-3)))
          CFI ?RET_HIGH load(1, XDATA, add(CFA_XSP16, literal(-4)))
          CFI ?RET_LOW load(1, XDATA, add(CFA_XSP16, literal(-5)))
          CFI R7 load(1, XDATA, add(CFA_XSP16, literal(-6)))
          CFI V0 load(1, XDATA, add(CFA_XSP16, literal(-7)))
          CFI VB load(1, XDATA, add(CFA_XSP16, literal(-8)))
          CFI R6 load(1, XDATA, add(CFA_XSP16, literal(-9)))
          CFI CFA_SP SP+0
          CFI CFA_XSP16 add(XSP16, 9)
        ; Saved register size: 9
        ; Auto size: 0
// 1541   if ( ZG_CHECK_SECURITY_MODE == ZG_SECURITY_SE_STANDARD )
// 1542   {
// 1543     // initialize sub modules
// 1544     ZDSecMgrEntryInit(state);
        ; Setup parameters for call to function ZDSecMgrEntryInit
        LCALL   `??ZDSecMgrEntryInit::?relay`; Banked call to: ZDSecMgrEntryInit
// 1545 
// 1546     if ( ( ZG_BUILD_COORDINATOR_TYPE ) && ( ZG_DEVICE_COORDINATOR_TYPE ) )
// 1547     {
// 1548       APSME_SetRequest( apsTrustCenterAddress, 0, NLME_GetExtAddr() );
// 1549     }
// 1550 
// 1551     // register with Address Manager
// 1552 #if ( ADDRMGR_CALLBACK_ENABLED == 1 )
// 1553     AddrMgrRegister( ADDRMGR_REG_SECURITY, ZDSecMgrAddrMgrCB );
// 1554 #endif
// 1555   }
// 1556 
// 1557   if ( ZG_SECURE_ENABLED )
// 1558   {
// 1559     if ( ( ( ZG_BUILD_COORDINATOR_TYPE ) && ( ZG_DEVICE_COORDINATOR_TYPE ) )
// 1560          || ( ( ZG_BUILD_RTR_TYPE ) && APSME_IsDistributedSecurity() ) )
// 1561     {
// 1562       // setup joining permissions
// 1563       ZDSecMgrPermitJoiningEnabled = TRUE;  
// 1564       ZDSecMgrPermitJoiningTimed   = FALSE;
// 1565     }
// 1566   }
// 1567 
// 1568   // configure security based on security mode and type of device
// 1569   ZDSecMgrConfig();
        ; Setup parameters for call to function SSP_Init
        LCALL   `??SSP_Init::?relay` ; Banked call to: SSP_Init
        ; Setup parameters for call to function APSME_SecurityCM_ED
        LCALL   `??APSME_SecurityCM_ED::?relay`; Banked call to: APSME_SecurityCM_ED
// 1570 }
        LJMP    ??Subroutine71_0 & 0xFFFF
          CFI EndBlock cfiBlock255
// 1571 
// 1572 /******************************************************************************
// 1573  * @fn          ZDSecMgrConfig
// 1574  *
// 1575  * @brief       Configure ZigBee Device Security Manager.
// 1576  *
// 1577  * @param       none
// 1578  *
// 1579  * @return      none
// 1580  */

        RSEG BANKED_CODE:CODE:NOROOT(0)
// 1581 void ZDSecMgrConfig( void )
ZDSecMgrConfig:
          CFI Block cfiBlock256 Using cfiCommon0
          CFI Function ZDSecMgrConfig
        CODE
// 1582 {
        FUNCALL ZDSecMgrConfig, SSP_Init
        LOCFRAME ISTACK, 2, STACK
        LOCFRAME PSTACK, 0, STACK
        LOCFRAME XSTACK, 0, STACK
        LOCFRAME IOVERLAY, 0, STATIC
        LOCFRAME DOVERLAY, 0, STATIC
        ARGFRAME ISTACK, 2, STACK
        ARGFRAME PSTACK, 0, STACK
        ARGFRAME XSTACK, 0, STACK
        ARGFRAME IOVERLAY, 0, STATIC
        ARGFRAME DOVERLAY, 0, STATIC
        FUNCALL ZDSecMgrConfig, APSME_SecurityCM_ED
        LOCFRAME ISTACK, 2, STACK
        LOCFRAME PSTACK, 0, STACK
        LOCFRAME XSTACK, 0, STACK
        LOCFRAME IOVERLAY, 0, STATIC
        LOCFRAME DOVERLAY, 0, STATIC
        ARGFRAME ISTACK, 2, STACK
        ARGFRAME PSTACK, 0, STACK
        ARGFRAME XSTACK, 0, STACK
        ARGFRAME IOVERLAY, 0, STATIC
        ARGFRAME DOVERLAY, 0, STATIC
        PUSH    DPL
          CFI DPL0 Frame(CFA_SP, 4)
          CFI CFA_SP SP+-4
        PUSH    DPH
          CFI DPH0 Frame(CFA_SP, 5)
          CFI CFA_SP SP+-5
        ; Saved register size: 2
        ; Auto size: 0
// 1583   if ( ZG_SECURE_ENABLED )
// 1584   {
// 1585     SSP_Init();
        ; Setup parameters for call to function SSP_Init
        LCALL   `??SSP_Init::?relay` ; Banked call to: SSP_Init
// 1586 
// 1587     if ( ZG_CHECK_SECURITY_MODE == ZG_SECURITY_SE_STANDARD )
// 1588     {
// 1589       if ( ( ZG_BUILD_COORDINATOR_TYPE ) && ( ZG_DEVICE_COORDINATOR_TYPE ) )
// 1590       {
// 1591         // COMMERCIAL MODE - COORDINATOR DEVICE
// 1592         APSME_SecurityCM_CD();
// 1593       }
// 1594       else if ( ZSTACK_ROUTER_BUILD )
// 1595       {
// 1596         // COMMERCIAL MODE - ROUTER DEVICE
// 1597         APSME_SecurityCM_RD();
// 1598       }
// 1599       else
// 1600       {
// 1601         // COMMERCIAL MODE - END DEVICE
// 1602         APSME_SecurityCM_ED();
        ; Setup parameters for call to function APSME_SecurityCM_ED
        LCALL   `??APSME_SecurityCM_ED::?relay`; Banked call to: APSME_SecurityCM_ED
// 1603       }
// 1604     }
// 1605     else // ( ZG_CHECK_SECURITY_MODE == ZG_SECURITY_RESIDENTIAL )
// 1606     {
// 1607       if ( ( ZG_BUILD_COORDINATOR_TYPE ) && ( ZG_DEVICE_COORDINATOR_TYPE ) )
// 1608       {
// 1609         // RESIDENTIAL MODE - COORDINATOR DEVICE
// 1610         APSME_SecurityRM_CD();
// 1611       }
// 1612       else if ( ZSTACK_ROUTER_BUILD )
// 1613       {
// 1614         // RESIDENTIAL MODE - ROUTER DEVICE
// 1615         APSME_SecurityRM_RD();
// 1616       }
// 1617       else
// 1618       {
// 1619         // RESIDENTIAL MODE - END DEVICE
// 1620         APSME_SecurityRM_ED();
// 1621       }
// 1622     }
// 1623   }
// 1624   else
// 1625   {
// 1626     // NO SECURITY
// 1627     APSME_SecurityNM();
// 1628   }
// 1629 }
        SJMP    ??Subroutine65_0
          CFI EndBlock cfiBlock256
// 1630 
// 1631 /******************************************************************************
// 1632  * @fn          ZDSecMgrPermitJoining
// 1633  *
// 1634  * @brief       Process request to change joining permissions.
// 1635  *
// 1636  * @param       duration - [in] timed duration for join in seconds
// 1637  *                         - 0x00 not allowed
// 1638  *                         - 0xFF allowed without timeout
// 1639  *
// 1640  * @return      uint8 - success(TRUE:FALSE)
// 1641  */

        RSEG BANKED_CODE:CODE:NOROOT(0)
// 1642 uint8 ZDSecMgrPermitJoining( uint8 duration )
ZDSecMgrPermitJoining:
          CFI Block cfiBlock257 Using cfiCommon0
          CFI Function ZDSecMgrPermitJoining
        CODE
// 1643 {
        PUSH    DPL
          CFI DPL0 Frame(CFA_SP, 4)
          CFI CFA_SP SP+-4
        PUSH    DPH
          CFI DPH0 Frame(CFA_SP, 5)
          CFI CFA_SP SP+-5
        ; Saved register size: 2
        ; Auto size: 0
        MOV     A,R1
        MOV     R0,A
// 1644   uint8 accept;
// 1645 
// 1646   ZDSecMgrPermitJoiningTimed = FALSE;
        MOV     DPTR,#ZDSecMgrPermitJoiningTimed
        CLR     A
        MOVX    @DPTR,A
// 1647 
// 1648   if ( duration > 0 )
        MOV     A,R0
        MOV     DPTR,#ZDSecMgrPermitJoiningEnabled
        JZ      ??ZDSecMgrPermitJoining_0
// 1649   {
// 1650     ZDSecMgrPermitJoiningEnabled = TRUE;
        MOV     A,#0x1
        MOVX    @DPTR,A
// 1651 
// 1652     ZDSecMgrPermitJoiningTimed = TRUE;
        MOV     DPTR,#ZDSecMgrPermitJoiningTimed
        SJMP    ??ZDSecMgrPermitJoining_1
// 1653   }
// 1654   else
// 1655   {
// 1656     ZDSecMgrPermitJoiningEnabled = FALSE;
??ZDSecMgrPermitJoining_0:
        CLR     A
??ZDSecMgrPermitJoining_1:
        MOVX    @DPTR,A
// 1657   }
// 1658 
// 1659   accept = TRUE;
// 1660 
// 1661   return accept;
        MOV     R1,#0x1
        SJMP    ??Subroutine65_0
// 1662 }
          CFI EndBlock cfiBlock257
// 1663 
// 1664 /******************************************************************************
// 1665  * @fn          ZDSecMgrPermitJoiningTimeout
// 1666  *
// 1667  * @brief       Process permit joining timeout
// 1668  *
// 1669  * @param       none
// 1670  *
// 1671  * @return      none
// 1672  */

        RSEG BANKED_CODE:CODE:NOROOT(0)
// 1673 void ZDSecMgrPermitJoiningTimeout( void )
ZDSecMgrPermitJoiningTimeout:
          CFI Block cfiBlock258 Using cfiCommon0
          CFI Function ZDSecMgrPermitJoiningTimeout
        CODE
// 1674 {
        PUSH    DPL
          CFI DPL0 Frame(CFA_SP, 4)
          CFI CFA_SP SP+-4
        PUSH    DPH
          CFI DPH0 Frame(CFA_SP, 5)
          CFI CFA_SP SP+-5
        ; Saved register size: 2
        ; Auto size: 0
// 1675   if ( ZDSecMgrPermitJoiningTimed == TRUE )
        MOV     DPTR,#ZDSecMgrPermitJoiningTimed
        MOVX    A,@DPTR
        XRL     A,#0x1
        JNZ     ??ZDSecMgrPermitJoiningTimeout_0
// 1676   {
// 1677     ZDSecMgrPermitJoiningEnabled = FALSE;
        MOV     DPTR,#ZDSecMgrPermitJoiningEnabled
        CLR     A
        MOVX    @DPTR,A
// 1678     ZDSecMgrPermitJoiningTimed   = FALSE;
        MOV     DPTR,#ZDSecMgrPermitJoiningTimed
        MOVX    @DPTR,A
// 1679   }
// 1680 }
??ZDSecMgrPermitJoiningTimeout_0:
        SJMP    ??Subroutine65_0
          CFI EndBlock cfiBlock258
// 1681 
// 1682 /******************************************************************************
// 1683  * @fn          ZDSecMgrNewDeviceEvent
// 1684  *
// 1685  * @brief       Process a the new device event, if found reset new device
// 1686  *              event/timer.
// 1687  *
// 1688  * @param       ShortAddr - of New Device to process
// 1689  *
// 1690  * @return      uint8 - found(TRUE:FALSE)
// 1691  */

        RSEG BANKED_CODE:CODE:NOROOT(0)
// 1692 uint8 ZDSecMgrNewDeviceEvent( uint16 ShortAddr )
ZDSecMgrNewDeviceEvent:
          CFI Block cfiBlock259 Using cfiCommon0
          CFI Function ZDSecMgrNewDeviceEvent
        CODE
// 1693 {
        FUNCALL ZDSecMgrNewDeviceEvent, AssocGetWithShort
        LOCFRAME ISTACK, 0, STACK
        LOCFRAME PSTACK, 0, STACK
        LOCFRAME XSTACK, 33, STACK
        LOCFRAME IOVERLAY, 0, STATIC
        LOCFRAME DOVERLAY, 0, STATIC
        ARGFRAME ISTACK, 0, STACK
        ARGFRAME PSTACK, 0, STACK
        ARGFRAME XSTACK, 33, STACK
        ARGFRAME IOVERLAY, 0, STATIC
        ARGFRAME DOVERLAY, 0, STATIC
        FUNCALL ZDSecMgrNewDeviceEvent, ZDSecMgrAssocDeviceAuth
        LOCFRAME ISTACK, 0, STACK
        LOCFRAME PSTACK, 0, STACK
        LOCFRAME XSTACK, 33, STACK
        LOCFRAME IOVERLAY, 0, STATIC
        LOCFRAME DOVERLAY, 0, STATIC
        ARGFRAME ISTACK, 0, STACK
        ARGFRAME PSTACK, 0, STACK
        ARGFRAME XSTACK, 33, STACK
        ARGFRAME IOVERLAY, 0, STATIC
        ARGFRAME DOVERLAY, 0, STATIC
        FUNCALL ZDSecMgrNewDeviceEvent, AddrMgrEntryGet
        LOCFRAME ISTACK, 0, STACK
        LOCFRAME PSTACK, 0, STACK
        LOCFRAME XSTACK, 33, STACK
        LOCFRAME IOVERLAY, 0, STATIC
        LOCFRAME DOVERLAY, 0, STATIC
        ARGFRAME ISTACK, 0, STACK
        ARGFRAME PSTACK, 0, STACK
        ARGFRAME XSTACK, 33, STACK
        ARGFRAME IOVERLAY, 0, STATIC
        ARGFRAME DOVERLAY, 0, STATIC
        FUNCALL ZDSecMgrNewDeviceEvent, NLME_GetShortAddr
        LOCFRAME ISTACK, 0, STACK
        LOCFRAME PSTACK, 0, STACK
        LOCFRAME XSTACK, 33, STACK
        LOCFRAME IOVERLAY, 0, STATIC
        LOCFRAME DOVERLAY, 0, STATIC
        ARGFRAME ISTACK, 0, STACK
        ARGFRAME PSTACK, 0, STACK
        ARGFRAME XSTACK, 33, STACK
        ARGFRAME IOVERLAY, 0, STATIC
        ARGFRAME DOVERLAY, 0, STATIC
        FUNCALL ZDSecMgrNewDeviceEvent, ZDSecMgrDeviceNew
        LOCFRAME ISTACK, 0, STACK
        LOCFRAME PSTACK, 0, STACK
        LOCFRAME XSTACK, 33, STACK
        LOCFRAME IOVERLAY, 0, STATIC
        LOCFRAME DOVERLAY, 0, STATIC
        ARGFRAME ISTACK, 0, STACK
        ARGFRAME PSTACK, 0, STACK
        ARGFRAME XSTACK, 33, STACK
        ARGFRAME IOVERLAY, 0, STATIC
        ARGFRAME DOVERLAY, 0, STATIC
        FUNCALL ZDSecMgrNewDeviceEvent, ZDSecMgrAddrClear
        LOCFRAME ISTACK, 0, STACK
        LOCFRAME PSTACK, 0, STACK
        LOCFRAME XSTACK, 33, STACK
        LOCFRAME IOVERLAY, 0, STATIC
        LOCFRAME DOVERLAY, 0, STATIC
        ARGFRAME ISTACK, 0, STACK
        ARGFRAME PSTACK, 0, STACK
        ARGFRAME XSTACK, 33, STACK
        ARGFRAME IOVERLAY, 0, STATIC
        ARGFRAME DOVERLAY, 0, STATIC
        FUNCALL ZDSecMgrNewDeviceEvent, AssocRemove
        LOCFRAME ISTACK, 0, STACK
        LOCFRAME PSTACK, 0, STACK
        LOCFRAME XSTACK, 33, STACK
        LOCFRAME IOVERLAY, 0, STATIC
        LOCFRAME DOVERLAY, 0, STATIC
        ARGFRAME ISTACK, 0, STACK
        ARGFRAME PSTACK, 0, STACK
        ARGFRAME XSTACK, 33, STACK
        ARGFRAME IOVERLAY, 0, STATIC
        ARGFRAME DOVERLAY, 0, STATIC
        REQUIRE ?V0
        REQUIRE ?V2
        REQUIRE ?V3
        MOV     A,#-0xc
        LCALL   ?BANKED_ENTER_XDATA
          CFI DPH0 load(1, XDATA, add(CFA_XSP16, literal(-1)))
          CFI DPL0 load(1, XDATA, add(CFA_XSP16, literal(-2)))
          CFI ?BRET_EXT load(1, XDATA, add(CFA_XSP16, literal(-3)))
          CFI ?RET_HIGH load(1, XDATA, add(CFA_XSP16, literal(-4)))
          CFI ?RET_LOW load(1, XDATA, add(CFA_XSP16, literal(-5)))
          CFI R7 load(1, XDATA, add(CFA_XSP16, literal(-6)))
          CFI V3 load(1, XDATA, add(CFA_XSP16, literal(-7)))
          CFI V2 load(1, XDATA, add(CFA_XSP16, literal(-8)))
          CFI V1 load(1, XDATA, add(CFA_XSP16, literal(-9)))
          CFI V0 load(1, XDATA, add(CFA_XSP16, literal(-10)))
          CFI VB load(1, XDATA, add(CFA_XSP16, literal(-11)))
          CFI R6 load(1, XDATA, add(CFA_XSP16, literal(-12)))
          CFI CFA_SP SP+0
          CFI CFA_XSP16 add(XSP16, 12)
        ; Saved register size: 12
        ; Auto size: 21
        MOV     A,#-0x15
        LCALL   ?ALLOC_XSTACK8
          CFI CFA_XSP16 add(XSP16, 33)
// 1694   uint8                 found;
// 1695   ZDSecMgrDevice_t      device;
// 1696   AddrMgrEntry_t        addrEntry;
// 1697   associated_devices_t* assoc;
// 1698   ZStatus_t             status;
// 1699 
// 1700   // initialize return results
// 1701   found = FALSE;
        MOV     ?V0,#0x0
// 1702 
// 1703   assoc = AssocGetWithShort( ShortAddr );
        ; Setup parameters for call to function AssocGetWithShort
        LCALL   `??AssocGetWithShort::?relay`; Banked call to: AssocGetWithShort
        MOV     ?V2,R2
        MOV     ?V3,R3
        MOV     R6,?V2
        MOV     R7,?V3
// 1704 
// 1705   if ( assoc != NULL )
        MOV     A,R6
        ORL     A,R7
        JNZ     $+5
        LJMP    ??ZDSecMgrNewDeviceEvent_0 & 0xFFFF
// 1706   {
// 1707     // device found
// 1708     found = TRUE;
        MOV     ?V0,#0x1
// 1709 
// 1710     // check for preconfigured security
// 1711     if ( zgPreConfigKeys == TRUE )
        MOV     DPTR,#zgPreConfigKeys
        MOVX    A,@DPTR
        XRL     A,#0x1
        JNZ     ??ZDSecMgrNewDeviceEvent_1
// 1712     {
// 1713       // set association status to authenticated
// 1714       ZDSecMgrAssocDeviceAuth( assoc );
        ; Setup parameters for call to function ZDSecMgrAssocDeviceAuth
        LCALL   `??ZDSecMgrAssocDeviceAuth::?relay`; Banked call to: ZDSecMgrAssocDeviceAuth
// 1715     }
// 1716 
// 1717     // set up device info
// 1718     addrEntry.user  = ADDRMGR_USER_DEFAULT;
??ZDSecMgrNewDeviceEvent_1:
        MOV     A,#0x8
        LCALL   ?XSTACK_DISP0_8
        CLR     A
        LCALL   ?Subroutine48 & 0xFFFF
// 1719     addrEntry.index = assoc->addrIdx;
??CrossCallReturnLabel_67:
        INC     DPTR
        INC     DPTR
        LCALL   ??Subroutine74_0 & 0xFFFF
??CrossCallReturnLabel_175:
        MOV     A,#0x13
        LCALL   ?XSTACK_DISP0_8
        LCALL   ??Subroutine63_0 & 0xFFFF
// 1720     AddrMgrEntryGet( &addrEntry );
??CrossCallReturnLabel_138:
        ; Setup parameters for call to function AddrMgrEntryGet
        MOV     A,#0x8
        LCALL   ?XSTACK_DISP101_8
        LCALL   `??AddrMgrEntryGet::?relay`; Banked call to: AddrMgrEntryGet
// 1721 
// 1722     device.nwkAddr    = assoc->shortAddr;
        MOV     DPL,R6
        MOV     DPH,R7
        LCALL   ?Subroutine29 & 0xFFFF
??CrossCallReturnLabel_27:
        LCALL   ?Subroutine21 & 0xFFFF
// 1723     device.extAddr    = addrEntry.extAddr;
??CrossCallReturnLabel_19:
        LCALL   ?XSTACK_DISP0_8
        MOV     R0,DPL
        MOV     R1,DPH
        MOV     A,#0x2
        LCALL   ?XSTACK_DISP0_8
        LCALL   ??Subroutine63_0 & 0xFFFF
// 1724     device.parentAddr = NLME_GetShortAddr();
??CrossCallReturnLabel_139:
        ; Setup parameters for call to function NLME_GetShortAddr
        LCALL   `??NLME_GetShortAddr::?relay`; Banked call to: NLME_GetShortAddr
        MOV     A,#0x4
        LCALL   ?XSTACK_DISP0_8
        LCALL   ?Subroutine50 & 0xFFFF
// 1725 
// 1726     // the new device performed Secured Rejoin
// 1727     if ( ( assoc->devStatus & DEV_SECURED_JOIN ) &&
// 1728          ( assoc->devStatus & DEV_REJOIN_STATUS ) )
??CrossCallReturnLabel_70:
        LCALL   ?Subroutine42 & 0xFFFF
??CrossCallReturnLabel_55:
        ANL     A,#0x60
        XRL     A,#0x60
        JNZ     ??ZDSecMgrNewDeviceEvent_2
// 1729     {
// 1730       device.secure     = TRUE;
        MOV     A,#0x6
        LCALL   ?XSTACK_DISP0_8
        MOV     A,#0x1
        SJMP    ??ZDSecMgrNewDeviceEvent_3
// 1731     }
// 1732     else
// 1733     {
// 1734       device.secure     = FALSE;
??ZDSecMgrNewDeviceEvent_2:
        MOV     A,#0x6
        LCALL   ?XSTACK_DISP0_8
        CLR     A
// 1735     }
??ZDSecMgrNewDeviceEvent_3:
        LCALL   ?Subroutine48 & 0xFFFF
// 1736     device.devStatus  = assoc->devStatus;
??CrossCallReturnLabel_68:
        MOVX    A,@DPTR
        PUSH    A
          CFI CFA_SP SP+-1
        MOV     A,#0x7
        LCALL   ?XSTACK_DISP0_8
        POP     A
          CFI CFA_SP SP+0
        LCALL   ??Subroutine76_0 & 0xFFFF
// 1737 
// 1738     // process new device
// 1739     status = ZDSecMgrDeviceNew( &device );
// 1740 
// 1741     if ( status == ZSuccess )
??CrossCallReturnLabel_189:
        LCALL   `??ZDSecMgrDeviceNew::?relay`; Banked call to: ZDSecMgrDeviceNew
        MOV     A,R1
        JNZ     ??ZDSecMgrNewDeviceEvent_4
// 1742     {
// 1743       assoc->devStatus &= ~DEV_SEC_INIT_STATUS;
        MOV     DPL,R6
        MOV     DPH,R7
        MOVX    A,@DPTR
        CLR     0xE0 /* A   */.2
        MOVX    @DPTR,A
        SJMP    ??ZDSecMgrNewDeviceEvent_0
// 1744     }
// 1745     else
// 1746     {
// 1747       // Clear SECURITY bit from Address Manager
// 1748       ZDSecMgrAddrClear( addrEntry.extAddr );
??ZDSecMgrNewDeviceEvent_4:
        ; Setup parameters for call to function ZDSecMgrAddrClear
        MOV     A,#0xb
        LCALL   ?XSTACK_DISP0_8
        MOV     R2,DPL
        MOV     R3,DPH
        LCALL   `??ZDSecMgrAddrClear::?relay`; Banked call to: ZDSecMgrAddrClear
// 1749 
// 1750       // Remove the Association completely
// 1751       AssocRemove( addrEntry.extAddr );
        ; Setup parameters for call to function AssocRemove
        MOV     A,#0xb
        LCALL   ?XSTACK_DISP0_8
        MOV     R2,DPL
        MOV     R3,DPH
        LCALL   `??AssocRemove::?relay`; Banked call to: AssocRemove
// 1752     }
// 1753   }
// 1754 
// 1755   return found;
??ZDSecMgrNewDeviceEvent_0:
        MOV     R1,?V0
        MOV     A,#0x15
        LJMP    ?Subroutine3 & 0xFFFF
// 1756 }
          CFI EndBlock cfiBlock259
// 1757 
// 1758 /******************************************************************************
// 1759  * @fn          ZDSecMgrTCExtAddrCheck
// 1760  *
// 1761  * @brief       Verifies if received ext. address matches TC ext. address.
// 1762  *
// 1763  * @param       extAddr - Extended address to be verified.
// 1764  *
// 1765  * @return      TRUE - extended address matches
// 1766  *              FALSE - otherwise
// 1767  */

        RSEG BANKED_CODE:CODE:NOROOT(0)
// 1768 uint8 ZDSecMgrTCExtAddrCheck( uint8* extAddr )
ZDSecMgrTCExtAddrCheck:
          CFI Block cfiBlock260 Using cfiCommon0
          CFI Function ZDSecMgrTCExtAddrCheck
        CODE
// 1769 {
        FUNCALL ZDSecMgrTCExtAddrCheck, APSME_GetRequest
        LOCFRAME ISTACK, 0, STACK
        LOCFRAME PSTACK, 0, STACK
        LOCFRAME XSTACK, 17, STACK
        LOCFRAME IOVERLAY, 0, STATIC
        LOCFRAME DOVERLAY, 0, STATIC
        ARGFRAME ISTACK, 0, STACK
        ARGFRAME PSTACK, 0, STACK
        ARGFRAME XSTACK, 17, STACK
        ARGFRAME IOVERLAY, 0, STATIC
        ARGFRAME DOVERLAY, 0, STATIC
        FUNCALL ZDSecMgrTCExtAddrCheck, sAddrExtCmp
        LOCFRAME ISTACK, 0, STACK
        LOCFRAME PSTACK, 0, STACK
        LOCFRAME XSTACK, 17, STACK
        LOCFRAME IOVERLAY, 0, STATIC
        LOCFRAME DOVERLAY, 0, STATIC
        ARGFRAME ISTACK, 0, STACK
        ARGFRAME PSTACK, 0, STACK
        ARGFRAME XSTACK, 17, STACK
        ARGFRAME IOVERLAY, 0, STATIC
        ARGFRAME DOVERLAY, 0, STATIC
        MOV     A,#-0x9
        LCALL   ?BANKED_ENTER_XDATA
          CFI DPH0 load(1, XDATA, add(CFA_XSP16, literal(-1)))
          CFI DPL0 load(1, XDATA, add(CFA_XSP16, literal(-2)))
          CFI ?BRET_EXT load(1, XDATA, add(CFA_XSP16, literal(-3)))
          CFI ?RET_HIGH load(1, XDATA, add(CFA_XSP16, literal(-4)))
          CFI ?RET_LOW load(1, XDATA, add(CFA_XSP16, literal(-5)))
          CFI R7 load(1, XDATA, add(CFA_XSP16, literal(-6)))
          CFI V0 load(1, XDATA, add(CFA_XSP16, literal(-7)))
          CFI VB load(1, XDATA, add(CFA_XSP16, literal(-8)))
          CFI R6 load(1, XDATA, add(CFA_XSP16, literal(-9)))
          CFI CFA_SP SP+0
          CFI CFA_XSP16 add(XSP16, 9)
        ; Saved register size: 9
        ; Auto size: 8
        MOV     A,#-0x8
        LCALL   ?ALLOC_XSTACK8
          CFI CFA_XSP16 add(XSP16, 17)
        MOV     A,R2
        MOV     R6,A
        MOV     A,R3
        MOV     R7,A
// 1770   uint8  lookup[Z_EXTADDR_LEN];
// 1771   APSME_GetRequest( apsTrustCenterAddress, 0, lookup );
        ; Setup parameters for call to function APSME_GetRequest
        MOV     R4,?XSP + 0
        MOV     R5,?XSP + 1
        MOV     R2,#0x0
        MOV     R3,#0x0
        MOV     R1,#-0x55
        LCALL   `??APSME_GetRequest::?relay`; Banked call to: APSME_GetRequest
// 1772   return osal_ExtAddrEqual( extAddr, lookup );
        ; Setup parameters for call to function sAddrExtCmp
        MOV     R4,?XSP + 0
        MOV     R5,?XSP + 1
        MOV     A,R6
        MOV     R2,A
        MOV     A,R7
        MOV     R3,A
        LCALL   `??sAddrExtCmp::?relay`; Banked call to: sAddrExtCmp
          CFI EndBlock cfiBlock260
        REQUIRE ?Subroutine9
        ; // Fall through to label ?Subroutine9
// 1773 }

        RSEG BANKED_CODE:CODE:NOROOT(0)
?Subroutine9:
          CFI Block cfiBlock261 Using cfiCommon0
          CFI NoFunction
          CFI CFA_SP SP+0
          CFI CFA_XSP16 add(XSP16, 17)
          CFI VB load(1, XDATA, add(CFA_XSP16, literal(-8)))
          CFI DPL0 load(1, XDATA, add(CFA_XSP16, literal(-2)))
          CFI DPH0 load(1, XDATA, add(CFA_XSP16, literal(-1)))
          CFI R6 load(1, XDATA, add(CFA_XSP16, literal(-9)))
          CFI R7 load(1, XDATA, add(CFA_XSP16, literal(-6)))
          CFI V0 load(1, XDATA, add(CFA_XSP16, literal(-7)))
          CFI ?BRET_EXT load(1, XDATA, add(CFA_XSP16, literal(-3)))
          CFI ?RET_HIGH load(1, XDATA, add(CFA_XSP16, literal(-4)))
          CFI ?RET_LOW load(1, XDATA, add(CFA_XSP16, literal(-5)))
        MOV     A,#0x8
        LJMP    ??Subroutine70_0 & 0xFFFF
          CFI EndBlock cfiBlock261
// 1774 
// 1775 /******************************************************************************
// 1776  * @fn          ZDSecMgrTCDataLoad
// 1777  *
// 1778  * @brief       Stores the address of TC into address manager.
// 1779  *
// 1780  * @param       extAddr - Extended address to be verified.
// 1781  *
// 1782  * @return      none
// 1783  */

        RSEG BANKED_CODE:CODE:NOROOT(0)
// 1784 void ZDSecMgrTCDataLoad( uint8* extAddr )
ZDSecMgrTCDataLoad:
          CFI Block cfiBlock262 Using cfiCommon0
          CFI Function ZDSecMgrTCDataLoad
        CODE
// 1785 {
        FUNCALL ZDSecMgrTCDataLoad, sAddrExtCpy
        LOCFRAME ISTACK, 0, STACK
        LOCFRAME PSTACK, 0, STACK
        LOCFRAME XSTACK, 25, STACK
        LOCFRAME IOVERLAY, 0, STATIC
        LOCFRAME DOVERLAY, 0, STATIC
        ARGFRAME ISTACK, 0, STACK
        ARGFRAME PSTACK, 0, STACK
        ARGFRAME XSTACK, 25, STACK
        ARGFRAME IOVERLAY, 0, STATIC
        ARGFRAME DOVERLAY, 0, STATIC
        FUNCALL ZDSecMgrTCDataLoad, APSME_IsDistributedSecurity
        LOCFRAME ISTACK, 0, STACK
        LOCFRAME PSTACK, 0, STACK
        LOCFRAME XSTACK, 25, STACK
        LOCFRAME IOVERLAY, 0, STATIC
        LOCFRAME DOVERLAY, 0, STATIC
        ARGFRAME ISTACK, 0, STACK
        ARGFRAME PSTACK, 0, STACK
        ARGFRAME XSTACK, 25, STACK
        ARGFRAME IOVERLAY, 0, STATIC
        ARGFRAME DOVERLAY, 0, STATIC
        FUNCALL ZDSecMgrTCDataLoad, AddrMgrEntryLookupExt
        LOCFRAME ISTACK, 0, STACK
        LOCFRAME PSTACK, 0, STACK
        LOCFRAME XSTACK, 25, STACK
        LOCFRAME IOVERLAY, 0, STATIC
        LOCFRAME DOVERLAY, 0, STATIC
        ARGFRAME ISTACK, 0, STACK
        ARGFRAME PSTACK, 0, STACK
        ARGFRAME XSTACK, 25, STACK
        ARGFRAME IOVERLAY, 0, STATIC
        ARGFRAME DOVERLAY, 0, STATIC
        FUNCALL ZDSecMgrTCDataLoad, ZDSecMgrAddrStore
        LOCFRAME ISTACK, 0, STACK
        LOCFRAME PSTACK, 0, STACK
        LOCFRAME XSTACK, 27, STACK
        LOCFRAME IOVERLAY, 0, STATIC
        LOCFRAME DOVERLAY, 0, STATIC
        ARGFRAME ISTACK, 0, STACK
        ARGFRAME PSTACK, 0, STACK
        ARGFRAME XSTACK, 27, STACK
        ARGFRAME IOVERLAY, 0, STATIC
        ARGFRAME DOVERLAY, 0, STATIC
        REQUIRE ?V0
        REQUIRE ?V1
        MOV     A,#-0xa
        LCALL   ?BANKED_ENTER_XDATA
          CFI DPH0 load(1, XDATA, add(CFA_XSP16, literal(-1)))
          CFI DPL0 load(1, XDATA, add(CFA_XSP16, literal(-2)))
          CFI ?BRET_EXT load(1, XDATA, add(CFA_XSP16, literal(-3)))
          CFI ?RET_HIGH load(1, XDATA, add(CFA_XSP16, literal(-4)))
          CFI ?RET_LOW load(1, XDATA, add(CFA_XSP16, literal(-5)))
          CFI R7 load(1, XDATA, add(CFA_XSP16, literal(-6)))
          CFI V1 load(1, XDATA, add(CFA_XSP16, literal(-7)))
          CFI V0 load(1, XDATA, add(CFA_XSP16, literal(-8)))
          CFI VB load(1, XDATA, add(CFA_XSP16, literal(-9)))
          CFI R6 load(1, XDATA, add(CFA_XSP16, literal(-10)))
          CFI CFA_SP SP+0
          CFI CFA_XSP16 add(XSP16, 10)
        ; Saved register size: 10
        ; Auto size: 15
        MOV     A,#-0xf
        LCALL   ?ALLOC_XSTACK8
          CFI CFA_XSP16 add(XSP16, 25)
        MOV     A,R2
        MOV     R6,A
        MOV     A,R3
        MOV     R7,A
// 1786   uint16 ami;
// 1787   AddrMgrEntry_t entry;
// 1788 
// 1789   // lookup using TC short address
// 1790   entry.user    = ADDRMGR_USER_DEFAULT;
        MOV     A,#0x2
        LCALL   ?XSTACK_DISP0_8
        CLR     A
        MOVX    @DPTR,A
// 1791   osal_cpyExtAddr( entry.extAddr, extAddr );
        ; Setup parameters for call to function sAddrExtCpy
        MOV     A,R6
        MOV     R4,A
        MOV     A,R7
        MOV     R5,A
        MOV     A,#0x5
        LCALL   ?XSTACK_DISP0_8
        MOV     R2,DPL
        MOV     R3,DPH
        LCALL   `??sAddrExtCpy::?relay`; Banked call to: sAddrExtCpy
// 1792 
// 1793   // Verify if TC address has been added to Address Manager
// 1794   if ( !APSME_IsDistributedSecurity() && ( AddrMgrEntryLookupExt( &entry ) != TRUE ) )
        ; Setup parameters for call to function APSME_IsDistributedSecurity
        LCALL   `??APSME_IsDistributedSecurity::?relay`; Banked call to: APSME_IsDistributedSecurity
        MOV     A,R1
        JNZ     ??ZDSecMgrTCDataLoad_0
        ; Setup parameters for call to function AddrMgrEntryLookupExt
        MOV     A,#0x2
        LCALL   ?XSTACK_DISP101_8
        LCALL   `??AddrMgrEntryLookupExt::?relay`; Banked call to: AddrMgrEntryLookupExt
        MOV     A,R1
        XRL     A,#0x1
        JZ      ??ZDSecMgrTCDataLoad_0
// 1795   {
// 1796     ZDSecMgrAddrStore( APSME_TRUSTCENTER_NWKADDR, extAddr, &ami );
        ; Setup parameters for call to function ZDSecMgrAddrStore
        MOV     R0,?XSP + 0
        MOV     R1,?XSP + 1
        MOV     ?V0,R0
        MOV     ?V1,R1
        MOV     R0,#?V0
        LCALL   ?PUSH_XSTACK_I_TWO
          CFI CFA_XSP16 add(XSP16, 27)
        MOV     A,R6
        MOV     R4,A
        MOV     A,R7
        MOV     R5,A
        MOV     R2,#0x0
        MOV     R3,#0x0
        LCALL   `??ZDSecMgrAddrStore::?relay`; Banked call to: ZDSecMgrAddrStore
        MOV     A,#0x2
        LCALL   ?DEALLOC_XSTACK8
          CFI CFA_XSP16 add(XSP16, 25)
// 1797   }
// 1798 }
??ZDSecMgrTCDataLoad_0:
        MOV     A,#0xf
        LJMP    ?Subroutine4 & 0xFFFF
          CFI EndBlock cfiBlock262
// 1799 
// 1800 /******************************************************************************
// 1801  * @fn          ZDSecMgrTransportKeyInd
// 1802  *
// 1803  * @brief       Process the ZDO_TransportKeyInd_t message.
// 1804  *
// 1805  * @param       ind - [in] ZDO_TransportKeyInd_t indication
// 1806  *
// 1807  * @return      none
// 1808  */

        RSEG BANKED_CODE:CODE:NOROOT(0)
// 1809 void ZDSecMgrTransportKeyInd( ZDO_TransportKeyInd_t* ind )
ZDSecMgrTransportKeyInd:
          CFI Block cfiBlock263 Using cfiCommon0
          CFI Function ZDSecMgrTransportKeyInd
        CODE
// 1810 {
        FUNCALL ZDSecMgrTransportKeyInd, ZDSecMgrUpdateTCAddress
        LOCFRAME ISTACK, 0, STACK
        LOCFRAME PSTACK, 0, STACK
        LOCFRAME XSTACK, 54, STACK
        LOCFRAME IOVERLAY, 0, STATIC
        LOCFRAME DOVERLAY, 0, STATIC
        ARGFRAME ISTACK, 0, STACK
        ARGFRAME PSTACK, 0, STACK
        ARGFRAME XSTACK, 54, STACK
        ARGFRAME IOVERLAY, 0, STATIC
        ARGFRAME DOVERLAY, 0, STATIC
        FUNCALL ZDSecMgrTransportKeyInd, osal_nv_write
        LOCFRAME ISTACK, 0, STACK
        LOCFRAME PSTACK, 0, STACK
        LOCFRAME XSTACK, 58, STACK
        LOCFRAME IOVERLAY, 0, STATIC
        LOCFRAME DOVERLAY, 0, STATIC
        ARGFRAME ISTACK, 0, STACK
        ARGFRAME PSTACK, 0, STACK
        ARGFRAME XSTACK, 58, STACK
        ARGFRAME IOVERLAY, 0, STATIC
        ARGFRAME DOVERLAY, 0, STATIC
        FUNCALL ZDSecMgrTransportKeyInd, ZDSecMgrTCDataLoad
        LOCFRAME ISTACK, 0, STACK
        LOCFRAME PSTACK, 0, STACK
        LOCFRAME XSTACK, 54, STACK
        LOCFRAME IOVERLAY, 0, STATIC
        LOCFRAME DOVERLAY, 0, STATIC
        ARGFRAME ISTACK, 0, STACK
        ARGFRAME PSTACK, 0, STACK
        ARGFRAME XSTACK, 54, STACK
        ARGFRAME IOVERLAY, 0, STATIC
        ARGFRAME DOVERLAY, 0, STATIC
        FUNCALL ZDSecMgrTransportKeyInd, ZDSecMgrReadKeyFromNv
        LOCFRAME ISTACK, 0, STACK
        LOCFRAME PSTACK, 0, STACK
        LOCFRAME XSTACK, 54, STACK
        LOCFRAME IOVERLAY, 0, STATIC
        LOCFRAME DOVERLAY, 0, STATIC
        ARGFRAME ISTACK, 0, STACK
        ARGFRAME PSTACK, 0, STACK
        ARGFRAME XSTACK, 54, STACK
        ARGFRAME IOVERLAY, 0, STATIC
        ARGFRAME DOVERLAY, 0, STATIC
        FUNCALL ZDSecMgrTransportKeyInd, SSP_UpdateNwkKey
        LOCFRAME ISTACK, 0, STACK
        LOCFRAME PSTACK, 0, STACK
        LOCFRAME XSTACK, 54, STACK
        LOCFRAME IOVERLAY, 0, STATIC
        LOCFRAME DOVERLAY, 0, STATIC
        ARGFRAME ISTACK, 0, STACK
        ARGFRAME PSTACK, 0, STACK
        ARGFRAME XSTACK, 54, STACK
        ARGFRAME IOVERLAY, 0, STATIC
        ARGFRAME DOVERLAY, 0, STATIC
        FUNCALL ZDSecMgrTransportKeyInd, SSP_SwitchNwkKey
        LOCFRAME ISTACK, 0, STACK
        LOCFRAME PSTACK, 0, STACK
        LOCFRAME XSTACK, 54, STACK
        LOCFRAME IOVERLAY, 0, STATIC
        LOCFRAME DOVERLAY, 0, STATIC
        ARGFRAME ISTACK, 0, STACK
        ARGFRAME PSTACK, 0, STACK
        ARGFRAME XSTACK, 54, STACK
        ARGFRAME IOVERLAY, 0, STATIC
        ARGFRAME DOVERLAY, 0, STATIC
        FUNCALL ZDSecMgrTransportKeyInd, osal_memset
        LOCFRAME ISTACK, 0, STACK
        LOCFRAME PSTACK, 0, STACK
        LOCFRAME XSTACK, 54, STACK
        LOCFRAME IOVERLAY, 0, STATIC
        LOCFRAME DOVERLAY, 0, STATIC
        ARGFRAME ISTACK, 0, STACK
        ARGFRAME PSTACK, 0, STACK
        ARGFRAME XSTACK, 54, STACK
        ARGFRAME IOVERLAY, 0, STATIC
        ARGFRAME DOVERLAY, 0, STATIC
        FUNCALL ZDSecMgrTransportKeyInd, SSP_UpdateNwkKey
        LOCFRAME ISTACK, 0, STACK
        LOCFRAME PSTACK, 0, STACK
        LOCFRAME XSTACK, 54, STACK
        LOCFRAME IOVERLAY, 0, STATIC
        LOCFRAME DOVERLAY, 0, STATIC
        ARGFRAME ISTACK, 0, STACK
        ARGFRAME PSTACK, 0, STACK
        ARGFRAME XSTACK, 54, STACK
        ARGFRAME IOVERLAY, 0, STATIC
        ARGFRAME DOVERLAY, 0, STATIC
        FUNCALL ZDSecMgrTransportKeyInd, SSP_SwitchNwkKey
        LOCFRAME ISTACK, 0, STACK
        LOCFRAME PSTACK, 0, STACK
        LOCFRAME XSTACK, 54, STACK
        LOCFRAME IOVERLAY, 0, STATIC
        LOCFRAME DOVERLAY, 0, STATIC
        ARGFRAME ISTACK, 0, STACK
        ARGFRAME PSTACK, 0, STACK
        ARGFRAME XSTACK, 54, STACK
        ARGFRAME IOVERLAY, 0, STATIC
        ARGFRAME DOVERLAY, 0, STATIC
        FUNCALL ZDSecMgrTransportKeyInd, ZDSecMgrAuthNwkKey
        LOCFRAME ISTACK, 0, STACK
        LOCFRAME PSTACK, 0, STACK
        LOCFRAME XSTACK, 54, STACK
        LOCFRAME IOVERLAY, 0, STATIC
        LOCFRAME DOVERLAY, 0, STATIC
        ARGFRAME ISTACK, 0, STACK
        ARGFRAME PSTACK, 0, STACK
        ARGFRAME XSTACK, 54, STACK
        ARGFRAME IOVERLAY, 0, STATIC
        ARGFRAME DOVERLAY, 0, STATIC
        FUNCALL ZDSecMgrTransportKeyInd, APSME_SearchTCLinkKeyEntry
        LOCFRAME ISTACK, 0, STACK
        LOCFRAME PSTACK, 0, STACK
        LOCFRAME XSTACK, 56, STACK
        LOCFRAME IOVERLAY, 0, STATIC
        LOCFRAME DOVERLAY, 0, STATIC
        ARGFRAME ISTACK, 0, STACK
        ARGFRAME PSTACK, 0, STACK
        ARGFRAME XSTACK, 56, STACK
        ARGFRAME IOVERLAY, 0, STATIC
        ARGFRAME DOVERLAY, 0, STATIC
        FUNCALL ZDSecMgrTransportKeyInd, APSME_EraseICEntry
        LOCFRAME ISTACK, 0, STACK
        LOCFRAME PSTACK, 0, STACK
        LOCFRAME XSTACK, 54, STACK
        LOCFRAME IOVERLAY, 0, STATIC
        LOCFRAME DOVERLAY, 0, STATIC
        ARGFRAME ISTACK, 0, STACK
        ARGFRAME PSTACK, 0, STACK
        ARGFRAME XSTACK, 54, STACK
        ARGFRAME IOVERLAY, 0, STATIC
        ARGFRAME DOVERLAY, 0, STATIC
        FUNCALL ZDSecMgrTransportKeyInd, osal_nv_write
        LOCFRAME ISTACK, 0, STACK
        LOCFRAME PSTACK, 0, STACK
        LOCFRAME XSTACK, 58, STACK
        LOCFRAME IOVERLAY, 0, STATIC
        LOCFRAME DOVERLAY, 0, STATIC
        ARGFRAME ISTACK, 0, STACK
        ARGFRAME PSTACK, 0, STACK
        ARGFRAME XSTACK, 58, STACK
        ARGFRAME IOVERLAY, 0, STATIC
        ARGFRAME DOVERLAY, 0, STATIC
        FUNCALL ZDSecMgrTransportKeyInd, osal_nv_item_init
        LOCFRAME ISTACK, 0, STACK
        LOCFRAME PSTACK, 0, STACK
        LOCFRAME XSTACK, 56, STACK
        LOCFRAME IOVERLAY, 0, STATIC
        LOCFRAME DOVERLAY, 0, STATIC
        ARGFRAME ISTACK, 0, STACK
        ARGFRAME PSTACK, 0, STACK
        ARGFRAME XSTACK, 56, STACK
        ARGFRAME IOVERLAY, 0, STATIC
        ARGFRAME DOVERLAY, 0, STATIC
        FUNCALL ZDSecMgrTransportKeyInd, osal_nv_write
        LOCFRAME ISTACK, 0, STACK
        LOCFRAME PSTACK, 0, STACK
        LOCFRAME XSTACK, 58, STACK
        LOCFRAME IOVERLAY, 0, STATIC
        LOCFRAME DOVERLAY, 0, STATIC
        ARGFRAME ISTACK, 0, STACK
        ARGFRAME PSTACK, 0, STACK
        ARGFRAME XSTACK, 58, STACK
        ARGFRAME IOVERLAY, 0, STATIC
        ARGFRAME DOVERLAY, 0, STATIC
        FUNCALL ZDSecMgrTransportKeyInd, bdb_tcLinkKeyExchangeAttempt
        LOCFRAME ISTACK, 0, STACK
        LOCFRAME PSTACK, 0, STACK
        LOCFRAME XSTACK, 54, STACK
        LOCFRAME IOVERLAY, 0, STATIC
        LOCFRAME DOVERLAY, 0, STATIC
        ARGFRAME ISTACK, 0, STACK
        ARGFRAME PSTACK, 0, STACK
        ARGFRAME XSTACK, 54, STACK
        ARGFRAME IOVERLAY, 0, STATIC
        ARGFRAME DOVERLAY, 0, STATIC
        FUNCALL ZDSecMgrTransportKeyInd, ZDSecMgrExtAddrLookup
        LOCFRAME ISTACK, 0, STACK
        LOCFRAME PSTACK, 0, STACK
        LOCFRAME XSTACK, 54, STACK
        LOCFRAME IOVERLAY, 0, STATIC
        LOCFRAME DOVERLAY, 0, STATIC
        ARGFRAME ISTACK, 0, STACK
        ARGFRAME PSTACK, 0, STACK
        ARGFRAME XSTACK, 54, STACK
        ARGFRAME IOVERLAY, 0, STATIC
        ARGFRAME DOVERLAY, 0, STATIC
        FUNCALL ZDSecMgrTransportKeyInd, ZDSecMgrAddrStore
        LOCFRAME ISTACK, 0, STACK
        LOCFRAME PSTACK, 0, STACK
        LOCFRAME XSTACK, 56, STACK
        LOCFRAME IOVERLAY, 0, STATIC
        LOCFRAME DOVERLAY, 0, STATIC
        ARGFRAME ISTACK, 0, STACK
        ARGFRAME PSTACK, 0, STACK
        ARGFRAME XSTACK, 56, STACK
        ARGFRAME IOVERLAY, 0, STATIC
        ARGFRAME DOVERLAY, 0, STATIC
        FUNCALL ZDSecMgrTransportKeyInd, ZDP_NwkAddrReq
        LOCFRAME ISTACK, 0, STACK
        LOCFRAME PSTACK, 0, STACK
        LOCFRAME XSTACK, 54, STACK
        LOCFRAME IOVERLAY, 0, STATIC
        LOCFRAME DOVERLAY, 0, STATIC
        ARGFRAME ISTACK, 0, STACK
        ARGFRAME PSTACK, 0, STACK
        ARGFRAME XSTACK, 54, STACK
        ARGFRAME IOVERLAY, 0, STATIC
        ARGFRAME DOVERLAY, 0, STATIC
        FUNCALL ZDSecMgrTransportKeyInd, ZDSecMgrEntryLookupAMI
        LOCFRAME ISTACK, 0, STACK
        LOCFRAME PSTACK, 0, STACK
        LOCFRAME XSTACK, 54, STACK
        LOCFRAME IOVERLAY, 0, STATIC
        LOCFRAME DOVERLAY, 0, STATIC
        ARGFRAME ISTACK, 0, STACK
        ARGFRAME PSTACK, 0, STACK
        ARGFRAME XSTACK, 54, STACK
        ARGFRAME IOVERLAY, 0, STATIC
        ARGFRAME DOVERLAY, 0, STATIC
        FUNCALL ZDSecMgrTransportKeyInd, ZDSecMgrEntryNew
        LOCFRAME ISTACK, 0, STACK
        LOCFRAME PSTACK, 0, STACK
        LOCFRAME XSTACK, 54, STACK
        LOCFRAME IOVERLAY, 0, STATIC
        LOCFRAME DOVERLAY, 0, STATIC
        ARGFRAME ISTACK, 0, STACK
        ARGFRAME PSTACK, 0, STACK
        ARGFRAME XSTACK, 54, STACK
        ARGFRAME IOVERLAY, 0, STATIC
        ARGFRAME DOVERLAY, 0, STATIC
        FUNCALL ZDSecMgrTransportKeyInd, APSME_LinkKeySet
        LOCFRAME ISTACK, 0, STACK
        LOCFRAME PSTACK, 0, STACK
        LOCFRAME XSTACK, 54, STACK
        LOCFRAME IOVERLAY, 0, STATIC
        LOCFRAME DOVERLAY, 0, STATIC
        ARGFRAME ISTACK, 0, STACK
        ARGFRAME PSTACK, 0, STACK
        ARGFRAME XSTACK, 54, STACK
        ARGFRAME IOVERLAY, 0, STATIC
        ARGFRAME DOVERLAY, 0, STATIC
        FUNCALL ZDSecMgrTransportKeyInd, ZDSecMgrWriteNV
        LOCFRAME ISTACK, 0, STACK
        LOCFRAME PSTACK, 0, STACK
        LOCFRAME XSTACK, 54, STACK
        LOCFRAME IOVERLAY, 0, STATIC
        LOCFRAME DOVERLAY, 0, STATIC
        ARGFRAME ISTACK, 0, STACK
        ARGFRAME PSTACK, 0, STACK
        ARGFRAME XSTACK, 54, STACK
        ARGFRAME IOVERLAY, 0, STATIC
        ARGFRAME DOVERLAY, 0, STATIC
        REQUIRE ?V0
        REQUIRE ?V1
        REQUIRE ?V2
        REQUIRE ?V3
        REQUIRE ?V4
        REQUIRE ?V5
        MOV     A,#-0xe
        LCALL   ?BANKED_ENTER_XDATA
          CFI DPH0 load(1, XDATA, add(CFA_XSP16, literal(-1)))
          CFI DPL0 load(1, XDATA, add(CFA_XSP16, literal(-2)))
          CFI ?BRET_EXT load(1, XDATA, add(CFA_XSP16, literal(-3)))
          CFI ?RET_HIGH load(1, XDATA, add(CFA_XSP16, literal(-4)))
          CFI ?RET_LOW load(1, XDATA, add(CFA_XSP16, literal(-5)))
          CFI R7 load(1, XDATA, add(CFA_XSP16, literal(-6)))
          CFI V5 load(1, XDATA, add(CFA_XSP16, literal(-7)))
          CFI V4 load(1, XDATA, add(CFA_XSP16, literal(-8)))
          CFI V3 load(1, XDATA, add(CFA_XSP16, literal(-9)))
          CFI V2 load(1, XDATA, add(CFA_XSP16, literal(-10)))
          CFI V1 load(1, XDATA, add(CFA_XSP16, literal(-11)))
          CFI V0 load(1, XDATA, add(CFA_XSP16, literal(-12)))
          CFI VB load(1, XDATA, add(CFA_XSP16, literal(-13)))
          CFI R6 load(1, XDATA, add(CFA_XSP16, literal(-14)))
          CFI CFA_SP SP+0
          CFI CFA_XSP16 add(XSP16, 14)
        ; Saved register size: 14
        ; Auto size: 40
        MOV     A,#-0x28
        LCALL   ?ALLOC_XSTACK8
          CFI CFA_XSP16 add(XSP16, 54)
        MOV     A,R2
        MOV     R6,A
        MOV     A,R3
        MOV     R7,A
// 1811   uint8 index;
// 1812   uint8 zgPreConfigKey[SEC_KEY_LEN];
// 1813 
// 1814   ZDSecMgrUpdateTCAddress( ind->srcExtAddr );
        MOV     A,R6
        ADD     A,#0x16
        MOV     ?V2,A
        CLR     A
        ADDC    A,R7
        MOV     ?V3,A
        ; Setup parameters for call to function ZDSecMgrUpdateTCAddress
        MOV     R2,?V2
        MOV     R3,A
        LCALL   `??ZDSecMgrUpdateTCAddress::?relay`; Banked call to: ZDSecMgrUpdateTCAddress
// 1815   
// 1816 #if ZG_BUILD_JOINING_TYPE
// 1817   if(ZG_DEVICE_JOINING_TYPE)
        MOV     DPTR,#zgDeviceLogicalType
        MOVX    A,@DPTR
        XRL     A,#0x1
        JZ      ??ZDSecMgrTransportKeyInd_0
        MOVX    A,@DPTR
        XRL     A,#0x2
        JNZ     ??ZDSecMgrTransportKeyInd_1
// 1818   {
// 1819     //Update the TC address in the entry
// 1820     osal_nv_write(ZCD_NV_TCLK_TABLE_START, osal_offsetof(APSME_TCLKDevEntry_t,extAddr), Z_EXTADDR_LEN, ind->srcExtAddr);
??ZDSecMgrTransportKeyInd_0:
        ; Setup parameters for call to function osal_nv_write
        MOV     R0,#?V2
        LCALL   ?PUSH_XSTACK_I_TWO
          CFI CFA_XSP16 add(XSP16, 56)
        MOV     ?V0,#0x8
        MOV     ?V1,#0x0
        MOV     R0,#?V0
        LCALL   ?PUSH_XSTACK_I_TWO
          CFI CFA_XSP16 add(XSP16, 58)
        MOV     R4,#0x8
        MOV     R5,#0x0
        MOV     R2,#0x11
        MOV     R3,#0x1
        LCALL   `??osal_nv_write::?relay`; Banked call to: osal_nv_write
        MOV     A,#0x4
        LCALL   ?DEALLOC_XSTACK8
          CFI CFA_XSP16 add(XSP16, 54)
// 1821   }
// 1822 #endif
// 1823   
// 1824   // check for distributed security
// 1825   if ( ( ZG_BUILD_RTR_TYPE ) && osal_isbufset( ind->srcExtAddr, 0xFF, Z_EXTADDR_LEN ) )
// 1826   {
// 1827     ZDSecMgrPermitJoiningEnabled = TRUE;  
// 1828   }
// 1829   
// 1830   // load Trust Center data if needed
// 1831   ZDSecMgrTCDataLoad( ind->srcExtAddr );
??ZDSecMgrTransportKeyInd_1:
        ; Setup parameters for call to function ZDSecMgrTCDataLoad
        MOV     R2,?V2
        MOV     R3,?V3
        LCALL   `??ZDSecMgrTCDataLoad::?relay`; Banked call to: ZDSecMgrTCDataLoad
// 1832   
// 1833   if ( ( ind->keyType == KEY_TYPE_NWK ) ||
// 1834        ( ind->keyType == 6            ) )
        MOV     DPL,R6
        MOV     DPH,R7
        INC     DPTR
        INC     DPTR
        INC     DPTR
        INC     DPTR
        MOVX    A,@DPTR
        MOV     R0,A
        MOV     A,R6
        ADD     A,#0x6
        MOV     ?V0,A
        CLR     A
        ADDC    A,R7
        MOV     ?V1,A
        MOV     A,#0x1
        XRL     A,R0
        JZ      ??ZDSecMgrTransportKeyInd_2
        MOV     A,#0x6
        XRL     A,R0
        JNZ     ??ZDSecMgrTransportKeyInd_3
// 1835   {
// 1836     // check for dummy NWK key (all zeros)
// 1837     for ( index = 0;
??ZDSecMgrTransportKeyInd_2:
        MOV     R2,#0x0
??ZDSecMgrTransportKeyInd_4:
        MOV     A,R2
        MOV     R0,A
        MOV     A,R6
        ADD     A,R0
        MOV     DPL,A
        CLR     A
        ADDC    A,R7
        MOV     DPH,A
        INC     DPTR
        INC     DPTR
        INC     DPTR
        INC     DPTR
        INC     DPTR
        INC     DPTR
        MOVX    A,@DPTR
        JNZ     ??ZDSecMgrTransportKeyInd_5
// 1838           ( (index < SEC_KEY_LEN) && (ind->key[index] == 0) );
// 1839           index++ );
        INC     R2
        MOV     A,R2
        CLR     C
        SUBB    A,#0x10
        JC      ??ZDSecMgrTransportKeyInd_4
// 1840 
// 1841     if ( index == SEC_KEY_LEN )
??ZDSecMgrTransportKeyInd_5:
        MOV     A,#0x10
        XRL     A,R2
        JNZ     ??ZDSecMgrTransportKeyInd_6
// 1842     {
// 1843       // load preconfigured key - once!!
// 1844       if ( !_NIB.nwkKeyLoaded )
        MOV     DPTR,#_NIB + 61
        MOVX    A,@DPTR
        JNZ     ??ZDSecMgrTransportKeyInd_7
// 1845       {
// 1846         ZDSecMgrReadKeyFromNv(ZCD_NV_PRECFGKEY, zgPreConfigKey);
        ; Setup parameters for call to function ZDSecMgrReadKeyFromNv
        MOV     A,#0x18
        LCALL   ?XSTACK_DISP102_8
        MOV     R2,#0x62
        MOV     R3,#0x0
        LCALL   `??ZDSecMgrReadKeyFromNv::?relay`; Banked call to: ZDSecMgrReadKeyFromNv
// 1847         SSP_UpdateNwkKey( zgPreConfigKey, 0 );
        ; Setup parameters for call to function SSP_UpdateNwkKey
        MOV     R1,#0x0
        MOV     A,#0x18
        LCALL   ?XSTACK_DISP101_8
        LCALL   `??SSP_UpdateNwkKey::?relay`; Banked call to: SSP_UpdateNwkKey
// 1848         SSP_SwitchNwkKey( 0 );
        ; Setup parameters for call to function SSP_SwitchNwkKey
        MOV     R1,#0x0
        LCALL   `??SSP_SwitchNwkKey::?relay`; Banked call to: SSP_SwitchNwkKey
// 1849 
// 1850         // clear local copy of key
// 1851         osal_memset(zgPreConfigKey, 0x00, SEC_KEY_LEN);
        ; Setup parameters for call to function osal_memset
        MOV     R4,#0x10
        MOV     R5,#0x0
        MOV     R1,#0x0
        MOV     A,#0x18
        LCALL   ?XSTACK_DISP101_8
        LCALL   `??osal_memset::?relay`; Banked call to: osal_memset
        SJMP    ??ZDSecMgrTransportKeyInd_7
// 1852       }
// 1853     }
// 1854     else
// 1855     {
// 1856       SSP_UpdateNwkKey( ind->key, ind->keySeqNum );
??ZDSecMgrTransportKeyInd_6:
        LCALL   ?Subroutine42 & 0xFFFF
??CrossCallReturnLabel_56:
        MOV     R1,A
        MOV     R2,?V0
        MOV     R3,?V1
        LCALL   `??SSP_UpdateNwkKey::?relay`; Banked call to: SSP_UpdateNwkKey
// 1857       if ( !_NIB.nwkKeyLoaded )
        MOV     DPTR,#_NIB + 61
        MOVX    A,@DPTR
        JNZ     ??ZDSecMgrTransportKeyInd_7
// 1858       {
// 1859         SSP_SwitchNwkKey( ind->keySeqNum );
        ; Setup parameters for call to function SSP_SwitchNwkKey
        MOV     DPL,R6
        MOV     DPH,R7
        MOVX    A,@DPTR
        MOV     R1,A
        LCALL   `??SSP_SwitchNwkKey::?relay`; Banked call to: SSP_SwitchNwkKey
// 1860       }
// 1861     }
// 1862 
// 1863     // handle next step in authentication process
// 1864     ZDSecMgrAuthNwkKey();
??ZDSecMgrTransportKeyInd_7:
        ; Setup parameters for call to function ZDSecMgrAuthNwkKey
        LCALL   `??ZDSecMgrAuthNwkKey::?relay`; Banked call to: ZDSecMgrAuthNwkKey
        LJMP    ??ZDSecMgrTransportKeyInd_8 & 0xFFFF
// 1865   }
// 1866   else if ( ind->keyType == KEY_TYPE_TC_LINK )
??ZDSecMgrTransportKeyInd_3:
        MOV     A,#0x4
        XRL     A,R0
        JZ      $+5
        LJMP    ??ZDSecMgrTransportKeyInd_9 & 0xFFFF
// 1867   {
// 1868     uint16 entryIndex;
// 1869     uint8 found;
// 1870     APSME_TCLKDevEntry_t TCLKDevEntry;
// 1871     
// 1872     //Search the entry, which should exist at this point
// 1873     entryIndex = APSME_SearchTCLinkKeyEntry(ind->srcExtAddr, &found, &TCLKDevEntry);
        ; Setup parameters for call to function APSME_SearchTCLinkKeyEntry
        MOV     A,#0x5
        LCALL   ?XSTACK_DISP100_8
        MOV     ?V4,R0
        MOV     ?V5,R1
        MOV     R0,#?V4
        LCALL   ?PUSH_XSTACK_I_TWO
          CFI CFA_XSP16 add(XSP16, 56)
        MOV     A,#0x2
        LCALL   ?XSTACK_DISP102_8
        MOV     R2,?V2
        MOV     R3,?V3
        LCALL   `??APSME_SearchTCLinkKeyEntry::?relay`; Banked call to: APSME_SearchTCLinkKeyEntry
        MOV     A,#0x2
        LCALL   ?DEALLOC_XSTACK8
          CFI CFA_XSP16 add(XSP16, 54)
        MOV     ?V2,R2
        MOV     ?V3,R3
        MOV     R6,?V2
        MOV     R7,?V3
// 1874     
// 1875     if(found)
        MOV     DPL,?XSP + 0
        MOV     DPH,?XSP + 1
        MOVX    A,@DPTR
        JNZ     $+5
        LJMP    ??ZDSecMgrTransportKeyInd_8 & 0xFFFF
// 1876     {
// 1877       //If the key was an IC, then erase the entry since that will not longer be used.
// 1878       if(TCLKDevEntry.keyAttributes == ZG_PROVISIONAL_KEY)
        MOV     A,#0x15
        LCALL   ?XSTACK_DISP0_8
        MOVX    A,@DPTR
        JNZ     ??ZDSecMgrTransportKeyInd_10
// 1879       {
// 1880         APSME_EraseICEntry(&TCLKDevEntry.SeedShift_IcIndex);
        ; Setup parameters for call to function APSME_EraseICEntry
        MOV     A,#0x17
        LCALL   ?XSTACK_DISP0_8
        MOV     R2,DPL
        MOV     R3,DPH
        LCALL   `??APSME_EraseICEntry::?relay`; Banked call to: APSME_EraseICEntry
// 1881       }
// 1882       
// 1883       TCLKDevEntry.keyAttributes = ZG_UNVERIFIED_KEY;
??ZDSecMgrTransportKeyInd_10:
        MOV     A,#0x15
        LCALL   ?XSTACK_DISP0_8
        MOV     A,#0x1
        MOVX    @DPTR,A
// 1884       TCLKDevEntry.keyType = ZG_UNIQUE_LINK_KEY;
        MOV     A,#0x16
        LCALL   ?XSTACK_DISP0_8
        CLR     A
        MOVX    @DPTR,A
// 1885       TCLKDevEntry.rxFrmCntr = 0;
        MOV     A,#0x9
        LCALL   ?XSTACK_DISP0_8
        LCALL   ?Subroutine23 & 0xFFFF
// 1886       TCLKDevEntry.txFrmCntr = 0;
??CrossCallReturnLabel_20:
        LCALL   ?XSTACK_DISP0_8
        LCALL   ??Subroutine68_0 & 0xFFFF
// 1887       TCLKDevEntry.SeedShift_IcIndex = 0;
??CrossCallReturnLabel_167:
        MOV     A,#0x17
        LCALL   ?XSTACK_DISP0_8
        CLR     A
        MOVX    @DPTR,A
// 1888       
// 1889       //Update the entry
// 1890       osal_nv_write(entryIndex,0,sizeof(APSME_TCLKDevEntry_t),&TCLKDevEntry);
        ; Setup parameters for call to function osal_nv_write
        MOV     A,#0x5
        LCALL   ?XSTACK_DISP100_8
        MOV     ?V2,R0
        MOV     ?V3,R1
        MOV     R0,#?V2
        LCALL   ?PUSH_XSTACK_I_TWO
          CFI CFA_XSP16 add(XSP16, 56)
        MOV     ?V2,#0x13
        MOV     ?V3,#0x0
        MOV     R0,#?V2
        LCALL   ?PUSH_XSTACK_I_TWO
          CFI CFA_XSP16 add(XSP16, 58)
        MOV     R4,#0x0
        MOV     R5,#0x0
        MOV     A,R6
        MOV     R2,A
        MOV     A,R7
        MOV     R3,A
        LCALL   `??osal_nv_write::?relay`; Banked call to: osal_nv_write
        MOV     A,#0x4
        LCALL   ?DEALLOC_XSTACK8
          CFI CFA_XSP16 add(XSP16, 54)
// 1891 
// 1892       //Create the entry for the key
// 1893       if(ZSUCCESS == osal_nv_item_init(ZCD_NV_TCLK_JOIN_DEV,SEC_KEY_LEN,ind->key) )
        ; Setup parameters for call to function osal_nv_item_init
        MOV     R0,#?V0
        LCALL   ?PUSH_XSTACK_I_TWO
          CFI CFA_XSP16 add(XSP16, 56)
        MOV     R4,#0x10
        MOV     R5,#0x0
        MOV     R2,#0x2
        MOV     R3,#0x1
        LCALL   `??osal_nv_item_init::?relay`; Banked call to: osal_nv_item_init
        MOV     A,#0x2
        LCALL   ?DEALLOC_XSTACK8
          CFI CFA_XSP16 add(XSP16, 54)
        MOV     A,R1
        JNZ     ??ZDSecMgrTransportKeyInd_11
// 1894       {
// 1895         //Or replace it if already existed
// 1896         osal_nv_write(ZCD_NV_TCLK_JOIN_DEV,0,SEC_KEY_LEN,ind->key);
        ; Setup parameters for call to function osal_nv_write
        MOV     R0,#?V0
        LCALL   ?PUSH_XSTACK_I_TWO
          CFI CFA_XSP16 add(XSP16, 56)
        MOV     ?V0,#0x10
        MOV     ?V1,#0x0
        MOV     R0,#?V0
        LCALL   ?PUSH_XSTACK_I_TWO
          CFI CFA_XSP16 add(XSP16, 58)
        MOV     R4,#0x0
        MOV     R5,#0x0
        MOV     R2,#0x2
        MOV     R3,#0x1
        LCALL   `??osal_nv_write::?relay`; Banked call to: osal_nv_write
        MOV     A,#0x4
        LCALL   ?DEALLOC_XSTACK8
          CFI CFA_XSP16 add(XSP16, 54)
// 1897       }
// 1898       
// 1899       bdb_tcLinkKeyExchangeAttempt(TRUE,BDB_REQ_VERIFY_TC_LINK_KEY);
??ZDSecMgrTransportKeyInd_11:
        ; Setup parameters for call to function bdb_tcLinkKeyExchangeAttempt
        MOV     R2,#0x3
        MOV     R1,#0x1
        LCALL   `??bdb_tcLinkKeyExchangeAttempt::?relay`; Banked call to: bdb_tcLinkKeyExchangeAttempt
        LJMP    ??ZDSecMgrTransportKeyInd_8 & 0xFFFF
// 1900     }
// 1901   }
// 1902   else if ( ind->keyType == KEY_TYPE_APP_LINK )
??ZDSecMgrTransportKeyInd_9:
        MOV     A,#0x3
        XRL     A,R0
        JNZ     ??ZDSecMgrTransportKeyInd_8
// 1903   {
// 1904     if ( ZG_CHECK_SECURITY_MODE == ZG_SECURITY_SE_STANDARD )
// 1905     {
// 1906       uint16           ami;
// 1907       ZDSecMgrEntry_t* entry;
// 1908 
// 1909       // get the address index
// 1910       if ( ZDSecMgrExtAddrLookup( ind->srcExtAddr, &ami ) != ZSuccess )
        ; Setup parameters for call to function ZDSecMgrExtAddrLookup
        MOV     A,#0x3
        LCALL   ?XSTACK_DISP102_8
        MOV     R2,?V2
        MOV     R3,?V3
        LCALL   `??ZDSecMgrExtAddrLookup::?relay`; Banked call to: ZDSecMgrExtAddrLookup
        MOV     A,R1
        JZ      ??ZDSecMgrTransportKeyInd_12
// 1911       {
// 1912         // store new EXT address
// 1913         ZDSecMgrAddrStore( INVALID_NODE_ADDR, ind->srcExtAddr, &ami );
        ; Setup parameters for call to function ZDSecMgrAddrStore
        MOV     A,#0x3
        LCALL   ?XSTACK_DISP100_8
        MOV     ?V4,R0
        MOV     ?V5,R1
        MOV     R0,#?V4
        LCALL   ?PUSH_XSTACK_I_TWO
          CFI CFA_XSP16 add(XSP16, 56)
        MOV     R4,?V2
        MOV     R5,?V3
        MOV     R2,#-0x2
        MOV     R3,#-0x1
        LCALL   `??ZDSecMgrAddrStore::?relay`; Banked call to: ZDSecMgrAddrStore
        MOV     A,#0x2
        LCALL   ?DEALLOC_XSTACK8
          CFI CFA_XSP16 add(XSP16, 54)
// 1914         ZDP_NwkAddrReq( ind->srcExtAddr, ZDP_ADDR_REQTYPE_SINGLE, 0, 0 );
        ; Setup parameters for call to function ZDP_NwkAddrReq
        MOV     R5,#0x0
        MOV     R4,#0x0
        MOV     R1,#0x0
        MOV     R2,?V2
        MOV     R3,?V3
        LCALL   `??ZDP_NwkAddrReq::?relay`; Banked call to: ZDP_NwkAddrReq
// 1915       }
// 1916 
// 1917       ZDSecMgrEntryLookupAMI( ami, &entry );
??ZDSecMgrTransportKeyInd_12:
        ; Setup parameters for call to function ZDSecMgrEntryLookupAMI
        MOV     A,#0x1
        LCALL   ?XSTACK_DISP102_8
        MOV     A,#0x3
        LCALL   ?XSTACK_DISP0_8
        LCALL   ??Subroutine62_0 & 0xFFFF
??CrossCallReturnLabel_116:
        LCALL   `??ZDSecMgrEntryLookupAMI::?relay`; Banked call to: ZDSecMgrEntryLookupAMI
// 1918 
// 1919       if ( entry == NULL )
        MOV     A,#0x1
        LCALL   ?XSTACK_DISP0_8
        LCALL   ??Subroutine66_0 & 0xFFFF
??CrossCallReturnLabel_157:
        JNZ     ??CrossCallReturnLabel_143
// 1920       {
// 1921         // get new entry
// 1922         if ( ZDSecMgrEntryNew( &entry ) == ZSuccess )
        ; Setup parameters for call to function ZDSecMgrEntryNew
        MOV     A,#0x1
        LCALL   ?XSTACK_DISP101_8
        LCALL   `??ZDSecMgrEntryNew::?relay`; Banked call to: ZDSecMgrEntryNew
        MOV     A,R1
        JNZ     ??CrossCallReturnLabel_143
// 1923         {
// 1924           // finish setting up entry
// 1925           entry->ami = ami;
        MOV     A,#0x3
        LCALL   ?XSTACK_DISP0_8
        LCALL   ??Subroutine74_0 & 0xFFFF
// 1926         }
// 1927       }
??CrossCallReturnLabel_176:
        MOV     A,#0x1
        LCALL   ?XSTACK_DISP0_8
        LCALL   ?Subroutine22 & 0xFFFF
// 1928 
// 1929       ZDSecMgrLinkKeySet( ind->srcExtAddr, ind->key );
??CrossCallReturnLabel_143:
        ; Setup parameters for call to function APSME_LinkKeySet
        MOV     R4,?V0
        MOV     R5,?V1
        MOV     R2,?V2
        MOV     R3,?V3
        LCALL   `??APSME_LinkKeySet::?relay`; Banked call to: APSME_LinkKeySet
// 1930 
// 1931 #if defined NV_RESTORE
// 1932       ZDSecMgrWriteNV();  // Write the control record for the new established link key to NV.
        ; Setup parameters for call to function ZDSecMgrWriteNV
        LCALL   `??ZDSecMgrWriteNV::?relay`; Banked call to: ZDSecMgrWriteNV
// 1933 #endif
// 1934     }
// 1935   }
// 1936 }
??ZDSecMgrTransportKeyInd_8:
        MOV     A,#0x28
          CFI EndBlock cfiBlock263
        REQUIRE ?Subroutine5
        ; // Fall through to label ?Subroutine5

        RSEG BANKED_CODE:CODE:NOROOT(0)
?Subroutine5:
          CFI Block cfiBlock264 Using cfiCommon0
          CFI NoFunction
          CFI CFA_SP SP+0
          CFI CFA_XSP16 add(XSP16, 54)
          CFI VB load(1, XDATA, add(CFA_XSP16, literal(-13)))
          CFI DPL0 load(1, XDATA, add(CFA_XSP16, literal(-2)))
          CFI DPH0 load(1, XDATA, add(CFA_XSP16, literal(-1)))
          CFI R6 load(1, XDATA, add(CFA_XSP16, literal(-14)))
          CFI R7 load(1, XDATA, add(CFA_XSP16, literal(-6)))
          CFI V0 load(1, XDATA, add(CFA_XSP16, literal(-12)))
          CFI V1 load(1, XDATA, add(CFA_XSP16, literal(-11)))
          CFI V2 load(1, XDATA, add(CFA_XSP16, literal(-10)))
          CFI V3 load(1, XDATA, add(CFA_XSP16, literal(-9)))
          CFI V4 load(1, XDATA, add(CFA_XSP16, literal(-8)))
          CFI V5 load(1, XDATA, add(CFA_XSP16, literal(-7)))
          CFI ?BRET_EXT load(1, XDATA, add(CFA_XSP16, literal(-3)))
          CFI ?RET_HIGH load(1, XDATA, add(CFA_XSP16, literal(-4)))
          CFI ?RET_LOW load(1, XDATA, add(CFA_XSP16, literal(-5)))
          CFI Invalid
        LCALL   ?DEALLOC_XSTACK8
          CFI CFA_XSP16 add(XSP16, 14)
          CFI Valid
        MOV     R7,#0x6
        LJMP    ?BANKED_LEAVE_XDATA
          CFI EndBlock cfiBlock264

        RSEG BANKED_CODE:CODE:NOROOT(0)
?Subroutine42:
          CFI Block cfiCond265 Using cfiCommon0
          CFI Function ZDSecMgrNewDeviceEvent
          CFI Conditional ??CrossCallReturnLabel_55
          CFI R6 load(1, XDATA, add(CFA_XSP16, literal(-12)))
          CFI VB load(1, XDATA, add(CFA_XSP16, literal(-11)))
          CFI V0 load(1, XDATA, add(CFA_XSP16, literal(-10)))
          CFI V1 load(1, XDATA, add(CFA_XSP16, literal(-9)))
          CFI V2 load(1, XDATA, add(CFA_XSP16, literal(-8)))
          CFI V3 load(1, XDATA, add(CFA_XSP16, literal(-7)))
          CFI R7 load(1, XDATA, add(CFA_XSP16, literal(-6)))
          CFI ?RET_LOW load(1, XDATA, add(CFA_XSP16, literal(-5)))
          CFI ?RET_HIGH load(1, XDATA, add(CFA_XSP16, literal(-4)))
          CFI ?BRET_EXT load(1, XDATA, add(CFA_XSP16, literal(-3)))
          CFI DPL0 load(1, XDATA, add(CFA_XSP16, literal(-2)))
          CFI DPH0 load(1, XDATA, add(CFA_XSP16, literal(-1)))
          CFI CFA_SP SP+-2
          CFI CFA_XSP16 add(XSP16, 33)
          CFI Block cfiCond266 Using cfiCommon0
          CFI (cfiCond266) Function ZDSecMgrTransportKeyInd
          CFI (cfiCond266) Conditional ??CrossCallReturnLabel_56
          CFI (cfiCond266) R6 load(1, XDATA, add(CFA_XSP16, literal(-14)))
          CFI (cfiCond266) VB load(1, XDATA, add(CFA_XSP16, literal(-13)))
          CFI (cfiCond266) V0 load(1, XDATA, add(CFA_XSP16, literal(-12)))
          CFI (cfiCond266) V1 load(1, XDATA, add(CFA_XSP16, literal(-11)))
          CFI (cfiCond266) V2 load(1, XDATA, add(CFA_XSP16, literal(-10)))
          CFI (cfiCond266) V3 load(1, XDATA, add(CFA_XSP16, literal(-9)))
          CFI (cfiCond266) V4 load(1, XDATA, add(CFA_XSP16, literal(-8)))
          CFI (cfiCond266) V5 load(1, XDATA, add(CFA_XSP16, literal(-7)))
          CFI (cfiCond266) R7 load(1, XDATA, add(CFA_XSP16, literal(-6)))
          CFI (cfiCond266) ?RET_LOW load(1, XDATA, add(CFA_XSP16, literal(-5)))
          CFI (cfiCond266) ?RET_HIGH load(1, XDATA, add(CFA_XSP16, literal(-4)))
          CFI (cfiCond266) ?BRET_EXT load(1, XDATA, add(CFA_XSP16, literal(-3)))
          CFI (cfiCond266) DPL0 load(1, XDATA, add(CFA_XSP16, literal(-2)))
          CFI (cfiCond266) DPH0 load(1, XDATA, add(CFA_XSP16, literal(-1)))
          CFI (cfiCond266) CFA_SP SP+-2
          CFI (cfiCond266) CFA_XSP16 add(XSP16, 54)
          CFI Block cfiPicker267 Using cfiCommon1
          CFI (cfiPicker267) NoFunction
          CFI (cfiPicker267) Picker
        MOV     A,R6
        ADD     A,#0x5
        MOV     R0,A
        CLR     A
        ADDC    A,R7
        MOV     R1,A
        MOV     A,R0
        MOV     R6,A
        MOV     A,R1
        MOV     R7,A
        ; Setup parameters for call to function SSP_UpdateNwkKey
        MOV     DPL,R6
        MOV     DPH,R7
        MOVX    A,@DPTR
        RET
          CFI EndBlock cfiCond265
          CFI EndBlock cfiCond266
          CFI EndBlock cfiPicker267

        RSEG BANKED_CODE:CODE:NOROOT(0)
?Subroutine28:
          CFI Block cfiCond268 Using cfiCommon0
          CFI Function APSME_IsLinkKeyValid
          CFI Conditional ??CrossCallReturnLabel_160
          CFI R6 load(1, XDATA, add(CFA_XSP16, literal(-15)))
          CFI VB load(1, XDATA, add(CFA_XSP16, literal(-14)))
          CFI V0 load(1, XDATA, add(CFA_XSP16, literal(-13)))
          CFI V1 load(1, XDATA, add(CFA_XSP16, literal(-12)))
          CFI V2 load(1, XDATA, add(CFA_XSP16, literal(-11)))
          CFI V3 load(1, XDATA, add(CFA_XSP16, literal(-10)))
          CFI V4 load(1, XDATA, add(CFA_XSP16, literal(-9)))
          CFI V5 load(1, XDATA, add(CFA_XSP16, literal(-8)))
          CFI V6 load(1, XDATA, add(CFA_XSP16, literal(-7)))
          CFI R7 load(1, XDATA, add(CFA_XSP16, literal(-6)))
          CFI ?RET_LOW load(1, XDATA, add(CFA_XSP16, literal(-5)))
          CFI ?RET_HIGH load(1, XDATA, add(CFA_XSP16, literal(-4)))
          CFI ?BRET_EXT load(1, XDATA, add(CFA_XSP16, literal(-3)))
          CFI DPL0 load(1, XDATA, add(CFA_XSP16, literal(-2)))
          CFI DPH0 load(1, XDATA, add(CFA_XSP16, literal(-1)))
          CFI CFA_SP SP+-2
          CFI CFA_XSP16 add(XSP16, 33)
          CFI Block cfiCond269 Using cfiCommon0
          CFI (cfiCond269) Function ZDSecMgrAddLinkKey
          CFI (cfiCond269) Conditional ??CrossCallReturnLabel_161
          CFI (cfiCond269) R6 load(1, XDATA, add(CFA_XSP16, literal(-10)))
          CFI (cfiCond269) VB load(1, XDATA, add(CFA_XSP16, literal(-9)))
          CFI (cfiCond269) V0 load(1, XDATA, add(CFA_XSP16, literal(-8)))
          CFI (cfiCond269) V1 load(1, XDATA, add(CFA_XSP16, literal(-7)))
          CFI (cfiCond269) R7 load(1, XDATA, add(CFA_XSP16, literal(-6)))
          CFI (cfiCond269) ?RET_LOW load(1, XDATA, add(CFA_XSP16, literal(-5)))
          CFI (cfiCond269) ?RET_HIGH load(1, XDATA, add(CFA_XSP16, literal(-4)))
          CFI (cfiCond269) ?BRET_EXT load(1, XDATA, add(CFA_XSP16, literal(-3)))
          CFI (cfiCond269) DPL0 load(1, XDATA, add(CFA_XSP16, literal(-2)))
          CFI (cfiCond269) DPH0 load(1, XDATA, add(CFA_XSP16, literal(-1)))
          CFI (cfiCond269) CFA_SP SP+-2
          CFI (cfiCond269) CFA_XSP16 add(XSP16, 14)
          CFI Block cfiCond270 Using cfiCommon0
          CFI (cfiCond270) Function ZDSecMgrRestoreFromNV
          CFI (cfiCond270) Conditional ??CrossCallReturnLabel_162
          CFI (cfiCond270) R6 load(1, XDATA, add(CFA_XSP16, literal(-18)))
          CFI (cfiCond270) VB load(1, XDATA, add(CFA_XSP16, literal(-17)))
          CFI (cfiCond270) V0 load(1, XDATA, add(CFA_XSP16, literal(-16)))
          CFI (cfiCond270) V1 load(1, XDATA, add(CFA_XSP16, literal(-15)))
          CFI (cfiCond270) V2 load(1, XDATA, add(CFA_XSP16, literal(-14)))
          CFI (cfiCond270) V3 load(1, XDATA, add(CFA_XSP16, literal(-13)))
          CFI (cfiCond270) V4 load(1, XDATA, add(CFA_XSP16, literal(-12)))
          CFI (cfiCond270) V5 load(1, XDATA, add(CFA_XSP16, literal(-11)))
          CFI (cfiCond270) V6 load(1, XDATA, add(CFA_XSP16, literal(-10)))
          CFI (cfiCond270) V7 load(1, XDATA, add(CFA_XSP16, literal(-9)))
          CFI (cfiCond270) V8 load(1, XDATA, add(CFA_XSP16, literal(-8)))
          CFI (cfiCond270) V9 load(1, XDATA, add(CFA_XSP16, literal(-7)))
          CFI (cfiCond270) R7 load(1, XDATA, add(CFA_XSP16, literal(-6)))
          CFI (cfiCond270) ?RET_LOW load(1, XDATA, add(CFA_XSP16, literal(-5)))
          CFI (cfiCond270) ?RET_HIGH load(1, XDATA, add(CFA_XSP16, literal(-4)))
          CFI (cfiCond270) ?BRET_EXT load(1, XDATA, add(CFA_XSP16, literal(-3)))
          CFI (cfiCond270) DPL0 load(1, XDATA, add(CFA_XSP16, literal(-2)))
          CFI (cfiCond270) DPH0 load(1, XDATA, add(CFA_XSP16, literal(-1)))
          CFI (cfiCond270) CFA_SP SP+-2
          CFI (cfiCond270) CFA_XSP16 add(XSP16, 20)
          CFI Block cfiPicker271 Using cfiCommon1
          CFI (cfiPicker271) NoFunction
          CFI (cfiPicker271) Picker
        MOV     DPL,?XSP + 0
        MOV     DPH,?XSP + 1
          CFI EndBlock cfiCond268
          CFI EndBlock cfiCond269
          CFI EndBlock cfiCond270
          CFI EndBlock cfiPicker271
        REQUIRE ??Subroutine66_0
        ; // Fall through to label ??Subroutine66_0

        RSEG BANKED_CODE:CODE:NOROOT(0)
??Subroutine66_0:
          CFI Block cfiCond272 Using cfiCommon0
          CFI Function ZDSecMgrEntryInit
          CFI Conditional ??CrossCallReturnLabel_151
          CFI R6 load(1, XDATA, add(CFA_XSP16, literal(-9)))
          CFI VB load(1, XDATA, add(CFA_XSP16, literal(-8)))
          CFI V0 load(1, XDATA, add(CFA_XSP16, literal(-7)))
          CFI R7 load(1, XDATA, add(CFA_XSP16, literal(-6)))
          CFI ?RET_LOW load(1, XDATA, add(CFA_XSP16, literal(-5)))
          CFI ?RET_HIGH load(1, XDATA, add(CFA_XSP16, literal(-4)))
          CFI ?BRET_EXT load(1, XDATA, add(CFA_XSP16, literal(-3)))
          CFI DPL0 load(1, XDATA, add(CFA_XSP16, literal(-2)))
          CFI DPH0 load(1, XDATA, add(CFA_XSP16, literal(-1)))
          CFI CFA_SP SP+-2
          CFI CFA_XSP16 add(XSP16, 9)
          CFI Block cfiCond273 Using cfiCommon0
          CFI (cfiCond273) Function ZDSecMgrEntryLookupExtGetIndex
          CFI (cfiCond273) Conditional ??CrossCallReturnLabel_152
          CFI (cfiCond273) R6 load(1, XDATA, add(CFA_XSP16, literal(-9)))
          CFI (cfiCond273) VB load(1, XDATA, add(CFA_XSP16, literal(-8)))
          CFI (cfiCond273) V0 load(1, XDATA, add(CFA_XSP16, literal(-7)))
          CFI (cfiCond273) R7 load(1, XDATA, add(CFA_XSP16, literal(-6)))
          CFI (cfiCond273) ?RET_LOW load(1, XDATA, add(CFA_XSP16, literal(-5)))
          CFI (cfiCond273) ?RET_HIGH load(1, XDATA, add(CFA_XSP16, literal(-4)))
          CFI (cfiCond273) ?BRET_EXT load(1, XDATA, add(CFA_XSP16, literal(-3)))
          CFI (cfiCond273) DPL0 load(1, XDATA, add(CFA_XSP16, literal(-2)))
          CFI (cfiCond273) DPH0 load(1, XDATA, add(CFA_XSP16, literal(-1)))
          CFI (cfiCond273) CFA_SP SP+-2
          CFI (cfiCond273) CFA_XSP16 add(XSP16, 11)
          CFI Block cfiCond274 Using cfiCommon0
          CFI (cfiCond274) Function ZDSecMgrEntryLookupAMIGetIndex
          CFI (cfiCond274) Conditional ??CrossCallReturnLabel_153
          CFI (cfiCond274) R6 load(1, XDATA, add(CFA_XSP16, literal(-9)))
          CFI (cfiCond274) VB load(1, XDATA, add(CFA_XSP16, literal(-8)))
          CFI (cfiCond274) V0 load(1, XDATA, add(CFA_XSP16, literal(-7)))
          CFI (cfiCond274) R7 load(1, XDATA, add(CFA_XSP16, literal(-6)))
          CFI (cfiCond274) ?RET_LOW load(1, XDATA, add(CFA_XSP16, literal(-5)))
          CFI (cfiCond274) ?RET_HIGH load(1, XDATA, add(CFA_XSP16, literal(-4)))
          CFI (cfiCond274) ?BRET_EXT load(1, XDATA, add(CFA_XSP16, literal(-3)))
          CFI (cfiCond274) DPL0 load(1, XDATA, add(CFA_XSP16, literal(-2)))
          CFI (cfiCond274) DPH0 load(1, XDATA, add(CFA_XSP16, literal(-1)))
          CFI (cfiCond274) CFA_SP SP+-2
          CFI (cfiCond274) CFA_XSP16 add(XSP16, 9)
          CFI Block cfiCond275 Using cfiCommon0
          CFI (cfiCond275) Function ZDSecMgrEntryFree
          CFI (cfiCond275) Conditional ??CrossCallReturnLabel_154
          CFI (cfiCond275) R6 load(1, XDATA, add(CFA_XSP16, literal(-16)))
          CFI (cfiCond275) VB load(1, XDATA, add(CFA_XSP16, literal(-15)))
          CFI (cfiCond275) V0 load(1, XDATA, add(CFA_XSP16, literal(-14)))
          CFI (cfiCond275) V1 load(1, XDATA, add(CFA_XSP16, literal(-13)))
          CFI (cfiCond275) V2 load(1, XDATA, add(CFA_XSP16, literal(-12)))
          CFI (cfiCond275) V3 load(1, XDATA, add(CFA_XSP16, literal(-11)))
          CFI (cfiCond275) V4 load(1, XDATA, add(CFA_XSP16, literal(-10)))
          CFI (cfiCond275) V5 load(1, XDATA, add(CFA_XSP16, literal(-9)))
          CFI (cfiCond275) V6 load(1, XDATA, add(CFA_XSP16, literal(-8)))
          CFI (cfiCond275) V7 load(1, XDATA, add(CFA_XSP16, literal(-7)))
          CFI (cfiCond275) R7 load(1, XDATA, add(CFA_XSP16, literal(-6)))
          CFI (cfiCond275) ?RET_LOW load(1, XDATA, add(CFA_XSP16, literal(-5)))
          CFI (cfiCond275) ?RET_HIGH load(1, XDATA, add(CFA_XSP16, literal(-4)))
          CFI (cfiCond275) ?BRET_EXT load(1, XDATA, add(CFA_XSP16, literal(-3)))
          CFI (cfiCond275) DPL0 load(1, XDATA, add(CFA_XSP16, literal(-2)))
          CFI (cfiCond275) DPH0 load(1, XDATA, add(CFA_XSP16, literal(-1)))
          CFI (cfiCond275) CFA_SP SP+-2
          CFI (cfiCond275) CFA_XSP16 add(XSP16, 20)
          CFI Block cfiCond276 Using cfiCommon0
          CFI (cfiCond276) Function ZDSecMgrEntryFree
          CFI (cfiCond276) Conditional ??CrossCallReturnLabel_155
          CFI (cfiCond276) R6 load(1, XDATA, add(CFA_XSP16, literal(-16)))
          CFI (cfiCond276) VB load(1, XDATA, add(CFA_XSP16, literal(-15)))
          CFI (cfiCond276) V0 load(1, XDATA, add(CFA_XSP16, literal(-14)))
          CFI (cfiCond276) V1 load(1, XDATA, add(CFA_XSP16, literal(-13)))
          CFI (cfiCond276) V2 load(1, XDATA, add(CFA_XSP16, literal(-12)))
          CFI (cfiCond276) V3 load(1, XDATA, add(CFA_XSP16, literal(-11)))
          CFI (cfiCond276) V4 load(1, XDATA, add(CFA_XSP16, literal(-10)))
          CFI (cfiCond276) V5 load(1, XDATA, add(CFA_XSP16, literal(-9)))
          CFI (cfiCond276) V6 load(1, XDATA, add(CFA_XSP16, literal(-8)))
          CFI (cfiCond276) V7 load(1, XDATA, add(CFA_XSP16, literal(-7)))
          CFI (cfiCond276) R7 load(1, XDATA, add(CFA_XSP16, literal(-6)))
          CFI (cfiCond276) ?RET_LOW load(1, XDATA, add(CFA_XSP16, literal(-5)))
          CFI (cfiCond276) ?RET_HIGH load(1, XDATA, add(CFA_XSP16, literal(-4)))
          CFI (cfiCond276) ?BRET_EXT load(1, XDATA, add(CFA_XSP16, literal(-3)))
          CFI (cfiCond276) DPL0 load(1, XDATA, add(CFA_XSP16, literal(-2)))
          CFI (cfiCond276) DPH0 load(1, XDATA, add(CFA_XSP16, literal(-1)))
          CFI (cfiCond276) CFA_SP SP+-2
          CFI (cfiCond276) CFA_XSP16 add(XSP16, 20)
          CFI Block cfiCond277 Using cfiCommon0
          CFI (cfiCond277) Function ZDSecMgrDeviceJoin
          CFI (cfiCond277) Conditional ??CrossCallReturnLabel_156
          CFI (cfiCond277) R6 load(1, XDATA, add(CFA_XSP16, literal(-16)))
          CFI (cfiCond277) VB load(1, XDATA, add(CFA_XSP16, literal(-15)))
          CFI (cfiCond277) V0 load(1, XDATA, add(CFA_XSP16, literal(-14)))
          CFI (cfiCond277) V1 load(1, XDATA, add(CFA_XSP16, literal(-13)))
          CFI (cfiCond277) V2 load(1, XDATA, add(CFA_XSP16, literal(-12)))
          CFI (cfiCond277) V3 load(1, XDATA, add(CFA_XSP16, literal(-11)))
          CFI (cfiCond277) V4 load(1, XDATA, add(CFA_XSP16, literal(-10)))
          CFI (cfiCond277) V5 load(1, XDATA, add(CFA_XSP16, literal(-9)))
          CFI (cfiCond277) V6 load(1, XDATA, add(CFA_XSP16, literal(-8)))
          CFI (cfiCond277) V7 load(1, XDATA, add(CFA_XSP16, literal(-7)))
          CFI (cfiCond277) R7 load(1, XDATA, add(CFA_XSP16, literal(-6)))
          CFI (cfiCond277) ?RET_LOW load(1, XDATA, add(CFA_XSP16, literal(-5)))
          CFI (cfiCond277) ?RET_HIGH load(1, XDATA, add(CFA_XSP16, literal(-4)))
          CFI (cfiCond277) ?BRET_EXT load(1, XDATA, add(CFA_XSP16, literal(-3)))
          CFI (cfiCond277) DPL0 load(1, XDATA, add(CFA_XSP16, literal(-2)))
          CFI (cfiCond277) DPH0 load(1, XDATA, add(CFA_XSP16, literal(-1)))
          CFI (cfiCond277) CFA_SP SP+-2
          CFI (cfiCond277) CFA_XSP16 add(XSP16, 30)
          CFI Block cfiCond278 Using cfiCommon0
          CFI (cfiCond278) Function ZDSecMgrTransportKeyInd
          CFI (cfiCond278) Conditional ??CrossCallReturnLabel_157
          CFI (cfiCond278) R6 load(1, XDATA, add(CFA_XSP16, literal(-14)))
          CFI (cfiCond278) VB load(1, XDATA, add(CFA_XSP16, literal(-13)))
          CFI (cfiCond278) V0 load(1, XDATA, add(CFA_XSP16, literal(-12)))
          CFI (cfiCond278) V1 load(1, XDATA, add(CFA_XSP16, literal(-11)))
          CFI (cfiCond278) V2 load(1, XDATA, add(CFA_XSP16, literal(-10)))
          CFI (cfiCond278) V3 load(1, XDATA, add(CFA_XSP16, literal(-9)))
          CFI (cfiCond278) V4 load(1, XDATA, add(CFA_XSP16, literal(-8)))
          CFI (cfiCond278) V5 load(1, XDATA, add(CFA_XSP16, literal(-7)))
          CFI (cfiCond278) R7 load(1, XDATA, add(CFA_XSP16, literal(-6)))
          CFI (cfiCond278) ?RET_LOW load(1, XDATA, add(CFA_XSP16, literal(-5)))
          CFI (cfiCond278) ?RET_HIGH load(1, XDATA, add(CFA_XSP16, literal(-4)))
          CFI (cfiCond278) ?BRET_EXT load(1, XDATA, add(CFA_XSP16, literal(-3)))
          CFI (cfiCond278) DPL0 load(1, XDATA, add(CFA_XSP16, literal(-2)))
          CFI (cfiCond278) DPH0 load(1, XDATA, add(CFA_XSP16, literal(-1)))
          CFI (cfiCond278) CFA_SP SP+-2
          CFI (cfiCond278) CFA_XSP16 add(XSP16, 54)
          CFI Block cfiCond279 Using cfiCommon0
          CFI (cfiCond279) Function ZDSecMgrRemoveDeviceInd
          CFI (cfiCond279) Conditional ??CrossCallReturnLabel_158
          CFI (cfiCond279) R6 load(1, XDATA, add(CFA_XSP16, literal(-9)))
          CFI (cfiCond279) VB load(1, XDATA, add(CFA_XSP16, literal(-8)))
          CFI (cfiCond279) V0 load(1, XDATA, add(CFA_XSP16, literal(-7)))
          CFI (cfiCond279) R7 load(1, XDATA, add(CFA_XSP16, literal(-6)))
          CFI (cfiCond279) ?RET_LOW load(1, XDATA, add(CFA_XSP16, literal(-5)))
          CFI (cfiCond279) ?RET_HIGH load(1, XDATA, add(CFA_XSP16, literal(-4)))
          CFI (cfiCond279) ?BRET_EXT load(1, XDATA, add(CFA_XSP16, literal(-3)))
          CFI (cfiCond279) DPL0 load(1, XDATA, add(CFA_XSP16, literal(-2)))
          CFI (cfiCond279) DPH0 load(1, XDATA, add(CFA_XSP16, literal(-1)))
          CFI (cfiCond279) CFA_SP SP+-2
          CFI (cfiCond279) CFA_XSP16 add(XSP16, 17)
          CFI Block cfiCond280 Using cfiCommon0
          CFI (cfiCond280) Function APSME_KeyFwdToChild
          CFI (cfiCond280) Conditional ??CrossCallReturnLabel_159
          CFI (cfiCond280) R6 load(1, XDATA, add(CFA_XSP16, literal(-10)))
          CFI (cfiCond280) VB load(1, XDATA, add(CFA_XSP16, literal(-9)))
          CFI (cfiCond280) V0 load(1, XDATA, add(CFA_XSP16, literal(-8)))
          CFI (cfiCond280) V1 load(1, XDATA, add(CFA_XSP16, literal(-7)))
          CFI (cfiCond280) R7 load(1, XDATA, add(CFA_XSP16, literal(-6)))
          CFI (cfiCond280) ?RET_LOW load(1, XDATA, add(CFA_XSP16, literal(-5)))
          CFI (cfiCond280) ?RET_HIGH load(1, XDATA, add(CFA_XSP16, literal(-4)))
          CFI (cfiCond280) ?BRET_EXT load(1, XDATA, add(CFA_XSP16, literal(-3)))
          CFI (cfiCond280) DPL0 load(1, XDATA, add(CFA_XSP16, literal(-2)))
          CFI (cfiCond280) DPH0 load(1, XDATA, add(CFA_XSP16, literal(-1)))
          CFI (cfiCond280) CFA_SP SP+-2
          CFI (cfiCond280) CFA_XSP16 add(XSP16, 10)
          CFI Block cfiCond281 Using cfiCommon0
          CFI (cfiCond281) Function APSME_IsLinkKeyValid
          CFI (cfiCond281) Conditional ??CrossCallReturnLabel_160
          CFI (cfiCond281) R6 load(1, XDATA, add(CFA_XSP16, literal(-15)))
          CFI (cfiCond281) VB load(1, XDATA, add(CFA_XSP16, literal(-14)))
          CFI (cfiCond281) V0 load(1, XDATA, add(CFA_XSP16, literal(-13)))
          CFI (cfiCond281) V1 load(1, XDATA, add(CFA_XSP16, literal(-12)))
          CFI (cfiCond281) V2 load(1, XDATA, add(CFA_XSP16, literal(-11)))
          CFI (cfiCond281) V3 load(1, XDATA, add(CFA_XSP16, literal(-10)))
          CFI (cfiCond281) V4 load(1, XDATA, add(CFA_XSP16, literal(-9)))
          CFI (cfiCond281) V5 load(1, XDATA, add(CFA_XSP16, literal(-8)))
          CFI (cfiCond281) V6 load(1, XDATA, add(CFA_XSP16, literal(-7)))
          CFI (cfiCond281) R7 load(1, XDATA, add(CFA_XSP16, literal(-6)))
          CFI (cfiCond281) ?RET_LOW load(1, XDATA, add(CFA_XSP16, literal(-5)))
          CFI (cfiCond281) ?RET_HIGH load(1, XDATA, add(CFA_XSP16, literal(-4)))
          CFI (cfiCond281) ?BRET_EXT load(1, XDATA, add(CFA_XSP16, literal(-3)))
          CFI (cfiCond281) DPL0 load(1, XDATA, add(CFA_XSP16, literal(-2)))
          CFI (cfiCond281) DPH0 load(1, XDATA, add(CFA_XSP16, literal(-1)))
          CFI (cfiCond281) CFA_SP SP+-2
          CFI (cfiCond281) CFA_XSP16 add(XSP16, 33)
          CFI Block cfiCond282 Using cfiCommon0
          CFI (cfiCond282) Function ZDSecMgrAddLinkKey
          CFI (cfiCond282) Conditional ??CrossCallReturnLabel_161
          CFI (cfiCond282) R6 load(1, XDATA, add(CFA_XSP16, literal(-10)))
          CFI (cfiCond282) VB load(1, XDATA, add(CFA_XSP16, literal(-9)))
          CFI (cfiCond282) V0 load(1, XDATA, add(CFA_XSP16, literal(-8)))
          CFI (cfiCond282) V1 load(1, XDATA, add(CFA_XSP16, literal(-7)))
          CFI (cfiCond282) R7 load(1, XDATA, add(CFA_XSP16, literal(-6)))
          CFI (cfiCond282) ?RET_LOW load(1, XDATA, add(CFA_XSP16, literal(-5)))
          CFI (cfiCond282) ?RET_HIGH load(1, XDATA, add(CFA_XSP16, literal(-4)))
          CFI (cfiCond282) ?BRET_EXT load(1, XDATA, add(CFA_XSP16, literal(-3)))
          CFI (cfiCond282) DPL0 load(1, XDATA, add(CFA_XSP16, literal(-2)))
          CFI (cfiCond282) DPH0 load(1, XDATA, add(CFA_XSP16, literal(-1)))
          CFI (cfiCond282) CFA_SP SP+-2
          CFI (cfiCond282) CFA_XSP16 add(XSP16, 14)
          CFI Block cfiCond283 Using cfiCommon0
          CFI (cfiCond283) Function ZDSecMgrRestoreFromNV
          CFI (cfiCond283) Conditional ??CrossCallReturnLabel_162
          CFI (cfiCond283) R6 load(1, XDATA, add(CFA_XSP16, literal(-18)))
          CFI (cfiCond283) VB load(1, XDATA, add(CFA_XSP16, literal(-17)))
          CFI (cfiCond283) V0 load(1, XDATA, add(CFA_XSP16, literal(-16)))
          CFI (cfiCond283) V1 load(1, XDATA, add(CFA_XSP16, literal(-15)))
          CFI (cfiCond283) V2 load(1, XDATA, add(CFA_XSP16, literal(-14)))
          CFI (cfiCond283) V3 load(1, XDATA, add(CFA_XSP16, literal(-13)))
          CFI (cfiCond283) V4 load(1, XDATA, add(CFA_XSP16, literal(-12)))
          CFI (cfiCond283) V5 load(1, XDATA, add(CFA_XSP16, literal(-11)))
          CFI (cfiCond283) V6 load(1, XDATA, add(CFA_XSP16, literal(-10)))
          CFI (cfiCond283) V7 load(1, XDATA, add(CFA_XSP16, literal(-9)))
          CFI (cfiCond283) V8 load(1, XDATA, add(CFA_XSP16, literal(-8)))
          CFI (cfiCond283) V9 load(1, XDATA, add(CFA_XSP16, literal(-7)))
          CFI (cfiCond283) R7 load(1, XDATA, add(CFA_XSP16, literal(-6)))
          CFI (cfiCond283) ?RET_LOW load(1, XDATA, add(CFA_XSP16, literal(-5)))
          CFI (cfiCond283) ?RET_HIGH load(1, XDATA, add(CFA_XSP16, literal(-4)))
          CFI (cfiCond283) ?BRET_EXT load(1, XDATA, add(CFA_XSP16, literal(-3)))
          CFI (cfiCond283) DPL0 load(1, XDATA, add(CFA_XSP16, literal(-2)))
          CFI (cfiCond283) DPH0 load(1, XDATA, add(CFA_XSP16, literal(-1)))
          CFI (cfiCond283) CFA_SP SP+-2
          CFI (cfiCond283) CFA_XSP16 add(XSP16, 20)
          CFI Block cfiPicker284 Using cfiCommon1
          CFI (cfiPicker284) NoFunction
          CFI (cfiPicker284) Picker
        LCALL   ?Subroutine52 & 0xFFFF
??CrossCallReturnLabel_165:
        ORL     A,R1
        RET
          CFI EndBlock cfiCond272
          CFI EndBlock cfiCond273
          CFI EndBlock cfiCond274
          CFI EndBlock cfiCond275
          CFI EndBlock cfiCond276
          CFI EndBlock cfiCond277
          CFI EndBlock cfiCond278
          CFI EndBlock cfiCond279
          CFI EndBlock cfiCond280
          CFI EndBlock cfiCond281
          CFI EndBlock cfiCond282
          CFI EndBlock cfiCond283
          CFI EndBlock cfiPicker284

        RSEG BANKED_CODE:CODE:NOROOT(0)
?Subroutine26:
          CFI Block cfiCond285 Using cfiCommon0
          CFI Function APSME_LinkKeySet
          CFI Conditional ??CrossCallReturnLabel_169
          CFI R6 load(1, XDATA, add(CFA_XSP16, literal(-15)))
          CFI VB load(1, XDATA, add(CFA_XSP16, literal(-14)))
          CFI V0 load(1, XDATA, add(CFA_XSP16, literal(-13)))
          CFI V1 load(1, XDATA, add(CFA_XSP16, literal(-12)))
          CFI V2 load(1, XDATA, add(CFA_XSP16, literal(-11)))
          CFI V3 load(1, XDATA, add(CFA_XSP16, literal(-10)))
          CFI V4 load(1, XDATA, add(CFA_XSP16, literal(-9)))
          CFI V5 load(1, XDATA, add(CFA_XSP16, literal(-8)))
          CFI V6 load(1, XDATA, add(CFA_XSP16, literal(-7)))
          CFI R7 load(1, XDATA, add(CFA_XSP16, literal(-6)))
          CFI ?RET_LOW load(1, XDATA, add(CFA_XSP16, literal(-5)))
          CFI ?RET_HIGH load(1, XDATA, add(CFA_XSP16, literal(-4)))
          CFI ?BRET_EXT load(1, XDATA, add(CFA_XSP16, literal(-3)))
          CFI DPL0 load(1, XDATA, add(CFA_XSP16, literal(-2)))
          CFI DPH0 load(1, XDATA, add(CFA_XSP16, literal(-1)))
          CFI CFA_SP SP+-2
          CFI CFA_XSP16 add(XSP16, 19)
          CFI Block cfiCond286 Using cfiCommon0
          CFI (cfiCond286) Function APSME_LinkKeySet
          CFI (cfiCond286) Conditional ??CrossCallReturnLabel_170
          CFI (cfiCond286) R6 load(1, XDATA, add(CFA_XSP16, literal(-15)))
          CFI (cfiCond286) VB load(1, XDATA, add(CFA_XSP16, literal(-14)))
          CFI (cfiCond286) V0 load(1, XDATA, add(CFA_XSP16, literal(-13)))
          CFI (cfiCond286) V1 load(1, XDATA, add(CFA_XSP16, literal(-12)))
          CFI (cfiCond286) V2 load(1, XDATA, add(CFA_XSP16, literal(-11)))
          CFI (cfiCond286) V3 load(1, XDATA, add(CFA_XSP16, literal(-10)))
          CFI (cfiCond286) V4 load(1, XDATA, add(CFA_XSP16, literal(-9)))
          CFI (cfiCond286) V5 load(1, XDATA, add(CFA_XSP16, literal(-8)))
          CFI (cfiCond286) V6 load(1, XDATA, add(CFA_XSP16, literal(-7)))
          CFI (cfiCond286) R7 load(1, XDATA, add(CFA_XSP16, literal(-6)))
          CFI (cfiCond286) ?RET_LOW load(1, XDATA, add(CFA_XSP16, literal(-5)))
          CFI (cfiCond286) ?RET_HIGH load(1, XDATA, add(CFA_XSP16, literal(-4)))
          CFI (cfiCond286) ?BRET_EXT load(1, XDATA, add(CFA_XSP16, literal(-3)))
          CFI (cfiCond286) DPL0 load(1, XDATA, add(CFA_XSP16, literal(-2)))
          CFI (cfiCond286) DPH0 load(1, XDATA, add(CFA_XSP16, literal(-1)))
          CFI (cfiCond286) CFA_SP SP+-2
          CFI (cfiCond286) CFA_XSP16 add(XSP16, 19)
          CFI Block cfiPicker287 Using cfiCommon1
          CFI (cfiPicker287) NoFunction
          CFI (cfiPicker287) Picker
        MOV     DPL,A
        CLR     A
        ADDC    A,?V3
          CFI EndBlock cfiCond285
          CFI EndBlock cfiCond286
          CFI EndBlock cfiPicker287
        REQUIRE ??Subroutine67_0
        ; // Fall through to label ??Subroutine67_0

        RSEG BANKED_CODE:CODE:NOROOT(0)
??Subroutine67_0:
          CFI Block cfiCond288 Using cfiCommon0
          CFI Function APSME_LinkKeySet
          CFI Conditional ??CrossCallReturnLabel_168
          CFI R6 load(1, XDATA, add(CFA_XSP16, literal(-15)))
          CFI VB load(1, XDATA, add(CFA_XSP16, literal(-14)))
          CFI V0 load(1, XDATA, add(CFA_XSP16, literal(-13)))
          CFI V1 load(1, XDATA, add(CFA_XSP16, literal(-12)))
          CFI V2 load(1, XDATA, add(CFA_XSP16, literal(-11)))
          CFI V3 load(1, XDATA, add(CFA_XSP16, literal(-10)))
          CFI V4 load(1, XDATA, add(CFA_XSP16, literal(-9)))
          CFI V5 load(1, XDATA, add(CFA_XSP16, literal(-8)))
          CFI V6 load(1, XDATA, add(CFA_XSP16, literal(-7)))
          CFI R7 load(1, XDATA, add(CFA_XSP16, literal(-6)))
          CFI ?RET_LOW load(1, XDATA, add(CFA_XSP16, literal(-5)))
          CFI ?RET_HIGH load(1, XDATA, add(CFA_XSP16, literal(-4)))
          CFI ?BRET_EXT load(1, XDATA, add(CFA_XSP16, literal(-3)))
          CFI DPL0 load(1, XDATA, add(CFA_XSP16, literal(-2)))
          CFI DPH0 load(1, XDATA, add(CFA_XSP16, literal(-1)))
          CFI CFA_SP SP+-2
          CFI CFA_XSP16 add(XSP16, 19)
          CFI Block cfiCond289 Using cfiCommon0
          CFI (cfiCond289) Function APSME_LinkKeySet
          CFI (cfiCond289) Conditional ??CrossCallReturnLabel_169
          CFI (cfiCond289) R6 load(1, XDATA, add(CFA_XSP16, literal(-15)))
          CFI (cfiCond289) VB load(1, XDATA, add(CFA_XSP16, literal(-14)))
          CFI (cfiCond289) V0 load(1, XDATA, add(CFA_XSP16, literal(-13)))
          CFI (cfiCond289) V1 load(1, XDATA, add(CFA_XSP16, literal(-12)))
          CFI (cfiCond289) V2 load(1, XDATA, add(CFA_XSP16, literal(-11)))
          CFI (cfiCond289) V3 load(1, XDATA, add(CFA_XSP16, literal(-10)))
          CFI (cfiCond289) V4 load(1, XDATA, add(CFA_XSP16, literal(-9)))
          CFI (cfiCond289) V5 load(1, XDATA, add(CFA_XSP16, literal(-8)))
          CFI (cfiCond289) V6 load(1, XDATA, add(CFA_XSP16, literal(-7)))
          CFI (cfiCond289) R7 load(1, XDATA, add(CFA_XSP16, literal(-6)))
          CFI (cfiCond289) ?RET_LOW load(1, XDATA, add(CFA_XSP16, literal(-5)))
          CFI (cfiCond289) ?RET_HIGH load(1, XDATA, add(CFA_XSP16, literal(-4)))
          CFI (cfiCond289) ?BRET_EXT load(1, XDATA, add(CFA_XSP16, literal(-3)))
          CFI (cfiCond289) DPL0 load(1, XDATA, add(CFA_XSP16, literal(-2)))
          CFI (cfiCond289) DPH0 load(1, XDATA, add(CFA_XSP16, literal(-1)))
          CFI (cfiCond289) CFA_SP SP+-2
          CFI (cfiCond289) CFA_XSP16 add(XSP16, 19)
          CFI Block cfiCond290 Using cfiCommon0
          CFI (cfiCond290) Function APSME_LinkKeySet
          CFI (cfiCond290) Conditional ??CrossCallReturnLabel_170
          CFI (cfiCond290) R6 load(1, XDATA, add(CFA_XSP16, literal(-15)))
          CFI (cfiCond290) VB load(1, XDATA, add(CFA_XSP16, literal(-14)))
          CFI (cfiCond290) V0 load(1, XDATA, add(CFA_XSP16, literal(-13)))
          CFI (cfiCond290) V1 load(1, XDATA, add(CFA_XSP16, literal(-12)))
          CFI (cfiCond290) V2 load(1, XDATA, add(CFA_XSP16, literal(-11)))
          CFI (cfiCond290) V3 load(1, XDATA, add(CFA_XSP16, literal(-10)))
          CFI (cfiCond290) V4 load(1, XDATA, add(CFA_XSP16, literal(-9)))
          CFI (cfiCond290) V5 load(1, XDATA, add(CFA_XSP16, literal(-8)))
          CFI (cfiCond290) V6 load(1, XDATA, add(CFA_XSP16, literal(-7)))
          CFI (cfiCond290) R7 load(1, XDATA, add(CFA_XSP16, literal(-6)))
          CFI (cfiCond290) ?RET_LOW load(1, XDATA, add(CFA_XSP16, literal(-5)))
          CFI (cfiCond290) ?RET_HIGH load(1, XDATA, add(CFA_XSP16, literal(-4)))
          CFI (cfiCond290) ?BRET_EXT load(1, XDATA, add(CFA_XSP16, literal(-3)))
          CFI (cfiCond290) DPL0 load(1, XDATA, add(CFA_XSP16, literal(-2)))
          CFI (cfiCond290) DPH0 load(1, XDATA, add(CFA_XSP16, literal(-1)))
          CFI (cfiCond290) CFA_SP SP+-2
          CFI (cfiCond290) CFA_XSP16 add(XSP16, 19)
          CFI Block cfiPicker291 Using cfiCommon1
          CFI (cfiPicker291) NoFunction
          CFI (cfiPicker291) Picker
        MOV     DPH,A
          CFI EndBlock cfiCond288
          CFI EndBlock cfiCond289
          CFI EndBlock cfiCond290
          CFI EndBlock cfiPicker291
        REQUIRE ??Subroutine68_0
        ; // Fall through to label ??Subroutine68_0

        RSEG BANKED_CODE:CODE:NOROOT(0)
??Subroutine68_0:
          CFI Block cfiCond292 Using cfiCommon0
          CFI Function ZDSecMgrDeviceJoinDirect
          CFI Conditional ??CrossCallReturnLabel_166
          CFI R6 load(1, XDATA, add(CFA_XSP16, literal(-12)))
          CFI VB load(1, XDATA, add(CFA_XSP16, literal(-11)))
          CFI V0 load(1, XDATA, add(CFA_XSP16, literal(-10)))
          CFI V1 load(1, XDATA, add(CFA_XSP16, literal(-9)))
          CFI V2 load(1, XDATA, add(CFA_XSP16, literal(-8)))
          CFI V3 load(1, XDATA, add(CFA_XSP16, literal(-7)))
          CFI R7 load(1, XDATA, add(CFA_XSP16, literal(-6)))
          CFI ?RET_LOW load(1, XDATA, add(CFA_XSP16, literal(-5)))
          CFI ?RET_HIGH load(1, XDATA, add(CFA_XSP16, literal(-4)))
          CFI ?BRET_EXT load(1, XDATA, add(CFA_XSP16, literal(-3)))
          CFI DPL0 load(1, XDATA, add(CFA_XSP16, literal(-2)))
          CFI DPH0 load(1, XDATA, add(CFA_XSP16, literal(-1)))
          CFI CFA_SP SP+-2
          CFI CFA_XSP16 add(XSP16, 32)
          CFI Block cfiCond293 Using cfiCommon0
          CFI (cfiCond293) Function ZDSecMgrTransportKeyInd
          CFI (cfiCond293) Conditional ??CrossCallReturnLabel_167
          CFI (cfiCond293) R6 load(1, XDATA, add(CFA_XSP16, literal(-14)))
          CFI (cfiCond293) VB load(1, XDATA, add(CFA_XSP16, literal(-13)))
          CFI (cfiCond293) V0 load(1, XDATA, add(CFA_XSP16, literal(-12)))
          CFI (cfiCond293) V1 load(1, XDATA, add(CFA_XSP16, literal(-11)))
          CFI (cfiCond293) V2 load(1, XDATA, add(CFA_XSP16, literal(-10)))
          CFI (cfiCond293) V3 load(1, XDATA, add(CFA_XSP16, literal(-9)))
          CFI (cfiCond293) V4 load(1, XDATA, add(CFA_XSP16, literal(-8)))
          CFI (cfiCond293) V5 load(1, XDATA, add(CFA_XSP16, literal(-7)))
          CFI (cfiCond293) R7 load(1, XDATA, add(CFA_XSP16, literal(-6)))
          CFI (cfiCond293) ?RET_LOW load(1, XDATA, add(CFA_XSP16, literal(-5)))
          CFI (cfiCond293) ?RET_HIGH load(1, XDATA, add(CFA_XSP16, literal(-4)))
          CFI (cfiCond293) ?BRET_EXT load(1, XDATA, add(CFA_XSP16, literal(-3)))
          CFI (cfiCond293) DPL0 load(1, XDATA, add(CFA_XSP16, literal(-2)))
          CFI (cfiCond293) DPH0 load(1, XDATA, add(CFA_XSP16, literal(-1)))
          CFI (cfiCond293) CFA_SP SP+-2
          CFI (cfiCond293) CFA_XSP16 add(XSP16, 54)
          CFI Block cfiCond294 Using cfiCommon0
          CFI (cfiCond294) Function APSME_LinkKeySet
          CFI (cfiCond294) Conditional ??CrossCallReturnLabel_168
          CFI (cfiCond294) R6 load(1, XDATA, add(CFA_XSP16, literal(-15)))
          CFI (cfiCond294) VB load(1, XDATA, add(CFA_XSP16, literal(-14)))
          CFI (cfiCond294) V0 load(1, XDATA, add(CFA_XSP16, literal(-13)))
          CFI (cfiCond294) V1 load(1, XDATA, add(CFA_XSP16, literal(-12)))
          CFI (cfiCond294) V2 load(1, XDATA, add(CFA_XSP16, literal(-11)))
          CFI (cfiCond294) V3 load(1, XDATA, add(CFA_XSP16, literal(-10)))
          CFI (cfiCond294) V4 load(1, XDATA, add(CFA_XSP16, literal(-9)))
          CFI (cfiCond294) V5 load(1, XDATA, add(CFA_XSP16, literal(-8)))
          CFI (cfiCond294) V6 load(1, XDATA, add(CFA_XSP16, literal(-7)))
          CFI (cfiCond294) R7 load(1, XDATA, add(CFA_XSP16, literal(-6)))
          CFI (cfiCond294) ?RET_LOW load(1, XDATA, add(CFA_XSP16, literal(-5)))
          CFI (cfiCond294) ?RET_HIGH load(1, XDATA, add(CFA_XSP16, literal(-4)))
          CFI (cfiCond294) ?BRET_EXT load(1, XDATA, add(CFA_XSP16, literal(-3)))
          CFI (cfiCond294) DPL0 load(1, XDATA, add(CFA_XSP16, literal(-2)))
          CFI (cfiCond294) DPH0 load(1, XDATA, add(CFA_XSP16, literal(-1)))
          CFI (cfiCond294) CFA_SP SP+-2
          CFI (cfiCond294) CFA_XSP16 add(XSP16, 19)
          CFI Block cfiCond295 Using cfiCommon0
          CFI (cfiCond295) Function APSME_LinkKeySet
          CFI (cfiCond295) Conditional ??CrossCallReturnLabel_169
          CFI (cfiCond295) R6 load(1, XDATA, add(CFA_XSP16, literal(-15)))
          CFI (cfiCond295) VB load(1, XDATA, add(CFA_XSP16, literal(-14)))
          CFI (cfiCond295) V0 load(1, XDATA, add(CFA_XSP16, literal(-13)))
          CFI (cfiCond295) V1 load(1, XDATA, add(CFA_XSP16, literal(-12)))
          CFI (cfiCond295) V2 load(1, XDATA, add(CFA_XSP16, literal(-11)))
          CFI (cfiCond295) V3 load(1, XDATA, add(CFA_XSP16, literal(-10)))
          CFI (cfiCond295) V4 load(1, XDATA, add(CFA_XSP16, literal(-9)))
          CFI (cfiCond295) V5 load(1, XDATA, add(CFA_XSP16, literal(-8)))
          CFI (cfiCond295) V6 load(1, XDATA, add(CFA_XSP16, literal(-7)))
          CFI (cfiCond295) R7 load(1, XDATA, add(CFA_XSP16, literal(-6)))
          CFI (cfiCond295) ?RET_LOW load(1, XDATA, add(CFA_XSP16, literal(-5)))
          CFI (cfiCond295) ?RET_HIGH load(1, XDATA, add(CFA_XSP16, literal(-4)))
          CFI (cfiCond295) ?BRET_EXT load(1, XDATA, add(CFA_XSP16, literal(-3)))
          CFI (cfiCond295) DPL0 load(1, XDATA, add(CFA_XSP16, literal(-2)))
          CFI (cfiCond295) DPH0 load(1, XDATA, add(CFA_XSP16, literal(-1)))
          CFI (cfiCond295) CFA_SP SP+-2
          CFI (cfiCond295) CFA_XSP16 add(XSP16, 19)
          CFI Block cfiCond296 Using cfiCommon0
          CFI (cfiCond296) Function APSME_LinkKeySet
          CFI (cfiCond296) Conditional ??CrossCallReturnLabel_170
          CFI (cfiCond296) R6 load(1, XDATA, add(CFA_XSP16, literal(-15)))
          CFI (cfiCond296) VB load(1, XDATA, add(CFA_XSP16, literal(-14)))
          CFI (cfiCond296) V0 load(1, XDATA, add(CFA_XSP16, literal(-13)))
          CFI (cfiCond296) V1 load(1, XDATA, add(CFA_XSP16, literal(-12)))
          CFI (cfiCond296) V2 load(1, XDATA, add(CFA_XSP16, literal(-11)))
          CFI (cfiCond296) V3 load(1, XDATA, add(CFA_XSP16, literal(-10)))
          CFI (cfiCond296) V4 load(1, XDATA, add(CFA_XSP16, literal(-9)))
          CFI (cfiCond296) V5 load(1, XDATA, add(CFA_XSP16, literal(-8)))
          CFI (cfiCond296) V6 load(1, XDATA, add(CFA_XSP16, literal(-7)))
          CFI (cfiCond296) R7 load(1, XDATA, add(CFA_XSP16, literal(-6)))
          CFI (cfiCond296) ?RET_LOW load(1, XDATA, add(CFA_XSP16, literal(-5)))
          CFI (cfiCond296) ?RET_HIGH load(1, XDATA, add(CFA_XSP16, literal(-4)))
          CFI (cfiCond296) ?BRET_EXT load(1, XDATA, add(CFA_XSP16, literal(-3)))
          CFI (cfiCond296) DPL0 load(1, XDATA, add(CFA_XSP16, literal(-2)))
          CFI (cfiCond296) DPH0 load(1, XDATA, add(CFA_XSP16, literal(-1)))
          CFI (cfiCond296) CFA_SP SP+-2
          CFI (cfiCond296) CFA_XSP16 add(XSP16, 19)
          CFI Block cfiPicker297 Using cfiCommon1
          CFI (cfiPicker297) NoFunction
          CFI (cfiPicker297) Picker
        LCALL   ?Subroutine47 & 0xFFFF
??CrossCallReturnLabel_197:
        RET
          CFI EndBlock cfiCond292
          CFI EndBlock cfiCond293
          CFI EndBlock cfiCond294
          CFI EndBlock cfiCond295
          CFI EndBlock cfiCond296
          CFI EndBlock cfiPicker297

        RSEG BANKED_CODE:CODE:NOROOT(0)
?Subroutine47:
          CFI Block cfiCond298 Using cfiCommon0
          CFI Function APSME_LinkKeySet
          CFI Conditional ??CrossCallReturnLabel_197, ??CrossCallReturnLabel_169
          CFI R6 load(1, XDATA, add(CFA_XSP16, literal(-15)))
          CFI VB load(1, XDATA, add(CFA_XSP16, literal(-14)))
          CFI V0 load(1, XDATA, add(CFA_XSP16, literal(-13)))
          CFI V1 load(1, XDATA, add(CFA_XSP16, literal(-12)))
          CFI V2 load(1, XDATA, add(CFA_XSP16, literal(-11)))
          CFI V3 load(1, XDATA, add(CFA_XSP16, literal(-10)))
          CFI V4 load(1, XDATA, add(CFA_XSP16, literal(-9)))
          CFI V5 load(1, XDATA, add(CFA_XSP16, literal(-8)))
          CFI V6 load(1, XDATA, add(CFA_XSP16, literal(-7)))
          CFI R7 load(1, XDATA, add(CFA_XSP16, literal(-6)))
          CFI ?RET_LOW load(1, XDATA, add(CFA_XSP16, literal(-5)))
          CFI ?RET_HIGH load(1, XDATA, add(CFA_XSP16, literal(-4)))
          CFI ?BRET_EXT load(1, XDATA, add(CFA_XSP16, literal(-3)))
          CFI DPL0 load(1, XDATA, add(CFA_XSP16, literal(-2)))
          CFI DPH0 load(1, XDATA, add(CFA_XSP16, literal(-1)))
          CFI CFA_SP SP+-4
          CFI CFA_XSP16 add(XSP16, 19)
          CFI Block cfiCond299 Using cfiCommon0
          CFI (cfiCond299) Function APSME_LinkKeySet
          CFI (cfiCond299) Conditional ??CrossCallReturnLabel_197, ??CrossCallReturnLabel_170
          CFI (cfiCond299) R6 load(1, XDATA, add(CFA_XSP16, literal(-15)))
          CFI (cfiCond299) VB load(1, XDATA, add(CFA_XSP16, literal(-14)))
          CFI (cfiCond299) V0 load(1, XDATA, add(CFA_XSP16, literal(-13)))
          CFI (cfiCond299) V1 load(1, XDATA, add(CFA_XSP16, literal(-12)))
          CFI (cfiCond299) V2 load(1, XDATA, add(CFA_XSP16, literal(-11)))
          CFI (cfiCond299) V3 load(1, XDATA, add(CFA_XSP16, literal(-10)))
          CFI (cfiCond299) V4 load(1, XDATA, add(CFA_XSP16, literal(-9)))
          CFI (cfiCond299) V5 load(1, XDATA, add(CFA_XSP16, literal(-8)))
          CFI (cfiCond299) V6 load(1, XDATA, add(CFA_XSP16, literal(-7)))
          CFI (cfiCond299) R7 load(1, XDATA, add(CFA_XSP16, literal(-6)))
          CFI (cfiCond299) ?RET_LOW load(1, XDATA, add(CFA_XSP16, literal(-5)))
          CFI (cfiCond299) ?RET_HIGH load(1, XDATA, add(CFA_XSP16, literal(-4)))
          CFI (cfiCond299) ?BRET_EXT load(1, XDATA, add(CFA_XSP16, literal(-3)))
          CFI (cfiCond299) DPL0 load(1, XDATA, add(CFA_XSP16, literal(-2)))
          CFI (cfiCond299) DPH0 load(1, XDATA, add(CFA_XSP16, literal(-1)))
          CFI (cfiCond299) CFA_SP SP+-4
          CFI (cfiCond299) CFA_XSP16 add(XSP16, 19)
          CFI Block cfiCond300 Using cfiCommon0
          CFI (cfiCond300) Function APSME_LinkKeySet
          CFI (cfiCond300) Conditional ??CrossCallReturnLabel_197, ??CrossCallReturnLabel_168
          CFI (cfiCond300) R6 load(1, XDATA, add(CFA_XSP16, literal(-15)))
          CFI (cfiCond300) VB load(1, XDATA, add(CFA_XSP16, literal(-14)))
          CFI (cfiCond300) V0 load(1, XDATA, add(CFA_XSP16, literal(-13)))
          CFI (cfiCond300) V1 load(1, XDATA, add(CFA_XSP16, literal(-12)))
          CFI (cfiCond300) V2 load(1, XDATA, add(CFA_XSP16, literal(-11)))
          CFI (cfiCond300) V3 load(1, XDATA, add(CFA_XSP16, literal(-10)))
          CFI (cfiCond300) V4 load(1, XDATA, add(CFA_XSP16, literal(-9)))
          CFI (cfiCond300) V5 load(1, XDATA, add(CFA_XSP16, literal(-8)))
          CFI (cfiCond300) V6 load(1, XDATA, add(CFA_XSP16, literal(-7)))
          CFI (cfiCond300) R7 load(1, XDATA, add(CFA_XSP16, literal(-6)))
          CFI (cfiCond300) ?RET_LOW load(1, XDATA, add(CFA_XSP16, literal(-5)))
          CFI (cfiCond300) ?RET_HIGH load(1, XDATA, add(CFA_XSP16, literal(-4)))
          CFI (cfiCond300) ?BRET_EXT load(1, XDATA, add(CFA_XSP16, literal(-3)))
          CFI (cfiCond300) DPL0 load(1, XDATA, add(CFA_XSP16, literal(-2)))
          CFI (cfiCond300) DPH0 load(1, XDATA, add(CFA_XSP16, literal(-1)))
          CFI (cfiCond300) CFA_SP SP+-4
          CFI (cfiCond300) CFA_XSP16 add(XSP16, 19)
          CFI Block cfiCond301 Using cfiCommon0
          CFI (cfiCond301) Function ZDSecMgrDeviceJoinDirect
          CFI (cfiCond301) Conditional ??CrossCallReturnLabel_197, ??CrossCallReturnLabel_166
          CFI (cfiCond301) R6 load(1, XDATA, add(CFA_XSP16, literal(-12)))
          CFI (cfiCond301) VB load(1, XDATA, add(CFA_XSP16, literal(-11)))
          CFI (cfiCond301) V0 load(1, XDATA, add(CFA_XSP16, literal(-10)))
          CFI (cfiCond301) V1 load(1, XDATA, add(CFA_XSP16, literal(-9)))
          CFI (cfiCond301) V2 load(1, XDATA, add(CFA_XSP16, literal(-8)))
          CFI (cfiCond301) V3 load(1, XDATA, add(CFA_XSP16, literal(-7)))
          CFI (cfiCond301) R7 load(1, XDATA, add(CFA_XSP16, literal(-6)))
          CFI (cfiCond301) ?RET_LOW load(1, XDATA, add(CFA_XSP16, literal(-5)))
          CFI (cfiCond301) ?RET_HIGH load(1, XDATA, add(CFA_XSP16, literal(-4)))
          CFI (cfiCond301) ?BRET_EXT load(1, XDATA, add(CFA_XSP16, literal(-3)))
          CFI (cfiCond301) DPL0 load(1, XDATA, add(CFA_XSP16, literal(-2)))
          CFI (cfiCond301) DPH0 load(1, XDATA, add(CFA_XSP16, literal(-1)))
          CFI (cfiCond301) CFA_SP SP+-4
          CFI (cfiCond301) CFA_XSP16 add(XSP16, 32)
          CFI Block cfiCond302 Using cfiCommon0
          CFI (cfiCond302) Function ZDSecMgrTransportKeyInd
          CFI (cfiCond302) Conditional ??CrossCallReturnLabel_197, ??CrossCallReturnLabel_167
          CFI (cfiCond302) R6 load(1, XDATA, add(CFA_XSP16, literal(-14)))
          CFI (cfiCond302) VB load(1, XDATA, add(CFA_XSP16, literal(-13)))
          CFI (cfiCond302) V0 load(1, XDATA, add(CFA_XSP16, literal(-12)))
          CFI (cfiCond302) V1 load(1, XDATA, add(CFA_XSP16, literal(-11)))
          CFI (cfiCond302) V2 load(1, XDATA, add(CFA_XSP16, literal(-10)))
          CFI (cfiCond302) V3 load(1, XDATA, add(CFA_XSP16, literal(-9)))
          CFI (cfiCond302) V4 load(1, XDATA, add(CFA_XSP16, literal(-8)))
          CFI (cfiCond302) V5 load(1, XDATA, add(CFA_XSP16, literal(-7)))
          CFI (cfiCond302) R7 load(1, XDATA, add(CFA_XSP16, literal(-6)))
          CFI (cfiCond302) ?RET_LOW load(1, XDATA, add(CFA_XSP16, literal(-5)))
          CFI (cfiCond302) ?RET_HIGH load(1, XDATA, add(CFA_XSP16, literal(-4)))
          CFI (cfiCond302) ?BRET_EXT load(1, XDATA, add(CFA_XSP16, literal(-3)))
          CFI (cfiCond302) DPL0 load(1, XDATA, add(CFA_XSP16, literal(-2)))
          CFI (cfiCond302) DPH0 load(1, XDATA, add(CFA_XSP16, literal(-1)))
          CFI (cfiCond302) CFA_SP SP+-4
          CFI (cfiCond302) CFA_XSP16 add(XSP16, 54)
          CFI Block cfiCond303 Using cfiCommon0
          CFI (cfiCond303) Function ZDSecMgrDeviceJoinDirect
          CFI (cfiCond303) Conditional ??CrossCallReturnLabel_196, ??CrossCallReturnLabel_25
          CFI (cfiCond303) R6 load(1, XDATA, add(CFA_XSP16, literal(-12)))
          CFI (cfiCond303) VB load(1, XDATA, add(CFA_XSP16, literal(-11)))
          CFI (cfiCond303) V0 load(1, XDATA, add(CFA_XSP16, literal(-10)))
          CFI (cfiCond303) V1 load(1, XDATA, add(CFA_XSP16, literal(-9)))
          CFI (cfiCond303) V2 load(1, XDATA, add(CFA_XSP16, literal(-8)))
          CFI (cfiCond303) V3 load(1, XDATA, add(CFA_XSP16, literal(-7)))
          CFI (cfiCond303) R7 load(1, XDATA, add(CFA_XSP16, literal(-6)))
          CFI (cfiCond303) ?RET_LOW load(1, XDATA, add(CFA_XSP16, literal(-5)))
          CFI (cfiCond303) ?RET_HIGH load(1, XDATA, add(CFA_XSP16, literal(-4)))
          CFI (cfiCond303) ?BRET_EXT load(1, XDATA, add(CFA_XSP16, literal(-3)))
          CFI (cfiCond303) DPL0 load(1, XDATA, add(CFA_XSP16, literal(-2)))
          CFI (cfiCond303) DPH0 load(1, XDATA, add(CFA_XSP16, literal(-1)))
          CFI (cfiCond303) CFA_SP SP+-4
          CFI (cfiCond303) CFA_XSP16 add(XSP16, 32)
          CFI Block cfiCond304 Using cfiCommon0
          CFI (cfiCond304) Function APSME_LinkKeySet
          CFI (cfiCond304) Conditional ??CrossCallReturnLabel_196, ??CrossCallReturnLabel_26
          CFI (cfiCond304) R6 load(1, XDATA, add(CFA_XSP16, literal(-15)))
          CFI (cfiCond304) VB load(1, XDATA, add(CFA_XSP16, literal(-14)))
          CFI (cfiCond304) V0 load(1, XDATA, add(CFA_XSP16, literal(-13)))
          CFI (cfiCond304) V1 load(1, XDATA, add(CFA_XSP16, literal(-12)))
          CFI (cfiCond304) V2 load(1, XDATA, add(CFA_XSP16, literal(-11)))
          CFI (cfiCond304) V3 load(1, XDATA, add(CFA_XSP16, literal(-10)))
          CFI (cfiCond304) V4 load(1, XDATA, add(CFA_XSP16, literal(-9)))
          CFI (cfiCond304) V5 load(1, XDATA, add(CFA_XSP16, literal(-8)))
          CFI (cfiCond304) V6 load(1, XDATA, add(CFA_XSP16, literal(-7)))
          CFI (cfiCond304) R7 load(1, XDATA, add(CFA_XSP16, literal(-6)))
          CFI (cfiCond304) ?RET_LOW load(1, XDATA, add(CFA_XSP16, literal(-5)))
          CFI (cfiCond304) ?RET_HIGH load(1, XDATA, add(CFA_XSP16, literal(-4)))
          CFI (cfiCond304) ?BRET_EXT load(1, XDATA, add(CFA_XSP16, literal(-3)))
          CFI (cfiCond304) DPL0 load(1, XDATA, add(CFA_XSP16, literal(-2)))
          CFI (cfiCond304) DPH0 load(1, XDATA, add(CFA_XSP16, literal(-1)))
          CFI (cfiCond304) CFA_SP SP+-4
          CFI (cfiCond304) CFA_XSP16 add(XSP16, 19)
          CFI Block cfiCond305 Using cfiCommon0
          CFI (cfiCond305) Function ZDSecMgrTransportKeyInd
          CFI (cfiCond305) Conditional ??CrossCallReturnLabel_195, ??CrossCallReturnLabel_20
          CFI (cfiCond305) R6 load(1, XDATA, add(CFA_XSP16, literal(-14)))
          CFI (cfiCond305) VB load(1, XDATA, add(CFA_XSP16, literal(-13)))
          CFI (cfiCond305) V0 load(1, XDATA, add(CFA_XSP16, literal(-12)))
          CFI (cfiCond305) V1 load(1, XDATA, add(CFA_XSP16, literal(-11)))
          CFI (cfiCond305) V2 load(1, XDATA, add(CFA_XSP16, literal(-10)))
          CFI (cfiCond305) V3 load(1, XDATA, add(CFA_XSP16, literal(-9)))
          CFI (cfiCond305) V4 load(1, XDATA, add(CFA_XSP16, literal(-8)))
          CFI (cfiCond305) V5 load(1, XDATA, add(CFA_XSP16, literal(-7)))
          CFI (cfiCond305) R7 load(1, XDATA, add(CFA_XSP16, literal(-6)))
          CFI (cfiCond305) ?RET_LOW load(1, XDATA, add(CFA_XSP16, literal(-5)))
          CFI (cfiCond305) ?RET_HIGH load(1, XDATA, add(CFA_XSP16, literal(-4)))
          CFI (cfiCond305) ?BRET_EXT load(1, XDATA, add(CFA_XSP16, literal(-3)))
          CFI (cfiCond305) DPL0 load(1, XDATA, add(CFA_XSP16, literal(-2)))
          CFI (cfiCond305) DPH0 load(1, XDATA, add(CFA_XSP16, literal(-1)))
          CFI (cfiCond305) CFA_SP SP+-4
          CFI (cfiCond305) CFA_XSP16 add(XSP16, 54)
          CFI Block cfiCond306 Using cfiCommon0
          CFI (cfiCond306) Function APSME_TCLinkKeyLoad
          CFI (cfiCond306) Conditional ??CrossCallReturnLabel_195, ??CrossCallReturnLabel_21
          CFI (cfiCond306) R6 load(1, XDATA, add(CFA_XSP16, literal(-18)))
          CFI (cfiCond306) VB load(1, XDATA, add(CFA_XSP16, literal(-17)))
          CFI (cfiCond306) V0 load(1, XDATA, add(CFA_XSP16, literal(-16)))
          CFI (cfiCond306) V1 load(1, XDATA, add(CFA_XSP16, literal(-15)))
          CFI (cfiCond306) V2 load(1, XDATA, add(CFA_XSP16, literal(-14)))
          CFI (cfiCond306) V3 load(1, XDATA, add(CFA_XSP16, literal(-13)))
          CFI (cfiCond306) V4 load(1, XDATA, add(CFA_XSP16, literal(-12)))
          CFI (cfiCond306) V5 load(1, XDATA, add(CFA_XSP16, literal(-11)))
          CFI (cfiCond306) V6 load(1, XDATA, add(CFA_XSP16, literal(-10)))
          CFI (cfiCond306) V7 load(1, XDATA, add(CFA_XSP16, literal(-9)))
          CFI (cfiCond306) V8 load(1, XDATA, add(CFA_XSP16, literal(-8)))
          CFI (cfiCond306) V9 load(1, XDATA, add(CFA_XSP16, literal(-7)))
          CFI (cfiCond306) R7 load(1, XDATA, add(CFA_XSP16, literal(-6)))
          CFI (cfiCond306) ?RET_LOW load(1, XDATA, add(CFA_XSP16, literal(-5)))
          CFI (cfiCond306) ?RET_HIGH load(1, XDATA, add(CFA_XSP16, literal(-4)))
          CFI (cfiCond306) ?BRET_EXT load(1, XDATA, add(CFA_XSP16, literal(-3)))
          CFI (cfiCond306) DPL0 load(1, XDATA, add(CFA_XSP16, literal(-2)))
          CFI (cfiCond306) DPH0 load(1, XDATA, add(CFA_XSP16, literal(-1)))
          CFI (cfiCond306) CFA_SP SP+-4
          CFI (cfiCond306) CFA_XSP16 add(XSP16, 51)
          CFI Block cfiPicker307 Using cfiCommon1
          CFI (cfiPicker307) NoFunction
          CFI (cfiPicker307) Picker
        CLR     A
          CFI EndBlock cfiCond298
          CFI EndBlock cfiCond299
          CFI EndBlock cfiCond300
          CFI EndBlock cfiCond301
          CFI EndBlock cfiCond302
          CFI EndBlock cfiCond303
          CFI EndBlock cfiCond304
          CFI EndBlock cfiCond305
          CFI EndBlock cfiCond306
          CFI EndBlock cfiPicker307
        REQUIRE ??Subroutine69_0
        ; // Fall through to label ??Subroutine69_0

        RSEG BANKED_CODE:CODE:NOROOT(0)
??Subroutine69_0:
          CFI Block cfiCond308 Using cfiCommon0
          CFI Function ZDSecMgrDeviceJoinDirect
          CFI Conditional ??CrossCallReturnLabel_198, ??CrossCallReturnLabel_192
          CFI R6 load(1, XDATA, add(CFA_XSP16, literal(-12)))
          CFI VB load(1, XDATA, add(CFA_XSP16, literal(-11)))
          CFI V0 load(1, XDATA, add(CFA_XSP16, literal(-10)))
          CFI V1 load(1, XDATA, add(CFA_XSP16, literal(-9)))
          CFI V2 load(1, XDATA, add(CFA_XSP16, literal(-8)))
          CFI V3 load(1, XDATA, add(CFA_XSP16, literal(-7)))
          CFI R7 load(1, XDATA, add(CFA_XSP16, literal(-6)))
          CFI ?RET_LOW load(1, XDATA, add(CFA_XSP16, literal(-5)))
          CFI ?RET_HIGH load(1, XDATA, add(CFA_XSP16, literal(-4)))
          CFI ?BRET_EXT load(1, XDATA, add(CFA_XSP16, literal(-3)))
          CFI DPL0 load(1, XDATA, add(CFA_XSP16, literal(-2)))
          CFI DPH0 load(1, XDATA, add(CFA_XSP16, literal(-1)))
          CFI CFA_SP SP+-4
          CFI CFA_XSP16 add(XSP16, 32)
          CFI Block cfiCond309 Using cfiCommon0
          CFI (cfiCond309) Function APSME_TCLinkKeyLoad
          CFI (cfiCond309) Conditional ??CrossCallReturnLabel_198, ??CrossCallReturnLabel_193
          CFI (cfiCond309) R6 load(1, XDATA, add(CFA_XSP16, literal(-18)))
          CFI (cfiCond309) VB load(1, XDATA, add(CFA_XSP16, literal(-17)))
          CFI (cfiCond309) V0 load(1, XDATA, add(CFA_XSP16, literal(-16)))
          CFI (cfiCond309) V1 load(1, XDATA, add(CFA_XSP16, literal(-15)))
          CFI (cfiCond309) V2 load(1, XDATA, add(CFA_XSP16, literal(-14)))
          CFI (cfiCond309) V3 load(1, XDATA, add(CFA_XSP16, literal(-13)))
          CFI (cfiCond309) V4 load(1, XDATA, add(CFA_XSP16, literal(-12)))
          CFI (cfiCond309) V5 load(1, XDATA, add(CFA_XSP16, literal(-11)))
          CFI (cfiCond309) V6 load(1, XDATA, add(CFA_XSP16, literal(-10)))
          CFI (cfiCond309) V7 load(1, XDATA, add(CFA_XSP16, literal(-9)))
          CFI (cfiCond309) V8 load(1, XDATA, add(CFA_XSP16, literal(-8)))
          CFI (cfiCond309) V9 load(1, XDATA, add(CFA_XSP16, literal(-7)))
          CFI (cfiCond309) R7 load(1, XDATA, add(CFA_XSP16, literal(-6)))
          CFI (cfiCond309) ?RET_LOW load(1, XDATA, add(CFA_XSP16, literal(-5)))
          CFI (cfiCond309) ?RET_HIGH load(1, XDATA, add(CFA_XSP16, literal(-4)))
          CFI (cfiCond309) ?BRET_EXT load(1, XDATA, add(CFA_XSP16, literal(-3)))
          CFI (cfiCond309) DPL0 load(1, XDATA, add(CFA_XSP16, literal(-2)))
          CFI (cfiCond309) DPH0 load(1, XDATA, add(CFA_XSP16, literal(-1)))
          CFI (cfiCond309) CFA_SP SP+-4
          CFI (cfiCond309) CFA_XSP16 add(XSP16, 51)
          CFI Block cfiCond310 Using cfiCommon0
          CFI (cfiCond310) Function ZDSecMgrDeviceJoinDirect
          CFI (cfiCond310) Conditional ??CrossCallReturnLabel_198, ??CrossCallReturnLabel_194
          CFI (cfiCond310) R6 load(1, XDATA, add(CFA_XSP16, literal(-12)))
          CFI (cfiCond310) VB load(1, XDATA, add(CFA_XSP16, literal(-11)))
          CFI (cfiCond310) V0 load(1, XDATA, add(CFA_XSP16, literal(-10)))
          CFI (cfiCond310) V1 load(1, XDATA, add(CFA_XSP16, literal(-9)))
          CFI (cfiCond310) V2 load(1, XDATA, add(CFA_XSP16, literal(-8)))
          CFI (cfiCond310) V3 load(1, XDATA, add(CFA_XSP16, literal(-7)))
          CFI (cfiCond310) R7 load(1, XDATA, add(CFA_XSP16, literal(-6)))
          CFI (cfiCond310) ?RET_LOW load(1, XDATA, add(CFA_XSP16, literal(-5)))
          CFI (cfiCond310) ?RET_HIGH load(1, XDATA, add(CFA_XSP16, literal(-4)))
          CFI (cfiCond310) ?BRET_EXT load(1, XDATA, add(CFA_XSP16, literal(-3)))
          CFI (cfiCond310) DPL0 load(1, XDATA, add(CFA_XSP16, literal(-2)))
          CFI (cfiCond310) DPH0 load(1, XDATA, add(CFA_XSP16, literal(-1)))
          CFI (cfiCond310) CFA_SP SP+-4
          CFI (cfiCond310) CFA_XSP16 add(XSP16, 32)
          CFI Block cfiCond311 Using cfiCommon0
          CFI (cfiCond311) Function APSME_LinkKeySet
          CFI (cfiCond311) Conditional ??CrossCallReturnLabel_197, ??CrossCallReturnLabel_169
          CFI (cfiCond311) R6 load(1, XDATA, add(CFA_XSP16, literal(-15)))
          CFI (cfiCond311) VB load(1, XDATA, add(CFA_XSP16, literal(-14)))
          CFI (cfiCond311) V0 load(1, XDATA, add(CFA_XSP16, literal(-13)))
          CFI (cfiCond311) V1 load(1, XDATA, add(CFA_XSP16, literal(-12)))
          CFI (cfiCond311) V2 load(1, XDATA, add(CFA_XSP16, literal(-11)))
          CFI (cfiCond311) V3 load(1, XDATA, add(CFA_XSP16, literal(-10)))
          CFI (cfiCond311) V4 load(1, XDATA, add(CFA_XSP16, literal(-9)))
          CFI (cfiCond311) V5 load(1, XDATA, add(CFA_XSP16, literal(-8)))
          CFI (cfiCond311) V6 load(1, XDATA, add(CFA_XSP16, literal(-7)))
          CFI (cfiCond311) R7 load(1, XDATA, add(CFA_XSP16, literal(-6)))
          CFI (cfiCond311) ?RET_LOW load(1, XDATA, add(CFA_XSP16, literal(-5)))
          CFI (cfiCond311) ?RET_HIGH load(1, XDATA, add(CFA_XSP16, literal(-4)))
          CFI (cfiCond311) ?BRET_EXT load(1, XDATA, add(CFA_XSP16, literal(-3)))
          CFI (cfiCond311) DPL0 load(1, XDATA, add(CFA_XSP16, literal(-2)))
          CFI (cfiCond311) DPH0 load(1, XDATA, add(CFA_XSP16, literal(-1)))
          CFI (cfiCond311) CFA_SP SP+-4
          CFI (cfiCond311) CFA_XSP16 add(XSP16, 19)
          CFI Block cfiCond312 Using cfiCommon0
          CFI (cfiCond312) Function APSME_LinkKeySet
          CFI (cfiCond312) Conditional ??CrossCallReturnLabel_197, ??CrossCallReturnLabel_170
          CFI (cfiCond312) R6 load(1, XDATA, add(CFA_XSP16, literal(-15)))
          CFI (cfiCond312) VB load(1, XDATA, add(CFA_XSP16, literal(-14)))
          CFI (cfiCond312) V0 load(1, XDATA, add(CFA_XSP16, literal(-13)))
          CFI (cfiCond312) V1 load(1, XDATA, add(CFA_XSP16, literal(-12)))
          CFI (cfiCond312) V2 load(1, XDATA, add(CFA_XSP16, literal(-11)))
          CFI (cfiCond312) V3 load(1, XDATA, add(CFA_XSP16, literal(-10)))
          CFI (cfiCond312) V4 load(1, XDATA, add(CFA_XSP16, literal(-9)))
          CFI (cfiCond312) V5 load(1, XDATA, add(CFA_XSP16, literal(-8)))
          CFI (cfiCond312) V6 load(1, XDATA, add(CFA_XSP16, literal(-7)))
          CFI (cfiCond312) R7 load(1, XDATA, add(CFA_XSP16, literal(-6)))
          CFI (cfiCond312) ?RET_LOW load(1, XDATA, add(CFA_XSP16, literal(-5)))
          CFI (cfiCond312) ?RET_HIGH load(1, XDATA, add(CFA_XSP16, literal(-4)))
          CFI (cfiCond312) ?BRET_EXT load(1, XDATA, add(CFA_XSP16, literal(-3)))
          CFI (cfiCond312) DPL0 load(1, XDATA, add(CFA_XSP16, literal(-2)))
          CFI (cfiCond312) DPH0 load(1, XDATA, add(CFA_XSP16, literal(-1)))
          CFI (cfiCond312) CFA_SP SP+-4
          CFI (cfiCond312) CFA_XSP16 add(XSP16, 19)
          CFI Block cfiCond313 Using cfiCommon0
          CFI (cfiCond313) Function APSME_LinkKeySet
          CFI (cfiCond313) Conditional ??CrossCallReturnLabel_197, ??CrossCallReturnLabel_168
          CFI (cfiCond313) R6 load(1, XDATA, add(CFA_XSP16, literal(-15)))
          CFI (cfiCond313) VB load(1, XDATA, add(CFA_XSP16, literal(-14)))
          CFI (cfiCond313) V0 load(1, XDATA, add(CFA_XSP16, literal(-13)))
          CFI (cfiCond313) V1 load(1, XDATA, add(CFA_XSP16, literal(-12)))
          CFI (cfiCond313) V2 load(1, XDATA, add(CFA_XSP16, literal(-11)))
          CFI (cfiCond313) V3 load(1, XDATA, add(CFA_XSP16, literal(-10)))
          CFI (cfiCond313) V4 load(1, XDATA, add(CFA_XSP16, literal(-9)))
          CFI (cfiCond313) V5 load(1, XDATA, add(CFA_XSP16, literal(-8)))
          CFI (cfiCond313) V6 load(1, XDATA, add(CFA_XSP16, literal(-7)))
          CFI (cfiCond313) R7 load(1, XDATA, add(CFA_XSP16, literal(-6)))
          CFI (cfiCond313) ?RET_LOW load(1, XDATA, add(CFA_XSP16, literal(-5)))
          CFI (cfiCond313) ?RET_HIGH load(1, XDATA, add(CFA_XSP16, literal(-4)))
          CFI (cfiCond313) ?BRET_EXT load(1, XDATA, add(CFA_XSP16, literal(-3)))
          CFI (cfiCond313) DPL0 load(1, XDATA, add(CFA_XSP16, literal(-2)))
          CFI (cfiCond313) DPH0 load(1, XDATA, add(CFA_XSP16, literal(-1)))
          CFI (cfiCond313) CFA_SP SP+-4
          CFI (cfiCond313) CFA_XSP16 add(XSP16, 19)
          CFI Block cfiCond314 Using cfiCommon0
          CFI (cfiCond314) Function ZDSecMgrDeviceJoinDirect
          CFI (cfiCond314) Conditional ??CrossCallReturnLabel_197, ??CrossCallReturnLabel_166
          CFI (cfiCond314) R6 load(1, XDATA, add(CFA_XSP16, literal(-12)))
          CFI (cfiCond314) VB load(1, XDATA, add(CFA_XSP16, literal(-11)))
          CFI (cfiCond314) V0 load(1, XDATA, add(CFA_XSP16, literal(-10)))
          CFI (cfiCond314) V1 load(1, XDATA, add(CFA_XSP16, literal(-9)))
          CFI (cfiCond314) V2 load(1, XDATA, add(CFA_XSP16, literal(-8)))
          CFI (cfiCond314) V3 load(1, XDATA, add(CFA_XSP16, literal(-7)))
          CFI (cfiCond314) R7 load(1, XDATA, add(CFA_XSP16, literal(-6)))
          CFI (cfiCond314) ?RET_LOW load(1, XDATA, add(CFA_XSP16, literal(-5)))
          CFI (cfiCond314) ?RET_HIGH load(1, XDATA, add(CFA_XSP16, literal(-4)))
          CFI (cfiCond314) ?BRET_EXT load(1, XDATA, add(CFA_XSP16, literal(-3)))
          CFI (cfiCond314) DPL0 load(1, XDATA, add(CFA_XSP16, literal(-2)))
          CFI (cfiCond314) DPH0 load(1, XDATA, add(CFA_XSP16, literal(-1)))
          CFI (cfiCond314) CFA_SP SP+-4
          CFI (cfiCond314) CFA_XSP16 add(XSP16, 32)
          CFI Block cfiCond315 Using cfiCommon0
          CFI (cfiCond315) Function ZDSecMgrTransportKeyInd
          CFI (cfiCond315) Conditional ??CrossCallReturnLabel_197, ??CrossCallReturnLabel_167
          CFI (cfiCond315) R6 load(1, XDATA, add(CFA_XSP16, literal(-14)))
          CFI (cfiCond315) VB load(1, XDATA, add(CFA_XSP16, literal(-13)))
          CFI (cfiCond315) V0 load(1, XDATA, add(CFA_XSP16, literal(-12)))
          CFI (cfiCond315) V1 load(1, XDATA, add(CFA_XSP16, literal(-11)))
          CFI (cfiCond315) V2 load(1, XDATA, add(CFA_XSP16, literal(-10)))
          CFI (cfiCond315) V3 load(1, XDATA, add(CFA_XSP16, literal(-9)))
          CFI (cfiCond315) V4 load(1, XDATA, add(CFA_XSP16, literal(-8)))
          CFI (cfiCond315) V5 load(1, XDATA, add(CFA_XSP16, literal(-7)))
          CFI (cfiCond315) R7 load(1, XDATA, add(CFA_XSP16, literal(-6)))
          CFI (cfiCond315) ?RET_LOW load(1, XDATA, add(CFA_XSP16, literal(-5)))
          CFI (cfiCond315) ?RET_HIGH load(1, XDATA, add(CFA_XSP16, literal(-4)))
          CFI (cfiCond315) ?BRET_EXT load(1, XDATA, add(CFA_XSP16, literal(-3)))
          CFI (cfiCond315) DPL0 load(1, XDATA, add(CFA_XSP16, literal(-2)))
          CFI (cfiCond315) DPH0 load(1, XDATA, add(CFA_XSP16, literal(-1)))
          CFI (cfiCond315) CFA_SP SP+-4
          CFI (cfiCond315) CFA_XSP16 add(XSP16, 54)
          CFI Block cfiCond316 Using cfiCommon0
          CFI (cfiCond316) Function ZDSecMgrDeviceJoinDirect
          CFI (cfiCond316) Conditional ??CrossCallReturnLabel_196, ??CrossCallReturnLabel_25
          CFI (cfiCond316) R6 load(1, XDATA, add(CFA_XSP16, literal(-12)))
          CFI (cfiCond316) VB load(1, XDATA, add(CFA_XSP16, literal(-11)))
          CFI (cfiCond316) V0 load(1, XDATA, add(CFA_XSP16, literal(-10)))
          CFI (cfiCond316) V1 load(1, XDATA, add(CFA_XSP16, literal(-9)))
          CFI (cfiCond316) V2 load(1, XDATA, add(CFA_XSP16, literal(-8)))
          CFI (cfiCond316) V3 load(1, XDATA, add(CFA_XSP16, literal(-7)))
          CFI (cfiCond316) R7 load(1, XDATA, add(CFA_XSP16, literal(-6)))
          CFI (cfiCond316) ?RET_LOW load(1, XDATA, add(CFA_XSP16, literal(-5)))
          CFI (cfiCond316) ?RET_HIGH load(1, XDATA, add(CFA_XSP16, literal(-4)))
          CFI (cfiCond316) ?BRET_EXT load(1, XDATA, add(CFA_XSP16, literal(-3)))
          CFI (cfiCond316) DPL0 load(1, XDATA, add(CFA_XSP16, literal(-2)))
          CFI (cfiCond316) DPH0 load(1, XDATA, add(CFA_XSP16, literal(-1)))
          CFI (cfiCond316) CFA_SP SP+-4
          CFI (cfiCond316) CFA_XSP16 add(XSP16, 32)
          CFI Block cfiCond317 Using cfiCommon0
          CFI (cfiCond317) Function APSME_LinkKeySet
          CFI (cfiCond317) Conditional ??CrossCallReturnLabel_196, ??CrossCallReturnLabel_26
          CFI (cfiCond317) R6 load(1, XDATA, add(CFA_XSP16, literal(-15)))
          CFI (cfiCond317) VB load(1, XDATA, add(CFA_XSP16, literal(-14)))
          CFI (cfiCond317) V0 load(1, XDATA, add(CFA_XSP16, literal(-13)))
          CFI (cfiCond317) V1 load(1, XDATA, add(CFA_XSP16, literal(-12)))
          CFI (cfiCond317) V2 load(1, XDATA, add(CFA_XSP16, literal(-11)))
          CFI (cfiCond317) V3 load(1, XDATA, add(CFA_XSP16, literal(-10)))
          CFI (cfiCond317) V4 load(1, XDATA, add(CFA_XSP16, literal(-9)))
          CFI (cfiCond317) V5 load(1, XDATA, add(CFA_XSP16, literal(-8)))
          CFI (cfiCond317) V6 load(1, XDATA, add(CFA_XSP16, literal(-7)))
          CFI (cfiCond317) R7 load(1, XDATA, add(CFA_XSP16, literal(-6)))
          CFI (cfiCond317) ?RET_LOW load(1, XDATA, add(CFA_XSP16, literal(-5)))
          CFI (cfiCond317) ?RET_HIGH load(1, XDATA, add(CFA_XSP16, literal(-4)))
          CFI (cfiCond317) ?BRET_EXT load(1, XDATA, add(CFA_XSP16, literal(-3)))
          CFI (cfiCond317) DPL0 load(1, XDATA, add(CFA_XSP16, literal(-2)))
          CFI (cfiCond317) DPH0 load(1, XDATA, add(CFA_XSP16, literal(-1)))
          CFI (cfiCond317) CFA_SP SP+-4
          CFI (cfiCond317) CFA_XSP16 add(XSP16, 19)
          CFI Block cfiCond318 Using cfiCommon0
          CFI (cfiCond318) Function ZDSecMgrTransportKeyInd
          CFI (cfiCond318) Conditional ??CrossCallReturnLabel_195, ??CrossCallReturnLabel_20
          CFI (cfiCond318) R6 load(1, XDATA, add(CFA_XSP16, literal(-14)))
          CFI (cfiCond318) VB load(1, XDATA, add(CFA_XSP16, literal(-13)))
          CFI (cfiCond318) V0 load(1, XDATA, add(CFA_XSP16, literal(-12)))
          CFI (cfiCond318) V1 load(1, XDATA, add(CFA_XSP16, literal(-11)))
          CFI (cfiCond318) V2 load(1, XDATA, add(CFA_XSP16, literal(-10)))
          CFI (cfiCond318) V3 load(1, XDATA, add(CFA_XSP16, literal(-9)))
          CFI (cfiCond318) V4 load(1, XDATA, add(CFA_XSP16, literal(-8)))
          CFI (cfiCond318) V5 load(1, XDATA, add(CFA_XSP16, literal(-7)))
          CFI (cfiCond318) R7 load(1, XDATA, add(CFA_XSP16, literal(-6)))
          CFI (cfiCond318) ?RET_LOW load(1, XDATA, add(CFA_XSP16, literal(-5)))
          CFI (cfiCond318) ?RET_HIGH load(1, XDATA, add(CFA_XSP16, literal(-4)))
          CFI (cfiCond318) ?BRET_EXT load(1, XDATA, add(CFA_XSP16, literal(-3)))
          CFI (cfiCond318) DPL0 load(1, XDATA, add(CFA_XSP16, literal(-2)))
          CFI (cfiCond318) DPH0 load(1, XDATA, add(CFA_XSP16, literal(-1)))
          CFI (cfiCond318) CFA_SP SP+-4
          CFI (cfiCond318) CFA_XSP16 add(XSP16, 54)
          CFI Block cfiCond319 Using cfiCommon0
          CFI (cfiCond319) Function APSME_TCLinkKeyLoad
          CFI (cfiCond319) Conditional ??CrossCallReturnLabel_195, ??CrossCallReturnLabel_21
          CFI (cfiCond319) R6 load(1, XDATA, add(CFA_XSP16, literal(-18)))
          CFI (cfiCond319) VB load(1, XDATA, add(CFA_XSP16, literal(-17)))
          CFI (cfiCond319) V0 load(1, XDATA, add(CFA_XSP16, literal(-16)))
          CFI (cfiCond319) V1 load(1, XDATA, add(CFA_XSP16, literal(-15)))
          CFI (cfiCond319) V2 load(1, XDATA, add(CFA_XSP16, literal(-14)))
          CFI (cfiCond319) V3 load(1, XDATA, add(CFA_XSP16, literal(-13)))
          CFI (cfiCond319) V4 load(1, XDATA, add(CFA_XSP16, literal(-12)))
          CFI (cfiCond319) V5 load(1, XDATA, add(CFA_XSP16, literal(-11)))
          CFI (cfiCond319) V6 load(1, XDATA, add(CFA_XSP16, literal(-10)))
          CFI (cfiCond319) V7 load(1, XDATA, add(CFA_XSP16, literal(-9)))
          CFI (cfiCond319) V8 load(1, XDATA, add(CFA_XSP16, literal(-8)))
          CFI (cfiCond319) V9 load(1, XDATA, add(CFA_XSP16, literal(-7)))
          CFI (cfiCond319) R7 load(1, XDATA, add(CFA_XSP16, literal(-6)))
          CFI (cfiCond319) ?RET_LOW load(1, XDATA, add(CFA_XSP16, literal(-5)))
          CFI (cfiCond319) ?RET_HIGH load(1, XDATA, add(CFA_XSP16, literal(-4)))
          CFI (cfiCond319) ?BRET_EXT load(1, XDATA, add(CFA_XSP16, literal(-3)))
          CFI (cfiCond319) DPL0 load(1, XDATA, add(CFA_XSP16, literal(-2)))
          CFI (cfiCond319) DPH0 load(1, XDATA, add(CFA_XSP16, literal(-1)))
          CFI (cfiCond319) CFA_SP SP+-4
          CFI (cfiCond319) CFA_XSP16 add(XSP16, 51)
          CFI Block cfiPicker320 Using cfiCommon1
          CFI (cfiPicker320) NoFunction
          CFI (cfiPicker320) Picker
        MOVX    @DPTR,A
        INC     DPTR
        MOVX    @DPTR,A
        INC     DPTR
        MOVX    @DPTR,A
        INC     DPTR
        MOVX    @DPTR,A
        RET
          CFI EndBlock cfiCond308
          CFI EndBlock cfiCond309
          CFI EndBlock cfiCond310
          CFI EndBlock cfiCond311
          CFI EndBlock cfiCond312
          CFI EndBlock cfiCond313
          CFI EndBlock cfiCond314
          CFI EndBlock cfiCond315
          CFI EndBlock cfiCond316
          CFI EndBlock cfiCond317
          CFI EndBlock cfiCond318
          CFI EndBlock cfiCond319
          CFI EndBlock cfiPicker320
// 1937 
// 1938 /******************************************************************************
// 1939  * @fn          ZDSecMgrUpdateDeviceInd
// 1940  *
// 1941  * @brief       Process the ZDO_UpdateDeviceInd_t message.
// 1942  *
// 1943  * @param       ind - [in] ZDO_UpdateDeviceInd_t indication
// 1944  *
// 1945  * @return      none
// 1946  */

        RSEG BANKED_CODE:CODE:NOROOT(0)
// 1947 void ZDSecMgrUpdateDeviceInd( ZDO_UpdateDeviceInd_t* ind )
ZDSecMgrUpdateDeviceInd:
          CFI Block cfiBlock321 Using cfiCommon0
          CFI Function ZDSecMgrUpdateDeviceInd
        CODE
// 1948 {
        FUNCALL ZDSecMgrUpdateDeviceInd, ZDSecMgrDeviceJoin
        LOCFRAME ISTACK, 2, STACK
        LOCFRAME PSTACK, 0, STACK
        LOCFRAME XSTACK, 8, STACK
        LOCFRAME IOVERLAY, 0, STATIC
        LOCFRAME DOVERLAY, 0, STATIC
        ARGFRAME ISTACK, 2, STACK
        ARGFRAME PSTACK, 0, STACK
        ARGFRAME XSTACK, 8, STACK
        ARGFRAME IOVERLAY, 0, STATIC
        ARGFRAME DOVERLAY, 0, STATIC
        PUSH    DPL
          CFI DPL0 Frame(CFA_SP, 4)
          CFI CFA_SP SP+-4
        PUSH    DPH
          CFI DPH0 Frame(CFA_SP, 5)
          CFI CFA_SP SP+-5
        ; Saved register size: 2
        ; Auto size: 8
        MOV     A,#-0x8
        LCALL   ?ALLOC_XSTACK8
          CFI CFA_XSP16 add(XSP16, 8)
// 1949   ZDSecMgrDevice_t device;
// 1950 
// 1951   device.nwkAddr    = ind->devAddr;
        MOV     A,R2
        ADD     A,#0xc
        MOV     DPL,A
        CLR     A
        ADDC    A,R3
        MOV     DPH,A
        LCALL   ?Subroutine29 & 0xFFFF
??CrossCallReturnLabel_28:
        LCALL   ??Subroutine63_0 & 0xFFFF
// 1952   device.extAddr    = ind->devExtAddr;
??CrossCallReturnLabel_140:
        MOV     A,R2
        ADD     A,#0x4
        MOV     R0,A
        CLR     A
        ADDC    A,R3
        MOV     R1,A
        MOV     A,#0x2
        LCALL   ?XSTACK_DISP0_8
        LCALL   ?Subroutine12 & 0xFFFF
// 1953   device.parentAddr = ind->srcAddr;
??CrossCallReturnLabel_1:
        MOV     A,#0x4
        LCALL   ?XSTACK_DISP0_8
        LCALL   ??Subroutine63_0 & 0xFFFF
// 1954   device.devStatus  = DEV_SEC_INIT_STATUS;
??CrossCallReturnLabel_141:
        MOV     A,#0x7
        LCALL   ?XSTACK_DISP0_8
        MOV     A,#0x4
        MOVX    @DPTR,A
// 1955   device.secure     = FALSE;
        MOV     A,#0x6
        LCALL   ?XSTACK_DISP0_8
        CLR     A
        MOVX    @DPTR,A
// 1956 
// 1957   // Trust Center should identify the type of JOIN/REJOIN and
// 1958   // Transport the NWK key accordingly, it will only be transported for:
// 1959   //              APSME_UD_STANDARD_UNSECURED_JOIN
// 1960   //   OR         APSME_UD_STANDARD_TRUST_CENTER_REJOIN
// 1961   if ( ind->status != APSME_UD_DEVICE_LEFT )
        MOV     A,R2
        ADD     A,#0xe
        MOV     DPL,A
        CLR     A
        ADDC    A,R3
        MOV     DPH,A
        MOVX    A,@DPTR
        MOV     R0,A
        MOV     A,#0x2
        XRL     A,R0
        JZ      ??ZDSecMgrUpdateDeviceInd_0
// 1962   {
// 1963     if ( ind->status == APSME_UD_STANDARD_SECURED_REJOIN )
        MOV     A,R0
        JNZ     ??ZDSecMgrUpdateDeviceInd_1
// 1964     {
// 1965       device.devStatus &= ~DEV_SEC_INIT_STATUS;
// 1966       device.devStatus |=  DEV_SEC_AUTH_STATUS;
        MOV     A,#0x7
        LCALL   ?XSTACK_DISP0_8
        MOV     A,#0x8
        MOVX    @DPTR,A
// 1967       device.secure = TRUE;
        MOV     A,#0x6
        LCALL   ?XSTACK_DISP0_8
        MOV     A,#0x1
        MOVX    @DPTR,A
// 1968     }
// 1969     else
// 1970     {
// 1971 #if (ZG_BUILD_COORDINATOR_TYPE)
// 1972       uint8  found;
// 1973       uint16 keyNvIndex;
// 1974       APSME_TCLKDevEntry_t TCLKDevEntry;
// 1975       
// 1976       keyNvIndex = APSME_SearchTCLinkKeyEntry(device.extAddr,&found, &TCLKDevEntry);
// 1977       
// 1978       //If found and it was verified, then allow it to join in a fresh state by erasing the key entry
// 1979       if((found == TRUE) && (TCLKDevEntry.keyAttributes == ZG_VERIFIED_KEY))
// 1980       {
// 1981         TCLKDevEntry.keyAttributes = ZG_DEFAULT_KEY;
// 1982         //Increase the shift by one. Validate the maximum shift of the seed which is 15
// 1983         TCLKDevEntry.SeedShift_IcIndex++;
// 1984         TCLKDevEntry.SeedShift_IcIndex &= 0x0F;
// 1985         
// 1986         TCLKDevEntry.rxFrmCntr = 0;
// 1987         TCLKDevEntry.txFrmCntr = 0;  
// 1988         
// 1989         //Update the entry
// 1990         osal_nv_write(keyNvIndex,0,sizeof(APSME_TCLKDevEntry_t), &TCLKDevEntry );
// 1991       }
// 1992       
// 1993       bdb_TCAddJoiningDevice(device.parentAddr,device.extAddr);
// 1994 #endif
// 1995     
// 1996     }
// 1997 
// 1998     ZDSecMgrDeviceJoin( &device );
??ZDSecMgrUpdateDeviceInd_1:
        ; Setup parameters for call to function ZDSecMgrDeviceJoin
        MOV     R2,?XSP + 0
        MOV     R3,?XSP + 1
        LCALL   `??ZDSecMgrDeviceJoin::?relay`; Banked call to: ZDSecMgrDeviceJoin
// 1999   }
// 2000 }
??ZDSecMgrUpdateDeviceInd_0:
        LJMP    ?Subroutine2 & 0xFFFF
          CFI EndBlock cfiBlock321

        RSEG BANKED_CODE:CODE:NOROOT(0)
?Subroutine29:
          CFI Block cfiCond322 Using cfiCommon0
          CFI Function ZDSecMgrNewDeviceEvent
          CFI Conditional ??CrossCallReturnLabel_27
          CFI R6 load(1, XDATA, add(CFA_XSP16, literal(-12)))
          CFI VB load(1, XDATA, add(CFA_XSP16, literal(-11)))
          CFI V0 load(1, XDATA, add(CFA_XSP16, literal(-10)))
          CFI V1 load(1, XDATA, add(CFA_XSP16, literal(-9)))
          CFI V2 load(1, XDATA, add(CFA_XSP16, literal(-8)))
          CFI V3 load(1, XDATA, add(CFA_XSP16, literal(-7)))
          CFI R7 load(1, XDATA, add(CFA_XSP16, literal(-6)))
          CFI ?RET_LOW load(1, XDATA, add(CFA_XSP16, literal(-5)))
          CFI ?RET_HIGH load(1, XDATA, add(CFA_XSP16, literal(-4)))
          CFI ?BRET_EXT load(1, XDATA, add(CFA_XSP16, literal(-3)))
          CFI DPL0 load(1, XDATA, add(CFA_XSP16, literal(-2)))
          CFI DPH0 load(1, XDATA, add(CFA_XSP16, literal(-1)))
          CFI CFA_SP SP+-2
          CFI CFA_XSP16 add(XSP16, 33)
          CFI Block cfiCond323 Using cfiCommon0
          CFI (cfiCond323) Function ZDSecMgrUpdateDeviceInd
          CFI (cfiCond323) Conditional ??CrossCallReturnLabel_28
          CFI (cfiCond323) DPL0 Frame(CFA_SP, 4)
          CFI (cfiCond323) DPH0 Frame(CFA_SP, 5)
          CFI (cfiCond323) CFA_SP SP+-7
          CFI (cfiCond323) CFA_XSP16 add(XSP16, 8)
          CFI Block cfiCond324 Using cfiCommon0
          CFI (cfiCond324) Function ZDSecMgrAddLinkKey
          CFI (cfiCond324) Conditional ??CrossCallReturnLabel_29
          CFI (cfiCond324) R6 load(1, XDATA, add(CFA_XSP16, literal(-10)))
          CFI (cfiCond324) VB load(1, XDATA, add(CFA_XSP16, literal(-9)))
          CFI (cfiCond324) V0 load(1, XDATA, add(CFA_XSP16, literal(-8)))
          CFI (cfiCond324) V1 load(1, XDATA, add(CFA_XSP16, literal(-7)))
          CFI (cfiCond324) R7 load(1, XDATA, add(CFA_XSP16, literal(-6)))
          CFI (cfiCond324) ?RET_LOW load(1, XDATA, add(CFA_XSP16, literal(-5)))
          CFI (cfiCond324) ?RET_HIGH load(1, XDATA, add(CFA_XSP16, literal(-4)))
          CFI (cfiCond324) ?BRET_EXT load(1, XDATA, add(CFA_XSP16, literal(-3)))
          CFI (cfiCond324) DPL0 load(1, XDATA, add(CFA_XSP16, literal(-2)))
          CFI (cfiCond324) DPH0 load(1, XDATA, add(CFA_XSP16, literal(-1)))
          CFI (cfiCond324) CFA_SP SP+-2
          CFI (cfiCond324) CFA_XSP16 add(XSP16, 14)
          CFI Block cfiPicker325 Using cfiCommon1
          CFI (cfiPicker325) NoFunction
          CFI (cfiPicker325) Picker
        LCALL   ?Subroutine53 & 0xFFFF
??CrossCallReturnLabel_185:
        MOV     DPL,?XSP + 0
        MOV     DPH,?XSP + 1
        RET
          CFI EndBlock cfiCond322
          CFI EndBlock cfiCond323
          CFI EndBlock cfiCond324
          CFI EndBlock cfiPicker325

        RSEG BANKED_CODE:CODE:NOROOT(0)
?Subroutine12:
          CFI Block cfiCond326 Using cfiCommon0
          CFI Function ZDSecMgrDeviceJoinFwd
          CFI Conditional ??CrossCallReturnLabel_0
          CFI R6 load(1, XDATA, add(CFA_XSP16, literal(-10)))
          CFI VB load(1, XDATA, add(CFA_XSP16, literal(-9)))
          CFI V0 load(1, XDATA, add(CFA_XSP16, literal(-8)))
          CFI V1 load(1, XDATA, add(CFA_XSP16, literal(-7)))
          CFI R7 load(1, XDATA, add(CFA_XSP16, literal(-6)))
          CFI ?RET_LOW load(1, XDATA, add(CFA_XSP16, literal(-5)))
          CFI ?RET_HIGH load(1, XDATA, add(CFA_XSP16, literal(-4)))
          CFI ?BRET_EXT load(1, XDATA, add(CFA_XSP16, literal(-3)))
          CFI DPL0 load(1, XDATA, add(CFA_XSP16, literal(-2)))
          CFI DPH0 load(1, XDATA, add(CFA_XSP16, literal(-1)))
          CFI CFA_SP SP+-2
          CFI CFA_XSP16 add(XSP16, 27)
          CFI Block cfiCond327 Using cfiCommon0
          CFI (cfiCond327) Function ZDSecMgrUpdateDeviceInd
          CFI (cfiCond327) Conditional ??CrossCallReturnLabel_1
          CFI (cfiCond327) DPL0 Frame(CFA_SP, 4)
          CFI (cfiCond327) DPH0 Frame(CFA_SP, 5)
          CFI (cfiCond327) CFA_SP SP+-7
          CFI (cfiCond327) CFA_XSP16 add(XSP16, 8)
          CFI Block cfiPicker328 Using cfiCommon1
          CFI (cfiPicker328) NoFunction
          CFI (cfiPicker328) Picker
        LCALL   ?Subroutine49 & 0xFFFF
??CrossCallReturnLabel_145:
        MOV     DPL,R2
        MOV     DPH,R3
        INC     DPTR
        INC     DPTR
        LCALL   ?Subroutine53 & 0xFFFF
??CrossCallReturnLabel_181:
        RET
          CFI EndBlock cfiCond326
          CFI EndBlock cfiCond327
          CFI EndBlock cfiPicker328

        RSEG BANKED_CODE:CODE:NOROOT(0)
?Subroutine53:
          CFI Block cfiCond329 Using cfiCommon0
          CFI Function ZDSecMgrAddrStore
          CFI Conditional ??CrossCallReturnLabel_184, ??CrossCallReturnLabel_14
          CFI R6 load(1, XDATA, add(CFA_XSP16, literal(-9)))
          CFI VB load(1, XDATA, add(CFA_XSP16, literal(-8)))
          CFI V0 load(1, XDATA, add(CFA_XSP16, literal(-7)))
          CFI R7 load(1, XDATA, add(CFA_XSP16, literal(-6)))
          CFI ?RET_LOW load(1, XDATA, add(CFA_XSP16, literal(-5)))
          CFI ?RET_HIGH load(1, XDATA, add(CFA_XSP16, literal(-4)))
          CFI ?BRET_EXT load(1, XDATA, add(CFA_XSP16, literal(-3)))
          CFI DPL0 load(1, XDATA, add(CFA_XSP16, literal(-2)))
          CFI DPH0 load(1, XDATA, add(CFA_XSP16, literal(-1)))
          CFI CFA_SP SP+-4
          CFI CFA_XSP16 add(XSP16, 22)
          CFI Block cfiCond330 Using cfiCommon0
          CFI (cfiCond330) Function ZDSecMgrExtAddrStore
          CFI (cfiCond330) Conditional ??CrossCallReturnLabel_184, ??CrossCallReturnLabel_15
          CFI (cfiCond330) R6 load(1, XDATA, add(CFA_XSP16, literal(-9)))
          CFI (cfiCond330) VB load(1, XDATA, add(CFA_XSP16, literal(-8)))
          CFI (cfiCond330) V0 load(1, XDATA, add(CFA_XSP16, literal(-7)))
          CFI (cfiCond330) R7 load(1, XDATA, add(CFA_XSP16, literal(-6)))
          CFI (cfiCond330) ?RET_LOW load(1, XDATA, add(CFA_XSP16, literal(-5)))
          CFI (cfiCond330) ?RET_HIGH load(1, XDATA, add(CFA_XSP16, literal(-4)))
          CFI (cfiCond330) ?BRET_EXT load(1, XDATA, add(CFA_XSP16, literal(-3)))
          CFI (cfiCond330) DPL0 load(1, XDATA, add(CFA_XSP16, literal(-2)))
          CFI (cfiCond330) DPH0 load(1, XDATA, add(CFA_XSP16, literal(-1)))
          CFI (cfiCond330) CFA_SP SP+-4
          CFI (cfiCond330) CFA_XSP16 add(XSP16, 22)
          CFI Block cfiCond331 Using cfiCommon0
          CFI (cfiCond331) Function ZDSecMgrExtAddrLookup
          CFI (cfiCond331) Conditional ??CrossCallReturnLabel_184, ??CrossCallReturnLabel_16
          CFI (cfiCond331) R6 load(1, XDATA, add(CFA_XSP16, literal(-9)))
          CFI (cfiCond331) VB load(1, XDATA, add(CFA_XSP16, literal(-8)))
          CFI (cfiCond331) V0 load(1, XDATA, add(CFA_XSP16, literal(-7)))
          CFI (cfiCond331) R7 load(1, XDATA, add(CFA_XSP16, literal(-6)))
          CFI (cfiCond331) ?RET_LOW load(1, XDATA, add(CFA_XSP16, literal(-5)))
          CFI (cfiCond331) ?RET_HIGH load(1, XDATA, add(CFA_XSP16, literal(-4)))
          CFI (cfiCond331) ?BRET_EXT load(1, XDATA, add(CFA_XSP16, literal(-3)))
          CFI (cfiCond331) DPL0 load(1, XDATA, add(CFA_XSP16, literal(-2)))
          CFI (cfiCond331) DPH0 load(1, XDATA, add(CFA_XSP16, literal(-1)))
          CFI (cfiCond331) CFA_SP SP+-4
          CFI (cfiCond331) CFA_XSP16 add(XSP16, 22)
          CFI Block cfiCond332 Using cfiCommon0
          CFI (cfiCond332) Function ZDSecMgrAppKeyReq
          CFI (cfiCond332) Conditional ??CrossCallReturnLabel_182, ??CrossCallReturnLabel_8
          CFI (cfiCond332) R6 load(1, XDATA, add(CFA_XSP16, literal(-12)))
          CFI (cfiCond332) VB load(1, XDATA, add(CFA_XSP16, literal(-11)))
          CFI (cfiCond332) V0 load(1, XDATA, add(CFA_XSP16, literal(-10)))
          CFI (cfiCond332) V1 load(1, XDATA, add(CFA_XSP16, literal(-9)))
          CFI (cfiCond332) V2 load(1, XDATA, add(CFA_XSP16, literal(-8)))
          CFI (cfiCond332) V3 load(1, XDATA, add(CFA_XSP16, literal(-7)))
          CFI (cfiCond332) R7 load(1, XDATA, add(CFA_XSP16, literal(-6)))
          CFI (cfiCond332) ?RET_LOW load(1, XDATA, add(CFA_XSP16, literal(-5)))
          CFI (cfiCond332) ?RET_HIGH load(1, XDATA, add(CFA_XSP16, literal(-4)))
          CFI (cfiCond332) ?BRET_EXT load(1, XDATA, add(CFA_XSP16, literal(-3)))
          CFI (cfiCond332) DPL0 load(1, XDATA, add(CFA_XSP16, literal(-2)))
          CFI (cfiCond332) DPH0 load(1, XDATA, add(CFA_XSP16, literal(-1)))
          CFI (cfiCond332) CFA_SP SP+-4
          CFI (cfiCond332) CFA_XSP16 add(XSP16, 51)
          CFI Block cfiCond333 Using cfiCommon0
          CFI (cfiCond333) Function ZDSecMgrTclkReq
          CFI (cfiCond333) Conditional ??CrossCallReturnLabel_182, ??CrossCallReturnLabel_9
          CFI (cfiCond333) R6 load(1, XDATA, add(CFA_XSP16, literal(-10)))
          CFI (cfiCond333) VB load(1, XDATA, add(CFA_XSP16, literal(-9)))
          CFI (cfiCond333) V0 load(1, XDATA, add(CFA_XSP16, literal(-8)))
          CFI (cfiCond333) V1 load(1, XDATA, add(CFA_XSP16, literal(-7)))
          CFI (cfiCond333) R7 load(1, XDATA, add(CFA_XSP16, literal(-6)))
          CFI (cfiCond333) ?RET_LOW load(1, XDATA, add(CFA_XSP16, literal(-5)))
          CFI (cfiCond333) ?RET_HIGH load(1, XDATA, add(CFA_XSP16, literal(-4)))
          CFI (cfiCond333) ?BRET_EXT load(1, XDATA, add(CFA_XSP16, literal(-3)))
          CFI (cfiCond333) DPL0 load(1, XDATA, add(CFA_XSP16, literal(-2)))
          CFI (cfiCond333) DPH0 load(1, XDATA, add(CFA_XSP16, literal(-1)))
          CFI (cfiCond333) CFA_SP SP+-4
          CFI (cfiCond333) CFA_XSP16 add(XSP16, 69)
          CFI Block cfiCond334 Using cfiCommon0
          CFI (cfiCond334) Function ZDSecMgrSendNwkKey
          CFI (cfiCond334) Conditional ??CrossCallReturnLabel_183, ??CrossCallReturnLabel_12
          CFI (cfiCond334) R6 load(1, XDATA, add(CFA_XSP16, literal(-12)))
          CFI (cfiCond334) VB load(1, XDATA, add(CFA_XSP16, literal(-11)))
          CFI (cfiCond334) V0 load(1, XDATA, add(CFA_XSP16, literal(-10)))
          CFI (cfiCond334) V1 load(1, XDATA, add(CFA_XSP16, literal(-9)))
          CFI (cfiCond334) V2 load(1, XDATA, add(CFA_XSP16, literal(-8)))
          CFI (cfiCond334) V3 load(1, XDATA, add(CFA_XSP16, literal(-7)))
          CFI (cfiCond334) R7 load(1, XDATA, add(CFA_XSP16, literal(-6)))
          CFI (cfiCond334) ?RET_LOW load(1, XDATA, add(CFA_XSP16, literal(-5)))
          CFI (cfiCond334) ?RET_HIGH load(1, XDATA, add(CFA_XSP16, literal(-4)))
          CFI (cfiCond334) ?BRET_EXT load(1, XDATA, add(CFA_XSP16, literal(-3)))
          CFI (cfiCond334) DPL0 load(1, XDATA, add(CFA_XSP16, literal(-2)))
          CFI (cfiCond334) DPH0 load(1, XDATA, add(CFA_XSP16, literal(-1)))
          CFI (cfiCond334) CFA_SP SP+-4
          CFI (cfiCond334) CFA_XSP16 add(XSP16, 46)
          CFI Block cfiCond335 Using cfiCommon0
          CFI (cfiCond335) Function ZDSecMgrDeviceRemove
          CFI (cfiCond335) Conditional ??CrossCallReturnLabel_183, ??CrossCallReturnLabel_13
          CFI (cfiCond335) R6 load(1, XDATA, add(CFA_XSP16, literal(-10)))
          CFI (cfiCond335) VB load(1, XDATA, add(CFA_XSP16, literal(-9)))
          CFI (cfiCond335) V0 load(1, XDATA, add(CFA_XSP16, literal(-8)))
          CFI (cfiCond335) V1 load(1, XDATA, add(CFA_XSP16, literal(-7)))
          CFI (cfiCond335) R7 load(1, XDATA, add(CFA_XSP16, literal(-6)))
          CFI (cfiCond335) ?RET_LOW load(1, XDATA, add(CFA_XSP16, literal(-5)))
          CFI (cfiCond335) ?RET_HIGH load(1, XDATA, add(CFA_XSP16, literal(-4)))
          CFI (cfiCond335) ?BRET_EXT load(1, XDATA, add(CFA_XSP16, literal(-3)))
          CFI (cfiCond335) DPL0 load(1, XDATA, add(CFA_XSP16, literal(-2)))
          CFI (cfiCond335) DPH0 load(1, XDATA, add(CFA_XSP16, literal(-1)))
          CFI (cfiCond335) CFA_SP SP+-4
          CFI (cfiCond335) CFA_XSP16 add(XSP16, 29)
          CFI Block cfiCond336 Using cfiCommon0
          CFI (cfiCond336) Function ZDSecMgrNewDeviceEvent
          CFI (cfiCond336) Conditional ??CrossCallReturnLabel_185, ??CrossCallReturnLabel_27
          CFI (cfiCond336) R6 load(1, XDATA, add(CFA_XSP16, literal(-12)))
          CFI (cfiCond336) VB load(1, XDATA, add(CFA_XSP16, literal(-11)))
          CFI (cfiCond336) V0 load(1, XDATA, add(CFA_XSP16, literal(-10)))
          CFI (cfiCond336) V1 load(1, XDATA, add(CFA_XSP16, literal(-9)))
          CFI (cfiCond336) V2 load(1, XDATA, add(CFA_XSP16, literal(-8)))
          CFI (cfiCond336) V3 load(1, XDATA, add(CFA_XSP16, literal(-7)))
          CFI (cfiCond336) R7 load(1, XDATA, add(CFA_XSP16, literal(-6)))
          CFI (cfiCond336) ?RET_LOW load(1, XDATA, add(CFA_XSP16, literal(-5)))
          CFI (cfiCond336) ?RET_HIGH load(1, XDATA, add(CFA_XSP16, literal(-4)))
          CFI (cfiCond336) ?BRET_EXT load(1, XDATA, add(CFA_XSP16, literal(-3)))
          CFI (cfiCond336) DPL0 load(1, XDATA, add(CFA_XSP16, literal(-2)))
          CFI (cfiCond336) DPH0 load(1, XDATA, add(CFA_XSP16, literal(-1)))
          CFI (cfiCond336) CFA_SP SP+-4
          CFI (cfiCond336) CFA_XSP16 add(XSP16, 33)
          CFI Block cfiCond337 Using cfiCommon0
          CFI (cfiCond337) Function ZDSecMgrUpdateDeviceInd
          CFI (cfiCond337) Conditional ??CrossCallReturnLabel_185, ??CrossCallReturnLabel_28
          CFI (cfiCond337) DPL0 Frame(CFA_SP, 4)
          CFI (cfiCond337) DPH0 Frame(CFA_SP, 5)
          CFI (cfiCond337) CFA_SP SP+-9
          CFI (cfiCond337) CFA_XSP16 add(XSP16, 8)
          CFI Block cfiCond338 Using cfiCommon0
          CFI (cfiCond338) Function ZDSecMgrAddLinkKey
          CFI (cfiCond338) Conditional ??CrossCallReturnLabel_185, ??CrossCallReturnLabel_29
          CFI (cfiCond338) R6 load(1, XDATA, add(CFA_XSP16, literal(-10)))
          CFI (cfiCond338) VB load(1, XDATA, add(CFA_XSP16, literal(-9)))
          CFI (cfiCond338) V0 load(1, XDATA, add(CFA_XSP16, literal(-8)))
          CFI (cfiCond338) V1 load(1, XDATA, add(CFA_XSP16, literal(-7)))
          CFI (cfiCond338) R7 load(1, XDATA, add(CFA_XSP16, literal(-6)))
          CFI (cfiCond338) ?RET_LOW load(1, XDATA, add(CFA_XSP16, literal(-5)))
          CFI (cfiCond338) ?RET_HIGH load(1, XDATA, add(CFA_XSP16, literal(-4)))
          CFI (cfiCond338) ?BRET_EXT load(1, XDATA, add(CFA_XSP16, literal(-3)))
          CFI (cfiCond338) DPL0 load(1, XDATA, add(CFA_XSP16, literal(-2)))
          CFI (cfiCond338) DPH0 load(1, XDATA, add(CFA_XSP16, literal(-1)))
          CFI (cfiCond338) CFA_SP SP+-4
          CFI (cfiCond338) CFA_XSP16 add(XSP16, 14)
          CFI Block cfiCond339 Using cfiCommon0
          CFI (cfiCond339) Function ZDSecMgrDeviceJoinFwd
          CFI (cfiCond339) Conditional ??CrossCallReturnLabel_181, ??CrossCallReturnLabel_0
          CFI (cfiCond339) R6 load(1, XDATA, add(CFA_XSP16, literal(-10)))
          CFI (cfiCond339) VB load(1, XDATA, add(CFA_XSP16, literal(-9)))
          CFI (cfiCond339) V0 load(1, XDATA, add(CFA_XSP16, literal(-8)))
          CFI (cfiCond339) V1 load(1, XDATA, add(CFA_XSP16, literal(-7)))
          CFI (cfiCond339) R7 load(1, XDATA, add(CFA_XSP16, literal(-6)))
          CFI (cfiCond339) ?RET_LOW load(1, XDATA, add(CFA_XSP16, literal(-5)))
          CFI (cfiCond339) ?RET_HIGH load(1, XDATA, add(CFA_XSP16, literal(-4)))
          CFI (cfiCond339) ?BRET_EXT load(1, XDATA, add(CFA_XSP16, literal(-3)))
          CFI (cfiCond339) DPL0 load(1, XDATA, add(CFA_XSP16, literal(-2)))
          CFI (cfiCond339) DPH0 load(1, XDATA, add(CFA_XSP16, literal(-1)))
          CFI (cfiCond339) CFA_SP SP+-4
          CFI (cfiCond339) CFA_XSP16 add(XSP16, 27)
          CFI Block cfiCond340 Using cfiCommon0
          CFI (cfiCond340) Function ZDSecMgrUpdateDeviceInd
          CFI (cfiCond340) Conditional ??CrossCallReturnLabel_181, ??CrossCallReturnLabel_1
          CFI (cfiCond340) DPL0 Frame(CFA_SP, 4)
          CFI (cfiCond340) DPH0 Frame(CFA_SP, 5)
          CFI (cfiCond340) CFA_SP SP+-9
          CFI (cfiCond340) CFA_XSP16 add(XSP16, 8)
          CFI Block cfiCond341 Using cfiCommon0
          CFI (cfiCond341) Function ZDSecMgrAddrClear
          CFI (cfiCond341) Conditional ??CrossCallReturnLabel_186, ??CrossCallReturnLabel_179
          CFI (cfiCond341) R6 load(1, XDATA, add(CFA_XSP16, literal(-9)))
          CFI (cfiCond341) VB load(1, XDATA, add(CFA_XSP16, literal(-8)))
          CFI (cfiCond341) V0 load(1, XDATA, add(CFA_XSP16, literal(-7)))
          CFI (cfiCond341) R7 load(1, XDATA, add(CFA_XSP16, literal(-6)))
          CFI (cfiCond341) ?RET_LOW load(1, XDATA, add(CFA_XSP16, literal(-5)))
          CFI (cfiCond341) ?RET_HIGH load(1, XDATA, add(CFA_XSP16, literal(-4)))
          CFI (cfiCond341) ?BRET_EXT load(1, XDATA, add(CFA_XSP16, literal(-3)))
          CFI (cfiCond341) DPL0 load(1, XDATA, add(CFA_XSP16, literal(-2)))
          CFI (cfiCond341) DPH0 load(1, XDATA, add(CFA_XSP16, literal(-1)))
          CFI (cfiCond341) CFA_SP SP+-4
          CFI (cfiCond341) CFA_XSP16 add(XSP16, 24)
          CFI Block cfiCond342 Using cfiCommon0
          CFI (cfiCond342) Function ZDSecMgrAppKeyReq
          CFI (cfiCond342) Conditional ??CrossCallReturnLabel_186, ??CrossCallReturnLabel_180
          CFI (cfiCond342) R6 load(1, XDATA, add(CFA_XSP16, literal(-12)))
          CFI (cfiCond342) VB load(1, XDATA, add(CFA_XSP16, literal(-11)))
          CFI (cfiCond342) V0 load(1, XDATA, add(CFA_XSP16, literal(-10)))
          CFI (cfiCond342) V1 load(1, XDATA, add(CFA_XSP16, literal(-9)))
          CFI (cfiCond342) V2 load(1, XDATA, add(CFA_XSP16, literal(-8)))
          CFI (cfiCond342) V3 load(1, XDATA, add(CFA_XSP16, literal(-7)))
          CFI (cfiCond342) R7 load(1, XDATA, add(CFA_XSP16, literal(-6)))
          CFI (cfiCond342) ?RET_LOW load(1, XDATA, add(CFA_XSP16, literal(-5)))
          CFI (cfiCond342) ?RET_HIGH load(1, XDATA, add(CFA_XSP16, literal(-4)))
          CFI (cfiCond342) ?BRET_EXT load(1, XDATA, add(CFA_XSP16, literal(-3)))
          CFI (cfiCond342) DPL0 load(1, XDATA, add(CFA_XSP16, literal(-2)))
          CFI (cfiCond342) DPH0 load(1, XDATA, add(CFA_XSP16, literal(-1)))
          CFI (cfiCond342) CFA_SP SP+-4
          CFI (cfiCond342) CFA_XSP16 add(XSP16, 51)
          CFI Block cfiCond343 Using cfiCommon0
          CFI (cfiCond343) Function ZDSecMgrSendNwkKey
          CFI (cfiCond343) Conditional ??CrossCallReturnLabel_186, ??CrossCallReturnLabel_171
          CFI (cfiCond343) R6 load(1, XDATA, add(CFA_XSP16, literal(-12)))
          CFI (cfiCond343) VB load(1, XDATA, add(CFA_XSP16, literal(-11)))
          CFI (cfiCond343) V0 load(1, XDATA, add(CFA_XSP16, literal(-10)))
          CFI (cfiCond343) V1 load(1, XDATA, add(CFA_XSP16, literal(-9)))
          CFI (cfiCond343) V2 load(1, XDATA, add(CFA_XSP16, literal(-8)))
          CFI (cfiCond343) V3 load(1, XDATA, add(CFA_XSP16, literal(-7)))
          CFI (cfiCond343) R7 load(1, XDATA, add(CFA_XSP16, literal(-6)))
          CFI (cfiCond343) ?RET_LOW load(1, XDATA, add(CFA_XSP16, literal(-5)))
          CFI (cfiCond343) ?RET_HIGH load(1, XDATA, add(CFA_XSP16, literal(-4)))
          CFI (cfiCond343) ?BRET_EXT load(1, XDATA, add(CFA_XSP16, literal(-3)))
          CFI (cfiCond343) DPL0 load(1, XDATA, add(CFA_XSP16, literal(-2)))
          CFI (cfiCond343) DPH0 load(1, XDATA, add(CFA_XSP16, literal(-1)))
          CFI (cfiCond343) CFA_SP SP+-4
          CFI (cfiCond343) CFA_XSP16 add(XSP16, 46)
          CFI Block cfiCond344 Using cfiCommon0
          CFI (cfiCond344) Function ZDSecMgrSendNwkKey
          CFI (cfiCond344) Conditional ??CrossCallReturnLabel_186, ??CrossCallReturnLabel_172
          CFI (cfiCond344) R6 load(1, XDATA, add(CFA_XSP16, literal(-12)))
          CFI (cfiCond344) VB load(1, XDATA, add(CFA_XSP16, literal(-11)))
          CFI (cfiCond344) V0 load(1, XDATA, add(CFA_XSP16, literal(-10)))
          CFI (cfiCond344) V1 load(1, XDATA, add(CFA_XSP16, literal(-9)))
          CFI (cfiCond344) V2 load(1, XDATA, add(CFA_XSP16, literal(-8)))
          CFI (cfiCond344) V3 load(1, XDATA, add(CFA_XSP16, literal(-7)))
          CFI (cfiCond344) R7 load(1, XDATA, add(CFA_XSP16, literal(-6)))
          CFI (cfiCond344) ?RET_LOW load(1, XDATA, add(CFA_XSP16, literal(-5)))
          CFI (cfiCond344) ?RET_HIGH load(1, XDATA, add(CFA_XSP16, literal(-4)))
          CFI (cfiCond344) ?BRET_EXT load(1, XDATA, add(CFA_XSP16, literal(-3)))
          CFI (cfiCond344) DPL0 load(1, XDATA, add(CFA_XSP16, literal(-2)))
          CFI (cfiCond344) DPH0 load(1, XDATA, add(CFA_XSP16, literal(-1)))
          CFI (cfiCond344) CFA_SP SP+-4
          CFI (cfiCond344) CFA_XSP16 add(XSP16, 46)
          CFI Block cfiCond345 Using cfiCommon0
          CFI (cfiCond345) Function ZDSecMgrDeviceJoin
          CFI (cfiCond345) Conditional ??CrossCallReturnLabel_186, ??CrossCallReturnLabel_173
          CFI (cfiCond345) R6 load(1, XDATA, add(CFA_XSP16, literal(-16)))
          CFI (cfiCond345) VB load(1, XDATA, add(CFA_XSP16, literal(-15)))
          CFI (cfiCond345) V0 load(1, XDATA, add(CFA_XSP16, literal(-14)))
          CFI (cfiCond345) V1 load(1, XDATA, add(CFA_XSP16, literal(-13)))
          CFI (cfiCond345) V2 load(1, XDATA, add(CFA_XSP16, literal(-12)))
          CFI (cfiCond345) V3 load(1, XDATA, add(CFA_XSP16, literal(-11)))
          CFI (cfiCond345) V4 load(1, XDATA, add(CFA_XSP16, literal(-10)))
          CFI (cfiCond345) V5 load(1, XDATA, add(CFA_XSP16, literal(-9)))
          CFI (cfiCond345) V6 load(1, XDATA, add(CFA_XSP16, literal(-8)))
          CFI (cfiCond345) V7 load(1, XDATA, add(CFA_XSP16, literal(-7)))
          CFI (cfiCond345) R7 load(1, XDATA, add(CFA_XSP16, literal(-6)))
          CFI (cfiCond345) ?RET_LOW load(1, XDATA, add(CFA_XSP16, literal(-5)))
          CFI (cfiCond345) ?RET_HIGH load(1, XDATA, add(CFA_XSP16, literal(-4)))
          CFI (cfiCond345) ?BRET_EXT load(1, XDATA, add(CFA_XSP16, literal(-3)))
          CFI (cfiCond345) DPL0 load(1, XDATA, add(CFA_XSP16, literal(-2)))
          CFI (cfiCond345) DPH0 load(1, XDATA, add(CFA_XSP16, literal(-1)))
          CFI (cfiCond345) CFA_SP SP+-4
          CFI (cfiCond345) CFA_XSP16 add(XSP16, 30)
          CFI Block cfiCond346 Using cfiCommon0
          CFI (cfiCond346) Function ZDSecMgrDeviceJoin
          CFI (cfiCond346) Conditional ??CrossCallReturnLabel_186, ??CrossCallReturnLabel_174
          CFI (cfiCond346) R6 load(1, XDATA, add(CFA_XSP16, literal(-16)))
          CFI (cfiCond346) VB load(1, XDATA, add(CFA_XSP16, literal(-15)))
          CFI (cfiCond346) V0 load(1, XDATA, add(CFA_XSP16, literal(-14)))
          CFI (cfiCond346) V1 load(1, XDATA, add(CFA_XSP16, literal(-13)))
          CFI (cfiCond346) V2 load(1, XDATA, add(CFA_XSP16, literal(-12)))
          CFI (cfiCond346) V3 load(1, XDATA, add(CFA_XSP16, literal(-11)))
          CFI (cfiCond346) V4 load(1, XDATA, add(CFA_XSP16, literal(-10)))
          CFI (cfiCond346) V5 load(1, XDATA, add(CFA_XSP16, literal(-9)))
          CFI (cfiCond346) V6 load(1, XDATA, add(CFA_XSP16, literal(-8)))
          CFI (cfiCond346) V7 load(1, XDATA, add(CFA_XSP16, literal(-7)))
          CFI (cfiCond346) R7 load(1, XDATA, add(CFA_XSP16, literal(-6)))
          CFI (cfiCond346) ?RET_LOW load(1, XDATA, add(CFA_XSP16, literal(-5)))
          CFI (cfiCond346) ?RET_HIGH load(1, XDATA, add(CFA_XSP16, literal(-4)))
          CFI (cfiCond346) ?BRET_EXT load(1, XDATA, add(CFA_XSP16, literal(-3)))
          CFI (cfiCond346) DPL0 load(1, XDATA, add(CFA_XSP16, literal(-2)))
          CFI (cfiCond346) DPH0 load(1, XDATA, add(CFA_XSP16, literal(-1)))
          CFI (cfiCond346) CFA_SP SP+-4
          CFI (cfiCond346) CFA_XSP16 add(XSP16, 30)
          CFI Block cfiCond347 Using cfiCommon0
          CFI (cfiCond347) Function ZDSecMgrNewDeviceEvent
          CFI (cfiCond347) Conditional ??CrossCallReturnLabel_186, ??CrossCallReturnLabel_175
          CFI (cfiCond347) R6 load(1, XDATA, add(CFA_XSP16, literal(-12)))
          CFI (cfiCond347) VB load(1, XDATA, add(CFA_XSP16, literal(-11)))
          CFI (cfiCond347) V0 load(1, XDATA, add(CFA_XSP16, literal(-10)))
          CFI (cfiCond347) V1 load(1, XDATA, add(CFA_XSP16, literal(-9)))
          CFI (cfiCond347) V2 load(1, XDATA, add(CFA_XSP16, literal(-8)))
          CFI (cfiCond347) V3 load(1, XDATA, add(CFA_XSP16, literal(-7)))
          CFI (cfiCond347) R7 load(1, XDATA, add(CFA_XSP16, literal(-6)))
          CFI (cfiCond347) ?RET_LOW load(1, XDATA, add(CFA_XSP16, literal(-5)))
          CFI (cfiCond347) ?RET_HIGH load(1, XDATA, add(CFA_XSP16, literal(-4)))
          CFI (cfiCond347) ?BRET_EXT load(1, XDATA, add(CFA_XSP16, literal(-3)))
          CFI (cfiCond347) DPL0 load(1, XDATA, add(CFA_XSP16, literal(-2)))
          CFI (cfiCond347) DPH0 load(1, XDATA, add(CFA_XSP16, literal(-1)))
          CFI (cfiCond347) CFA_SP SP+-4
          CFI (cfiCond347) CFA_XSP16 add(XSP16, 33)
          CFI Block cfiCond348 Using cfiCommon0
          CFI (cfiCond348) Function ZDSecMgrTransportKeyInd
          CFI (cfiCond348) Conditional ??CrossCallReturnLabel_186, ??CrossCallReturnLabel_176
          CFI (cfiCond348) R6 load(1, XDATA, add(CFA_XSP16, literal(-14)))
          CFI (cfiCond348) VB load(1, XDATA, add(CFA_XSP16, literal(-13)))
          CFI (cfiCond348) V0 load(1, XDATA, add(CFA_XSP16, literal(-12)))
          CFI (cfiCond348) V1 load(1, XDATA, add(CFA_XSP16, literal(-11)))
          CFI (cfiCond348) V2 load(1, XDATA, add(CFA_XSP16, literal(-10)))
          CFI (cfiCond348) V3 load(1, XDATA, add(CFA_XSP16, literal(-9)))
          CFI (cfiCond348) V4 load(1, XDATA, add(CFA_XSP16, literal(-8)))
          CFI (cfiCond348) V5 load(1, XDATA, add(CFA_XSP16, literal(-7)))
          CFI (cfiCond348) R7 load(1, XDATA, add(CFA_XSP16, literal(-6)))
          CFI (cfiCond348) ?RET_LOW load(1, XDATA, add(CFA_XSP16, literal(-5)))
          CFI (cfiCond348) ?RET_HIGH load(1, XDATA, add(CFA_XSP16, literal(-4)))
          CFI (cfiCond348) ?BRET_EXT load(1, XDATA, add(CFA_XSP16, literal(-3)))
          CFI (cfiCond348) DPL0 load(1, XDATA, add(CFA_XSP16, literal(-2)))
          CFI (cfiCond348) DPH0 load(1, XDATA, add(CFA_XSP16, literal(-1)))
          CFI (cfiCond348) CFA_SP SP+-4
          CFI (cfiCond348) CFA_XSP16 add(XSP16, 54)
          CFI Block cfiCond349 Using cfiCommon0
          CFI (cfiCond349) Function APSME_LinkKeySet
          CFI (cfiCond349) Conditional ??CrossCallReturnLabel_186, ??CrossCallReturnLabel_177
          CFI (cfiCond349) R6 load(1, XDATA, add(CFA_XSP16, literal(-15)))
          CFI (cfiCond349) VB load(1, XDATA, add(CFA_XSP16, literal(-14)))
          CFI (cfiCond349) V0 load(1, XDATA, add(CFA_XSP16, literal(-13)))
          CFI (cfiCond349) V1 load(1, XDATA, add(CFA_XSP16, literal(-12)))
          CFI (cfiCond349) V2 load(1, XDATA, add(CFA_XSP16, literal(-11)))
          CFI (cfiCond349) V3 load(1, XDATA, add(CFA_XSP16, literal(-10)))
          CFI (cfiCond349) V4 load(1, XDATA, add(CFA_XSP16, literal(-9)))
          CFI (cfiCond349) V5 load(1, XDATA, add(CFA_XSP16, literal(-8)))
          CFI (cfiCond349) V6 load(1, XDATA, add(CFA_XSP16, literal(-7)))
          CFI (cfiCond349) R7 load(1, XDATA, add(CFA_XSP16, literal(-6)))
          CFI (cfiCond349) ?RET_LOW load(1, XDATA, add(CFA_XSP16, literal(-5)))
          CFI (cfiCond349) ?RET_HIGH load(1, XDATA, add(CFA_XSP16, literal(-4)))
          CFI (cfiCond349) ?BRET_EXT load(1, XDATA, add(CFA_XSP16, literal(-3)))
          CFI (cfiCond349) DPL0 load(1, XDATA, add(CFA_XSP16, literal(-2)))
          CFI (cfiCond349) DPH0 load(1, XDATA, add(CFA_XSP16, literal(-1)))
          CFI (cfiCond349) CFA_SP SP+-4
          CFI (cfiCond349) CFA_XSP16 add(XSP16, 19)
          CFI Block cfiCond350 Using cfiCommon0
          CFI (cfiCond350) Function ZDSecMgrAPSRemove
          CFI (cfiCond350) Conditional ??CrossCallReturnLabel_186, ??CrossCallReturnLabel_178
          CFI (cfiCond350) DPL0 Frame(CFA_SP, 4)
          CFI (cfiCond350) DPH0 Frame(CFA_SP, 5)
          CFI (cfiCond350) CFA_SP SP+-9
          CFI (cfiCond350) CFA_XSP16 add(XSP16, 8)
          CFI Block cfiPicker351 Using cfiCommon1
          CFI (cfiPicker351) NoFunction
          CFI (cfiPicker351) Picker
        MOVX    A,@DPTR
        MOV     R0,A
        INC     DPTR
        MOVX    A,@DPTR
        MOV     R1,A
        RET
          CFI EndBlock cfiCond329
          CFI EndBlock cfiCond330
          CFI EndBlock cfiCond331
          CFI EndBlock cfiCond332
          CFI EndBlock cfiCond333
          CFI EndBlock cfiCond334
          CFI EndBlock cfiCond335
          CFI EndBlock cfiCond336
          CFI EndBlock cfiCond337
          CFI EndBlock cfiCond338
          CFI EndBlock cfiCond339
          CFI EndBlock cfiCond340
          CFI EndBlock cfiCond341
          CFI EndBlock cfiCond342
          CFI EndBlock cfiCond343
          CFI EndBlock cfiCond344
          CFI EndBlock cfiCond345
          CFI EndBlock cfiCond346
          CFI EndBlock cfiCond347
          CFI EndBlock cfiCond348
          CFI EndBlock cfiCond349
          CFI EndBlock cfiCond350
          CFI EndBlock cfiPicker351
// 2001 
// 2002 /******************************************************************************
// 2003  * @fn          ZDSecMgrRemoveDeviceInd
// 2004  *
// 2005  * @brief       Process the ZDO_RemoveDeviceInd_t message.
// 2006  *
// 2007  * @param       ind - [in] ZDO_RemoveDeviceInd_t indication
// 2008  *
// 2009  * @return      none
// 2010  */

        RSEG BANKED_CODE:CODE:NOROOT(0)
// 2011 void ZDSecMgrRemoveDeviceInd( ZDO_RemoveDeviceInd_t* ind )
ZDSecMgrRemoveDeviceInd:
          CFI Block cfiBlock352 Using cfiCommon0
          CFI Function ZDSecMgrRemoveDeviceInd
        CODE
// 2012 {
        FUNCALL ZDSecMgrRemoveDeviceInd, APSME_LookupNwkAddr
        LOCFRAME ISTACK, 0, STACK
        LOCFRAME PSTACK, 0, STACK
        LOCFRAME XSTACK, 17, STACK
        LOCFRAME IOVERLAY, 0, STATIC
        LOCFRAME DOVERLAY, 0, STATIC
        ARGFRAME ISTACK, 0, STACK
        ARGFRAME PSTACK, 0, STACK
        ARGFRAME XSTACK, 17, STACK
        ARGFRAME IOVERLAY, 0, STATIC
        ARGFRAME DOVERLAY, 0, STATIC
        FUNCALL ZDSecMgrRemoveDeviceInd, NLME_GetShortAddr
        LOCFRAME ISTACK, 0, STACK
        LOCFRAME PSTACK, 0, STACK
        LOCFRAME XSTACK, 17, STACK
        LOCFRAME IOVERLAY, 0, STATIC
        LOCFRAME DOVERLAY, 0, STATIC
        ARGFRAME ISTACK, 0, STACK
        ARGFRAME PSTACK, 0, STACK
        ARGFRAME XSTACK, 17, STACK
        ARGFRAME IOVERLAY, 0, STATIC
        ARGFRAME DOVERLAY, 0, STATIC
        FUNCALL ZDSecMgrRemoveDeviceInd, ZDSecMgrDeviceRemove
        LOCFRAME ISTACK, 0, STACK
        LOCFRAME PSTACK, 0, STACK
        LOCFRAME XSTACK, 17, STACK
        LOCFRAME IOVERLAY, 0, STATIC
        LOCFRAME DOVERLAY, 0, STATIC
        ARGFRAME ISTACK, 0, STACK
        ARGFRAME PSTACK, 0, STACK
        ARGFRAME XSTACK, 17, STACK
        ARGFRAME IOVERLAY, 0, STATIC
        ARGFRAME DOVERLAY, 0, STATIC
        MOV     A,#-0x9
        LCALL   ?BANKED_ENTER_XDATA
          CFI DPH0 load(1, XDATA, add(CFA_XSP16, literal(-1)))
          CFI DPL0 load(1, XDATA, add(CFA_XSP16, literal(-2)))
          CFI ?BRET_EXT load(1, XDATA, add(CFA_XSP16, literal(-3)))
          CFI ?RET_HIGH load(1, XDATA, add(CFA_XSP16, literal(-4)))
          CFI ?RET_LOW load(1, XDATA, add(CFA_XSP16, literal(-5)))
          CFI R7 load(1, XDATA, add(CFA_XSP16, literal(-6)))
          CFI V0 load(1, XDATA, add(CFA_XSP16, literal(-7)))
          CFI VB load(1, XDATA, add(CFA_XSP16, literal(-8)))
          CFI R6 load(1, XDATA, add(CFA_XSP16, literal(-9)))
          CFI CFA_SP SP+0
          CFI CFA_XSP16 add(XSP16, 9)
        ; Saved register size: 9
        ; Auto size: 8
        MOV     A,#-0x8
        LCALL   ?ALLOC_XSTACK8
          CFI CFA_XSP16 add(XSP16, 17)
// 2013   ZDSecMgrDevice_t device;
// 2014 
// 2015   // only accept from Trust Center
// 2016   if ( ind->srcAddr == APSME_TRUSTCENTER_NWKADDR )
        MOV     DPL,R2
        MOV     DPH,R3
        INC     DPTR
        INC     DPTR
        LCALL   ??Subroutine66_0 & 0xFFFF
??CrossCallReturnLabel_158:
        JNZ     ??ZDSecMgrRemoveDeviceInd_0
// 2017   {
// 2018     // look up NWK address
// 2019     if ( APSME_LookupNwkAddr( ind->childExtAddr, &device.nwkAddr ) == TRUE )
        MOV     A,R2
        ADD     A,#0x4
        MOV     R6,A
        CLR     A
        ADDC    A,R3
        MOV     R7,A
        ; Setup parameters for call to function APSME_LookupNwkAddr
        MOV     R4,?XSP + 0
        MOV     R5,?XSP + 1
        MOV     A,R6
        MOV     R2,A
        MOV     A,R7
        MOV     R3,A
        LCALL   `??APSME_LookupNwkAddr::?relay`; Banked call to: APSME_LookupNwkAddr
        MOV     A,R1
        XRL     A,#0x1
        JNZ     ??ZDSecMgrRemoveDeviceInd_0
// 2020     {
// 2021       device.parentAddr = NLME_GetShortAddr();
        ; Setup parameters for call to function NLME_GetShortAddr
        LCALL   `??NLME_GetShortAddr::?relay`; Banked call to: NLME_GetShortAddr
        MOV     A,#0x4
        LCALL   ?XSTACK_DISP0_8
        LCALL   ?Subroutine50 & 0xFFFF
// 2022       device.extAddr    = ind->childExtAddr;
??CrossCallReturnLabel_71:
        MOV     A,#0x2
        LCALL   ?XSTACK_DISP0_8
        MOV     A,R6
        MOVX    @DPTR,A
        INC     DPTR
        MOV     A,R7
        LCALL   ??Subroutine76_0 & 0xFFFF
// 2023 
// 2024       // remove device
// 2025       ZDSecMgrDeviceRemove( &device );
// 2026     }
// 2027   }
??CrossCallReturnLabel_190:
        LCALL   `??ZDSecMgrDeviceRemove::?relay`; Banked call to: ZDSecMgrDeviceRemove
// 2028 }
??ZDSecMgrRemoveDeviceInd_0:
        LJMP    ?Subroutine9 & 0xFFFF
          CFI EndBlock cfiBlock352

        RSEG BANKED_CODE:CODE:NOROOT(0)
?Subroutine50:
          CFI Block cfiCond353 Using cfiCommon0
          CFI Function ZDSecMgrEntryLookupExtGetIndex
          CFI Conditional ??CrossCallReturnLabel_69
          CFI R6 load(1, XDATA, add(CFA_XSP16, literal(-9)))
          CFI VB load(1, XDATA, add(CFA_XSP16, literal(-8)))
          CFI V0 load(1, XDATA, add(CFA_XSP16, literal(-7)))
          CFI R7 load(1, XDATA, add(CFA_XSP16, literal(-6)))
          CFI ?RET_LOW load(1, XDATA, add(CFA_XSP16, literal(-5)))
          CFI ?RET_HIGH load(1, XDATA, add(CFA_XSP16, literal(-4)))
          CFI ?BRET_EXT load(1, XDATA, add(CFA_XSP16, literal(-3)))
          CFI DPL0 load(1, XDATA, add(CFA_XSP16, literal(-2)))
          CFI DPH0 load(1, XDATA, add(CFA_XSP16, literal(-1)))
          CFI CFA_SP SP+-2
          CFI CFA_XSP16 add(XSP16, 11)
          CFI Block cfiCond354 Using cfiCommon0
          CFI (cfiCond354) Function ZDSecMgrAddrStore
          CFI (cfiCond354) Conditional ??CrossCallReturnLabel_74, ??CrossCallReturnLabel_4
          CFI (cfiCond354) R6 load(1, XDATA, add(CFA_XSP16, literal(-9)))
          CFI (cfiCond354) VB load(1, XDATA, add(CFA_XSP16, literal(-8)))
          CFI (cfiCond354) V0 load(1, XDATA, add(CFA_XSP16, literal(-7)))
          CFI (cfiCond354) R7 load(1, XDATA, add(CFA_XSP16, literal(-6)))
          CFI (cfiCond354) ?RET_LOW load(1, XDATA, add(CFA_XSP16, literal(-5)))
          CFI (cfiCond354) ?RET_HIGH load(1, XDATA, add(CFA_XSP16, literal(-4)))
          CFI (cfiCond354) ?BRET_EXT load(1, XDATA, add(CFA_XSP16, literal(-3)))
          CFI (cfiCond354) DPL0 load(1, XDATA, add(CFA_XSP16, literal(-2)))
          CFI (cfiCond354) DPH0 load(1, XDATA, add(CFA_XSP16, literal(-1)))
          CFI (cfiCond354) CFA_SP SP+-4
          CFI (cfiCond354) CFA_XSP16 add(XSP16, 22)
          CFI Block cfiCond355 Using cfiCommon0
          CFI (cfiCond355) Function ZDSecMgrExtAddrStore
          CFI (cfiCond355) Conditional ??CrossCallReturnLabel_74, ??CrossCallReturnLabel_5
          CFI (cfiCond355) R6 load(1, XDATA, add(CFA_XSP16, literal(-9)))
          CFI (cfiCond355) VB load(1, XDATA, add(CFA_XSP16, literal(-8)))
          CFI (cfiCond355) V0 load(1, XDATA, add(CFA_XSP16, literal(-7)))
          CFI (cfiCond355) R7 load(1, XDATA, add(CFA_XSP16, literal(-6)))
          CFI (cfiCond355) ?RET_LOW load(1, XDATA, add(CFA_XSP16, literal(-5)))
          CFI (cfiCond355) ?RET_HIGH load(1, XDATA, add(CFA_XSP16, literal(-4)))
          CFI (cfiCond355) ?BRET_EXT load(1, XDATA, add(CFA_XSP16, literal(-3)))
          CFI (cfiCond355) DPL0 load(1, XDATA, add(CFA_XSP16, literal(-2)))
          CFI (cfiCond355) DPH0 load(1, XDATA, add(CFA_XSP16, literal(-1)))
          CFI (cfiCond355) CFA_SP SP+-4
          CFI (cfiCond355) CFA_XSP16 add(XSP16, 22)
          CFI Block cfiCond356 Using cfiCommon0
          CFI (cfiCond356) Function ZDSecMgrDeviceRemove
          CFI (cfiCond356) Conditional ??CrossCallReturnLabel_74, ??CrossCallReturnLabel_6
          CFI (cfiCond356) R6 load(1, XDATA, add(CFA_XSP16, literal(-10)))
          CFI (cfiCond356) VB load(1, XDATA, add(CFA_XSP16, literal(-9)))
          CFI (cfiCond356) V0 load(1, XDATA, add(CFA_XSP16, literal(-8)))
          CFI (cfiCond356) V1 load(1, XDATA, add(CFA_XSP16, literal(-7)))
          CFI (cfiCond356) R7 load(1, XDATA, add(CFA_XSP16, literal(-6)))
          CFI (cfiCond356) ?RET_LOW load(1, XDATA, add(CFA_XSP16, literal(-5)))
          CFI (cfiCond356) ?RET_HIGH load(1, XDATA, add(CFA_XSP16, literal(-4)))
          CFI (cfiCond356) ?BRET_EXT load(1, XDATA, add(CFA_XSP16, literal(-3)))
          CFI (cfiCond356) DPL0 load(1, XDATA, add(CFA_XSP16, literal(-2)))
          CFI (cfiCond356) DPH0 load(1, XDATA, add(CFA_XSP16, literal(-1)))
          CFI (cfiCond356) CFA_SP SP+-4
          CFI (cfiCond356) CFA_XSP16 add(XSP16, 29)
          CFI Block cfiCond357 Using cfiCommon0
          CFI (cfiCond357) Function ZDSecMgrSetupPartner
          CFI (cfiCond357) Conditional ??CrossCallReturnLabel_74, ??CrossCallReturnLabel_7
          CFI (cfiCond357) R6 load(1, XDATA, add(CFA_XSP16, literal(-12)))
          CFI (cfiCond357) VB load(1, XDATA, add(CFA_XSP16, literal(-11)))
          CFI (cfiCond357) V0 load(1, XDATA, add(CFA_XSP16, literal(-10)))
          CFI (cfiCond357) V1 load(1, XDATA, add(CFA_XSP16, literal(-9)))
          CFI (cfiCond357) V2 load(1, XDATA, add(CFA_XSP16, literal(-8)))
          CFI (cfiCond357) V3 load(1, XDATA, add(CFA_XSP16, literal(-7)))
          CFI (cfiCond357) R7 load(1, XDATA, add(CFA_XSP16, literal(-6)))
          CFI (cfiCond357) ?RET_LOW load(1, XDATA, add(CFA_XSP16, literal(-5)))
          CFI (cfiCond357) ?RET_HIGH load(1, XDATA, add(CFA_XSP16, literal(-4)))
          CFI (cfiCond357) ?BRET_EXT load(1, XDATA, add(CFA_XSP16, literal(-3)))
          CFI (cfiCond357) DPL0 load(1, XDATA, add(CFA_XSP16, literal(-2)))
          CFI (cfiCond357) DPH0 load(1, XDATA, add(CFA_XSP16, literal(-1)))
          CFI (cfiCond357) CFA_SP SP+-4
          CFI (cfiCond357) CFA_XSP16 add(XSP16, 25)
          CFI Block cfiCond358 Using cfiCommon0
          CFI (cfiCond358) Function ZDSecMgrNewDeviceEvent
          CFI (cfiCond358) Conditional ??CrossCallReturnLabel_70
          CFI (cfiCond358) R6 load(1, XDATA, add(CFA_XSP16, literal(-12)))
          CFI (cfiCond358) VB load(1, XDATA, add(CFA_XSP16, literal(-11)))
          CFI (cfiCond358) V0 load(1, XDATA, add(CFA_XSP16, literal(-10)))
          CFI (cfiCond358) V1 load(1, XDATA, add(CFA_XSP16, literal(-9)))
          CFI (cfiCond358) V2 load(1, XDATA, add(CFA_XSP16, literal(-8)))
          CFI (cfiCond358) V3 load(1, XDATA, add(CFA_XSP16, literal(-7)))
          CFI (cfiCond358) R7 load(1, XDATA, add(CFA_XSP16, literal(-6)))
          CFI (cfiCond358) ?RET_LOW load(1, XDATA, add(CFA_XSP16, literal(-5)))
          CFI (cfiCond358) ?RET_HIGH load(1, XDATA, add(CFA_XSP16, literal(-4)))
          CFI (cfiCond358) ?BRET_EXT load(1, XDATA, add(CFA_XSP16, literal(-3)))
          CFI (cfiCond358) DPL0 load(1, XDATA, add(CFA_XSP16, literal(-2)))
          CFI (cfiCond358) DPH0 load(1, XDATA, add(CFA_XSP16, literal(-1)))
          CFI (cfiCond358) CFA_SP SP+-2
          CFI (cfiCond358) CFA_XSP16 add(XSP16, 33)
          CFI Block cfiCond359 Using cfiCommon0
          CFI (cfiCond359) Function ZDSecMgrRemoveDeviceInd
          CFI (cfiCond359) Conditional ??CrossCallReturnLabel_71
          CFI (cfiCond359) R6 load(1, XDATA, add(CFA_XSP16, literal(-9)))
          CFI (cfiCond359) VB load(1, XDATA, add(CFA_XSP16, literal(-8)))
          CFI (cfiCond359) V0 load(1, XDATA, add(CFA_XSP16, literal(-7)))
          CFI (cfiCond359) R7 load(1, XDATA, add(CFA_XSP16, literal(-6)))
          CFI (cfiCond359) ?RET_LOW load(1, XDATA, add(CFA_XSP16, literal(-5)))
          CFI (cfiCond359) ?RET_HIGH load(1, XDATA, add(CFA_XSP16, literal(-4)))
          CFI (cfiCond359) ?BRET_EXT load(1, XDATA, add(CFA_XSP16, literal(-3)))
          CFI (cfiCond359) DPL0 load(1, XDATA, add(CFA_XSP16, literal(-2)))
          CFI (cfiCond359) DPH0 load(1, XDATA, add(CFA_XSP16, literal(-1)))
          CFI (cfiCond359) CFA_SP SP+-2
          CFI (cfiCond359) CFA_XSP16 add(XSP16, 17)
          CFI Block cfiCond360 Using cfiCommon0
          CFI (cfiCond360) Function ZDSecMgrAPSRemove
          CFI (cfiCond360) Conditional ??CrossCallReturnLabel_72
          CFI (cfiCond360) DPL0 Frame(CFA_SP, 4)
          CFI (cfiCond360) DPH0 Frame(CFA_SP, 5)
          CFI (cfiCond360) CFA_SP SP+-7
          CFI (cfiCond360) CFA_XSP16 add(XSP16, 8)
          CFI Block cfiCond361 Using cfiCommon0
          CFI (cfiCond361) Function APSME_TCLinkKeyLoad
          CFI (cfiCond361) Conditional ??CrossCallReturnLabel_73
          CFI (cfiCond361) R6 load(1, XDATA, add(CFA_XSP16, literal(-18)))
          CFI (cfiCond361) VB load(1, XDATA, add(CFA_XSP16, literal(-17)))
          CFI (cfiCond361) V0 load(1, XDATA, add(CFA_XSP16, literal(-16)))
          CFI (cfiCond361) V1 load(1, XDATA, add(CFA_XSP16, literal(-15)))
          CFI (cfiCond361) V2 load(1, XDATA, add(CFA_XSP16, literal(-14)))
          CFI (cfiCond361) V3 load(1, XDATA, add(CFA_XSP16, literal(-13)))
          CFI (cfiCond361) V4 load(1, XDATA, add(CFA_XSP16, literal(-12)))
          CFI (cfiCond361) V5 load(1, XDATA, add(CFA_XSP16, literal(-11)))
          CFI (cfiCond361) V6 load(1, XDATA, add(CFA_XSP16, literal(-10)))
          CFI (cfiCond361) V7 load(1, XDATA, add(CFA_XSP16, literal(-9)))
          CFI (cfiCond361) V8 load(1, XDATA, add(CFA_XSP16, literal(-8)))
          CFI (cfiCond361) V9 load(1, XDATA, add(CFA_XSP16, literal(-7)))
          CFI (cfiCond361) R7 load(1, XDATA, add(CFA_XSP16, literal(-6)))
          CFI (cfiCond361) ?RET_LOW load(1, XDATA, add(CFA_XSP16, literal(-5)))
          CFI (cfiCond361) ?RET_HIGH load(1, XDATA, add(CFA_XSP16, literal(-4)))
          CFI (cfiCond361) ?BRET_EXT load(1, XDATA, add(CFA_XSP16, literal(-3)))
          CFI (cfiCond361) DPL0 load(1, XDATA, add(CFA_XSP16, literal(-2)))
          CFI (cfiCond361) DPH0 load(1, XDATA, add(CFA_XSP16, literal(-1)))
          CFI (cfiCond361) CFA_SP SP+-2
          CFI (cfiCond361) CFA_XSP16 add(XSP16, 51)
          CFI Block cfiPicker362 Using cfiCommon1
          CFI (cfiPicker362) NoFunction
          CFI (cfiPicker362) Picker
        MOV     A,R2
        MOVX    @DPTR,A
        INC     DPTR
        MOV     A,R3
        MOVX    @DPTR,A
        RET
          CFI EndBlock cfiCond353
          CFI EndBlock cfiCond354
          CFI EndBlock cfiCond355
          CFI EndBlock cfiCond356
          CFI EndBlock cfiCond357
          CFI EndBlock cfiCond358
          CFI EndBlock cfiCond359
          CFI EndBlock cfiCond360
          CFI EndBlock cfiCond361
          CFI EndBlock cfiPicker362

        RSEG BANKED_CODE:CODE:NOROOT(0)
?Subroutine0:
          CFI Block cfiBlock363 Using cfiCommon0
          CFI NoFunction
          CFI CFA_SP SP+0
          CFI CFA_XSP16 add(XSP16, 22)
          CFI VB load(1, XDATA, add(CFA_XSP16, literal(-8)))
          CFI DPL0 load(1, XDATA, add(CFA_XSP16, literal(-2)))
          CFI DPH0 load(1, XDATA, add(CFA_XSP16, literal(-1)))
          CFI R6 load(1, XDATA, add(CFA_XSP16, literal(-9)))
          CFI R7 load(1, XDATA, add(CFA_XSP16, literal(-6)))
          CFI V0 load(1, XDATA, add(CFA_XSP16, literal(-7)))
          CFI ?BRET_EXT load(1, XDATA, add(CFA_XSP16, literal(-3)))
          CFI ?RET_HIGH load(1, XDATA, add(CFA_XSP16, literal(-4)))
          CFI ?RET_LOW load(1, XDATA, add(CFA_XSP16, literal(-5)))
        MOV     A,#0xd
          CFI EndBlock cfiBlock363
        REQUIRE ??Subroutine70_0
        ; // Fall through to label ??Subroutine70_0

        RSEG BANKED_CODE:CODE:NOROOT(0)
??Subroutine70_0:
          CFI Block cfiBlock364 Using cfiCommon0
          CFI NoFunction
          CFI CFA_SP SP+0
          CFI CFA_XSP16 add(XSP16, 24)
          CFI VB load(1, XDATA, add(CFA_XSP16, literal(-8)))
          CFI DPL0 load(1, XDATA, add(CFA_XSP16, literal(-2)))
          CFI DPH0 load(1, XDATA, add(CFA_XSP16, literal(-1)))
          CFI R6 load(1, XDATA, add(CFA_XSP16, literal(-9)))
          CFI R7 load(1, XDATA, add(CFA_XSP16, literal(-6)))
          CFI V0 load(1, XDATA, add(CFA_XSP16, literal(-7)))
          CFI ?BRET_EXT load(1, XDATA, add(CFA_XSP16, literal(-3)))
          CFI ?RET_HIGH load(1, XDATA, add(CFA_XSP16, literal(-4)))
          CFI ?RET_LOW load(1, XDATA, add(CFA_XSP16, literal(-5)))
          CFI Invalid
        LCALL   ?DEALLOC_XSTACK8
          CFI EndBlock cfiBlock364
        REQUIRE ??Subroutine71_0
        ; // Fall through to label ??Subroutine71_0

        RSEG BANKED_CODE:CODE:NOROOT(0)
??Subroutine71_0:
          CFI Block cfiBlock365 Using cfiCommon0
          CFI NoFunction
          CFI CFA_SP SP+0
          CFI CFA_XSP16 add(XSP16, 9)
          CFI VB load(1, XDATA, add(CFA_XSP16, literal(-8)))
          CFI DPL0 load(1, XDATA, add(CFA_XSP16, literal(-2)))
          CFI DPH0 load(1, XDATA, add(CFA_XSP16, literal(-1)))
          CFI R6 load(1, XDATA, add(CFA_XSP16, literal(-9)))
          CFI R7 load(1, XDATA, add(CFA_XSP16, literal(-6)))
          CFI V0 load(1, XDATA, add(CFA_XSP16, literal(-7)))
          CFI ?BRET_EXT load(1, XDATA, add(CFA_XSP16, literal(-3)))
          CFI ?RET_HIGH load(1, XDATA, add(CFA_XSP16, literal(-4)))
          CFI ?RET_LOW load(1, XDATA, add(CFA_XSP16, literal(-5)))
        MOV     R7,#0x1
        LJMP    ?BANKED_LEAVE_XDATA
          CFI EndBlock cfiBlock365
// 2029 
// 2030 /******************************************************************************
// 2031  * @fn          ZDSecMgrRequestKeyInd
// 2032  *
// 2033  * @brief       Process the ZDO_RequestKeyInd_t message.
// 2034  *
// 2035  * @param       ind - [in] ZDO_RequestKeyInd_t indication
// 2036  *
// 2037  * @return      none
// 2038  */

        RSEG BANKED_CODE:CODE:NOROOT(0)
// 2039 void ZDSecMgrRequestKeyInd( ZDO_RequestKeyInd_t* ind )
ZDSecMgrRequestKeyInd:
          CFI Block cfiBlock366 Using cfiCommon0
          CFI Function ZDSecMgrRequestKeyInd
        CODE
// 2040 {
        FUNCALL ZDSecMgrRequestKeyInd, ZDSecMgrAppKeyReq
        LOCFRAME ISTACK, 2, STACK
        LOCFRAME PSTACK, 0, STACK
        LOCFRAME XSTACK, 0, STACK
        LOCFRAME IOVERLAY, 0, STATIC
        LOCFRAME DOVERLAY, 0, STATIC
        ARGFRAME ISTACK, 2, STACK
        ARGFRAME PSTACK, 0, STACK
        ARGFRAME XSTACK, 0, STACK
        ARGFRAME IOVERLAY, 0, STATIC
        ARGFRAME DOVERLAY, 0, STATIC
        FUNCALL ZDSecMgrRequestKeyInd, ZDSecMgrTclkReq
        LOCFRAME ISTACK, 2, STACK
        LOCFRAME PSTACK, 0, STACK
        LOCFRAME XSTACK, 0, STACK
        LOCFRAME IOVERLAY, 0, STATIC
        LOCFRAME DOVERLAY, 0, STATIC
        ARGFRAME ISTACK, 2, STACK
        ARGFRAME PSTACK, 0, STACK
        ARGFRAME XSTACK, 0, STACK
        ARGFRAME IOVERLAY, 0, STATIC
        ARGFRAME DOVERLAY, 0, STATIC
        PUSH    DPL
          CFI DPL0 Frame(CFA_SP, 4)
          CFI CFA_SP SP+-4
        PUSH    DPH
          CFI DPH0 Frame(CFA_SP, 5)
          CFI CFA_SP SP+-5
        ; Saved register size: 2
        ; Auto size: 0
// 2041   if ( ind->keyType == KEY_TYPE_NWK )
        MOV     DPL,R2
        MOV     DPH,R3
        INC     DPTR
        INC     DPTR
        INC     DPTR
        INC     DPTR
        MOVX    A,@DPTR
        MOV     R0,A
        MOV     A,#0x1
        XRL     A,R0
        JZ      ??ZDSecMgrRequestKeyInd_0
// 2042   {
// 2043   }
// 2044   else if ( ind->keyType == KEY_TYPE_APP_MASTER )
        MOV     A,#0x2
        XRL     A,R0
        JNZ     ??ZDSecMgrRequestKeyInd_1
// 2045   {
// 2046     ZDSecMgrAppKeyReq( ind );
        ; Setup parameters for call to function ZDSecMgrAppKeyReq
        LCALL   `??ZDSecMgrAppKeyReq::?relay`; Banked call to: ZDSecMgrAppKeyReq
        SJMP    ??ZDSecMgrRequestKeyInd_0
// 2047   }
// 2048   else if ( ind->keyType == KEY_TYPE_TC_LINK )
??ZDSecMgrRequestKeyInd_1:
        MOV     A,#0x4
        XRL     A,R0
        JNZ     ??ZDSecMgrRequestKeyInd_0
// 2049   {
// 2050     ZDSecMgrTclkReq( ind );
        ; Setup parameters for call to function ZDSecMgrTclkReq
        LCALL   `??ZDSecMgrTclkReq::?relay`; Banked call to: ZDSecMgrTclkReq
// 2051   }
// 2052   //else ignore
// 2053 }
??ZDSecMgrRequestKeyInd_0:
        LJMP    ??Subroutine65_0 & 0xFFFF
          CFI EndBlock cfiBlock366
// 2054 
// 2055 
// 2056 /******************************************************************************
// 2057  * @fn          ZDSecMgrVerifyKeyInd
// 2058  *
// 2059  * @brief       Process the ZDO_VerifyKeyInd_t message.
// 2060  *
// 2061  * @param       ind - [in] ZDO_VerifyKeyInd_t indication
// 2062  *
// 2063  * @return      none
// 2064  */

        RSEG BANKED_CODE:CODE:NOROOT(0)
// 2065 void ZDSecMgrVerifyKeyInd( ZDO_VerifyKeyInd_t* ind )
ZDSecMgrVerifyKeyInd:
          CFI Block cfiBlock367 Using cfiCommon0
          CFI Function ZDSecMgrVerifyKeyInd
        CODE
// 2066 {
        ; Saved register size: 0
        ; Auto size: 0
// 2067   ZDSecMgrAppConfKeyReq( ind );
// 2068 }
        LJMP    ?BRET
          CFI EndBlock cfiBlock367
// 2069 
// 2070 
// 2071 /******************************************************************************
// 2072  * @fn          ZDSecMgrSwitchKeyInd
// 2073  *
// 2074  * @brief       Process the ZDO_SwitchKeyInd_t message.
// 2075  *
// 2076  * @param       ind - [in] ZDO_SwitchKeyInd_t indication
// 2077  *
// 2078  * @return      none
// 2079  */

        RSEG BANKED_CODE:CODE:NOROOT(0)
// 2080 void ZDSecMgrSwitchKeyInd( ZDO_SwitchKeyInd_t* ind )
ZDSecMgrSwitchKeyInd:
          CFI Block cfiBlock368 Using cfiCommon0
          CFI Function ZDSecMgrSwitchKeyInd
        CODE
// 2081 {
        FUNCALL ZDSecMgrSwitchKeyInd, SSP_SwitchNwkKey
        LOCFRAME ISTACK, 2, STACK
        LOCFRAME PSTACK, 0, STACK
        LOCFRAME XSTACK, 0, STACK
        LOCFRAME IOVERLAY, 0, STATIC
        LOCFRAME DOVERLAY, 0, STATIC
        ARGFRAME ISTACK, 2, STACK
        ARGFRAME PSTACK, 0, STACK
        ARGFRAME XSTACK, 0, STACK
        ARGFRAME IOVERLAY, 0, STATIC
        ARGFRAME DOVERLAY, 0, STATIC
        FUNCALL ZDSecMgrSwitchKeyInd, ZDApp_NVUpdate
        LOCFRAME ISTACK, 2, STACK
        LOCFRAME PSTACK, 0, STACK
        LOCFRAME XSTACK, 0, STACK
        LOCFRAME IOVERLAY, 0, STATIC
        LOCFRAME DOVERLAY, 0, STATIC
        ARGFRAME ISTACK, 2, STACK
        ARGFRAME PSTACK, 0, STACK
        ARGFRAME XSTACK, 0, STACK
        ARGFRAME IOVERLAY, 0, STATIC
        ARGFRAME DOVERLAY, 0, STATIC
        PUSH    DPL
          CFI DPL0 Frame(CFA_SP, 4)
          CFI CFA_SP SP+-4
        PUSH    DPH
          CFI DPH0 Frame(CFA_SP, 5)
          CFI CFA_SP SP+-5
        ; Saved register size: 2
        ; Auto size: 0
// 2082   SSP_SwitchNwkKey( ind->keySeqNum );
        ; Setup parameters for call to function SSP_SwitchNwkKey
        MOV     DPL,R2
        MOV     DPH,R3
        INC     DPTR
        INC     DPTR
        INC     DPTR
        INC     DPTR
        MOVX    A,@DPTR
        MOV     R1,A
        LCALL   `??SSP_SwitchNwkKey::?relay`; Banked call to: SSP_SwitchNwkKey
// 2083 
// 2084   // Save if nv
// 2085   ZDApp_NVUpdate();
        ; Setup parameters for call to function ZDApp_NVUpdate
        LCALL   `??ZDApp_NVUpdate::?relay`; Banked call to: ZDApp_NVUpdate
// 2086 }
        LJMP    ??Subroutine65_0 & 0xFFFF
          CFI EndBlock cfiBlock368
// 2087   
// 2088 /******************************************************************************
// 2089  * @fn          ZDSecMgrGenerateSeed
// 2090  *
// 2091  * @brief       Generate the seed for TC link keys and store it in Nv
// 2092  *
// 2093  * @param       SetDefault, force to use new seed
// 2094  *
// 2095  * @return      none
// 2096  */

        RSEG BANKED_CODE:CODE:NOROOT(0)
// 2097 void ZDSecMgrGenerateSeed(uint8 SetDefault)
ZDSecMgrGenerateSeed:
          CFI Block cfiBlock369 Using cfiCommon0
          CFI Function ZDSecMgrGenerateSeed
        CODE
// 2098 {
        FUNCALL ZDSecMgrGenerateSeed, ZDSecMgrGenerateRndKey
        LOCFRAME ISTACK, 0, STACK
        LOCFRAME PSTACK, 0, STACK
        LOCFRAME XSTACK, 26, STACK
        LOCFRAME IOVERLAY, 0, STATIC
        LOCFRAME DOVERLAY, 0, STATIC
        ARGFRAME ISTACK, 0, STACK
        ARGFRAME PSTACK, 0, STACK
        ARGFRAME XSTACK, 26, STACK
        ARGFRAME IOVERLAY, 0, STATIC
        ARGFRAME DOVERLAY, 0, STATIC
        FUNCALL ZDSecMgrGenerateSeed, osal_nv_item_init
        LOCFRAME ISTACK, 0, STACK
        LOCFRAME PSTACK, 0, STACK
        LOCFRAME XSTACK, 28, STACK
        LOCFRAME IOVERLAY, 0, STATIC
        LOCFRAME DOVERLAY, 0, STATIC
        ARGFRAME ISTACK, 0, STACK
        ARGFRAME PSTACK, 0, STACK
        ARGFRAME XSTACK, 28, STACK
        ARGFRAME IOVERLAY, 0, STATIC
        ARGFRAME DOVERLAY, 0, STATIC
        FUNCALL ZDSecMgrGenerateSeed, osal_nv_write
        LOCFRAME ISTACK, 0, STACK
        LOCFRAME PSTACK, 0, STACK
        LOCFRAME XSTACK, 30, STACK
        LOCFRAME IOVERLAY, 0, STATIC
        LOCFRAME DOVERLAY, 0, STATIC
        ARGFRAME ISTACK, 0, STACK
        ARGFRAME PSTACK, 0, STACK
        ARGFRAME XSTACK, 30, STACK
        ARGFRAME IOVERLAY, 0, STATIC
        ARGFRAME DOVERLAY, 0, STATIC
        FUNCALL ZDSecMgrGenerateSeed, osal_memset
        LOCFRAME ISTACK, 0, STACK
        LOCFRAME PSTACK, 0, STACK
        LOCFRAME XSTACK, 26, STACK
        LOCFRAME IOVERLAY, 0, STATIC
        LOCFRAME DOVERLAY, 0, STATIC
        ARGFRAME ISTACK, 0, STACK
        ARGFRAME PSTACK, 0, STACK
        ARGFRAME XSTACK, 26, STACK
        ARGFRAME IOVERLAY, 0, STATIC
        ARGFRAME DOVERLAY, 0, STATIC
        REQUIRE ?V0
        REQUIRE ?V1
        MOV     A,#-0xa
        LCALL   ?BANKED_ENTER_XDATA
          CFI DPH0 load(1, XDATA, add(CFA_XSP16, literal(-1)))
          CFI DPL0 load(1, XDATA, add(CFA_XSP16, literal(-2)))
          CFI ?BRET_EXT load(1, XDATA, add(CFA_XSP16, literal(-3)))
          CFI ?RET_HIGH load(1, XDATA, add(CFA_XSP16, literal(-4)))
          CFI ?RET_LOW load(1, XDATA, add(CFA_XSP16, literal(-5)))
          CFI R7 load(1, XDATA, add(CFA_XSP16, literal(-6)))
          CFI V1 load(1, XDATA, add(CFA_XSP16, literal(-7)))
          CFI V0 load(1, XDATA, add(CFA_XSP16, literal(-8)))
          CFI VB load(1, XDATA, add(CFA_XSP16, literal(-9)))
          CFI R6 load(1, XDATA, add(CFA_XSP16, literal(-10)))
          CFI CFA_SP SP+0
          CFI CFA_XSP16 add(XSP16, 10)
        ; Saved register size: 10
        ; Auto size: 16
        MOV     A,#-0x10
        LCALL   ?ALLOC_XSTACK8
          CFI CFA_XSP16 add(XSP16, 26)
        MOV     A,R1
        MOV     R6,A
// 2099   uint8 SeedKey[SEC_KEY_LEN];  
// 2100   
// 2101   ZDSecMgrGenerateRndKey(SeedKey);
        ; Setup parameters for call to function ZDSecMgrGenerateRndKey
        MOV     R2,?XSP + 0
        MOV     R3,?XSP + 1
        LCALL   `??ZDSecMgrGenerateRndKey::?relay`; Banked call to: ZDSecMgrGenerateRndKey
// 2102   
// 2103   if((SUCCESS == osal_nv_item_init(ZCD_NV_TCLK_SEED,SEC_KEY_LEN,SeedKey)) && SetDefault)
        ; Setup parameters for call to function osal_nv_item_init
        MOV     R0,?XSP + 0
        MOV     R1,?XSP + 1
        MOV     ?V0,R0
        MOV     ?V1,R1
        MOV     R0,#?V0
        LCALL   ?PUSH_XSTACK_I_TWO
          CFI CFA_XSP16 add(XSP16, 28)
        MOV     R4,#0x10
        MOV     R5,#0x0
        MOV     R2,#0x1
        MOV     R3,#0x1
        LCALL   `??osal_nv_item_init::?relay`; Banked call to: osal_nv_item_init
        MOV     A,#0x2
        LCALL   ?DEALLOC_XSTACK8
          CFI CFA_XSP16 add(XSP16, 26)
        MOV     A,R1
        JNZ     ??ZDSecMgrGenerateSeed_0
        MOV     A,R6
        JZ      ??ZDSecMgrGenerateSeed_0
// 2104   {
// 2105     //Force to use a new seed
// 2106     osal_nv_write(ZCD_NV_TCLK_SEED,0,SEC_KEY_LEN,SeedKey);
        ; Setup parameters for call to function osal_nv_write
        MOV     R0,#?V0
        LCALL   ?PUSH_XSTACK_I_TWO
          CFI CFA_XSP16 add(XSP16, 28)
        MOV     ?V0,#0x10
        MOV     ?V1,#0x0
        MOV     R0,#?V0
        LCALL   ?PUSH_XSTACK_I_TWO
          CFI CFA_XSP16 add(XSP16, 30)
        MOV     R4,#0x0
        MOV     R5,#0x0
        MOV     R2,#0x1
        MOV     R3,#0x1
        LCALL   `??osal_nv_write::?relay`; Banked call to: osal_nv_write
        MOV     A,#0x4
        LCALL   ?DEALLOC_XSTACK8
          CFI CFA_XSP16 add(XSP16, 26)
// 2107   }
// 2108 
// 2109   osal_memset(SeedKey,0,SEC_KEY_LEN);
??ZDSecMgrGenerateSeed_0:
        ; Setup parameters for call to function osal_memset
        MOV     R4,#0x10
        MOV     R5,#0x0
        MOV     R1,#0x0
        MOV     R2,?XSP + 0
        MOV     R3,?XSP + 1
        LCALL   `??osal_memset::?relay`; Banked call to: osal_memset
// 2110 }
        MOV     A,#0x10
          CFI EndBlock cfiBlock369
        REQUIRE ?Subroutine4
        ; // Fall through to label ?Subroutine4

        RSEG BANKED_CODE:CODE:NOROOT(0)
?Subroutine4:
          CFI Block cfiBlock370 Using cfiCommon0
          CFI NoFunction
          CFI CFA_SP SP+0
          CFI CFA_XSP16 add(XSP16, 69)
          CFI VB load(1, XDATA, add(CFA_XSP16, literal(-9)))
          CFI DPL0 load(1, XDATA, add(CFA_XSP16, literal(-2)))
          CFI DPH0 load(1, XDATA, add(CFA_XSP16, literal(-1)))
          CFI R6 load(1, XDATA, add(CFA_XSP16, literal(-10)))
          CFI R7 load(1, XDATA, add(CFA_XSP16, literal(-6)))
          CFI V0 load(1, XDATA, add(CFA_XSP16, literal(-8)))
          CFI V1 load(1, XDATA, add(CFA_XSP16, literal(-7)))
          CFI ?BRET_EXT load(1, XDATA, add(CFA_XSP16, literal(-3)))
          CFI ?RET_HIGH load(1, XDATA, add(CFA_XSP16, literal(-4)))
          CFI ?RET_LOW load(1, XDATA, add(CFA_XSP16, literal(-5)))
          CFI Invalid
        LCALL   ?DEALLOC_XSTACK8
          CFI EndBlock cfiBlock370
        REQUIRE ??Subroutine72_0
        ; // Fall through to label ??Subroutine72_0

        RSEG BANKED_CODE:CODE:NOROOT(0)
??Subroutine72_0:
          CFI Block cfiBlock371 Using cfiCommon0
          CFI NoFunction
          CFI CFA_SP SP+0
          CFI CFA_XSP16 add(XSP16, 10)
          CFI VB load(1, XDATA, add(CFA_XSP16, literal(-9)))
          CFI DPL0 load(1, XDATA, add(CFA_XSP16, literal(-2)))
          CFI DPH0 load(1, XDATA, add(CFA_XSP16, literal(-1)))
          CFI R6 load(1, XDATA, add(CFA_XSP16, literal(-10)))
          CFI R7 load(1, XDATA, add(CFA_XSP16, literal(-6)))
          CFI V0 load(1, XDATA, add(CFA_XSP16, literal(-8)))
          CFI V1 load(1, XDATA, add(CFA_XSP16, literal(-7)))
          CFI ?BRET_EXT load(1, XDATA, add(CFA_XSP16, literal(-3)))
          CFI ?RET_HIGH load(1, XDATA, add(CFA_XSP16, literal(-4)))
          CFI ?RET_LOW load(1, XDATA, add(CFA_XSP16, literal(-5)))
        MOV     R7,#0x2
        LJMP    ?BANKED_LEAVE_XDATA
          CFI EndBlock cfiBlock371
// 2111 
// 2112 
// 2113 /******************************************************************************
// 2114  * @fn          ZDSecMgrGenerateKeyFromSeed
// 2115  *
// 2116  * @brief       Generate the TC link key for an specific device usign seed and ExtAddr
// 2117  *
// 2118  * @param       [in]  extAddr  
// 2119  * @param       [in]  shift    number of byte shifts that the seed will do to 
// 2120  *                             generate a new key for the same device. 
// 2121  *                             This value must be less than SEC_KEY_LEN
// 2122  * @param       [out] key      buffer in which the key will be copied
// 2123  *
// 2124  * @return      none
// 2125  */

        RSEG BANKED_CODE:CODE:NOROOT(0)
// 2126 void ZDSecMgrGenerateKeyFromSeed(uint8 *extAddr, uint8 shift, uint8 *key)
ZDSecMgrGenerateKeyFromSeed:
          CFI Block cfiBlock372 Using cfiCommon0
          CFI Function ZDSecMgrGenerateKeyFromSeed
        CODE
// 2127 {
        FUNCALL ZDSecMgrGenerateKeyFromSeed, osal_nv_read
        LOCFRAME ISTACK, 0, STACK
        LOCFRAME PSTACK, 0, STACK
        LOCFRAME XSTACK, 38, STACK
        LOCFRAME IOVERLAY, 0, STATIC
        LOCFRAME DOVERLAY, 0, STATIC
        ARGFRAME ISTACK, 0, STACK
        ARGFRAME PSTACK, 0, STACK
        ARGFRAME XSTACK, 38, STACK
        ARGFRAME IOVERLAY, 0, STATIC
        ARGFRAME DOVERLAY, 0, STATIC
        FUNCALL ZDSecMgrGenerateKeyFromSeed, osal_memcpy
        LOCFRAME ISTACK, 0, STACK
        LOCFRAME PSTACK, 0, STACK
        LOCFRAME XSTACK, 37, STACK
        LOCFRAME IOVERLAY, 0, STATIC
        LOCFRAME DOVERLAY, 0, STATIC
        ARGFRAME ISTACK, 0, STACK
        ARGFRAME PSTACK, 0, STACK
        ARGFRAME XSTACK, 37, STACK
        ARGFRAME IOVERLAY, 0, STATIC
        ARGFRAME DOVERLAY, 0, STATIC
        FUNCALL ZDSecMgrGenerateKeyFromSeed, osal_memcpy
        LOCFRAME ISTACK, 0, STACK
        LOCFRAME PSTACK, 0, STACK
        LOCFRAME XSTACK, 37, STACK
        LOCFRAME IOVERLAY, 0, STATIC
        LOCFRAME DOVERLAY, 0, STATIC
        ARGFRAME ISTACK, 0, STACK
        ARGFRAME PSTACK, 0, STACK
        ARGFRAME XSTACK, 37, STACK
        ARGFRAME IOVERLAY, 0, STATIC
        ARGFRAME DOVERLAY, 0, STATIC
        REQUIRE ?V0
        REQUIRE ?V1
        REQUIRE ?V2
        REQUIRE ?V4
        REQUIRE ?V5
        REQUIRE ?V6
        REQUIRE ?V8
        REQUIRE ?V9
        MOV     A,#-0x12
        LCALL   ?BANKED_ENTER_XDATA
          CFI DPH0 load(1, XDATA, add(CFA_XSP16, literal(-1)))
          CFI DPL0 load(1, XDATA, add(CFA_XSP16, literal(-2)))
          CFI ?BRET_EXT load(1, XDATA, add(CFA_XSP16, literal(-3)))
          CFI ?RET_HIGH load(1, XDATA, add(CFA_XSP16, literal(-4)))
          CFI ?RET_LOW load(1, XDATA, add(CFA_XSP16, literal(-5)))
          CFI R7 load(1, XDATA, add(CFA_XSP16, literal(-6)))
          CFI V9 load(1, XDATA, add(CFA_XSP16, literal(-7)))
          CFI V8 load(1, XDATA, add(CFA_XSP16, literal(-8)))
          CFI V7 load(1, XDATA, add(CFA_XSP16, literal(-9)))
          CFI V6 load(1, XDATA, add(CFA_XSP16, literal(-10)))
          CFI V5 load(1, XDATA, add(CFA_XSP16, literal(-11)))
          CFI V4 load(1, XDATA, add(CFA_XSP16, literal(-12)))
          CFI V3 load(1, XDATA, add(CFA_XSP16, literal(-13)))
          CFI V2 load(1, XDATA, add(CFA_XSP16, literal(-14)))
          CFI V1 load(1, XDATA, add(CFA_XSP16, literal(-15)))
          CFI V0 load(1, XDATA, add(CFA_XSP16, literal(-16)))
          CFI VB load(1, XDATA, add(CFA_XSP16, literal(-17)))
          CFI R6 load(1, XDATA, add(CFA_XSP16, literal(-18)))
          CFI CFA_SP SP+0
          CFI CFA_XSP16 add(XSP16, 18)
        ; Saved register size: 18
        ; Auto size: 16
        MOV     A,#-0x10
        LCALL   ?ALLOC_XSTACK8
          CFI CFA_XSP16 add(XSP16, 34)
        MOV     ?V8,R2
        MOV     ?V9,R3
        MOV     ?V2,R1
        MOV     A,R4
        MOV     R6,A
        MOV     A,R5
        MOV     R7,A
// 2128   uint8 i;
// 2129   uint8 tempKey[SEC_KEY_LEN];
// 2130   
// 2131   if((key != NULL) && (extAddr != NULL))
        MOV     A,R6
        ORL     A,R7
        JNZ     $+5
        LJMP    ??ZDSecMgrGenerateKeyFromSeed_0 & 0xFFFF
        MOV     A,R2
        ORL     A,?V9
        JNZ     $+5
        LJMP    ??ZDSecMgrGenerateKeyFromSeed_0 & 0xFFFF
// 2132   {
// 2133     //Read the key
// 2134     osal_nv_read(ZCD_NV_TCLK_SEED,0,SEC_KEY_LEN,tempKey);
        ; Setup parameters for call to function osal_nv_read
        MOV     R0,?XSP + 0
        MOV     R1,?XSP + 1
        MOV     ?V0,R0
        MOV     ?V1,R1
        MOV     R0,#?V0
        LCALL   ?PUSH_XSTACK_I_TWO
          CFI CFA_XSP16 add(XSP16, 36)
        MOV     ?V0,#0x10
        MOV     ?V1,#0x0
        MOV     R0,#?V0
        LCALL   ?PUSH_XSTACK_I_TWO
          CFI CFA_XSP16 add(XSP16, 38)
        MOV     R4,#0x0
        MOV     R5,#0x0
        MOV     R2,#0x1
        MOV     R3,#0x1
        LCALL   `??osal_nv_read::?relay`; Banked call to: osal_nv_read
        MOV     A,#0x4
        LCALL   ?DEALLOC_XSTACK8
          CFI CFA_XSP16 add(XSP16, 34)
// 2135 
// 2136     //shift the seed
// 2137     osal_memcpy(key, &tempKey[shift], SEC_KEY_LEN - shift);
        MOV     ?V0,?V2
        ; Setup parameters for call to function osal_memcpy
        MOV     DPL,?XSP + 0
        MOV     DPH,?XSP + 1
        MOV     A,DPL
        ADD     A,?V0
        MOV     ?V4,A
        CLR     A
        ADDC    A,DPH
        MOV     ?V5,A
        MOV     ?V6,#0x0
        MOV     R0,#?V4
        LCALL   ?PUSH_XSTACK_I_THREE
          CFI CFA_XSP16 add(XSP16, 37)
        MOV     A,#0x10
        CLR     C
        SUBB    A,?V0
        MOV     R4,A
        SUBB    A,0xE0 /* A   */
        MOV     R5,A
        MOV     A,R6
        MOV     R2,A
        MOV     A,R7
        MOV     R3,A
        LCALL   `??osal_memcpy::?relay`; Banked call to: osal_memcpy
        MOV     A,#0x3
        LCALL   ?DEALLOC_XSTACK8
          CFI CFA_XSP16 add(XSP16, 34)
// 2138     osal_memcpy(&key[SEC_KEY_LEN - shift], tempKey, shift);
        ; Setup parameters for call to function osal_memcpy
        MOV     R0,?XSP + 0
        MOV     R1,?XSP + 1
        MOV     ?V4,R0
        MOV     ?V5,R1
        MOV     R0,#?V4
        LCALL   ?PUSH_XSTACK_I_THREE
          CFI CFA_XSP16 add(XSP16, 37)
        MOV     R4,?V2
        MOV     R5,#0x0
        CLR     C
        CLR     A
        SUBB    A,?V0
        MOV     R0,A
        SUBB    A,0xE0 /* A   */
        MOV     R1,A
        MOV     A,R6
        ADD     A,R0
        MOV     R0,A
        MOV     A,R7
        ADDC    A,R1
        MOV     R1,A
        MOV     A,R0
        ADD     A,#0x10
        MOV     R2,A
        CLR     A
        ADDC    A,R1
        MOV     R3,A
        LCALL   `??osal_memcpy::?relay`; Banked call to: osal_memcpy
        MOV     A,#0x3
        LCALL   ?DEALLOC_XSTACK8
          CFI CFA_XSP16 add(XSP16, 34)
// 2139    
// 2140     //Create the key from the seed
// 2141     for(i = 0; i < Z_EXTADDR_LEN; i++)
        MOV     R4,#0x0
// 2142     {
// 2143       key[i] ^= extAddr[i];
??ZDSecMgrGenerateKeyFromSeed_1:
        MOV     A,R4
        MOV     R0,A
        MOV     A,?V8
        ADD     A,R0
        MOV     R2,A
        CLR     A
        ADDC    A,?V9
        MOV     R3,A
        MOV     A,R6
        ADD     A,R0
        MOV     R0,A
        CLR     A
        ADDC    A,R7
        MOV     R1,A
        MOV     DPL,R2
        MOV     DPH,R3
        MOVX    A,@DPTR
        MOV     R5,A
        MOV     DPL,R0
        MOV     DPH,R1
        MOVX    A,@DPTR
        XRL     A,R5
        LCALL   ?Subroutine24 & 0xFFFF
// 2144       key[i+Z_EXTADDR_LEN] ^= extAddr[i];
// 2145     }
??CrossCallReturnLabel_24:
        MOV     R2,A
        MOV     DPL,R0
        MOV     DPH,R1
        INC     DPTR
        INC     DPTR
        INC     DPTR
        INC     DPTR
        INC     DPTR
        INC     DPTR
        INC     DPTR
        INC     DPTR
        MOVX    A,@DPTR
        XRL     A,R2
        MOVX    @DPTR,A
        INC     R4
        MOV     A,R4
        CLR     C
        SUBB    A,#0x8
        JC      ??ZDSecMgrGenerateKeyFromSeed_1
// 2146   }
// 2147 }
??ZDSecMgrGenerateKeyFromSeed_0:
        MOV     A,#0x10
        LJMP    ?Subroutine6 & 0xFFFF
          CFI EndBlock cfiBlock372

        RSEG BANKED_CODE:CODE:NOROOT(0)
?Subroutine24:
          CFI Block cfiCond373 Using cfiCommon0
          CFI Function ZDSecMgrDeviceJoinFwd
          CFI Conditional ??CrossCallReturnLabel_22
          CFI R6 load(1, XDATA, add(CFA_XSP16, literal(-10)))
          CFI VB load(1, XDATA, add(CFA_XSP16, literal(-9)))
          CFI V0 load(1, XDATA, add(CFA_XSP16, literal(-8)))
          CFI V1 load(1, XDATA, add(CFA_XSP16, literal(-7)))
          CFI R7 load(1, XDATA, add(CFA_XSP16, literal(-6)))
          CFI ?RET_LOW load(1, XDATA, add(CFA_XSP16, literal(-5)))
          CFI ?RET_HIGH load(1, XDATA, add(CFA_XSP16, literal(-4)))
          CFI ?BRET_EXT load(1, XDATA, add(CFA_XSP16, literal(-3)))
          CFI DPL0 load(1, XDATA, add(CFA_XSP16, literal(-2)))
          CFI DPH0 load(1, XDATA, add(CFA_XSP16, literal(-1)))
          CFI CFA_SP SP+-2
          CFI CFA_XSP16 add(XSP16, 27)
          CFI Block cfiCond374 Using cfiCommon0
          CFI (cfiCond374) Function ZDSecMgrDeviceJoinFwd
          CFI (cfiCond374) Conditional ??CrossCallReturnLabel_23
          CFI (cfiCond374) R6 load(1, XDATA, add(CFA_XSP16, literal(-10)))
          CFI (cfiCond374) VB load(1, XDATA, add(CFA_XSP16, literal(-9)))
          CFI (cfiCond374) V0 load(1, XDATA, add(CFA_XSP16, literal(-8)))
          CFI (cfiCond374) V1 load(1, XDATA, add(CFA_XSP16, literal(-7)))
          CFI (cfiCond374) R7 load(1, XDATA, add(CFA_XSP16, literal(-6)))
          CFI (cfiCond374) ?RET_LOW load(1, XDATA, add(CFA_XSP16, literal(-5)))
          CFI (cfiCond374) ?RET_HIGH load(1, XDATA, add(CFA_XSP16, literal(-4)))
          CFI (cfiCond374) ?BRET_EXT load(1, XDATA, add(CFA_XSP16, literal(-3)))
          CFI (cfiCond374) DPL0 load(1, XDATA, add(CFA_XSP16, literal(-2)))
          CFI (cfiCond374) DPH0 load(1, XDATA, add(CFA_XSP16, literal(-1)))
          CFI (cfiCond374) CFA_SP SP+-2
          CFI (cfiCond374) CFA_XSP16 add(XSP16, 27)
          CFI Block cfiCond375 Using cfiCommon0
          CFI (cfiCond375) Function ZDSecMgrGenerateKeyFromSeed
          CFI (cfiCond375) Conditional ??CrossCallReturnLabel_24
          CFI (cfiCond375) R6 load(1, XDATA, add(CFA_XSP16, literal(-18)))
          CFI (cfiCond375) VB load(1, XDATA, add(CFA_XSP16, literal(-17)))
          CFI (cfiCond375) V0 load(1, XDATA, add(CFA_XSP16, literal(-16)))
          CFI (cfiCond375) V1 load(1, XDATA, add(CFA_XSP16, literal(-15)))
          CFI (cfiCond375) V2 load(1, XDATA, add(CFA_XSP16, literal(-14)))
          CFI (cfiCond375) V3 load(1, XDATA, add(CFA_XSP16, literal(-13)))
          CFI (cfiCond375) V4 load(1, XDATA, add(CFA_XSP16, literal(-12)))
          CFI (cfiCond375) V5 load(1, XDATA, add(CFA_XSP16, literal(-11)))
          CFI (cfiCond375) V6 load(1, XDATA, add(CFA_XSP16, literal(-10)))
          CFI (cfiCond375) V7 load(1, XDATA, add(CFA_XSP16, literal(-9)))
          CFI (cfiCond375) V8 load(1, XDATA, add(CFA_XSP16, literal(-8)))
          CFI (cfiCond375) V9 load(1, XDATA, add(CFA_XSP16, literal(-7)))
          CFI (cfiCond375) R7 load(1, XDATA, add(CFA_XSP16, literal(-6)))
          CFI (cfiCond375) ?RET_LOW load(1, XDATA, add(CFA_XSP16, literal(-5)))
          CFI (cfiCond375) ?RET_HIGH load(1, XDATA, add(CFA_XSP16, literal(-4)))
          CFI (cfiCond375) ?BRET_EXT load(1, XDATA, add(CFA_XSP16, literal(-3)))
          CFI (cfiCond375) DPL0 load(1, XDATA, add(CFA_XSP16, literal(-2)))
          CFI (cfiCond375) DPH0 load(1, XDATA, add(CFA_XSP16, literal(-1)))
          CFI (cfiCond375) CFA_SP SP+-2
          CFI (cfiCond375) CFA_XSP16 add(XSP16, 34)
          CFI Block cfiPicker376 Using cfiCommon1
          CFI (cfiPicker376) NoFunction
          CFI (cfiPicker376) Picker
        MOVX    @DPTR,A
        ; Setup parameters for call to function AssocGetWithShort
        MOV     DPL,R2
        MOV     DPH,R3
        MOVX    A,@DPTR
        RET
          CFI EndBlock cfiCond373
          CFI EndBlock cfiCond374
          CFI EndBlock cfiCond375
          CFI EndBlock cfiPicker376
// 2148 
// 2149 
// 2150 /******************************************************************************
// 2151  * @fn          ZDSecMgrGenerateRndKey
// 2152  *
// 2153 * @brief       Generate a random key. NOTE: Random key is generated by osal_rand, refer to osal_rand to see the random properties of the key generated by this mean.
// 2154  *
// 2155  * @param       pKey - [out] Buffer pointer in which the key will be passed.
// 2156  *
// 2157  * @return      none
// 2158  */

        RSEG BANKED_CODE:CODE:NOROOT(0)
// 2159 void ZDSecMgrGenerateRndKey(uint8* pKey)
ZDSecMgrGenerateRndKey:
          CFI Block cfiBlock377 Using cfiCommon0
          CFI Function ZDSecMgrGenerateRndKey
        CODE
// 2160 {
        FUNCALL ZDSecMgrGenerateRndKey, osal_rand
        LOCFRAME ISTACK, 0, STACK
        LOCFRAME PSTACK, 0, STACK
        LOCFRAME XSTACK, 12, STACK
        LOCFRAME IOVERLAY, 0, STATIC
        LOCFRAME DOVERLAY, 0, STATIC
        ARGFRAME ISTACK, 0, STACK
        ARGFRAME PSTACK, 0, STACK
        ARGFRAME XSTACK, 12, STACK
        ARGFRAME IOVERLAY, 0, STATIC
        ARGFRAME DOVERLAY, 0, STATIC
        REQUIRE ?V0
        REQUIRE ?V2
        REQUIRE ?V3
        MOV     A,#-0xc
        LCALL   ?BANKED_ENTER_XDATA
          CFI DPH0 load(1, XDATA, add(CFA_XSP16, literal(-1)))
          CFI DPL0 load(1, XDATA, add(CFA_XSP16, literal(-2)))
          CFI ?BRET_EXT load(1, XDATA, add(CFA_XSP16, literal(-3)))
          CFI ?RET_HIGH load(1, XDATA, add(CFA_XSP16, literal(-4)))
          CFI ?RET_LOW load(1, XDATA, add(CFA_XSP16, literal(-5)))
          CFI R7 load(1, XDATA, add(CFA_XSP16, literal(-6)))
          CFI V3 load(1, XDATA, add(CFA_XSP16, literal(-7)))
          CFI V2 load(1, XDATA, add(CFA_XSP16, literal(-8)))
          CFI V1 load(1, XDATA, add(CFA_XSP16, literal(-9)))
          CFI V0 load(1, XDATA, add(CFA_XSP16, literal(-10)))
          CFI VB load(1, XDATA, add(CFA_XSP16, literal(-11)))
          CFI R6 load(1, XDATA, add(CFA_XSP16, literal(-12)))
          CFI CFA_SP SP+0
          CFI CFA_XSP16 add(XSP16, 12)
        ; Saved register size: 12
        ; Auto size: 0
        MOV     A,R2
        MOV     R6,A
        MOV     A,R3
        MOV     R7,A
// 2161   uint16  temp;
// 2162   uint8   index = 0;
        MOV     ?V0,#0x0
// 2163   
// 2164   while(index < (SEC_KEY_LEN/2))
// 2165   {
// 2166     temp = osal_rand();
??ZDSecMgrGenerateRndKey_0:
        ; Setup parameters for call to function osal_rand
        LCALL   `??osal_rand::?relay`; Banked call to: osal_rand
        MOV     ?V2,R2
        MOV     ?V3,R3
// 2167     pKey[index*2]   = (uint8) (temp & 0x00FF);
        MOV     R2,?V0
        MOV     A,R2
        ADD     A,R2
        MOV     R2,A
        CLR     A
        RLC     A
        MOV     R3,A
        MOV     A,R6
        ADD     A,R2
        MOV     DPL,A
        MOV     A,R7
        ADDC    A,R3
        MOV     DPH,A
        MOV     A,?V2
        MOVX    @DPTR,A
// 2168     pKey[index*2+1] = (uint8) ((temp >> 8) & 0x00FF);
        INC     DPTR
        MOV     A,?V3
        MOVX    @DPTR,A
// 2169     index++;
        INC     ?V0
// 2170   }
        MOV     A,?V0
        CLR     C
        SUBB    A,#0x8
        JC      ??ZDSecMgrGenerateRndKey_0
// 2171 }
        LJMP    ??Subroutine75_0 & 0xFFFF
          CFI EndBlock cfiBlock377
// 2172 
// 2173 
// 2174 #if ( ZG_BUILD_COORDINATOR_TYPE )
// 2175 /******************************************************************************
// 2176  * @fn          ZDSecMgrUpdateNwkKey
// 2177  *
// 2178  * @brief       Load a new NWK key and trigger a network update to the dstAddr.
// 2179  *
// 2180  * @param       key       - [in] new NWK key
// 2181  * @param       keySeqNum - [in] new NWK key sequence number
// 2182  *
// 2183  * @return      ZStatus_t
// 2184  */
// 2185 ZStatus_t ZDSecMgrUpdateNwkKey( uint8* key, uint8 keySeqNum, uint16 dstAddr )
// 2186 {
// 2187   ZStatus_t               status;
// 2188   APSME_TransportKeyReq_t req;
// 2189 
// 2190   // initialize common elements of local variables
// 2191   req.keyType   = KEY_TYPE_NWK;
// 2192 
// 2193   req.dstAddr   = dstAddr;
// 2194   req.keySeqNum = keySeqNum;
// 2195   req.key       = key;
// 2196   req.extAddr   = NULL;
// 2197   req.nwkSecure = TRUE;
// 2198   req.tunnel    = NULL;
// 2199 
// 2200   if ( ZG_CHECK_SECURITY_MODE == ZG_SECURITY_SE_STANDARD )
// 2201   {
// 2202     // Broadcast transport NWK key
// 2203     if (( dstAddr == NWK_BROADCAST_SHORTADDR_DEVALL ) ||
// 2204         ( dstAddr == NWK_BROADCAST_SHORTADDR_DEVZCZR) ||
// 2205         ( dstAddr == NWK_BROADCAST_SHORTADDR_DEVRXON))
// 2206     {
// 2207       req.apsSecure = FALSE;
// 2208       status = APSME_TransportKeyReq( &req );
// 2209     }
// 2210     else
// 2211     {
// 2212       AddrMgrEntry_t          addrEntry;
// 2213 
// 2214       addrEntry.user = ADDRMGR_USER_SECURITY;
// 2215       addrEntry.nwkAddr = dstAddr;
// 2216 
// 2217       status = ZFailure;
// 2218 
// 2219       if ( AddrMgrEntryLookupNwk( &addrEntry ) == TRUE )
// 2220       {
// 2221         req.extAddr = addrEntry.extAddr;
// 2222         req.apsSecure = TRUE;
// 2223         status = APSME_TransportKeyReq( &req );
// 2224       }
// 2225     }
// 2226   }
// 2227   else // ( ZG_CHECK_SECURITY_MODE == ZG_SECURITY_RESIDENTIAL )
// 2228   {
// 2229     req.apsSecure = FALSE;
// 2230     status = APSME_TransportKeyReq( &req );
// 2231   }
// 2232 
// 2233   SSP_UpdateNwkKey( key, keySeqNum );
// 2234 
// 2235   // Save if nv
// 2236   ZDApp_NVUpdate();
// 2237 
// 2238   return status;
// 2239 }
// 2240 #endif // ( ZG_BUILD_COORDINATOR_TYPE )
// 2241 
// 2242 #if ( ZG_BUILD_COORDINATOR_TYPE )
// 2243 /******************************************************************************
// 2244  * @fn          ZDSecMgrSwitchNwkKey
// 2245  *
// 2246  * @brief       Causes the NWK key to switch via a network command to the dstAddr.
// 2247  *
// 2248  * @param       keySeqNum - [in] new NWK key sequence number
// 2249  *
// 2250  * @return      ZStatus_t
// 2251  */
// 2252 ZStatus_t ZDSecMgrSwitchNwkKey( uint8 keySeqNum, uint16 dstAddr )
// 2253 {
// 2254   ZStatus_t            status;
// 2255   APSME_SwitchKeyReq_t req;
// 2256 
// 2257   // initialize common elements of local variables
// 2258   req.dstAddr = dstAddr;
// 2259   req.keySeqNum = keySeqNum;
// 2260 
// 2261   if ( ZG_CHECK_SECURITY_MODE == ZG_SECURITY_SE_STANDARD )
// 2262   {
// 2263     // Broadcast switch NWK key
// 2264     if (( dstAddr == NWK_BROADCAST_SHORTADDR_DEVALL ) ||
// 2265         ( dstAddr == NWK_BROADCAST_SHORTADDR_DEVZCZR) ||
// 2266         ( dstAddr == NWK_BROADCAST_SHORTADDR_DEVRXON))
// 2267     {
// 2268       req.apsSecure = FALSE;
// 2269       status = APSME_SwitchKeyReq( &req );
// 2270     }
// 2271     else
// 2272     {
// 2273       AddrMgrEntry_t          addrEntry;
// 2274 
// 2275       addrEntry.user = ADDRMGR_USER_SECURITY;
// 2276       addrEntry.nwkAddr = dstAddr;
// 2277 
// 2278       status = ZFailure;
// 2279 
// 2280       if ( AddrMgrEntryLookupNwk( &addrEntry ) == TRUE )
// 2281       {
// 2282         req.dstAddr = addrEntry.nwkAddr;
// 2283         req.apsSecure = TRUE;
// 2284         status = APSME_SwitchKeyReq( &req );
// 2285       }
// 2286     }
// 2287   }
// 2288   else // ( ZG_CHECK_SECURITY_MODE == ZG_SECURITY_RESIDENTIAL )
// 2289   {
// 2290     req.apsSecure = FALSE;
// 2291     status = APSME_SwitchKeyReq( &req );
// 2292   }
// 2293 
// 2294   if ( dstAddr >= NWK_BROADCAST_SHORTADDR_DEVZCZR)
// 2295   {
// 2296     zgSwitchCoordKey = TRUE;
// 2297     zgSwitchCoordKeyIndex = keySeqNum;
// 2298   }
// 2299   // Save if nv
// 2300   ZDApp_NVUpdate();
// 2301 
// 2302   return status;
// 2303 }
// 2304 #endif // ( ZG_BUILD_COORDINATOR_TYPE )
// 2305 
// 2306 /******************************************************************************
// 2307  * @fn          ZDSecMgrRequestAppKey
// 2308  *
// 2309  * @brief       Request an application key with partner.
// 2310  *
// 2311  * @param       partExtAddr - [in] partner extended address
// 2312  *
// 2313  * @return      ZStatus_t
// 2314  */

        RSEG BANKED_CODE:CODE:NOROOT(0)
// 2315 ZStatus_t ZDSecMgrRequestAppKey( uint8 *partExtAddr )
ZDSecMgrRequestAppKey:
          CFI Block cfiBlock378 Using cfiCommon0
          CFI Function ZDSecMgrRequestAppKey
        CODE
// 2316 {
        FUNCALL ZDSecMgrRequestAppKey, APSME_RequestKeyReq
        LOCFRAME ISTACK, 2, STACK
        LOCFRAME PSTACK, 0, STACK
        LOCFRAME XSTACK, 4, STACK
        LOCFRAME IOVERLAY, 0, STATIC
        LOCFRAME DOVERLAY, 0, STATIC
        ARGFRAME ISTACK, 2, STACK
        ARGFRAME PSTACK, 0, STACK
        ARGFRAME XSTACK, 4, STACK
        ARGFRAME IOVERLAY, 0, STATIC
        ARGFRAME DOVERLAY, 0, STATIC
        PUSH    DPL
          CFI DPL0 Frame(CFA_SP, 4)
          CFI CFA_SP SP+-4
        PUSH    DPH
          CFI DPH0 Frame(CFA_SP, 5)
          CFI CFA_SP SP+-5
        ; Saved register size: 2
        ; Auto size: 4
        MOV     A,#-0x4
        LCALL   ?ALLOC_XSTACK8
          CFI CFA_XSP16 add(XSP16, 4)
// 2317   ZStatus_t status;
// 2318   APSME_RequestKeyReq_t req;
// 2319 
// 2320   req.dstAddr = 0;
        MOV     DPL,?XSP + 0
        MOV     DPH,?XSP + 1
        CLR     A
        MOVX    @DPTR,A
// 2321   req.keyType = KEY_TYPE_APP_MASTER;
        INC     A
        LCALL   ?XSTACK_DISP0_8
        MOV     A,#0x2
        MOVX    @DPTR,A
// 2322 
// 2323   req.partExtAddr = partExtAddr;
        LCALL   ?XSTACK_DISP0_8
        LCALL   ?Subroutine18 & 0xFFFF
// 2324   status = APSME_RequestKeyReq( &req );
// 2325 
// 2326   return status;
??CrossCallReturnLabel_188:
        LCALL   `??APSME_RequestKeyReq::?relay`; Banked call to: APSME_RequestKeyReq
        MOV     A,#0x4
        LJMP    ??Subroutine64_0 & 0xFFFF
// 2327 }
          CFI EndBlock cfiBlock378
// 2328 
// 2329 #if ( ZG_BUILD_JOINING_TYPE )
// 2330 /******************************************************************************
// 2331  * @fn          ZDSecMgrSetupPartner
// 2332  *
// 2333  * @brief       Setup for application key partner.
// 2334  *
// 2335  * @param       partNwkAddr - [in] partner network address
// 2336  *
// 2337  * @return      ZStatus_t
// 2338  */

        RSEG BANKED_CODE:CODE:NOROOT(0)
// 2339 ZStatus_t ZDSecMgrSetupPartner( uint16 partNwkAddr, uint8* partExtAddr )
ZDSecMgrSetupPartner:
          CFI Block cfiBlock379 Using cfiCommon0
          CFI Function ZDSecMgrSetupPartner
        CODE
// 2340 {
        FUNCALL ZDSecMgrSetupPartner, AddrMgrExtAddrSet
        LOCFRAME ISTACK, 0, STACK
        LOCFRAME PSTACK, 0, STACK
        LOCFRAME XSTACK, 25, STACK
        LOCFRAME IOVERLAY, 0, STATIC
        LOCFRAME DOVERLAY, 0, STATIC
        ARGFRAME ISTACK, 0, STACK
        ARGFRAME PSTACK, 0, STACK
        ARGFRAME XSTACK, 25, STACK
        ARGFRAME IOVERLAY, 0, STATIC
        ARGFRAME DOVERLAY, 0, STATIC
        FUNCALL ZDSecMgrSetupPartner, AddrMgrEntryUpdate
        LOCFRAME ISTACK, 0, STACK
        LOCFRAME PSTACK, 0, STACK
        LOCFRAME XSTACK, 25, STACK
        LOCFRAME IOVERLAY, 0, STATIC
        LOCFRAME DOVERLAY, 0, STATIC
        ARGFRAME ISTACK, 0, STACK
        ARGFRAME PSTACK, 0, STACK
        ARGFRAME XSTACK, 25, STACK
        ARGFRAME IOVERLAY, 0, STATIC
        ARGFRAME DOVERLAY, 0, STATIC
        FUNCALL ZDSecMgrSetupPartner, ZDP_NwkAddrReq
        LOCFRAME ISTACK, 0, STACK
        LOCFRAME PSTACK, 0, STACK
        LOCFRAME XSTACK, 25, STACK
        LOCFRAME IOVERLAY, 0, STATIC
        LOCFRAME DOVERLAY, 0, STATIC
        ARGFRAME ISTACK, 0, STACK
        ARGFRAME PSTACK, 0, STACK
        ARGFRAME XSTACK, 25, STACK
        ARGFRAME IOVERLAY, 0, STATIC
        ARGFRAME DOVERLAY, 0, STATIC
        FUNCALL ZDSecMgrSetupPartner, AddrMgrExtAddrValid
        LOCFRAME ISTACK, 0, STACK
        LOCFRAME PSTACK, 0, STACK
        LOCFRAME XSTACK, 25, STACK
        LOCFRAME IOVERLAY, 0, STATIC
        LOCFRAME DOVERLAY, 0, STATIC
        ARGFRAME ISTACK, 0, STACK
        ARGFRAME PSTACK, 0, STACK
        ARGFRAME XSTACK, 25, STACK
        ARGFRAME IOVERLAY, 0, STATIC
        ARGFRAME DOVERLAY, 0, STATIC
        FUNCALL ZDSecMgrSetupPartner, ZDP_IEEEAddrReq
        LOCFRAME ISTACK, 0, STACK
        LOCFRAME PSTACK, 0, STACK
        LOCFRAME XSTACK, 25, STACK
        LOCFRAME IOVERLAY, 0, STATIC
        LOCFRAME DOVERLAY, 0, STATIC
        ARGFRAME ISTACK, 0, STACK
        ARGFRAME PSTACK, 0, STACK
        ARGFRAME XSTACK, 25, STACK
        ARGFRAME IOVERLAY, 0, STATIC
        ARGFRAME DOVERLAY, 0, STATIC
        REQUIRE ?V0
        REQUIRE ?V2
        REQUIRE ?V3
        MOV     A,#-0xc
        LCALL   ?BANKED_ENTER_XDATA
          CFI DPH0 load(1, XDATA, add(CFA_XSP16, literal(-1)))
          CFI DPL0 load(1, XDATA, add(CFA_XSP16, literal(-2)))
          CFI ?BRET_EXT load(1, XDATA, add(CFA_XSP16, literal(-3)))
          CFI ?RET_HIGH load(1, XDATA, add(CFA_XSP16, literal(-4)))
          CFI ?RET_LOW load(1, XDATA, add(CFA_XSP16, literal(-5)))
          CFI R7 load(1, XDATA, add(CFA_XSP16, literal(-6)))
          CFI V3 load(1, XDATA, add(CFA_XSP16, literal(-7)))
          CFI V2 load(1, XDATA, add(CFA_XSP16, literal(-8)))
          CFI V1 load(1, XDATA, add(CFA_XSP16, literal(-9)))
          CFI V0 load(1, XDATA, add(CFA_XSP16, literal(-10)))
          CFI VB load(1, XDATA, add(CFA_XSP16, literal(-11)))
          CFI R6 load(1, XDATA, add(CFA_XSP16, literal(-12)))
          CFI CFA_SP SP+0
          CFI CFA_XSP16 add(XSP16, 12)
        ; Saved register size: 12
        ; Auto size: 13
        MOV     A,#-0xd
        LCALL   ?ALLOC_XSTACK8
          CFI CFA_XSP16 add(XSP16, 25)
        MOV     ?V2,R2
        MOV     ?V3,R3
        MOV     A,R4
        MOV     R6,A
        MOV     A,R5
        MOV     R7,A
// 2341   AddrMgrEntry_t entry;
// 2342   ZStatus_t      status;
// 2343 
// 2344   status = ZFailure;
        MOV     ?V0,#0x1
// 2345 
// 2346   // update the address manager
// 2347   entry.user    = ADDRMGR_USER_SECURITY;
        MOV     DPL,?XSP + 0
        MOV     DPH,?XSP + 1
        MOV     A,#0x2
        MOVX    @DPTR,A
// 2348   entry.nwkAddr = partNwkAddr;
        DEC     A
        LCALL   ?XSTACK_DISP0_8
        LCALL   ?Subroutine15 & 0xFFFF
// 2349   AddrMgrExtAddrSet( entry.extAddr, partExtAddr );
??CrossCallReturnLabel_7:
        LCALL   ?XSTACK_DISP0_8
        MOV     R2,DPL
        MOV     R3,DPH
        LCALL   `??AddrMgrExtAddrSet::?relay`; Banked call to: AddrMgrExtAddrSet
// 2350 
// 2351   if ( AddrMgrEntryUpdate( &entry ) == TRUE )
        ; Setup parameters for call to function AddrMgrEntryUpdate
        MOV     R2,?XSP + 0
        MOV     R3,?XSP + 1
        LCALL   `??AddrMgrEntryUpdate::?relay`; Banked call to: AddrMgrEntryUpdate
        MOV     A,R1
        XRL     A,#0x1
        JNZ     ??ZDSecMgrSetupPartner_0
// 2352   {
// 2353     status = ZSuccess;
        MOV     ?V0,#0x0
// 2354 
// 2355     // check for address discovery
// 2356     if ( partNwkAddr == INVALID_NODE_ADDR )
        MOV     A,#-0x2
        XRL     A,?V2
        JNZ     ??ZDSecMgrSetupPartner_1
        MOV     A,#-0x1
        XRL     A,?V3
??ZDSecMgrSetupPartner_1:
        JNZ     ??ZDSecMgrSetupPartner_2
// 2357     {
// 2358       status = ZDP_NwkAddrReq( partExtAddr, ZDP_ADDR_REQTYPE_SINGLE, 0, 0 );
        ; Setup parameters for call to function ZDP_NwkAddrReq
        MOV     R5,#0x0
        MOV     R4,#0x0
        MOV     R1,#0x0
        MOV     A,R6
        MOV     R2,A
        MOV     A,R7
        MOV     R3,A
        LCALL   `??ZDP_NwkAddrReq::?relay`; Banked call to: ZDP_NwkAddrReq
        SJMP    ??ZDSecMgrSetupPartner_3
// 2359     }
// 2360     else if ( !AddrMgrExtAddrValid( partExtAddr ) )
??ZDSecMgrSetupPartner_2:
        ; Setup parameters for call to function AddrMgrExtAddrValid
        MOV     A,R6
        MOV     R2,A
        MOV     A,R7
        MOV     R3,A
        LCALL   `??AddrMgrExtAddrValid::?relay`; Banked call to: AddrMgrExtAddrValid
        MOV     A,R1
        JNZ     ??ZDSecMgrSetupPartner_0
// 2361     {
// 2362       status = ZDP_IEEEAddrReq( partNwkAddr, ZDP_ADDR_REQTYPE_SINGLE, 0, 0 );
        ; Setup parameters for call to function ZDP_IEEEAddrReq
        MOV     R5,#0x0
        MOV     R4,#0x0
        MOV     R1,#0x0
        MOV     R2,?V2
        MOV     R3,?V3
        LCALL   `??ZDP_IEEEAddrReq::?relay`; Banked call to: ZDP_IEEEAddrReq
??ZDSecMgrSetupPartner_3:
        MOV     A,R1
        MOV     ?V0,A
// 2363     }
// 2364   }
// 2365 
// 2366   return status;
??ZDSecMgrSetupPartner_0:
        MOV     R1,?V0
        MOV     A,#0xd
        LJMP    ?Subroutine3 & 0xFFFF
// 2367 }
          CFI EndBlock cfiBlock379
// 2368 #endif // ( ZG_BUILD_JOINING_TYPE )
// 2369 
// 2370 #if ( ZG_BUILD_COORDINATOR_TYPE )
// 2371 /******************************************************************************
// 2372  * @fn          ZDSecMgrAppKeyTypeSet
// 2373  *
// 2374  * @brief       Set application key type.
// 2375  *
// 2376  * @param       keyType - [in] application key type (KEY_TYPE_APP_MASTER@2 or
// 2377  *                                                   KEY_TYPE_APP_LINK@3
// 2378  *
// 2379  * @return      ZStatus_t
// 2380  */
// 2381 ZStatus_t ZDSecMgrAppKeyTypeSet( uint8 keyType )
// 2382 {
// 2383   if ( keyType == KEY_TYPE_APP_LINK )
// 2384   {
// 2385     ZDSecMgrAppKeyType = KEY_TYPE_APP_LINK;
// 2386   }
// 2387   else
// 2388   {
// 2389     ZDSecMgrAppKeyType = KEY_TYPE_APP_MASTER;
// 2390   }
// 2391 
// 2392   return ZSuccess;
// 2393 }
// 2394 #endif
// 2395 
// 2396 /******************************************************************************
// 2397  * ZigBee Device Security Manager - Stub Implementations
// 2398  */
// 2399 
// 2400 
// 2401 /******************************************************************************
// 2402  * @fn          ZDSecMgrLinkKeySet (stubs APSME_LinkKeySet)
// 2403  *
// 2404  * @brief       Set <APSME_LinkKeyData_t> for specified NWK address.
// 2405  *
// 2406  * @param       extAddr - [in] EXT address
// 2407  * @param       data    - [in] APSME_LinkKeyData_t
// 2408  *
// 2409  * @return      ZStatus_t
// 2410  */

        RSEG BANKED_CODE:CODE:NOROOT(0)
// 2411 ZStatus_t ZDSecMgrLinkKeySet( uint8* extAddr, uint8* key )
APSME_LinkKeySet:
          CFI Block cfiBlock380 Using cfiCommon0
          CFI Function APSME_LinkKeySet
        CODE
// 2412 {
        FUNCALL APSME_LinkKeySet, ZDSecMgrEntryLookupExtGetIndex
        LOCFRAME ISTACK, 0, STACK
        LOCFRAME PSTACK, 0, STACK
        LOCFRAME XSTACK, 21, STACK
        LOCFRAME IOVERLAY, 0, STATIC
        LOCFRAME DOVERLAY, 0, STATIC
        ARGFRAME ISTACK, 0, STACK
        ARGFRAME PSTACK, 0, STACK
        ARGFRAME XSTACK, 21, STACK
        ARGFRAME IOVERLAY, 0, STATIC
        ARGFRAME DOVERLAY, 0, STATIC
        FUNCALL APSME_LinkKeySet, osal_mem_alloc
        LOCFRAME ISTACK, 0, STACK
        LOCFRAME PSTACK, 0, STACK
        LOCFRAME XSTACK, 19, STACK
        LOCFRAME IOVERLAY, 0, STATIC
        LOCFRAME DOVERLAY, 0, STATIC
        ARGFRAME ISTACK, 0, STACK
        ARGFRAME PSTACK, 0, STACK
        ARGFRAME XSTACK, 19, STACK
        ARGFRAME IOVERLAY, 0, STATIC
        ARGFRAME DOVERLAY, 0, STATIC
        FUNCALL APSME_LinkKeySet, osal_nv_read
        LOCFRAME ISTACK, 0, STACK
        LOCFRAME PSTACK, 0, STACK
        LOCFRAME XSTACK, 23, STACK
        LOCFRAME IOVERLAY, 0, STATIC
        LOCFRAME DOVERLAY, 0, STATIC
        ARGFRAME ISTACK, 0, STACK
        ARGFRAME PSTACK, 0, STACK
        ARGFRAME XSTACK, 23, STACK
        ARGFRAME IOVERLAY, 0, STATIC
        ARGFRAME DOVERLAY, 0, STATIC
        FUNCALL APSME_LinkKeySet, osal_memcpy
        LOCFRAME ISTACK, 0, STACK
        LOCFRAME PSTACK, 0, STACK
        LOCFRAME XSTACK, 22, STACK
        LOCFRAME IOVERLAY, 0, STATIC
        LOCFRAME DOVERLAY, 0, STATIC
        ARGFRAME ISTACK, 0, STACK
        ARGFRAME PSTACK, 0, STACK
        ARGFRAME XSTACK, 22, STACK
        ARGFRAME IOVERLAY, 0, STATIC
        ARGFRAME DOVERLAY, 0, STATIC
        FUNCALL APSME_LinkKeySet, osal_nv_write
        LOCFRAME ISTACK, 0, STACK
        LOCFRAME PSTACK, 0, STACK
        LOCFRAME XSTACK, 23, STACK
        LOCFRAME IOVERLAY, 0, STATIC
        LOCFRAME DOVERLAY, 0, STATIC
        ARGFRAME ISTACK, 0, STACK
        ARGFRAME PSTACK, 0, STACK
        ARGFRAME XSTACK, 23, STACK
        ARGFRAME IOVERLAY, 0, STATIC
        ARGFRAME DOVERLAY, 0, STATIC
        FUNCALL APSME_LinkKeySet, osal_memset
        LOCFRAME ISTACK, 0, STACK
        LOCFRAME PSTACK, 0, STACK
        LOCFRAME XSTACK, 19, STACK
        LOCFRAME IOVERLAY, 0, STATIC
        LOCFRAME DOVERLAY, 0, STATIC
        ARGFRAME ISTACK, 0, STACK
        ARGFRAME PSTACK, 0, STACK
        ARGFRAME XSTACK, 19, STACK
        ARGFRAME IOVERLAY, 0, STATIC
        ARGFRAME DOVERLAY, 0, STATIC
        FUNCALL APSME_LinkKeySet, osal_mem_free
        LOCFRAME ISTACK, 0, STACK
        LOCFRAME PSTACK, 0, STACK
        LOCFRAME XSTACK, 19, STACK
        LOCFRAME IOVERLAY, 0, STATIC
        LOCFRAME DOVERLAY, 0, STATIC
        ARGFRAME ISTACK, 0, STACK
        ARGFRAME PSTACK, 0, STACK
        ARGFRAME XSTACK, 19, STACK
        ARGFRAME IOVERLAY, 0, STATIC
        ARGFRAME DOVERLAY, 0, STATIC
        REQUIRE ?V0
        REQUIRE ?V1
        REQUIRE ?V2
        REQUIRE ?V3
        REQUIRE ?V4
        REQUIRE ?V5
        REQUIRE ?V6
        MOV     A,#-0xf
        LCALL   ?BANKED_ENTER_XDATA
          CFI DPH0 load(1, XDATA, add(CFA_XSP16, literal(-1)))
          CFI DPL0 load(1, XDATA, add(CFA_XSP16, literal(-2)))
          CFI ?BRET_EXT load(1, XDATA, add(CFA_XSP16, literal(-3)))
          CFI ?RET_HIGH load(1, XDATA, add(CFA_XSP16, literal(-4)))
          CFI ?RET_LOW load(1, XDATA, add(CFA_XSP16, literal(-5)))
          CFI R7 load(1, XDATA, add(CFA_XSP16, literal(-6)))
          CFI V6 load(1, XDATA, add(CFA_XSP16, literal(-7)))
          CFI V5 load(1, XDATA, add(CFA_XSP16, literal(-8)))
          CFI V4 load(1, XDATA, add(CFA_XSP16, literal(-9)))
          CFI V3 load(1, XDATA, add(CFA_XSP16, literal(-10)))
          CFI V2 load(1, XDATA, add(CFA_XSP16, literal(-11)))
          CFI V1 load(1, XDATA, add(CFA_XSP16, literal(-12)))
          CFI V0 load(1, XDATA, add(CFA_XSP16, literal(-13)))
          CFI VB load(1, XDATA, add(CFA_XSP16, literal(-14)))
          CFI R6 load(1, XDATA, add(CFA_XSP16, literal(-15)))
          CFI CFA_SP SP+0
          CFI CFA_XSP16 add(XSP16, 15)
        ; Saved register size: 15
        ; Auto size: 4
        MOV     A,#-0x4
        LCALL   ?ALLOC_XSTACK8
          CFI CFA_XSP16 add(XSP16, 19)
        MOV     A,R4
        MOV     R6,A
        MOV     A,R5
        MOV     R7,A
// 2413   ZStatus_t status;
// 2414   ZDSecMgrEntry_t* entry;
// 2415   APSME_LinkKeyData_t *pApsLinkKey = NULL;
// 2416   uint16 Index;
// 2417 
// 2418   // lookup entry index for specified EXT address
// 2419   status = ZDSecMgrEntryLookupExtGetIndex( extAddr, &entry, &Index );
        ; Setup parameters for call to function ZDSecMgrEntryLookupExtGetIndex
        MOV     A,#0x2
        LCALL   ?XSTACK_DISP100_8
        MOV     ?V0,R0
        MOV     ?V1,R1
        MOV     R0,#?V0
        LCALL   ?PUSH_XSTACK_I_TWO
          CFI CFA_XSP16 add(XSP16, 21)
        MOV     A,#0x2
        LCALL   ?XSTACK_DISP102_8
        LCALL   `??ZDSecMgrEntryLookupExtGetIndex::?relay`; Banked call to: ZDSecMgrEntryLookupExtGetIndex
        MOV     A,#0x2
        LCALL   ?DEALLOC_XSTACK8
          CFI CFA_XSP16 add(XSP16, 19)
        MOV     A,R1
        MOV     ?V0,A
// 2420 
// 2421   if ( status == ZSuccess )
        JZ      $+5
        LJMP    ??CrossCallReturnLabel_168 & 0xFFFF
// 2422   {
// 2423     // point to NV item
// 2424     entry->keyNvId = ZCD_NV_APS_LINK_KEY_DATA_START + Index;
        MOV     A,#0x2
        LCALL   ?XSTACK_DISP0_8
        MOVX    A,@DPTR
        ADD     A,#0x1
        MOV     R0,A
        INC     DPTR
        MOVX    A,@DPTR
        ADDC    A,#0x2
        MOV     R1,A
        MOV     DPL,?XSP + 0
        MOV     DPH,?XSP + 1
        LCALL   ?Subroutine37 & 0xFFFF
??CrossCallReturnLabel_48:
        INC     DPTR
        INC     DPTR
        LCALL   ??Subroutine63_0 & 0xFFFF
// 2425 
// 2426     pApsLinkKey = (APSME_LinkKeyData_t *)osal_mem_alloc(sizeof(APSME_LinkKeyData_t));
??CrossCallReturnLabel_142:
        ; Setup parameters for call to function osal_mem_alloc
        MOV     R2,#0x18
        MOV     R3,#0x0
        LCALL   `??osal_mem_alloc::?relay`; Banked call to: osal_mem_alloc
        MOV     ?V2,R2
        MOV     ?V3,R3
// 2427 
// 2428     if (pApsLinkKey != NULL)
        MOV     A,R2
        ORL     A,?V3
        JNZ     $+5
        LJMP    ??CrossCallReturnLabel_168 & 0xFFFF
// 2429     {
// 2430       // read the key form NV, keyNvId must be ZCD_NV_APS_LINK_KEY_DATA_START based
// 2431       osal_nv_read( entry->keyNvId, 0,
// 2432                    sizeof(APSME_LinkKeyData_t), pApsLinkKey );
        ; Setup parameters for call to function osal_nv_read
        MOV     R0,#?V2
        LCALL   ?PUSH_XSTACK_I_TWO
          CFI CFA_XSP16 add(XSP16, 21)
        MOV     ?V4,#0x18
        MOV     ?V5,#0x0
        MOV     R0,#?V4
        LCALL   ?PUSH_XSTACK_I_TWO
          CFI CFA_XSP16 add(XSP16, 23)
        MOV     R4,#0x0
        MOV     R5,#0x0
        MOV     A,#0x4
        LCALL   ?XSTACK_DISP0_8
        LCALL   ?Subroutine27 & 0xFFFF
??CrossCallReturnLabel_123:
        LCALL   `??osal_nv_read::?relay`; Banked call to: osal_nv_read
        MOV     A,#0x4
        LCALL   ?DEALLOC_XSTACK8
          CFI CFA_XSP16 add(XSP16, 19)
// 2433 
// 2434       // set new values of the key
// 2435       osal_memcpy( pApsLinkKey->key, key, SEC_KEY_LEN );
        ; Setup parameters for call to function osal_memcpy
        MOV     ?V4,R6
        MOV     ?V5,R7
        MOV     ?V6,#0x0
        MOV     R0,#?V4
        LCALL   ?PUSH_XSTACK_I_THREE
          CFI CFA_XSP16 add(XSP16, 22)
        MOV     R4,#0x10
        MOV     R5,#0x0
        MOV     R2,?V2
        MOV     R3,?V3
        LCALL   `??osal_memcpy::?relay`; Banked call to: osal_memcpy
        MOV     A,#0x3
        LCALL   ?DEALLOC_XSTACK8
          CFI CFA_XSP16 add(XSP16, 19)
// 2436       pApsLinkKey->rxFrmCntr = 0;
        MOV     A,?V2
        ADD     A,#0x14
        LCALL   ?Subroutine26 & 0xFFFF
// 2437       pApsLinkKey->txFrmCntr = 0;
??CrossCallReturnLabel_169:
        MOV     A,?V2
        ADD     A,#0x10
        LCALL   ?Subroutine26 & 0xFFFF
// 2438 
// 2439       osal_nv_write( entry->keyNvId, 0,
// 2440                     sizeof(APSME_LinkKeyData_t), pApsLinkKey );
??CrossCallReturnLabel_170:
        ; Setup parameters for call to function osal_nv_write
        MOV     R0,#?V2
        LCALL   ?PUSH_XSTACK_I_TWO
          CFI CFA_XSP16 add(XSP16, 21)
        MOV     ?V4,#0x18
        MOV     ?V5,#0x0
        MOV     R0,#?V4
        LCALL   ?PUSH_XSTACK_I_TWO
          CFI CFA_XSP16 add(XSP16, 23)
        MOV     R4,#0x0
        MOV     R5,#0x0
        MOV     A,#0x4
        LCALL   ?XSTACK_DISP0_8
        LCALL   ?Subroutine27 & 0xFFFF
??CrossCallReturnLabel_124:
        LCALL   `??osal_nv_write::?relay`; Banked call to: osal_nv_write
        MOV     A,#0x4
        LCALL   ?DEALLOC_XSTACK8
          CFI CFA_XSP16 add(XSP16, 19)
// 2441 
// 2442       // clear copy of key in RAM
// 2443       osal_memset(pApsLinkKey, 0x00, sizeof(APSME_LinkKeyData_t));
        ; Setup parameters for call to function osal_memset
        MOV     R4,#0x18
        MOV     R5,#0x0
        MOV     R1,#0x0
        MOV     R2,?V2
        MOV     R3,?V3
        LCALL   `??osal_memset::?relay`; Banked call to: osal_memset
// 2444 
// 2445       osal_mem_free(pApsLinkKey);
        ; Setup parameters for call to function osal_mem_free
        MOV     R2,?V2
        MOV     R3,?V3
        LCALL   `??osal_mem_free::?relay`; Banked call to: osal_mem_free
        MOV     DPL,?XSP + 0
        MOV     DPH,?XSP + 1
        LCALL   ?Subroutine33 & 0xFFFF
// 2446 
// 2447       // set initial values for counters in RAM
// 2448       ApsLinkKeyFrmCntr[entry->keyNvId - ZCD_NV_APS_LINK_KEY_DATA_START].txFrmCntr = 0;
// 2449       ApsLinkKeyFrmCntr[entry->keyNvId - ZCD_NV_APS_LINK_KEY_DATA_START].rxFrmCntr = 0;
// 2450     }
// 2451   }
??CrossCallReturnLabel_37:
        INC     DPTR
        INC     DPTR
        LCALL   ??Subroutine74_0 & 0xFFFF
??CrossCallReturnLabel_177:
        MOV     A,R0
        MOV     B,#0x9
        MUL     AB
        MOV     R0,A
        MOV     R2,B
        MOV     B,#0x9
        MOV     A,R1
        MUL     AB
        ADD     A,R2
        MOV     R1,A
        MOV     A,#ApsLinkKeyFrmCntr & 0xff
        ADD     A,R0
        MOV     R2,A
        MOV     A,#(ApsLinkKeyFrmCntr >> 8) & 0xff
        ADDC    A,R1
        MOV     R3,A
        MOV     A,R2
        ADD     A,#-0x9
        MOV     DPL,A
        MOV     A,R3
        ADDC    A,#-0x13
        MOV     DPH,A
        LCALL   ?Subroutine25 & 0xFFFF
??CrossCallReturnLabel_26:
        ADD     A,#-0x5
        MOV     DPL,A
        MOV     A,R3
        ADDC    A,#-0x13
        LCALL   ??Subroutine67_0 & 0xFFFF
// 2452 
// 2453   return status;
??CrossCallReturnLabel_168:
        MOV     R1,?V0
        MOV     A,#0x4
          CFI EndBlock cfiBlock380
        REQUIRE ?Subroutine7
        ; // Fall through to label ?Subroutine7
// 2454 }

        RSEG BANKED_CODE:CODE:NOROOT(0)
?Subroutine7:
          CFI Block cfiBlock381 Using cfiCommon0
          CFI NoFunction
          CFI CFA_SP SP+0
          CFI CFA_XSP16 add(XSP16, 19)
          CFI VB load(1, XDATA, add(CFA_XSP16, literal(-14)))
          CFI DPL0 load(1, XDATA, add(CFA_XSP16, literal(-2)))
          CFI DPH0 load(1, XDATA, add(CFA_XSP16, literal(-1)))
          CFI R6 load(1, XDATA, add(CFA_XSP16, literal(-15)))
          CFI R7 load(1, XDATA, add(CFA_XSP16, literal(-6)))
          CFI V0 load(1, XDATA, add(CFA_XSP16, literal(-13)))
          CFI V1 load(1, XDATA, add(CFA_XSP16, literal(-12)))
          CFI V2 load(1, XDATA, add(CFA_XSP16, literal(-11)))
          CFI V3 load(1, XDATA, add(CFA_XSP16, literal(-10)))
          CFI V4 load(1, XDATA, add(CFA_XSP16, literal(-9)))
          CFI V5 load(1, XDATA, add(CFA_XSP16, literal(-8)))
          CFI V6 load(1, XDATA, add(CFA_XSP16, literal(-7)))
          CFI ?BRET_EXT load(1, XDATA, add(CFA_XSP16, literal(-3)))
          CFI ?RET_HIGH load(1, XDATA, add(CFA_XSP16, literal(-4)))
          CFI ?RET_LOW load(1, XDATA, add(CFA_XSP16, literal(-5)))
          CFI Invalid
        LCALL   ?DEALLOC_XSTACK8
          CFI EndBlock cfiBlock381
        REQUIRE ??Subroutine73_0
        ; // Fall through to label ??Subroutine73_0

        RSEG BANKED_CODE:CODE:NOROOT(0)
??Subroutine73_0:
          CFI Block cfiBlock382 Using cfiCommon0
          CFI NoFunction
          CFI CFA_SP SP+0
          CFI CFA_XSP16 add(XSP16, 15)
          CFI VB load(1, XDATA, add(CFA_XSP16, literal(-14)))
          CFI DPL0 load(1, XDATA, add(CFA_XSP16, literal(-2)))
          CFI DPH0 load(1, XDATA, add(CFA_XSP16, literal(-1)))
          CFI R6 load(1, XDATA, add(CFA_XSP16, literal(-15)))
          CFI R7 load(1, XDATA, add(CFA_XSP16, literal(-6)))
          CFI V0 load(1, XDATA, add(CFA_XSP16, literal(-13)))
          CFI V1 load(1, XDATA, add(CFA_XSP16, literal(-12)))
          CFI V2 load(1, XDATA, add(CFA_XSP16, literal(-11)))
          CFI V3 load(1, XDATA, add(CFA_XSP16, literal(-10)))
          CFI V4 load(1, XDATA, add(CFA_XSP16, literal(-9)))
          CFI V5 load(1, XDATA, add(CFA_XSP16, literal(-8)))
          CFI V6 load(1, XDATA, add(CFA_XSP16, literal(-7)))
          CFI ?BRET_EXT load(1, XDATA, add(CFA_XSP16, literal(-3)))
          CFI ?RET_HIGH load(1, XDATA, add(CFA_XSP16, literal(-4)))
          CFI ?RET_LOW load(1, XDATA, add(CFA_XSP16, literal(-5)))
        MOV     R7,#0x7
        LJMP    ?BANKED_LEAVE_XDATA
          CFI EndBlock cfiBlock382

        RSEG BANKED_CODE:CODE:NOROOT(0)
?Subroutine37:
          CFI Block cfiCond383 Using cfiCommon0
          CFI Function ZDSecMgrEntryLookupExtGetIndex
          CFI Conditional ??CrossCallReturnLabel_47
          CFI R6 load(1, XDATA, add(CFA_XSP16, literal(-9)))
          CFI VB load(1, XDATA, add(CFA_XSP16, literal(-8)))
          CFI V0 load(1, XDATA, add(CFA_XSP16, literal(-7)))
          CFI R7 load(1, XDATA, add(CFA_XSP16, literal(-6)))
          CFI ?RET_LOW load(1, XDATA, add(CFA_XSP16, literal(-5)))
          CFI ?RET_HIGH load(1, XDATA, add(CFA_XSP16, literal(-4)))
          CFI ?BRET_EXT load(1, XDATA, add(CFA_XSP16, literal(-3)))
          CFI DPL0 load(1, XDATA, add(CFA_XSP16, literal(-2)))
          CFI DPH0 load(1, XDATA, add(CFA_XSP16, literal(-1)))
          CFI CFA_SP SP+-2
          CFI CFA_XSP16 add(XSP16, 11)
          CFI Block cfiCond384 Using cfiCommon0
          CFI (cfiCond384) Function APSME_LinkKeySet
          CFI (cfiCond384) Conditional ??CrossCallReturnLabel_48
          CFI (cfiCond384) R6 load(1, XDATA, add(CFA_XSP16, literal(-15)))
          CFI (cfiCond384) VB load(1, XDATA, add(CFA_XSP16, literal(-14)))
          CFI (cfiCond384) V0 load(1, XDATA, add(CFA_XSP16, literal(-13)))
          CFI (cfiCond384) V1 load(1, XDATA, add(CFA_XSP16, literal(-12)))
          CFI (cfiCond384) V2 load(1, XDATA, add(CFA_XSP16, literal(-11)))
          CFI (cfiCond384) V3 load(1, XDATA, add(CFA_XSP16, literal(-10)))
          CFI (cfiCond384) V4 load(1, XDATA, add(CFA_XSP16, literal(-9)))
          CFI (cfiCond384) V5 load(1, XDATA, add(CFA_XSP16, literal(-8)))
          CFI (cfiCond384) V6 load(1, XDATA, add(CFA_XSP16, literal(-7)))
          CFI (cfiCond384) R7 load(1, XDATA, add(CFA_XSP16, literal(-6)))
          CFI (cfiCond384) ?RET_LOW load(1, XDATA, add(CFA_XSP16, literal(-5)))
          CFI (cfiCond384) ?RET_HIGH load(1, XDATA, add(CFA_XSP16, literal(-4)))
          CFI (cfiCond384) ?BRET_EXT load(1, XDATA, add(CFA_XSP16, literal(-3)))
          CFI (cfiCond384) DPL0 load(1, XDATA, add(CFA_XSP16, literal(-2)))
          CFI (cfiCond384) DPH0 load(1, XDATA, add(CFA_XSP16, literal(-1)))
          CFI (cfiCond384) CFA_SP SP+-2
          CFI (cfiCond384) CFA_XSP16 add(XSP16, 19)
          CFI Block cfiPicker385 Using cfiCommon1
          CFI (cfiPicker385) NoFunction
          CFI (cfiPicker385) Picker
        LCALL   ?Subroutine54 & 0xFFFF
??CrossCallReturnLabel_79:
        RET
          CFI EndBlock cfiCond383
          CFI EndBlock cfiCond384
          CFI EndBlock cfiPicker385

        RSEG BANKED_CODE:CODE:NOROOT(0)
?Subroutine54:
          CFI Block cfiCond386 Using cfiCommon0
          CFI Function ZDSecMgrTransportKeyInd
          CFI Conditional ??CrossCallReturnLabel_78, ??CrossCallReturnLabel_143
          CFI R6 load(1, XDATA, add(CFA_XSP16, literal(-14)))
          CFI VB load(1, XDATA, add(CFA_XSP16, literal(-13)))
          CFI V0 load(1, XDATA, add(CFA_XSP16, literal(-12)))
          CFI V1 load(1, XDATA, add(CFA_XSP16, literal(-11)))
          CFI V2 load(1, XDATA, add(CFA_XSP16, literal(-10)))
          CFI V3 load(1, XDATA, add(CFA_XSP16, literal(-9)))
          CFI V4 load(1, XDATA, add(CFA_XSP16, literal(-8)))
          CFI V5 load(1, XDATA, add(CFA_XSP16, literal(-7)))
          CFI R7 load(1, XDATA, add(CFA_XSP16, literal(-6)))
          CFI ?RET_LOW load(1, XDATA, add(CFA_XSP16, literal(-5)))
          CFI ?RET_HIGH load(1, XDATA, add(CFA_XSP16, literal(-4)))
          CFI ?BRET_EXT load(1, XDATA, add(CFA_XSP16, literal(-3)))
          CFI DPL0 load(1, XDATA, add(CFA_XSP16, literal(-2)))
          CFI DPH0 load(1, XDATA, add(CFA_XSP16, literal(-1)))
          CFI CFA_SP SP+-4
          CFI CFA_XSP16 add(XSP16, 54)
          CFI Block cfiCond387 Using cfiCommon0
          CFI (cfiCond387) Function ZDSecMgrAddLinkKey
          CFI (cfiCond387) Conditional ??CrossCallReturnLabel_78, ??CrossCallReturnLabel_144
          CFI (cfiCond387) R6 load(1, XDATA, add(CFA_XSP16, literal(-10)))
          CFI (cfiCond387) VB load(1, XDATA, add(CFA_XSP16, literal(-9)))
          CFI (cfiCond387) V0 load(1, XDATA, add(CFA_XSP16, literal(-8)))
          CFI (cfiCond387) V1 load(1, XDATA, add(CFA_XSP16, literal(-7)))
          CFI (cfiCond387) R7 load(1, XDATA, add(CFA_XSP16, literal(-6)))
          CFI (cfiCond387) ?RET_LOW load(1, XDATA, add(CFA_XSP16, literal(-5)))
          CFI (cfiCond387) ?RET_HIGH load(1, XDATA, add(CFA_XSP16, literal(-4)))
          CFI (cfiCond387) ?BRET_EXT load(1, XDATA, add(CFA_XSP16, literal(-3)))
          CFI (cfiCond387) DPL0 load(1, XDATA, add(CFA_XSP16, literal(-2)))
          CFI (cfiCond387) DPH0 load(1, XDATA, add(CFA_XSP16, literal(-1)))
          CFI (cfiCond387) CFA_SP SP+-4
          CFI (cfiCond387) CFA_XSP16 add(XSP16, 14)
          CFI Block cfiCond388 Using cfiCommon0
          CFI (cfiCond388) Function ZDSecMgrEntryLookupExtGetIndex
          CFI (cfiCond388) Conditional ??CrossCallReturnLabel_79, ??CrossCallReturnLabel_47
          CFI (cfiCond388) R6 load(1, XDATA, add(CFA_XSP16, literal(-9)))
          CFI (cfiCond388) VB load(1, XDATA, add(CFA_XSP16, literal(-8)))
          CFI (cfiCond388) V0 load(1, XDATA, add(CFA_XSP16, literal(-7)))
          CFI (cfiCond388) R7 load(1, XDATA, add(CFA_XSP16, literal(-6)))
          CFI (cfiCond388) ?RET_LOW load(1, XDATA, add(CFA_XSP16, literal(-5)))
          CFI (cfiCond388) ?RET_HIGH load(1, XDATA, add(CFA_XSP16, literal(-4)))
          CFI (cfiCond388) ?BRET_EXT load(1, XDATA, add(CFA_XSP16, literal(-3)))
          CFI (cfiCond388) DPL0 load(1, XDATA, add(CFA_XSP16, literal(-2)))
          CFI (cfiCond388) DPH0 load(1, XDATA, add(CFA_XSP16, literal(-1)))
          CFI (cfiCond388) CFA_SP SP+-4
          CFI (cfiCond388) CFA_XSP16 add(XSP16, 11)
          CFI Block cfiCond389 Using cfiCommon0
          CFI (cfiCond389) Function APSME_LinkKeySet
          CFI (cfiCond389) Conditional ??CrossCallReturnLabel_79, ??CrossCallReturnLabel_48
          CFI (cfiCond389) R6 load(1, XDATA, add(CFA_XSP16, literal(-15)))
          CFI (cfiCond389) VB load(1, XDATA, add(CFA_XSP16, literal(-14)))
          CFI (cfiCond389) V0 load(1, XDATA, add(CFA_XSP16, literal(-13)))
          CFI (cfiCond389) V1 load(1, XDATA, add(CFA_XSP16, literal(-12)))
          CFI (cfiCond389) V2 load(1, XDATA, add(CFA_XSP16, literal(-11)))
          CFI (cfiCond389) V3 load(1, XDATA, add(CFA_XSP16, literal(-10)))
          CFI (cfiCond389) V4 load(1, XDATA, add(CFA_XSP16, literal(-9)))
          CFI (cfiCond389) V5 load(1, XDATA, add(CFA_XSP16, literal(-8)))
          CFI (cfiCond389) V6 load(1, XDATA, add(CFA_XSP16, literal(-7)))
          CFI (cfiCond389) R7 load(1, XDATA, add(CFA_XSP16, literal(-6)))
          CFI (cfiCond389) ?RET_LOW load(1, XDATA, add(CFA_XSP16, literal(-5)))
          CFI (cfiCond389) ?RET_HIGH load(1, XDATA, add(CFA_XSP16, literal(-4)))
          CFI (cfiCond389) ?BRET_EXT load(1, XDATA, add(CFA_XSP16, literal(-3)))
          CFI (cfiCond389) DPL0 load(1, XDATA, add(CFA_XSP16, literal(-2)))
          CFI (cfiCond389) DPH0 load(1, XDATA, add(CFA_XSP16, literal(-1)))
          CFI (cfiCond389) CFA_SP SP+-4
          CFI (cfiCond389) CFA_XSP16 add(XSP16, 19)
          CFI Block cfiPicker390 Using cfiCommon1
          CFI (cfiPicker390) NoFunction
          CFI (cfiPicker390) Picker
        MOVX    A,@DPTR
        MOV     R2,A
        INC     DPTR
        MOVX    A,@DPTR
        MOV     DPH,A
        MOV     DPL,R2
        RET
          CFI EndBlock cfiCond386
          CFI EndBlock cfiCond387
          CFI EndBlock cfiCond388
          CFI EndBlock cfiCond389
          CFI EndBlock cfiPicker390

        RSEG BANKED_CODE:CODE:NOROOT(0)
?Subroutine31:
          CFI Block cfiCond391 Using cfiCommon0
          CFI Function ZDSecMgrAddrClear
          CFI Conditional ??CrossCallReturnLabel_179
          CFI R6 load(1, XDATA, add(CFA_XSP16, literal(-9)))
          CFI VB load(1, XDATA, add(CFA_XSP16, literal(-8)))
          CFI V0 load(1, XDATA, add(CFA_XSP16, literal(-7)))
          CFI R7 load(1, XDATA, add(CFA_XSP16, literal(-6)))
          CFI ?RET_LOW load(1, XDATA, add(CFA_XSP16, literal(-5)))
          CFI ?RET_HIGH load(1, XDATA, add(CFA_XSP16, literal(-4)))
          CFI ?BRET_EXT load(1, XDATA, add(CFA_XSP16, literal(-3)))
          CFI DPL0 load(1, XDATA, add(CFA_XSP16, literal(-2)))
          CFI DPH0 load(1, XDATA, add(CFA_XSP16, literal(-1)))
          CFI CFA_SP SP+-2
          CFI CFA_XSP16 add(XSP16, 24)
          CFI Block cfiCond392 Using cfiCommon0
          CFI (cfiCond392) Function ZDSecMgrAppKeyReq
          CFI (cfiCond392) Conditional ??CrossCallReturnLabel_180
          CFI (cfiCond392) R6 load(1, XDATA, add(CFA_XSP16, literal(-12)))
          CFI (cfiCond392) VB load(1, XDATA, add(CFA_XSP16, literal(-11)))
          CFI (cfiCond392) V0 load(1, XDATA, add(CFA_XSP16, literal(-10)))
          CFI (cfiCond392) V1 load(1, XDATA, add(CFA_XSP16, literal(-9)))
          CFI (cfiCond392) V2 load(1, XDATA, add(CFA_XSP16, literal(-8)))
          CFI (cfiCond392) V3 load(1, XDATA, add(CFA_XSP16, literal(-7)))
          CFI (cfiCond392) R7 load(1, XDATA, add(CFA_XSP16, literal(-6)))
          CFI (cfiCond392) ?RET_LOW load(1, XDATA, add(CFA_XSP16, literal(-5)))
          CFI (cfiCond392) ?RET_HIGH load(1, XDATA, add(CFA_XSP16, literal(-4)))
          CFI (cfiCond392) ?BRET_EXT load(1, XDATA, add(CFA_XSP16, literal(-3)))
          CFI (cfiCond392) DPL0 load(1, XDATA, add(CFA_XSP16, literal(-2)))
          CFI (cfiCond392) DPH0 load(1, XDATA, add(CFA_XSP16, literal(-1)))
          CFI (cfiCond392) CFA_SP SP+-2
          CFI (cfiCond392) CFA_XSP16 add(XSP16, 51)
          CFI Block cfiPicker393 Using cfiCommon1
          CFI (cfiPicker393) NoFunction
          CFI (cfiPicker393) Picker
        MOV     DPL,?XSP + 0
        MOV     DPH,?XSP + 1
          CFI EndBlock cfiCond391
          CFI EndBlock cfiCond392
          CFI EndBlock cfiPicker393
        REQUIRE ??Subroutine74_0
        ; // Fall through to label ??Subroutine74_0

        RSEG BANKED_CODE:CODE:NOROOT(0)
??Subroutine74_0:
          CFI Block cfiCond394 Using cfiCommon0
          CFI Function ZDSecMgrSendNwkKey
          CFI Conditional ??CrossCallReturnLabel_171
          CFI R6 load(1, XDATA, add(CFA_XSP16, literal(-12)))
          CFI VB load(1, XDATA, add(CFA_XSP16, literal(-11)))
          CFI V0 load(1, XDATA, add(CFA_XSP16, literal(-10)))
          CFI V1 load(1, XDATA, add(CFA_XSP16, literal(-9)))
          CFI V2 load(1, XDATA, add(CFA_XSP16, literal(-8)))
          CFI V3 load(1, XDATA, add(CFA_XSP16, literal(-7)))
          CFI R7 load(1, XDATA, add(CFA_XSP16, literal(-6)))
          CFI ?RET_LOW load(1, XDATA, add(CFA_XSP16, literal(-5)))
          CFI ?RET_HIGH load(1, XDATA, add(CFA_XSP16, literal(-4)))
          CFI ?BRET_EXT load(1, XDATA, add(CFA_XSP16, literal(-3)))
          CFI DPL0 load(1, XDATA, add(CFA_XSP16, literal(-2)))
          CFI DPH0 load(1, XDATA, add(CFA_XSP16, literal(-1)))
          CFI CFA_SP SP+-2
          CFI CFA_XSP16 add(XSP16, 46)
          CFI Block cfiCond395 Using cfiCommon0
          CFI (cfiCond395) Function ZDSecMgrSendNwkKey
          CFI (cfiCond395) Conditional ??CrossCallReturnLabel_172
          CFI (cfiCond395) R6 load(1, XDATA, add(CFA_XSP16, literal(-12)))
          CFI (cfiCond395) VB load(1, XDATA, add(CFA_XSP16, literal(-11)))
          CFI (cfiCond395) V0 load(1, XDATA, add(CFA_XSP16, literal(-10)))
          CFI (cfiCond395) V1 load(1, XDATA, add(CFA_XSP16, literal(-9)))
          CFI (cfiCond395) V2 load(1, XDATA, add(CFA_XSP16, literal(-8)))
          CFI (cfiCond395) V3 load(1, XDATA, add(CFA_XSP16, literal(-7)))
          CFI (cfiCond395) R7 load(1, XDATA, add(CFA_XSP16, literal(-6)))
          CFI (cfiCond395) ?RET_LOW load(1, XDATA, add(CFA_XSP16, literal(-5)))
          CFI (cfiCond395) ?RET_HIGH load(1, XDATA, add(CFA_XSP16, literal(-4)))
          CFI (cfiCond395) ?BRET_EXT load(1, XDATA, add(CFA_XSP16, literal(-3)))
          CFI (cfiCond395) DPL0 load(1, XDATA, add(CFA_XSP16, literal(-2)))
          CFI (cfiCond395) DPH0 load(1, XDATA, add(CFA_XSP16, literal(-1)))
          CFI (cfiCond395) CFA_SP SP+-2
          CFI (cfiCond395) CFA_XSP16 add(XSP16, 46)
          CFI Block cfiCond396 Using cfiCommon0
          CFI (cfiCond396) Function ZDSecMgrDeviceJoin
          CFI (cfiCond396) Conditional ??CrossCallReturnLabel_173
          CFI (cfiCond396) R6 load(1, XDATA, add(CFA_XSP16, literal(-16)))
          CFI (cfiCond396) VB load(1, XDATA, add(CFA_XSP16, literal(-15)))
          CFI (cfiCond396) V0 load(1, XDATA, add(CFA_XSP16, literal(-14)))
          CFI (cfiCond396) V1 load(1, XDATA, add(CFA_XSP16, literal(-13)))
          CFI (cfiCond396) V2 load(1, XDATA, add(CFA_XSP16, literal(-12)))
          CFI (cfiCond396) V3 load(1, XDATA, add(CFA_XSP16, literal(-11)))
          CFI (cfiCond396) V4 load(1, XDATA, add(CFA_XSP16, literal(-10)))
          CFI (cfiCond396) V5 load(1, XDATA, add(CFA_XSP16, literal(-9)))
          CFI (cfiCond396) V6 load(1, XDATA, add(CFA_XSP16, literal(-8)))
          CFI (cfiCond396) V7 load(1, XDATA, add(CFA_XSP16, literal(-7)))
          CFI (cfiCond396) R7 load(1, XDATA, add(CFA_XSP16, literal(-6)))
          CFI (cfiCond396) ?RET_LOW load(1, XDATA, add(CFA_XSP16, literal(-5)))
          CFI (cfiCond396) ?RET_HIGH load(1, XDATA, add(CFA_XSP16, literal(-4)))
          CFI (cfiCond396) ?BRET_EXT load(1, XDATA, add(CFA_XSP16, literal(-3)))
          CFI (cfiCond396) DPL0 load(1, XDATA, add(CFA_XSP16, literal(-2)))
          CFI (cfiCond396) DPH0 load(1, XDATA, add(CFA_XSP16, literal(-1)))
          CFI (cfiCond396) CFA_SP SP+-2
          CFI (cfiCond396) CFA_XSP16 add(XSP16, 30)
          CFI Block cfiCond397 Using cfiCommon0
          CFI (cfiCond397) Function ZDSecMgrDeviceJoin
          CFI (cfiCond397) Conditional ??CrossCallReturnLabel_174
          CFI (cfiCond397) R6 load(1, XDATA, add(CFA_XSP16, literal(-16)))
          CFI (cfiCond397) VB load(1, XDATA, add(CFA_XSP16, literal(-15)))
          CFI (cfiCond397) V0 load(1, XDATA, add(CFA_XSP16, literal(-14)))
          CFI (cfiCond397) V1 load(1, XDATA, add(CFA_XSP16, literal(-13)))
          CFI (cfiCond397) V2 load(1, XDATA, add(CFA_XSP16, literal(-12)))
          CFI (cfiCond397) V3 load(1, XDATA, add(CFA_XSP16, literal(-11)))
          CFI (cfiCond397) V4 load(1, XDATA, add(CFA_XSP16, literal(-10)))
          CFI (cfiCond397) V5 load(1, XDATA, add(CFA_XSP16, literal(-9)))
          CFI (cfiCond397) V6 load(1, XDATA, add(CFA_XSP16, literal(-8)))
          CFI (cfiCond397) V7 load(1, XDATA, add(CFA_XSP16, literal(-7)))
          CFI (cfiCond397) R7 load(1, XDATA, add(CFA_XSP16, literal(-6)))
          CFI (cfiCond397) ?RET_LOW load(1, XDATA, add(CFA_XSP16, literal(-5)))
          CFI (cfiCond397) ?RET_HIGH load(1, XDATA, add(CFA_XSP16, literal(-4)))
          CFI (cfiCond397) ?BRET_EXT load(1, XDATA, add(CFA_XSP16, literal(-3)))
          CFI (cfiCond397) DPL0 load(1, XDATA, add(CFA_XSP16, literal(-2)))
          CFI (cfiCond397) DPH0 load(1, XDATA, add(CFA_XSP16, literal(-1)))
          CFI (cfiCond397) CFA_SP SP+-2
          CFI (cfiCond397) CFA_XSP16 add(XSP16, 30)
          CFI Block cfiCond398 Using cfiCommon0
          CFI (cfiCond398) Function ZDSecMgrNewDeviceEvent
          CFI (cfiCond398) Conditional ??CrossCallReturnLabel_175
          CFI (cfiCond398) R6 load(1, XDATA, add(CFA_XSP16, literal(-12)))
          CFI (cfiCond398) VB load(1, XDATA, add(CFA_XSP16, literal(-11)))
          CFI (cfiCond398) V0 load(1, XDATA, add(CFA_XSP16, literal(-10)))
          CFI (cfiCond398) V1 load(1, XDATA, add(CFA_XSP16, literal(-9)))
          CFI (cfiCond398) V2 load(1, XDATA, add(CFA_XSP16, literal(-8)))
          CFI (cfiCond398) V3 load(1, XDATA, add(CFA_XSP16, literal(-7)))
          CFI (cfiCond398) R7 load(1, XDATA, add(CFA_XSP16, literal(-6)))
          CFI (cfiCond398) ?RET_LOW load(1, XDATA, add(CFA_XSP16, literal(-5)))
          CFI (cfiCond398) ?RET_HIGH load(1, XDATA, add(CFA_XSP16, literal(-4)))
          CFI (cfiCond398) ?BRET_EXT load(1, XDATA, add(CFA_XSP16, literal(-3)))
          CFI (cfiCond398) DPL0 load(1, XDATA, add(CFA_XSP16, literal(-2)))
          CFI (cfiCond398) DPH0 load(1, XDATA, add(CFA_XSP16, literal(-1)))
          CFI (cfiCond398) CFA_SP SP+-2
          CFI (cfiCond398) CFA_XSP16 add(XSP16, 33)
          CFI Block cfiCond399 Using cfiCommon0
          CFI (cfiCond399) Function ZDSecMgrTransportKeyInd
          CFI (cfiCond399) Conditional ??CrossCallReturnLabel_176
          CFI (cfiCond399) R6 load(1, XDATA, add(CFA_XSP16, literal(-14)))
          CFI (cfiCond399) VB load(1, XDATA, add(CFA_XSP16, literal(-13)))
          CFI (cfiCond399) V0 load(1, XDATA, add(CFA_XSP16, literal(-12)))
          CFI (cfiCond399) V1 load(1, XDATA, add(CFA_XSP16, literal(-11)))
          CFI (cfiCond399) V2 load(1, XDATA, add(CFA_XSP16, literal(-10)))
          CFI (cfiCond399) V3 load(1, XDATA, add(CFA_XSP16, literal(-9)))
          CFI (cfiCond399) V4 load(1, XDATA, add(CFA_XSP16, literal(-8)))
          CFI (cfiCond399) V5 load(1, XDATA, add(CFA_XSP16, literal(-7)))
          CFI (cfiCond399) R7 load(1, XDATA, add(CFA_XSP16, literal(-6)))
          CFI (cfiCond399) ?RET_LOW load(1, XDATA, add(CFA_XSP16, literal(-5)))
          CFI (cfiCond399) ?RET_HIGH load(1, XDATA, add(CFA_XSP16, literal(-4)))
          CFI (cfiCond399) ?BRET_EXT load(1, XDATA, add(CFA_XSP16, literal(-3)))
          CFI (cfiCond399) DPL0 load(1, XDATA, add(CFA_XSP16, literal(-2)))
          CFI (cfiCond399) DPH0 load(1, XDATA, add(CFA_XSP16, literal(-1)))
          CFI (cfiCond399) CFA_SP SP+-2
          CFI (cfiCond399) CFA_XSP16 add(XSP16, 54)
          CFI Block cfiCond400 Using cfiCommon0
          CFI (cfiCond400) Function APSME_LinkKeySet
          CFI (cfiCond400) Conditional ??CrossCallReturnLabel_177
          CFI (cfiCond400) R6 load(1, XDATA, add(CFA_XSP16, literal(-15)))
          CFI (cfiCond400) VB load(1, XDATA, add(CFA_XSP16, literal(-14)))
          CFI (cfiCond400) V0 load(1, XDATA, add(CFA_XSP16, literal(-13)))
          CFI (cfiCond400) V1 load(1, XDATA, add(CFA_XSP16, literal(-12)))
          CFI (cfiCond400) V2 load(1, XDATA, add(CFA_XSP16, literal(-11)))
          CFI (cfiCond400) V3 load(1, XDATA, add(CFA_XSP16, literal(-10)))
          CFI (cfiCond400) V4 load(1, XDATA, add(CFA_XSP16, literal(-9)))
          CFI (cfiCond400) V5 load(1, XDATA, add(CFA_XSP16, literal(-8)))
          CFI (cfiCond400) V6 load(1, XDATA, add(CFA_XSP16, literal(-7)))
          CFI (cfiCond400) R7 load(1, XDATA, add(CFA_XSP16, literal(-6)))
          CFI (cfiCond400) ?RET_LOW load(1, XDATA, add(CFA_XSP16, literal(-5)))
          CFI (cfiCond400) ?RET_HIGH load(1, XDATA, add(CFA_XSP16, literal(-4)))
          CFI (cfiCond400) ?BRET_EXT load(1, XDATA, add(CFA_XSP16, literal(-3)))
          CFI (cfiCond400) DPL0 load(1, XDATA, add(CFA_XSP16, literal(-2)))
          CFI (cfiCond400) DPH0 load(1, XDATA, add(CFA_XSP16, literal(-1)))
          CFI (cfiCond400) CFA_SP SP+-2
          CFI (cfiCond400) CFA_XSP16 add(XSP16, 19)
          CFI Block cfiCond401 Using cfiCommon0
          CFI (cfiCond401) Function ZDSecMgrAPSRemove
          CFI (cfiCond401) Conditional ??CrossCallReturnLabel_178
          CFI (cfiCond401) DPL0 Frame(CFA_SP, 4)
          CFI (cfiCond401) DPH0 Frame(CFA_SP, 5)
          CFI (cfiCond401) CFA_SP SP+-7
          CFI (cfiCond401) CFA_XSP16 add(XSP16, 8)
          CFI Block cfiCond402 Using cfiCommon0
          CFI (cfiCond402) Function ZDSecMgrAddrClear
          CFI (cfiCond402) Conditional ??CrossCallReturnLabel_179
          CFI (cfiCond402) R6 load(1, XDATA, add(CFA_XSP16, literal(-9)))
          CFI (cfiCond402) VB load(1, XDATA, add(CFA_XSP16, literal(-8)))
          CFI (cfiCond402) V0 load(1, XDATA, add(CFA_XSP16, literal(-7)))
          CFI (cfiCond402) R7 load(1, XDATA, add(CFA_XSP16, literal(-6)))
          CFI (cfiCond402) ?RET_LOW load(1, XDATA, add(CFA_XSP16, literal(-5)))
          CFI (cfiCond402) ?RET_HIGH load(1, XDATA, add(CFA_XSP16, literal(-4)))
          CFI (cfiCond402) ?BRET_EXT load(1, XDATA, add(CFA_XSP16, literal(-3)))
          CFI (cfiCond402) DPL0 load(1, XDATA, add(CFA_XSP16, literal(-2)))
          CFI (cfiCond402) DPH0 load(1, XDATA, add(CFA_XSP16, literal(-1)))
          CFI (cfiCond402) CFA_SP SP+-2
          CFI (cfiCond402) CFA_XSP16 add(XSP16, 24)
          CFI Block cfiCond403 Using cfiCommon0
          CFI (cfiCond403) Function ZDSecMgrAppKeyReq
          CFI (cfiCond403) Conditional ??CrossCallReturnLabel_180
          CFI (cfiCond403) R6 load(1, XDATA, add(CFA_XSP16, literal(-12)))
          CFI (cfiCond403) VB load(1, XDATA, add(CFA_XSP16, literal(-11)))
          CFI (cfiCond403) V0 load(1, XDATA, add(CFA_XSP16, literal(-10)))
          CFI (cfiCond403) V1 load(1, XDATA, add(CFA_XSP16, literal(-9)))
          CFI (cfiCond403) V2 load(1, XDATA, add(CFA_XSP16, literal(-8)))
          CFI (cfiCond403) V3 load(1, XDATA, add(CFA_XSP16, literal(-7)))
          CFI (cfiCond403) R7 load(1, XDATA, add(CFA_XSP16, literal(-6)))
          CFI (cfiCond403) ?RET_LOW load(1, XDATA, add(CFA_XSP16, literal(-5)))
          CFI (cfiCond403) ?RET_HIGH load(1, XDATA, add(CFA_XSP16, literal(-4)))
          CFI (cfiCond403) ?BRET_EXT load(1, XDATA, add(CFA_XSP16, literal(-3)))
          CFI (cfiCond403) DPL0 load(1, XDATA, add(CFA_XSP16, literal(-2)))
          CFI (cfiCond403) DPH0 load(1, XDATA, add(CFA_XSP16, literal(-1)))
          CFI (cfiCond403) CFA_SP SP+-2
          CFI (cfiCond403) CFA_XSP16 add(XSP16, 51)
          CFI Block cfiPicker404 Using cfiCommon1
          CFI (cfiPicker404) NoFunction
          CFI (cfiPicker404) Picker
        LCALL   ?Subroutine53 & 0xFFFF
??CrossCallReturnLabel_186:
        RET
          CFI EndBlock cfiCond394
          CFI EndBlock cfiCond395
          CFI EndBlock cfiCond396
          CFI EndBlock cfiCond397
          CFI EndBlock cfiCond398
          CFI EndBlock cfiCond399
          CFI EndBlock cfiCond400
          CFI EndBlock cfiCond401
          CFI EndBlock cfiCond402
          CFI EndBlock cfiCond403
          CFI EndBlock cfiPicker404

        RSEG BANKED_CODE:CODE:NOROOT(0)
?Subroutine25:
          CFI Block cfiCond405 Using cfiCommon0
          CFI Function ZDSecMgrDeviceJoinDirect
          CFI Conditional ??CrossCallReturnLabel_25
          CFI R6 load(1, XDATA, add(CFA_XSP16, literal(-12)))
          CFI VB load(1, XDATA, add(CFA_XSP16, literal(-11)))
          CFI V0 load(1, XDATA, add(CFA_XSP16, literal(-10)))
          CFI V1 load(1, XDATA, add(CFA_XSP16, literal(-9)))
          CFI V2 load(1, XDATA, add(CFA_XSP16, literal(-8)))
          CFI V3 load(1, XDATA, add(CFA_XSP16, literal(-7)))
          CFI R7 load(1, XDATA, add(CFA_XSP16, literal(-6)))
          CFI ?RET_LOW load(1, XDATA, add(CFA_XSP16, literal(-5)))
          CFI ?RET_HIGH load(1, XDATA, add(CFA_XSP16, literal(-4)))
          CFI ?BRET_EXT load(1, XDATA, add(CFA_XSP16, literal(-3)))
          CFI DPL0 load(1, XDATA, add(CFA_XSP16, literal(-2)))
          CFI DPH0 load(1, XDATA, add(CFA_XSP16, literal(-1)))
          CFI CFA_SP SP+-2
          CFI CFA_XSP16 add(XSP16, 32)
          CFI Block cfiCond406 Using cfiCommon0
          CFI (cfiCond406) Function APSME_LinkKeySet
          CFI (cfiCond406) Conditional ??CrossCallReturnLabel_26
          CFI (cfiCond406) R6 load(1, XDATA, add(CFA_XSP16, literal(-15)))
          CFI (cfiCond406) VB load(1, XDATA, add(CFA_XSP16, literal(-14)))
          CFI (cfiCond406) V0 load(1, XDATA, add(CFA_XSP16, literal(-13)))
          CFI (cfiCond406) V1 load(1, XDATA, add(CFA_XSP16, literal(-12)))
          CFI (cfiCond406) V2 load(1, XDATA, add(CFA_XSP16, literal(-11)))
          CFI (cfiCond406) V3 load(1, XDATA, add(CFA_XSP16, literal(-10)))
          CFI (cfiCond406) V4 load(1, XDATA, add(CFA_XSP16, literal(-9)))
          CFI (cfiCond406) V5 load(1, XDATA, add(CFA_XSP16, literal(-8)))
          CFI (cfiCond406) V6 load(1, XDATA, add(CFA_XSP16, literal(-7)))
          CFI (cfiCond406) R7 load(1, XDATA, add(CFA_XSP16, literal(-6)))
          CFI (cfiCond406) ?RET_LOW load(1, XDATA, add(CFA_XSP16, literal(-5)))
          CFI (cfiCond406) ?RET_HIGH load(1, XDATA, add(CFA_XSP16, literal(-4)))
          CFI (cfiCond406) ?BRET_EXT load(1, XDATA, add(CFA_XSP16, literal(-3)))
          CFI (cfiCond406) DPL0 load(1, XDATA, add(CFA_XSP16, literal(-2)))
          CFI (cfiCond406) DPH0 load(1, XDATA, add(CFA_XSP16, literal(-1)))
          CFI (cfiCond406) CFA_SP SP+-2
          CFI (cfiCond406) CFA_XSP16 add(XSP16, 19)
          CFI Block cfiPicker407 Using cfiCommon1
          CFI (cfiPicker407) NoFunction
          CFI (cfiPicker407) Picker
        LCALL   ?Subroutine47 & 0xFFFF
??CrossCallReturnLabel_196:
        MOV     A,R2
        RET
          CFI EndBlock cfiCond405
          CFI EndBlock cfiCond406
          CFI EndBlock cfiPicker407
// 2455 
// 2456 /******************************************************************************
// 2457  * @fn          ZDSecMgrAuthenticationSet
// 2458  *
// 2459  * @brief       Mark the specific device as authenticated or not
// 2460  *
// 2461  * @param       extAddr - [in] EXT address
// 2462  * @param       option  - [in] authenticated or not
// 2463  *
// 2464  * @return      ZStatus_t
// 2465  */

        RSEG BANKED_CODE:CODE:NOROOT(0)
// 2466 ZStatus_t ZDSecMgrAuthenticationSet( uint8* extAddr, ZDSecMgr_Authentication_Option option )
ZDSecMgrAuthenticationSet:
          CFI Block cfiBlock408 Using cfiCommon0
          CFI Function ZDSecMgrAuthenticationSet
        CODE
// 2467 {
        FUNCALL ZDSecMgrAuthenticationSet, ZDSecMgrEntryLookupExt
        LOCFRAME ISTACK, 0, STACK
        LOCFRAME PSTACK, 0, STACK
        LOCFRAME XSTACK, 11, STACK
        LOCFRAME IOVERLAY, 0, STATIC
        LOCFRAME DOVERLAY, 0, STATIC
        ARGFRAME ISTACK, 0, STACK
        ARGFRAME PSTACK, 0, STACK
        ARGFRAME XSTACK, 11, STACK
        ARGFRAME IOVERLAY, 0, STATIC
        ARGFRAME DOVERLAY, 0, STATIC
        MOV     A,#-0x9
        LCALL   ?BANKED_ENTER_XDATA
          CFI DPH0 load(1, XDATA, add(CFA_XSP16, literal(-1)))
          CFI DPL0 load(1, XDATA, add(CFA_XSP16, literal(-2)))
          CFI ?BRET_EXT load(1, XDATA, add(CFA_XSP16, literal(-3)))
          CFI ?RET_HIGH load(1, XDATA, add(CFA_XSP16, literal(-4)))
          CFI ?RET_LOW load(1, XDATA, add(CFA_XSP16, literal(-5)))
          CFI R7 load(1, XDATA, add(CFA_XSP16, literal(-6)))
          CFI V0 load(1, XDATA, add(CFA_XSP16, literal(-7)))
          CFI VB load(1, XDATA, add(CFA_XSP16, literal(-8)))
          CFI R6 load(1, XDATA, add(CFA_XSP16, literal(-9)))
          CFI CFA_SP SP+0
          CFI CFA_XSP16 add(XSP16, 9)
        ; Saved register size: 9
        ; Auto size: 2
        MOV     A,#-0x2
        LCALL   ?ALLOC_XSTACK8
          CFI CFA_XSP16 add(XSP16, 11)
        MOV     A,R1
        MOV     R6,A
// 2468   ZStatus_t        status;
// 2469   ZDSecMgrEntry_t* entry;
// 2470 
// 2471 
// 2472   // lookup entry index for specified EXT address
// 2473   status = ZDSecMgrEntryLookupExt( extAddr, &entry );
        ; Setup parameters for call to function ZDSecMgrEntryLookupExt
        MOV     R4,?XSP + 0
        MOV     R5,?XSP + 1
        LCALL   `??ZDSecMgrEntryLookupExt::?relay`; Banked call to: ZDSecMgrEntryLookupExt
        MOV     A,R1
        MOV     R1,A
// 2474 
// 2475   if ( status == ZSuccess )
        JNZ     ??ZDSecMgrAuthenticationSet_0
// 2476   {
// 2477     entry->authenticateOption = option;
        LCALL   ?Subroutine32 & 0xFFFF
// 2478   }
??CrossCallReturnLabel_32:
        MOV     A,R6
        MOVX    @DPTR,A
// 2479 
// 2480   return status;
??ZDSecMgrAuthenticationSet_0:
        LJMP    ?Subroutine8 & 0xFFFF
// 2481 }
          CFI EndBlock cfiBlock408
// 2482 
// 2483 /******************************************************************************
// 2484  * @fn          ZDSecMgrAuthenticationCheck
// 2485  *
// 2486  * @brief       Check if the specific device has been authenticated or not
// 2487  *              For non-trust center device, always return TRUE
// 2488  *
// 2489  * @param       shortAddr - [in] short address
// 2490  *
// 2491  * @return      TRUE @ authenticated with CBKE
// 2492  *              FALSE @ not authenticated
// 2493  */
// 2494 

        RSEG BANKED_CODE:CODE:NOROOT(0)
// 2495 uint8 ZDSecMgrAuthenticationCheck( uint16 shortAddr )
ZDSecMgrAuthenticationCheck:
          CFI Block cfiBlock409 Using cfiCommon0
          CFI Function ZDSecMgrAuthenticationCheck
        CODE
// 2496 {
        FUNCALL ZDSecMgrAuthenticationCheck, APSME_GetRequest
        LOCFRAME ISTACK, 0, STACK
        LOCFRAME PSTACK, 0, STACK
        LOCFRAME XSTACK, 22, STACK
        LOCFRAME IOVERLAY, 0, STATIC
        LOCFRAME DOVERLAY, 0, STATIC
        ARGFRAME ISTACK, 0, STACK
        ARGFRAME PSTACK, 0, STACK
        ARGFRAME XSTACK, 22, STACK
        ARGFRAME IOVERLAY, 0, STATIC
        ARGFRAME DOVERLAY, 0, STATIC
        FUNCALL ZDSecMgrAuthenticationCheck, NLME_GetExtAddr
        LOCFRAME ISTACK, 0, STACK
        LOCFRAME PSTACK, 0, STACK
        LOCFRAME XSTACK, 22, STACK
        LOCFRAME IOVERLAY, 0, STATIC
        LOCFRAME DOVERLAY, 0, STATIC
        ARGFRAME ISTACK, 0, STACK
        ARGFRAME PSTACK, 0, STACK
        ARGFRAME XSTACK, 22, STACK
        ARGFRAME IOVERLAY, 0, STATIC
        ARGFRAME DOVERLAY, 0, STATIC
        FUNCALL ZDSecMgrAuthenticationCheck, sAddrExtCmp
        LOCFRAME ISTACK, 0, STACK
        LOCFRAME PSTACK, 0, STACK
        LOCFRAME XSTACK, 22, STACK
        LOCFRAME IOVERLAY, 0, STATIC
        LOCFRAME DOVERLAY, 0, STATIC
        ARGFRAME ISTACK, 0, STACK
        ARGFRAME PSTACK, 0, STACK
        ARGFRAME XSTACK, 22, STACK
        ARGFRAME IOVERLAY, 0, STATIC
        ARGFRAME DOVERLAY, 0, STATIC
        FUNCALL ZDSecMgrAuthenticationCheck, AddrMgrExtAddrLookup
        LOCFRAME ISTACK, 0, STACK
        LOCFRAME PSTACK, 0, STACK
        LOCFRAME XSTACK, 22, STACK
        LOCFRAME IOVERLAY, 0, STATIC
        LOCFRAME DOVERLAY, 0, STATIC
        ARGFRAME ISTACK, 0, STACK
        ARGFRAME PSTACK, 0, STACK
        ARGFRAME XSTACK, 22, STACK
        ARGFRAME IOVERLAY, 0, STATIC
        ARGFRAME DOVERLAY, 0, STATIC
        FUNCALL ZDSecMgrAuthenticationCheck, ZDSecMgrEntryLookupExt
        LOCFRAME ISTACK, 0, STACK
        LOCFRAME PSTACK, 0, STACK
        LOCFRAME XSTACK, 22, STACK
        LOCFRAME IOVERLAY, 0, STATIC
        LOCFRAME DOVERLAY, 0, STATIC
        ARGFRAME ISTACK, 0, STACK
        ARGFRAME PSTACK, 0, STACK
        ARGFRAME XSTACK, 22, STACK
        ARGFRAME IOVERLAY, 0, STATIC
        ARGFRAME DOVERLAY, 0, STATIC
        FUNCALL ZDSecMgrAuthenticationCheck, ZDSecMgrExtAddrLookup
        LOCFRAME ISTACK, 0, STACK
        LOCFRAME PSTACK, 0, STACK
        LOCFRAME XSTACK, 22, STACK
        LOCFRAME IOVERLAY, 0, STATIC
        LOCFRAME DOVERLAY, 0, STATIC
        ARGFRAME ISTACK, 0, STACK
        ARGFRAME PSTACK, 0, STACK
        ARGFRAME XSTACK, 22, STACK
        ARGFRAME IOVERLAY, 0, STATIC
        ARGFRAME DOVERLAY, 0, STATIC
        REQUIRE ?V0
        REQUIRE ?V1
        MOV     A,#-0xa
        LCALL   ?BANKED_ENTER_XDATA
          CFI DPH0 load(1, XDATA, add(CFA_XSP16, literal(-1)))
          CFI DPL0 load(1, XDATA, add(CFA_XSP16, literal(-2)))
          CFI ?BRET_EXT load(1, XDATA, add(CFA_XSP16, literal(-3)))
          CFI ?RET_HIGH load(1, XDATA, add(CFA_XSP16, literal(-4)))
          CFI ?RET_LOW load(1, XDATA, add(CFA_XSP16, literal(-5)))
          CFI R7 load(1, XDATA, add(CFA_XSP16, literal(-6)))
          CFI V1 load(1, XDATA, add(CFA_XSP16, literal(-7)))
          CFI V0 load(1, XDATA, add(CFA_XSP16, literal(-8)))
          CFI VB load(1, XDATA, add(CFA_XSP16, literal(-9)))
          CFI R6 load(1, XDATA, add(CFA_XSP16, literal(-10)))
          CFI CFA_SP SP+0
          CFI CFA_XSP16 add(XSP16, 10)
        ; Saved register size: 10
        ; Auto size: 12
        MOV     A,#-0xc
        LCALL   ?ALLOC_XSTACK8
          CFI CFA_XSP16 add(XSP16, 22)
        MOV     A,R2
        MOV     R6,A
        MOV     A,R3
        MOV     R7,A
// 2497 #if defined (TC_LINKKEY_JOIN)
// 2498 
// 2499   ZDSecMgrEntry_t* entry;
// 2500   uint8 extAddr[Z_EXTADDR_LEN];
// 2501 
// 2502   // If the local device is not the trust center, always return TRUE
// 2503   APSME_GetRequest( apsTrustCenterAddress, 0, extAddr );
        ; Setup parameters for call to function APSME_GetRequest
        MOV     A,#0x4
        LCALL   ?XSTACK_DISP102_8
        MOV     R2,#0x0
        MOV     R3,#0x0
        MOV     R1,#-0x55
        LCALL   `??APSME_GetRequest::?relay`; Banked call to: APSME_GetRequest
// 2504   if ( ! osal_ExtAddrEqual( extAddr , NLME_GetExtAddr() ) )
        ; Setup parameters for call to function NLME_GetExtAddr
        LCALL   `??NLME_GetExtAddr::?relay`; Banked call to: NLME_GetExtAddr
        MOV     ?V0,R2
        MOV     ?V1,R3
        MOV     R4,?V0
        MOV     R5,?V1
        ; Setup parameters for call to function sAddrExtCmp
        MOV     A,#0x4
        LCALL   ?XSTACK_DISP101_8
        LCALL   `??sAddrExtCmp::?relay`; Banked call to: sAddrExtCmp
        MOV     A,R1
        JZ      ??ZDSecMgrAuthenticationCheck_0
// 2505   {
// 2506     return TRUE;
// 2507   }
// 2508   // Otherwise, check the authentication option
// 2509   else if ( AddrMgrExtAddrLookup( shortAddr, extAddr ) )
        ; Setup parameters for call to function AddrMgrExtAddrLookup
        MOV     A,#0x4
        LCALL   ?XSTACK_DISP102_8
        MOV     A,R6
        MOV     R2,A
        MOV     A,R7
        MOV     R3,A
        LCALL   `??AddrMgrExtAddrLookup::?relay`; Banked call to: AddrMgrExtAddrLookup
        MOV     A,R1
        JZ      ??ZDSecMgrAuthenticationCheck_1
// 2510   {
// 2511     // lookup entry index for specified EXT address
// 2512     if ( ZDSecMgrEntryLookupExt( extAddr, &entry ) == ZSuccess )
        ; Setup parameters for call to function ZDSecMgrEntryLookupExt
        MOV     R4,?XSP + 0
        MOV     R5,?XSP + 1
        MOV     A,#0x4
        LCALL   ?XSTACK_DISP101_8
        LCALL   `??ZDSecMgrEntryLookupExt::?relay`; Banked call to: ZDSecMgrEntryLookupExt
        MOV     A,R1
        JNZ     ??ZDSecMgrAuthenticationCheck_2
// 2513     {
// 2514       if ( entry->authenticateOption != ZDSecMgr_Not_Authenticated )
        LCALL   ?Subroutine32 & 0xFFFF
// 2515       {
// 2516         return TRUE;
// 2517       }
// 2518       else
// 2519       {
// 2520         return FALSE;
// 2521       }
// 2522     }
??CrossCallReturnLabel_33:
        MOVX    A,@DPTR
        JNZ     ??ZDSecMgrAuthenticationCheck_0
// 2523     else
// 2524     {
// 2525       // it may have been secured with TCLK only
// 2526       uint16    ami;
// 2527 
// 2528       // lookup address index in address manager
// 2529       if ( ZDSecMgrExtAddrLookup( extAddr, &ami ) == ZSuccess )
// 2530       {
// 2531         return TRUE;
// 2532       }
// 2533     }
// 2534   }
// 2535   return FALSE;
??ZDSecMgrAuthenticationCheck_1:
        MOV     R1,#0x0
??ZDSecMgrAuthenticationCheck_3:
        MOV     A,#0xc
        LJMP    ?Subroutine4 & 0xFFFF
??ZDSecMgrAuthenticationCheck_2:
        ; Setup parameters for call to function ZDSecMgrExtAddrLookup
        MOV     A,#0x2
        LCALL   ?XSTACK_DISP102_8
        MOV     A,#0x4
        LCALL   ?XSTACK_DISP101_8
        LCALL   `??ZDSecMgrExtAddrLookup::?relay`; Banked call to: ZDSecMgrExtAddrLookup
        MOV     A,R1
        JNZ     ??ZDSecMgrAuthenticationCheck_1
??ZDSecMgrAuthenticationCheck_0:
        MOV     R1,#0x1
        SJMP    ??ZDSecMgrAuthenticationCheck_3
// 2536 
// 2537 #else
// 2538   (void)shortAddr;  // Intentionally unreferenced parameter
// 2539 
// 2540   // For non AMI/SE Profile, perform no check and always return TRUE.
// 2541   return TRUE;
// 2542 
// 2543 #endif // TC_LINKKEY_JOIN
// 2544 }
          CFI EndBlock cfiBlock409

        RSEG BANKED_CODE:CODE:NOROOT(0)
?Subroutine32:
          CFI Block cfiCond410 Using cfiCommon0
          CFI Function ZDSecMgrAuthenticationSet
          CFI Conditional ??CrossCallReturnLabel_32
          CFI R6 load(1, XDATA, add(CFA_XSP16, literal(-9)))
          CFI VB load(1, XDATA, add(CFA_XSP16, literal(-8)))
          CFI V0 load(1, XDATA, add(CFA_XSP16, literal(-7)))
          CFI R7 load(1, XDATA, add(CFA_XSP16, literal(-6)))
          CFI ?RET_LOW load(1, XDATA, add(CFA_XSP16, literal(-5)))
          CFI ?RET_HIGH load(1, XDATA, add(CFA_XSP16, literal(-4)))
          CFI ?BRET_EXT load(1, XDATA, add(CFA_XSP16, literal(-3)))
          CFI DPL0 load(1, XDATA, add(CFA_XSP16, literal(-2)))
          CFI DPH0 load(1, XDATA, add(CFA_XSP16, literal(-1)))
          CFI CFA_SP SP+-2
          CFI CFA_XSP16 add(XSP16, 11)
          CFI Block cfiCond411 Using cfiCommon0
          CFI (cfiCond411) Function ZDSecMgrAuthenticationCheck
          CFI (cfiCond411) Conditional ??CrossCallReturnLabel_33
          CFI (cfiCond411) R6 load(1, XDATA, add(CFA_XSP16, literal(-10)))
          CFI (cfiCond411) VB load(1, XDATA, add(CFA_XSP16, literal(-9)))
          CFI (cfiCond411) V0 load(1, XDATA, add(CFA_XSP16, literal(-8)))
          CFI (cfiCond411) V1 load(1, XDATA, add(CFA_XSP16, literal(-7)))
          CFI (cfiCond411) R7 load(1, XDATA, add(CFA_XSP16, literal(-6)))
          CFI (cfiCond411) ?RET_LOW load(1, XDATA, add(CFA_XSP16, literal(-5)))
          CFI (cfiCond411) ?RET_HIGH load(1, XDATA, add(CFA_XSP16, literal(-4)))
          CFI (cfiCond411) ?BRET_EXT load(1, XDATA, add(CFA_XSP16, literal(-3)))
          CFI (cfiCond411) DPL0 load(1, XDATA, add(CFA_XSP16, literal(-2)))
          CFI (cfiCond411) DPH0 load(1, XDATA, add(CFA_XSP16, literal(-1)))
          CFI (cfiCond411) CFA_SP SP+-2
          CFI (cfiCond411) CFA_XSP16 add(XSP16, 22)
          CFI Block cfiPicker412 Using cfiCommon1
          CFI (cfiPicker412) NoFunction
          CFI (cfiPicker412) Picker
        MOV     DPL,?XSP + 0
        MOV     DPH,?XSP + 1
        LCALL   ?Subroutine51 & 0xFFFF
??CrossCallReturnLabel_76:
        INC     DPTR
        INC     DPTR
        INC     DPTR
        INC     DPTR
        RET
          CFI EndBlock cfiCond410
          CFI EndBlock cfiCond411
          CFI EndBlock cfiPicker412
// 2545 
// 2546 
// 2547 /******************************************************************************
// 2548  * @fn          ZDSecMgrLinkKeyNVIdGet (stubs APSME_LinkKeyNVIdGet)
// 2549  *
// 2550  * @brief       Get Key NV ID for specified NWK address.
// 2551  *
// 2552  * @param       extAddr - [in] EXT address
// 2553  * @param       keyNvId - [out] NV ID
// 2554  *
// 2555  * @return      ZStatus_t
// 2556  */

        RSEG BANKED_CODE:CODE:NOROOT(0)
// 2557 ZStatus_t ZDSecMgrLinkKeyNVIdGet(uint8* extAddr, uint16 *pKeyNvId)
APSME_LinkKeyNVIdGet:
          CFI Block cfiBlock413 Using cfiCommon0
          CFI Function APSME_LinkKeyNVIdGet
        CODE
// 2558 {
        FUNCALL APSME_LinkKeyNVIdGet, ZDSecMgrEntryLookupExt
        LOCFRAME ISTACK, 0, STACK
        LOCFRAME PSTACK, 0, STACK
        LOCFRAME XSTACK, 11, STACK
        LOCFRAME IOVERLAY, 0, STATIC
        LOCFRAME DOVERLAY, 0, STATIC
        ARGFRAME ISTACK, 0, STACK
        ARGFRAME PSTACK, 0, STACK
        ARGFRAME XSTACK, 11, STACK
        ARGFRAME IOVERLAY, 0, STATIC
        ARGFRAME DOVERLAY, 0, STATIC
        MOV     A,#-0x9
        LCALL   ?BANKED_ENTER_XDATA
          CFI DPH0 load(1, XDATA, add(CFA_XSP16, literal(-1)))
          CFI DPL0 load(1, XDATA, add(CFA_XSP16, literal(-2)))
          CFI ?BRET_EXT load(1, XDATA, add(CFA_XSP16, literal(-3)))
          CFI ?RET_HIGH load(1, XDATA, add(CFA_XSP16, literal(-4)))
          CFI ?RET_LOW load(1, XDATA, add(CFA_XSP16, literal(-5)))
          CFI R7 load(1, XDATA, add(CFA_XSP16, literal(-6)))
          CFI V0 load(1, XDATA, add(CFA_XSP16, literal(-7)))
          CFI VB load(1, XDATA, add(CFA_XSP16, literal(-8)))
          CFI R6 load(1, XDATA, add(CFA_XSP16, literal(-9)))
          CFI CFA_SP SP+0
          CFI CFA_XSP16 add(XSP16, 9)
        ; Saved register size: 9
        ; Auto size: 2
        MOV     A,#-0x2
        LCALL   ?ALLOC_XSTACK8
          CFI CFA_XSP16 add(XSP16, 11)
        MOV     A,R4
        MOV     R6,A
        MOV     A,R5
        MOV     R7,A
// 2559   ZStatus_t status;
// 2560   ZDSecMgrEntry_t* entry;
// 2561 
// 2562   // lookup entry index for specified NWK address
// 2563   status = ZDSecMgrEntryLookupExt( extAddr, &entry );
        ; Setup parameters for call to function ZDSecMgrEntryLookupExt
        MOV     R4,?XSP + 0
        MOV     R5,?XSP + 1
        LCALL   `??ZDSecMgrEntryLookupExt::?relay`; Banked call to: ZDSecMgrEntryLookupExt
        MOV     A,R1
        MOV     R1,A
// 2564 
// 2565   if ( status == ZSuccess )
        JNZ     ??APSME_LinkKeyNVIdGet_0
// 2566   {
// 2567     // return the index to the NV table
// 2568     *pKeyNvId = entry->keyNvId;
        MOV     DPL,?XSP + 0
        MOV     DPH,?XSP + 1
        LCALL   ?Subroutine27 & 0xFFFF
// 2569   }
??CrossCallReturnLabel_125:
        MOV     DPL,R6
        MOV     DPH,R7
        MOV     A,R2
        MOVX    @DPTR,A
        INC     DPTR
        MOV     A,R3
        SJMP    ??APSME_LinkKeyNVIdGet_1
// 2570   else
// 2571   {
// 2572     *pKeyNvId = SEC_NO_KEY_NV_ID;
??APSME_LinkKeyNVIdGet_0:
        MOV     DPL,R6
        MOV     DPH,R7
        CLR     A
        MOVX    @DPTR,A
        INC     DPTR
??APSME_LinkKeyNVIdGet_1:
        MOVX    @DPTR,A
// 2573   }
// 2574 
// 2575   return status;
        LJMP    ?Subroutine8 & 0xFFFF
// 2576 }
          CFI EndBlock cfiBlock413
// 2577 
// 2578 /******************************************************************************
// 2579  * @fn          ZDSecMgrIsLinkKeyValid (stubs APSME_IsLinkKeyValid)
// 2580  *
// 2581  * @brief       Verifies if Link Key in NV has been set.
// 2582  *
// 2583  * @param       extAddr - [in] EXT address
// 2584  *
// 2585  * @return      TRUE - Link Key has been established
// 2586  *              FALSE - Link Key in NV has default value.
// 2587  */

        RSEG BANKED_CODE:CODE:NOROOT(0)
// 2588 uint8 ZDSecMgrIsLinkKeyValid(uint8* extAddr)
APSME_IsLinkKeyValid:
          CFI Block cfiBlock414 Using cfiCommon0
          CFI Function APSME_IsLinkKeyValid
        CODE
// 2589 {
        FUNCALL APSME_IsLinkKeyValid, osal_memset
        LOCFRAME ISTACK, 0, STACK
        LOCFRAME PSTACK, 0, STACK
        LOCFRAME XSTACK, 33, STACK
        LOCFRAME IOVERLAY, 0, STATIC
        LOCFRAME DOVERLAY, 0, STATIC
        ARGFRAME ISTACK, 0, STACK
        ARGFRAME PSTACK, 0, STACK
        ARGFRAME XSTACK, 33, STACK
        ARGFRAME IOVERLAY, 0, STATIC
        ARGFRAME DOVERLAY, 0, STATIC
        FUNCALL APSME_IsLinkKeyValid, APSME_LinkKeyNVIdGet
        LOCFRAME ISTACK, 0, STACK
        LOCFRAME PSTACK, 0, STACK
        LOCFRAME XSTACK, 33, STACK
        LOCFRAME IOVERLAY, 0, STATIC
        LOCFRAME DOVERLAY, 0, STATIC
        ARGFRAME ISTACK, 0, STACK
        ARGFRAME PSTACK, 0, STACK
        ARGFRAME XSTACK, 33, STACK
        ARGFRAME IOVERLAY, 0, STATIC
        ARGFRAME DOVERLAY, 0, STATIC
        FUNCALL APSME_IsLinkKeyValid, osal_mem_alloc
        LOCFRAME ISTACK, 0, STACK
        LOCFRAME PSTACK, 0, STACK
        LOCFRAME XSTACK, 33, STACK
        LOCFRAME IOVERLAY, 0, STATIC
        LOCFRAME DOVERLAY, 0, STATIC
        ARGFRAME ISTACK, 0, STACK
        ARGFRAME PSTACK, 0, STACK
        ARGFRAME XSTACK, 33, STACK
        ARGFRAME IOVERLAY, 0, STATIC
        ARGFRAME DOVERLAY, 0, STATIC
        FUNCALL APSME_IsLinkKeyValid, osal_nv_read
        LOCFRAME ISTACK, 0, STACK
        LOCFRAME PSTACK, 0, STACK
        LOCFRAME XSTACK, 37, STACK
        LOCFRAME IOVERLAY, 0, STATIC
        LOCFRAME DOVERLAY, 0, STATIC
        ARGFRAME ISTACK, 0, STACK
        ARGFRAME PSTACK, 0, STACK
        ARGFRAME XSTACK, 37, STACK
        ARGFRAME IOVERLAY, 0, STATIC
        ARGFRAME DOVERLAY, 0, STATIC
        FUNCALL APSME_IsLinkKeyValid, osal_memcmp
        LOCFRAME ISTACK, 0, STACK
        LOCFRAME PSTACK, 0, STACK
        LOCFRAME XSTACK, 36, STACK
        LOCFRAME IOVERLAY, 0, STATIC
        LOCFRAME DOVERLAY, 0, STATIC
        ARGFRAME ISTACK, 0, STACK
        ARGFRAME PSTACK, 0, STACK
        ARGFRAME XSTACK, 36, STACK
        ARGFRAME IOVERLAY, 0, STATIC
        ARGFRAME DOVERLAY, 0, STATIC
        FUNCALL APSME_IsLinkKeyValid, osal_memset
        LOCFRAME ISTACK, 0, STACK
        LOCFRAME PSTACK, 0, STACK
        LOCFRAME XSTACK, 33, STACK
        LOCFRAME IOVERLAY, 0, STATIC
        LOCFRAME DOVERLAY, 0, STATIC
        ARGFRAME ISTACK, 0, STACK
        ARGFRAME PSTACK, 0, STACK
        ARGFRAME XSTACK, 33, STACK
        ARGFRAME IOVERLAY, 0, STATIC
        ARGFRAME DOVERLAY, 0, STATIC
        FUNCALL APSME_IsLinkKeyValid, osal_mem_free
        LOCFRAME ISTACK, 0, STACK
        LOCFRAME PSTACK, 0, STACK
        LOCFRAME XSTACK, 33, STACK
        LOCFRAME IOVERLAY, 0, STATIC
        LOCFRAME DOVERLAY, 0, STATIC
        ARGFRAME ISTACK, 0, STACK
        ARGFRAME PSTACK, 0, STACK
        ARGFRAME XSTACK, 33, STACK
        ARGFRAME IOVERLAY, 0, STATIC
        ARGFRAME DOVERLAY, 0, STATIC
        REQUIRE ?V0
        REQUIRE ?V2
        REQUIRE ?V3
        REQUIRE ?V4
        REQUIRE ?V5
        REQUIRE ?V6
        MOV     A,#-0xf
        LCALL   ?BANKED_ENTER_XDATA
          CFI DPH0 load(1, XDATA, add(CFA_XSP16, literal(-1)))
          CFI DPL0 load(1, XDATA, add(CFA_XSP16, literal(-2)))
          CFI ?BRET_EXT load(1, XDATA, add(CFA_XSP16, literal(-3)))
          CFI ?RET_HIGH load(1, XDATA, add(CFA_XSP16, literal(-4)))
          CFI ?RET_LOW load(1, XDATA, add(CFA_XSP16, literal(-5)))
          CFI R7 load(1, XDATA, add(CFA_XSP16, literal(-6)))
          CFI V6 load(1, XDATA, add(CFA_XSP16, literal(-7)))
          CFI V5 load(1, XDATA, add(CFA_XSP16, literal(-8)))
          CFI V4 load(1, XDATA, add(CFA_XSP16, literal(-9)))
          CFI V3 load(1, XDATA, add(CFA_XSP16, literal(-10)))
          CFI V2 load(1, XDATA, add(CFA_XSP16, literal(-11)))
          CFI V1 load(1, XDATA, add(CFA_XSP16, literal(-12)))
          CFI V0 load(1, XDATA, add(CFA_XSP16, literal(-13)))
          CFI VB load(1, XDATA, add(CFA_XSP16, literal(-14)))
          CFI R6 load(1, XDATA, add(CFA_XSP16, literal(-15)))
          CFI CFA_SP SP+0
          CFI CFA_XSP16 add(XSP16, 15)
        ; Saved register size: 15
        ; Auto size: 18
        MOV     A,#-0x12
        LCALL   ?ALLOC_XSTACK8
          CFI CFA_XSP16 add(XSP16, 33)
        MOV     A,R2
        MOV     R6,A
        MOV     A,R3
        MOV     R7,A
// 2590   APSME_LinkKeyData_t *pKeyData;
// 2591   uint16 apsLinkKeyNvId;
// 2592   uint8 nullKey[SEC_KEY_LEN];
// 2593   uint8 status = FALSE;
        MOV     ?V0,#0x0
// 2594 
// 2595   // initialize default vealue to compare to
// 2596   osal_memset(nullKey, 0x00, SEC_KEY_LEN);
        ; Setup parameters for call to function osal_memset
        MOV     R4,#0x10
        MOV     R5,#0x0
        MOV     R1,#0x0
        MOV     A,#0x2
        LCALL   ?XSTACK_DISP101_8
        LCALL   `??osal_memset::?relay`; Banked call to: osal_memset
// 2597 
// 2598   // check for APS link NV ID
// 2599   APSME_LinkKeyNVIdGet( extAddr, &apsLinkKeyNvId );
        ; Setup parameters for call to function APSME_LinkKeyNVIdGet
        MOV     R4,?XSP + 0
        MOV     R5,?XSP + 1
        MOV     A,R6
        MOV     R2,A
        MOV     A,R7
        MOV     R3,A
        LCALL   `??APSME_LinkKeyNVIdGet::?relay`; Banked call to: APSME_LinkKeyNVIdGet
// 2600 
// 2601   if (apsLinkKeyNvId != SEC_NO_KEY_NV_ID )
        LCALL   ?Subroutine28 & 0xFFFF
??CrossCallReturnLabel_160:
        JZ      ??APSME_IsLinkKeyValid_0
// 2602   {
// 2603     pKeyData = (APSME_LinkKeyData_t *)osal_mem_alloc(sizeof(APSME_LinkKeyData_t));
        ; Setup parameters for call to function osal_mem_alloc
        MOV     R2,#0x18
        MOV     R3,#0x0
        LCALL   `??osal_mem_alloc::?relay`; Banked call to: osal_mem_alloc
        MOV     ?V2,R2
        MOV     ?V3,R3
// 2604 
// 2605     if (pKeyData != NULL)
        MOV     A,R2
        ORL     A,?V3
        JZ      ??APSME_IsLinkKeyValid_0
// 2606     {
// 2607       // retrieve key from NV
// 2608       if ( osal_nv_read( apsLinkKeyNvId, 0,
// 2609                         sizeof(APSME_LinkKeyData_t), pKeyData) == ZSUCCESS)
        ; Setup parameters for call to function osal_nv_read
        MOV     R0,#?V2
        LCALL   ?PUSH_XSTACK_I_TWO
          CFI CFA_XSP16 add(XSP16, 35)
        MOV     ?V4,#0x18
        MOV     ?V5,#0x0
        MOV     R0,#?V4
        LCALL   ?PUSH_XSTACK_I_TWO
          CFI CFA_XSP16 add(XSP16, 37)
        MOV     R4,#0x0
        MOV     R5,#0x0
        MOV     A,#0x4
        LCALL   ?XSTACK_DISP0_8
        LCALL   ??Subroutine62_0 & 0xFFFF
??CrossCallReturnLabel_117:
        LCALL   `??osal_nv_read::?relay`; Banked call to: osal_nv_read
        MOV     A,#0x4
        LCALL   ?DEALLOC_XSTACK8
          CFI CFA_XSP16 add(XSP16, 33)
        MOV     A,R1
        JNZ     ??APSME_IsLinkKeyValid_1
// 2610       {
// 2611         // if stored key is different than default value, then a key has been established
// 2612         if (!osal_memcmp(pKeyData, nullKey, SEC_KEY_LEN))
        ; Setup parameters for call to function osal_memcmp
        MOV     A,#0x2
        LCALL   ?XSTACK_DISP100_8
        MOV     ?V4,R0
        MOV     ?V5,R1
        MOV     ?V6,#0x0
        MOV     R0,#?V4
        LCALL   ?PUSH_XSTACK_I_THREE
          CFI CFA_XSP16 add(XSP16, 36)
        MOV     R4,#0x10
        MOV     R5,#0x0
        MOV     DPL,?V2
        MOV     DPH,?V3
        MOV     R1,DPL
        MOV     R2,DPH
        MOV     R3,#0x0
        LCALL   `??osal_memcmp::?relay`; Banked call to: osal_memcmp
        MOV     A,#0x3
        LCALL   ?DEALLOC_XSTACK8
          CFI CFA_XSP16 add(XSP16, 33)
        MOV     A,R1
        JNZ     ??APSME_IsLinkKeyValid_1
// 2613         {
// 2614           status = TRUE;
        MOV     ?V0,#0x1
// 2615         }
// 2616       }
// 2617 
// 2618       // clear copy of key in RAM
// 2619       osal_memset(pKeyData, 0x00, sizeof(APSME_LinkKeyData_t));
??APSME_IsLinkKeyValid_1:
        ; Setup parameters for call to function osal_memset
        MOV     R4,#0x18
        MOV     R5,#0x0
        MOV     R1,#0x0
        MOV     R2,?V2
        MOV     R3,?V3
        LCALL   `??osal_memset::?relay`; Banked call to: osal_memset
// 2620 
// 2621       osal_mem_free(pKeyData);
        ; Setup parameters for call to function osal_mem_free
        MOV     R2,?V2
        MOV     R3,?V3
        LCALL   `??osal_mem_free::?relay`; Banked call to: osal_mem_free
// 2622     }
// 2623   }
// 2624 
// 2625   return status;
??APSME_IsLinkKeyValid_0:
        MOV     R1,?V0
        MOV     A,#0x12
        LJMP    ?Subroutine7 & 0xFFFF
// 2626 }
          CFI EndBlock cfiBlock414
// 2627 
// 2628 /******************************************************************************
// 2629  * @fn          ZDSecMgrKeyFwdToChild (stubs APSME_KeyFwdToChild)
// 2630  *
// 2631  * @brief       Verify and process key transportation to child.
// 2632  *
// 2633  * @param       ind - [in] APSME_TransportKeyInd_t
// 2634  *
// 2635  * @return      uint8 - success(TRUE:FALSE)
// 2636  */

        RSEG BANKED_CODE:CODE:NOROOT(0)
// 2637 uint8 ZDSecMgrKeyFwdToChild( APSME_TransportKeyInd_t* ind )
APSME_KeyFwdToChild:
          CFI Block cfiBlock415 Using cfiCommon0
          CFI Function APSME_KeyFwdToChild
        CODE
// 2638 {
        FUNCALL APSME_KeyFwdToChild, AssocGetWithExt
        LOCFRAME ISTACK, 0, STACK
        LOCFRAME PSTACK, 0, STACK
        LOCFRAME XSTACK, 10, STACK
        LOCFRAME IOVERLAY, 0, STATIC
        LOCFRAME DOVERLAY, 0, STATIC
        ARGFRAME ISTACK, 0, STACK
        ARGFRAME PSTACK, 0, STACK
        ARGFRAME XSTACK, 10, STACK
        ARGFRAME IOVERLAY, 0, STATIC
        ARGFRAME DOVERLAY, 0, STATIC
        FUNCALL APSME_KeyFwdToChild, ZDSecMgrAssocDeviceAuth
        LOCFRAME ISTACK, 0, STACK
        LOCFRAME PSTACK, 0, STACK
        LOCFRAME XSTACK, 10, STACK
        LOCFRAME IOVERLAY, 0, STATIC
        LOCFRAME DOVERLAY, 0, STATIC
        ARGFRAME ISTACK, 0, STACK
        ARGFRAME PSTACK, 0, STACK
        ARGFRAME XSTACK, 10, STACK
        ARGFRAME IOVERLAY, 0, STATIC
        ARGFRAME DOVERLAY, 0, STATIC
        REQUIRE ?V0
        REQUIRE ?V1
        MOV     A,#-0xa
        LCALL   ?BANKED_ENTER_XDATA
          CFI DPH0 load(1, XDATA, add(CFA_XSP16, literal(-1)))
          CFI DPL0 load(1, XDATA, add(CFA_XSP16, literal(-2)))
          CFI ?BRET_EXT load(1, XDATA, add(CFA_XSP16, literal(-3)))
          CFI ?RET_HIGH load(1, XDATA, add(CFA_XSP16, literal(-4)))
          CFI ?RET_LOW load(1, XDATA, add(CFA_XSP16, literal(-5)))
          CFI R7 load(1, XDATA, add(CFA_XSP16, literal(-6)))
          CFI V1 load(1, XDATA, add(CFA_XSP16, literal(-7)))
          CFI V0 load(1, XDATA, add(CFA_XSP16, literal(-8)))
          CFI VB load(1, XDATA, add(CFA_XSP16, literal(-9)))
          CFI R6 load(1, XDATA, add(CFA_XSP16, literal(-10)))
          CFI CFA_SP SP+0
          CFI CFA_XSP16 add(XSP16, 10)
        ; Saved register size: 10
        ; Auto size: 0
// 2639   // verify from Trust Center
// 2640   if ( ind->srcAddr == APSME_TRUSTCENTER_NWKADDR )
        MOV     DPL,R2
        MOV     DPH,R3
        LCALL   ??Subroutine66_0 & 0xFFFF
??CrossCallReturnLabel_159:
        JNZ     ??APSME_KeyFwdToChild_0
// 2641   {
// 2642     // check for initial NWK key
// 2643     if ( ( ind->keyType == KEY_TYPE_NWK ) ||
// 2644          ( ind->keyType == 6            ) )
        MOV     DPL,R2
        MOV     DPH,R3
        INC     DPTR
        INC     DPTR
        MOVX    A,@DPTR
        MOV     R0,A
        MOV     A,#0x1
        XRL     A,R0
        JZ      ??APSME_KeyFwdToChild_1
        MOV     A,#0x6
        XRL     A,R0
        JNZ     ??APSME_KeyFwdToChild_2
// 2645     {
// 2646       // set association status to authenticated
// 2647       ZDSecMgrAssocDeviceAuth( AssocGetWithExt( ind->dstExtAddr ) );
??APSME_KeyFwdToChild_1:
        ; Setup parameters for call to function AssocGetWithExt
        MOV     DPL,R2
        MOV     DPH,R3
        INC     DPTR
        INC     DPTR
        INC     DPTR
        INC     DPTR
        LCALL   ??Subroutine61_0 & 0xFFFF
// 2648     }
??CrossCallReturnLabel_121:
        LCALL   `??AssocGetWithExt::?relay`; Banked call to: AssocGetWithExt
        ; Setup parameters for call to function ZDSecMgrAssocDeviceAuth
        LCALL   `??ZDSecMgrAssocDeviceAuth::?relay`; Banked call to: ZDSecMgrAssocDeviceAuth
// 2649 
// 2650     return TRUE;
??APSME_KeyFwdToChild_2:
        MOV     R1,#0x1
        SJMP    ??APSME_KeyFwdToChild_3
// 2651   }
// 2652 
// 2653   return FALSE;
??APSME_KeyFwdToChild_0:
        MOV     R1,#0x0
??APSME_KeyFwdToChild_3:
        LJMP    ??Subroutine72_0 & 0xFFFF
// 2654 }
          CFI EndBlock cfiBlock415
// 2655 
// 2656 /******************************************************************************
// 2657  * @fn          ZDSecMgrAddLinkKey
// 2658  *
// 2659  * @brief       Add the application link key to ZDSecMgr. Also mark the device
// 2660  *              as authenticated in the authenticateOption. Note that this function
// 2661  *              is hardwared to CBKE right now.
// 2662  *
// 2663  * @param       shortAddr - short address of the partner device
// 2664  * @param       extAddr - extended address of the partner device
// 2665  * @param       key - link key
// 2666  *
// 2667  * @return      ZStatus_t
// 2668  */

        RSEG BANKED_CODE:CODE:NOROOT(0)
// 2669 ZStatus_t ZDSecMgrAddLinkKey( uint16 shortAddr, uint8 *extAddr, uint8 *key)
ZDSecMgrAddLinkKey:
          CFI Block cfiBlock416 Using cfiCommon0
          CFI Function ZDSecMgrAddLinkKey
        CODE
// 2670 {
        FUNCALL ZDSecMgrAddLinkKey, ZDSecMgrAddrStore
        LOCFRAME ISTACK, 0, STACK
        LOCFRAME PSTACK, 0, STACK
        LOCFRAME XSTACK, 16, STACK
        LOCFRAME IOVERLAY, 0, STATIC
        LOCFRAME DOVERLAY, 0, STATIC
        ARGFRAME ISTACK, 0, STACK
        ARGFRAME PSTACK, 0, STACK
        ARGFRAME XSTACK, 16, STACK
        ARGFRAME IOVERLAY, 0, STATIC
        ARGFRAME DOVERLAY, 0, STATIC
        FUNCALL ZDSecMgrAddLinkKey, ZDSecMgrEntryLookupAMI
        LOCFRAME ISTACK, 0, STACK
        LOCFRAME PSTACK, 0, STACK
        LOCFRAME XSTACK, 14, STACK
        LOCFRAME IOVERLAY, 0, STATIC
        LOCFRAME DOVERLAY, 0, STATIC
        ARGFRAME ISTACK, 0, STACK
        ARGFRAME PSTACK, 0, STACK
        ARGFRAME XSTACK, 14, STACK
        ARGFRAME IOVERLAY, 0, STATIC
        ARGFRAME DOVERLAY, 0, STATIC
        FUNCALL ZDSecMgrAddLinkKey, ZDSecMgrEntryNew
        LOCFRAME ISTACK, 0, STACK
        LOCFRAME PSTACK, 0, STACK
        LOCFRAME XSTACK, 14, STACK
        LOCFRAME IOVERLAY, 0, STATIC
        LOCFRAME DOVERLAY, 0, STATIC
        ARGFRAME ISTACK, 0, STACK
        ARGFRAME PSTACK, 0, STACK
        ARGFRAME XSTACK, 14, STACK
        ARGFRAME IOVERLAY, 0, STATIC
        ARGFRAME DOVERLAY, 0, STATIC
        FUNCALL ZDSecMgrAddLinkKey, APSME_LinkKeySet
        LOCFRAME ISTACK, 0, STACK
        LOCFRAME PSTACK, 0, STACK
        LOCFRAME XSTACK, 14, STACK
        LOCFRAME IOVERLAY, 0, STATIC
        LOCFRAME DOVERLAY, 0, STATIC
        ARGFRAME ISTACK, 0, STACK
        ARGFRAME PSTACK, 0, STACK
        ARGFRAME XSTACK, 14, STACK
        ARGFRAME IOVERLAY, 0, STATIC
        ARGFRAME DOVERLAY, 0, STATIC
        FUNCALL ZDSecMgrAddLinkKey, ZDSecMgrAuthenticationSet
        LOCFRAME ISTACK, 0, STACK
        LOCFRAME PSTACK, 0, STACK
        LOCFRAME XSTACK, 14, STACK
        LOCFRAME IOVERLAY, 0, STATIC
        LOCFRAME DOVERLAY, 0, STATIC
        ARGFRAME ISTACK, 0, STACK
        ARGFRAME PSTACK, 0, STACK
        ARGFRAME XSTACK, 14, STACK
        ARGFRAME IOVERLAY, 0, STATIC
        ARGFRAME DOVERLAY, 0, STATIC
        FUNCALL ZDSecMgrAddLinkKey, ZDSecMgrWriteNV
        LOCFRAME ISTACK, 0, STACK
        LOCFRAME PSTACK, 0, STACK
        LOCFRAME XSTACK, 14, STACK
        LOCFRAME IOVERLAY, 0, STATIC
        LOCFRAME DOVERLAY, 0, STATIC
        ARGFRAME ISTACK, 0, STACK
        ARGFRAME PSTACK, 0, STACK
        ARGFRAME XSTACK, 14, STACK
        ARGFRAME IOVERLAY, 0, STATIC
        ARGFRAME DOVERLAY, 0, STATIC
        REQUIRE ?V0
        REQUIRE ?V1
        MOV     A,#-0xa
        LCALL   ?BANKED_ENTER_XDATA
          CFI DPH0 load(1, XDATA, add(CFA_XSP16, literal(-1)))
          CFI DPL0 load(1, XDATA, add(CFA_XSP16, literal(-2)))
          CFI ?BRET_EXT load(1, XDATA, add(CFA_XSP16, literal(-3)))
          CFI ?RET_HIGH load(1, XDATA, add(CFA_XSP16, literal(-4)))
          CFI ?RET_LOW load(1, XDATA, add(CFA_XSP16, literal(-5)))
          CFI R7 load(1, XDATA, add(CFA_XSP16, literal(-6)))
          CFI V1 load(1, XDATA, add(CFA_XSP16, literal(-7)))
          CFI V0 load(1, XDATA, add(CFA_XSP16, literal(-8)))
          CFI VB load(1, XDATA, add(CFA_XSP16, literal(-9)))
          CFI R6 load(1, XDATA, add(CFA_XSP16, literal(-10)))
          CFI CFA_SP SP+0
          CFI CFA_XSP16 add(XSP16, 10)
        ; Saved register size: 10
        ; Auto size: 4
        MOV     A,#-0x4
        LCALL   ?ALLOC_XSTACK8
          CFI CFA_XSP16 add(XSP16, 14)
        MOV     A,R4
        MOV     R6,A
        MOV     A,R5
        MOV     R7,A
// 2671   uint16           ami;
// 2672   ZDSecMgrEntry_t* entry;
// 2673 
// 2674   /* Store the device address in the addr manager */
// 2675   if( ZDSecMgrAddrStore( shortAddr, extAddr, &ami ) != ZSuccess )
        ; Setup parameters for call to function ZDSecMgrAddrStore
        MOV     A,#0x2
        LCALL   ?XSTACK_DISP100_8
        MOV     ?V0,R0
        MOV     ?V1,R1
        MOV     R0,#?V0
        LCALL   ?PUSH_XSTACK_I_TWO
          CFI CFA_XSP16 add(XSP16, 16)
        LCALL   `??ZDSecMgrAddrStore::?relay`; Banked call to: ZDSecMgrAddrStore
        MOV     A,#0x2
        LCALL   ?DEALLOC_XSTACK8
          CFI CFA_XSP16 add(XSP16, 14)
        MOV     A,R1
        JZ      ??ZDSecMgrAddLinkKey_0
// 2676   {
// 2677     /* Adding to Addr Manager fails */
// 2678     return ZFailure;
        MOV     R1,#0x1
        SJMP    ??ZDSecMgrAddLinkKey_1
// 2679   }
// 2680 
// 2681   /* Lookup entry using specified address index */
// 2682   ZDSecMgrEntryLookupAMI( ami, &entry );
??ZDSecMgrAddLinkKey_0:
        ; Setup parameters for call to function ZDSecMgrEntryLookupAMI
        MOV     R4,?XSP + 0
        MOV     R5,?XSP + 1
        MOV     A,#0x2
        LCALL   ?XSTACK_DISP0_8
        LCALL   ??Subroutine62_0 & 0xFFFF
??CrossCallReturnLabel_118:
        LCALL   `??ZDSecMgrEntryLookupAMI::?relay`; Banked call to: ZDSecMgrEntryLookupAMI
// 2683 
// 2684   // If no existing entry, create one
// 2685   if ( entry == NULL )
        LCALL   ?Subroutine28 & 0xFFFF
??CrossCallReturnLabel_161:
        JNZ     ??CrossCallReturnLabel_144
// 2686   {
// 2687     if ( ZDSecMgrEntryNew( &entry ) == ZSuccess )
        ; Setup parameters for call to function ZDSecMgrEntryNew
        MOV     R2,?XSP + 0
        MOV     R3,?XSP + 1
        LCALL   `??ZDSecMgrEntryNew::?relay`; Banked call to: ZDSecMgrEntryNew
        MOV     A,R1
        JNZ     ??ZDSecMgrAddLinkKey_2
// 2688     {
// 2689       entry->ami = ami;
        MOV     A,#0x2
        LCALL   ?XSTACK_DISP0_8
        LCALL   ?Subroutine29 & 0xFFFF
// 2690     }
??CrossCallReturnLabel_29:
        LCALL   ?Subroutine22 & 0xFFFF
// 2691     else
// 2692     {
// 2693       /* Security Manager full */
// 2694       return ZBufferFull;
// 2695     }
// 2696   }
// 2697   // Write the link key
// 2698   APSME_LinkKeySet( extAddr, key );
??CrossCallReturnLabel_144:
        ; Setup parameters for call to function APSME_LinkKeySet
        MOV     A,#0xe
        LCALL   ?XSTACK_DISP0_8
        LCALL   ?Subroutine35 & 0xFFFF
??CrossCallReturnLabel_44:
        MOV     A,R6
        MOV     R2,A
        MOV     A,R7
        MOV     R3,A
        LCALL   `??APSME_LinkKeySet::?relay`; Banked call to: APSME_LinkKeySet
// 2699 
// 2700 #if defined (TC_LINKKEY_JOIN)
// 2701   // Mark the device as authenticated.
// 2702   ZDSecMgrAuthenticationSet( extAddr, ZDSecMgr_Authenticated_CBCK );
        ; Setup parameters for call to function ZDSecMgrAuthenticationSet
        MOV     R1,#0x1
        MOV     A,R6
        MOV     R2,A
        MOV     A,R7
        MOV     R3,A
        LCALL   `??ZDSecMgrAuthenticationSet::?relay`; Banked call to: ZDSecMgrAuthenticationSet
// 2703 #endif
// 2704 
// 2705 #if defined NV_RESTORE
// 2706   ZDSecMgrWriteNV();  // Write the new established link key to NV.
        ; Setup parameters for call to function ZDSecMgrWriteNV
        LCALL   `??ZDSecMgrWriteNV::?relay`; Banked call to: ZDSecMgrWriteNV
// 2707 #endif
// 2708 
// 2709   return ZSuccess;
        MOV     R1,#0x0
??ZDSecMgrAddLinkKey_1:
        MOV     A,#0x4
        LJMP    ?Subroutine4 & 0xFFFF
??ZDSecMgrAddLinkKey_2:
        MOV     R1,#0x11
        SJMP    ??ZDSecMgrAddLinkKey_1
// 2710 }
          CFI EndBlock cfiBlock416
// 2711 
// 2712 /******************************************************************************
// 2713  * @fn          ZDSecMgrInitNV
// 2714  *
// 2715  * @brief       Initialize the SecMgr entry data in NV with all values set to 0
// 2716  *
// 2717  * @param       none
// 2718  *
// 2719  * @return      uint8 - <osal_nv_item_init> return codes
// 2720  */

        RSEG BANKED_CODE:CODE:NOROOT(0)
// 2721 uint8 ZDSecMgrInitNV(void)
ZDSecMgrInitNV:
          CFI Block cfiBlock417 Using cfiCommon0
          CFI Function ZDSecMgrInitNV
        CODE
// 2722 {
        FUNCALL ZDSecMgrInitNV, osal_nv_item_init
        LOCFRAME ISTACK, 0, STACK
        LOCFRAME PSTACK, 0, STACK
        LOCFRAME XSTACK, 14, STACK
        LOCFRAME IOVERLAY, 0, STATIC
        LOCFRAME DOVERLAY, 0, STATIC
        ARGFRAME ISTACK, 0, STACK
        ARGFRAME PSTACK, 0, STACK
        ARGFRAME XSTACK, 14, STACK
        ARGFRAME IOVERLAY, 0, STATIC
        ARGFRAME DOVERLAY, 0, STATIC
        FUNCALL ZDSecMgrInitNV, osal_nv_write
        LOCFRAME ISTACK, 0, STACK
        LOCFRAME PSTACK, 0, STACK
        LOCFRAME XSTACK, 16, STACK
        LOCFRAME IOVERLAY, 0, STATIC
        LOCFRAME DOVERLAY, 0, STATIC
        ARGFRAME ISTACK, 0, STACK
        ARGFRAME PSTACK, 0, STACK
        ARGFRAME XSTACK, 16, STACK
        ARGFRAME IOVERLAY, 0, STATIC
        ARGFRAME DOVERLAY, 0, STATIC
        FUNCALL ZDSecMgrInitNV, osal_nv_item_init
        LOCFRAME ISTACK, 0, STACK
        LOCFRAME PSTACK, 0, STACK
        LOCFRAME XSTACK, 14, STACK
        LOCFRAME IOVERLAY, 0, STATIC
        LOCFRAME DOVERLAY, 0, STATIC
        ARGFRAME ISTACK, 0, STACK
        ARGFRAME PSTACK, 0, STACK
        ARGFRAME XSTACK, 14, STACK
        ARGFRAME IOVERLAY, 0, STATIC
        ARGFRAME DOVERLAY, 0, STATIC
        REQUIRE ?V0
        REQUIRE ?V1
        MOV     A,#-0xa
        LCALL   ?BANKED_ENTER_XDATA
          CFI DPH0 load(1, XDATA, add(CFA_XSP16, literal(-1)))
          CFI DPL0 load(1, XDATA, add(CFA_XSP16, literal(-2)))
          CFI ?BRET_EXT load(1, XDATA, add(CFA_XSP16, literal(-3)))
          CFI ?RET_HIGH load(1, XDATA, add(CFA_XSP16, literal(-4)))
          CFI ?RET_LOW load(1, XDATA, add(CFA_XSP16, literal(-5)))
          CFI R7 load(1, XDATA, add(CFA_XSP16, literal(-6)))
          CFI V1 load(1, XDATA, add(CFA_XSP16, literal(-7)))
          CFI V0 load(1, XDATA, add(CFA_XSP16, literal(-8)))
          CFI VB load(1, XDATA, add(CFA_XSP16, literal(-9)))
          CFI R6 load(1, XDATA, add(CFA_XSP16, literal(-10)))
          CFI CFA_SP SP+0
          CFI CFA_XSP16 add(XSP16, 10)
        ; Saved register size: 10
        ; Auto size: 2
        MOV     A,#-0x2
        LCALL   ?ALLOC_XSTACK8
          CFI CFA_XSP16 add(XSP16, 12)
// 2723 
// 2724   uint8 rtrn = osal_nv_item_init(ZCD_NV_APS_LINK_KEY_TABLE,
// 2725                 (sizeof(nvDeviceListHdr_t) + (sizeof(ZDSecMgrEntry_t) * ZDSECMGR_ENTRY_MAX)), NULL);
        ; Setup parameters for call to function osal_nv_item_init
        CLR     A
        MOV     ?V0,A
        MOV     ?V1,A
        MOV     R0,#?V0
        LCALL   ?PUSH_XSTACK_I_TWO
          CFI CFA_XSP16 add(XSP16, 14)
        MOV     R4,#0x11
        MOV     R5,#0x0
        MOV     R2,#0x4c
        MOV     R3,#0x0
        LCALL   `??osal_nv_item_init::?relay`; Banked call to: osal_nv_item_init
        MOV     A,#0x2
        LCALL   ?DEALLOC_XSTACK8
          CFI CFA_XSP16 add(XSP16, 12)
        MOV     A,R1
        MOV     R6,A
// 2726 
// 2727   // If the item does not already exist, set all values to 0
// 2728   if (rtrn == NV_ITEM_UNINIT)
        MOV     A,#0x9
        XRL     A,R6
        JNZ     ??ZDSecMgrInitNV_0
// 2729   {
// 2730     nvDeviceListHdr_t hdr;
// 2731     hdr.numRecs = 0;
        LCALL   ?Subroutine14 & 0xFFFF
// 2732     osal_nv_write(ZCD_NV_APS_LINK_KEY_TABLE, 0, sizeof(nvDeviceListHdr_t), &hdr);
// 2733   }
??CrossCallReturnLabel_2:
        LCALL   ?PUSH_XSTACK_I_TWO
          CFI CFA_XSP16 add(XSP16, 14)
        MOV     ?V0,#0x2
        MOV     ?V1,#0x0
        MOV     R0,#?V0
        LCALL   ?PUSH_XSTACK_I_TWO
          CFI CFA_XSP16 add(XSP16, 16)
        MOV     R4,#0x0
        MOV     R5,#0x0
        MOV     R2,#0x4c
        MOV     R3,#0x0
        LCALL   `??osal_nv_write::?relay`; Banked call to: osal_nv_write
        MOV     A,#0x4
        LCALL   ?DEALLOC_XSTACK8
          CFI CFA_XSP16 add(XSP16, 12)
// 2734 
// 2735   rtrn |= osal_nv_item_init( ZCD_NV_TRUSTCENTER_ADDR, Z_EXTADDR_LEN,
// 2736                              zgApsTrustCenterAddr );
// 2737 
// 2738   return rtrn;
??ZDSecMgrInitNV_0:
        ; Setup parameters for call to function osal_nv_item_init
        MOV     ?V0,#zgApsTrustCenterAddr & 0xff
        MOV     ?V1,#(zgApsTrustCenterAddr >> 8) & 0xff
        MOV     R0,#?V0
        LCALL   ?PUSH_XSTACK_I_TWO
          CFI CFA_XSP16 add(XSP16, 14)
        MOV     R4,#0x8
        MOV     R5,#0x0
        MOV     R2,#0x71
        MOV     R3,#0x0
        LCALL   `??osal_nv_item_init::?relay`; Banked call to: osal_nv_item_init
        MOV     A,#0x2
        LCALL   ?DEALLOC_XSTACK8
          CFI CFA_XSP16 add(XSP16, 12)
        MOV     A,R1
        ORL     A,R6
        MOV     R1,A
        MOV     A,#0x2
        LJMP    ?Subroutine4 & 0xFFFF
// 2739 }
          CFI EndBlock cfiBlock417
// 2740 
// 2741 #if defined ( NV_RESTORE )
// 2742 /*********************************************************************
// 2743  * @fn      ZDSecMgrWriteNV()
// 2744  *
// 2745  * @brief   Save off the APS link key list to NV
// 2746  *
// 2747  * @param   none
// 2748  *
// 2749  * @return  none
// 2750  */

        RSEG BANKED_CODE:CODE:NOROOT(0)
// 2751 static void ZDSecMgrWriteNV( void )
ZDSecMgrWriteNV:
          CFI Block cfiBlock418 Using cfiCommon0
          CFI Function ZDSecMgrWriteNV
        CODE
// 2752 {
        FUNCALL ZDSecMgrWriteNV, osal_nv_write
        LOCFRAME ISTACK, 0, STACK
        LOCFRAME PSTACK, 0, STACK
        LOCFRAME XSTACK, 18, STACK
        LOCFRAME IOVERLAY, 0, STATIC
        LOCFRAME DOVERLAY, 0, STATIC
        ARGFRAME ISTACK, 0, STACK
        ARGFRAME PSTACK, 0, STACK
        ARGFRAME XSTACK, 18, STACK
        ARGFRAME IOVERLAY, 0, STATIC
        ARGFRAME DOVERLAY, 0, STATIC
        FUNCALL ZDSecMgrWriteNV, osal_nv_write
        LOCFRAME ISTACK, 0, STACK
        LOCFRAME PSTACK, 0, STACK
        LOCFRAME XSTACK, 18, STACK
        LOCFRAME IOVERLAY, 0, STATIC
        LOCFRAME DOVERLAY, 0, STATIC
        ARGFRAME ISTACK, 0, STACK
        ARGFRAME PSTACK, 0, STACK
        ARGFRAME XSTACK, 18, STACK
        ARGFRAME IOVERLAY, 0, STATIC
        ARGFRAME DOVERLAY, 0, STATIC
        REQUIRE ?V0
        REQUIRE ?V1
        REQUIRE ?V2
        REQUIRE ?V3
        MOV     A,#-0xc
        LCALL   ?BANKED_ENTER_XDATA
          CFI DPH0 load(1, XDATA, add(CFA_XSP16, literal(-1)))
          CFI DPL0 load(1, XDATA, add(CFA_XSP16, literal(-2)))
          CFI ?BRET_EXT load(1, XDATA, add(CFA_XSP16, literal(-3)))
          CFI ?RET_HIGH load(1, XDATA, add(CFA_XSP16, literal(-4)))
          CFI ?RET_LOW load(1, XDATA, add(CFA_XSP16, literal(-5)))
          CFI R7 load(1, XDATA, add(CFA_XSP16, literal(-6)))
          CFI V3 load(1, XDATA, add(CFA_XSP16, literal(-7)))
          CFI V2 load(1, XDATA, add(CFA_XSP16, literal(-8)))
          CFI V1 load(1, XDATA, add(CFA_XSP16, literal(-9)))
          CFI V0 load(1, XDATA, add(CFA_XSP16, literal(-10)))
          CFI VB load(1, XDATA, add(CFA_XSP16, literal(-11)))
          CFI R6 load(1, XDATA, add(CFA_XSP16, literal(-12)))
          CFI CFA_SP SP+0
          CFI CFA_XSP16 add(XSP16, 12)
        ; Saved register size: 12
        ; Auto size: 2
        MOV     A,#-0x2
        LCALL   ?ALLOC_XSTACK8
          CFI CFA_XSP16 add(XSP16, 14)
// 2753   uint16 i;
// 2754   nvDeviceListHdr_t hdr;
// 2755 
// 2756   hdr.numRecs = 0;
        MOV     DPL,?XSP + 0
        MOV     DPH,?XSP + 1
        LCALL   ?Subroutine10 & 0xFFFF
// 2757 
// 2758   if (ZDSecMgrEntries != NULL)
??CrossCallReturnLabel_100:
        JZ      ??ZDSecMgrWriteNV_0
// 2759   {
// 2760     for ( i = 0; i < ZDSECMGR_ENTRY_MAX; i++ )
        MOV     R6,#0x0
        MOV     R7,#0x0
// 2761     {
// 2762       // Save off the record
// 2763       osal_nv_write( ZCD_NV_APS_LINK_KEY_TABLE,
// 2764                     (uint16)((sizeof(nvDeviceListHdr_t)) + (i * sizeof(ZDSecMgrEntry_t))),
// 2765                     sizeof(ZDSecMgrEntry_t), &ZDSecMgrEntries[i] );
??ZDSecMgrWriteNV_1:
        MOV     ?V0,R6
        MOV     ?V1,R7
        MOV     A,?V0
        MOV     B,#0x5
        MUL     AB
        MOV     ?V0,A
        MOV     R0,B
        MOV     B,#0x5
        MOV     A,?V1
        MUL     AB
        ADD     A,R0
        MOV     ?V1,A
        ; Setup parameters for call to function osal_nv_write
        MOV     DPTR,#ZDSecMgrEntries
        MOVX    A,@DPTR
        ADD     A,?V0
        MOV     ?V2,A
        INC     DPTR
        MOVX    A,@DPTR
        ADDC    A,?V1
        MOV     ?V3,A
        MOV     R0,#?V2
        LCALL   ?PUSH_XSTACK_I_TWO
          CFI CFA_XSP16 add(XSP16, 16)
        MOV     ?V2,#0x5
        MOV     ?V3,#0x0
        MOV     R0,#?V2
        LCALL   ?PUSH_XSTACK_I_TWO
          CFI CFA_XSP16 add(XSP16, 18)
        LCALL   ?Subroutine40 & 0xFFFF
??CrossCallReturnLabel_53:
        LCALL   `??osal_nv_write::?relay`; Banked call to: osal_nv_write
        MOV     A,#0x4
        LCALL   ?DEALLOC_XSTACK8
          CFI CFA_XSP16 add(XSP16, 14)
// 2766 
// 2767       if ( ZDSecMgrEntries[i].ami != INVALID_NODE_ADDR )
        MOV     DPTR,#ZDSecMgrEntries
        MOVX    A,@DPTR
        ADD     A,?V0
        MOV     R0,A
        INC     DPTR
        MOVX    A,@DPTR
        ADDC    A,?V1
        MOV     DPL,R0
        MOV     DPH,A
        MOVX    A,@DPTR
        XRL     A,#0xfe
        JNZ     ??ZDSecMgrWriteNV_2
        INC     DPTR
        MOVX    A,@DPTR
        CPL     A
??ZDSecMgrWriteNV_2:
        JZ      ??ZDSecMgrWriteNV_3
// 2768       {
// 2769         hdr.numRecs++;
        MOV     DPL,?XSP + 0
        MOV     DPH,?XSP + 1
        LCALL   ?Subroutine38 & 0xFFFF
// 2770       }
// 2771     }
??CrossCallReturnLabel_50:
        MOVX    @DPTR,A
??ZDSecMgrWriteNV_3:
        INC     R6
        MOV     A,R6
        JNZ     ??ZDSecMgrWriteNV_4
        INC     R7
??ZDSecMgrWriteNV_4:
        CLR     C
        SUBB    A,#0x3
        MOV     A,R7
        SUBB    A,#0x0
        JC      ??ZDSecMgrWriteNV_1
// 2772   }
// 2773 
// 2774   // Save off the header
// 2775   osal_nv_write( ZCD_NV_APS_LINK_KEY_TABLE, 0, sizeof( nvDeviceListHdr_t ), &hdr );
??ZDSecMgrWriteNV_0:
        ; Setup parameters for call to function osal_nv_write
        MOV     R0,?XSP + 0
        MOV     R1,?XSP + 1
        MOV     ?V0,R0
        MOV     ?V1,R1
        MOV     R0,#?V0
        LCALL   ?PUSH_XSTACK_I_TWO
          CFI CFA_XSP16 add(XSP16, 16)
        MOV     ?V0,#0x2
        MOV     ?V1,#0x0
        MOV     R0,#?V0
        LCALL   ?PUSH_XSTACK_I_TWO
          CFI CFA_XSP16 add(XSP16, 18)
        MOV     R4,#0x0
        MOV     R5,#0x0
        MOV     R2,#0x4c
        MOV     R3,#0x0
        LCALL   `??osal_nv_write::?relay`; Banked call to: osal_nv_write
        MOV     A,#0x4
        LCALL   ?DEALLOC_XSTACK8
          CFI CFA_XSP16 add(XSP16, 14)
// 2776 }
        MOV     A,#0x2
          CFI EndBlock cfiBlock418
        REQUIRE ?Subroutine3
        ; // Fall through to label ?Subroutine3

        RSEG BANKED_CODE:CODE:NOROOT(0)
?Subroutine3:
          CFI Block cfiBlock419 Using cfiCommon0
          CFI NoFunction
          CFI CFA_SP SP+0
          CFI CFA_XSP16 add(XSP16, 51)
          CFI VB load(1, XDATA, add(CFA_XSP16, literal(-11)))
          CFI DPL0 load(1, XDATA, add(CFA_XSP16, literal(-2)))
          CFI DPH0 load(1, XDATA, add(CFA_XSP16, literal(-1)))
          CFI R6 load(1, XDATA, add(CFA_XSP16, literal(-12)))
          CFI R7 load(1, XDATA, add(CFA_XSP16, literal(-6)))
          CFI V0 load(1, XDATA, add(CFA_XSP16, literal(-10)))
          CFI V1 load(1, XDATA, add(CFA_XSP16, literal(-9)))
          CFI V2 load(1, XDATA, add(CFA_XSP16, literal(-8)))
          CFI V3 load(1, XDATA, add(CFA_XSP16, literal(-7)))
          CFI ?BRET_EXT load(1, XDATA, add(CFA_XSP16, literal(-3)))
          CFI ?RET_HIGH load(1, XDATA, add(CFA_XSP16, literal(-4)))
          CFI ?RET_LOW load(1, XDATA, add(CFA_XSP16, literal(-5)))
          CFI Invalid
        LCALL   ?DEALLOC_XSTACK8
          CFI EndBlock cfiBlock419
        REQUIRE ??Subroutine75_0
        ; // Fall through to label ??Subroutine75_0

        RSEG BANKED_CODE:CODE:NOROOT(0)
??Subroutine75_0:
          CFI Block cfiBlock420 Using cfiCommon0
          CFI NoFunction
          CFI CFA_SP SP+0
          CFI CFA_XSP16 add(XSP16, 12)
          CFI VB load(1, XDATA, add(CFA_XSP16, literal(-11)))
          CFI DPL0 load(1, XDATA, add(CFA_XSP16, literal(-2)))
          CFI DPH0 load(1, XDATA, add(CFA_XSP16, literal(-1)))
          CFI R6 load(1, XDATA, add(CFA_XSP16, literal(-12)))
          CFI R7 load(1, XDATA, add(CFA_XSP16, literal(-6)))
          CFI V0 load(1, XDATA, add(CFA_XSP16, literal(-10)))
          CFI V1 load(1, XDATA, add(CFA_XSP16, literal(-9)))
          CFI V2 load(1, XDATA, add(CFA_XSP16, literal(-8)))
          CFI V3 load(1, XDATA, add(CFA_XSP16, literal(-7)))
          CFI ?BRET_EXT load(1, XDATA, add(CFA_XSP16, literal(-3)))
          CFI ?RET_HIGH load(1, XDATA, add(CFA_XSP16, literal(-4)))
          CFI ?RET_LOW load(1, XDATA, add(CFA_XSP16, literal(-5)))
        MOV     R7,#0x4
        LJMP    ?BANKED_LEAVE_XDATA
          CFI EndBlock cfiBlock420

        RSEG BANKED_CODE:CODE:NOROOT(0)
?Subroutine38:
          CFI Block cfiCond421 Using cfiCommon0
          CFI Function ZDSecMgrEntryFree
          CFI Conditional ??CrossCallReturnLabel_49
          CFI R6 load(1, XDATA, add(CFA_XSP16, literal(-16)))
          CFI VB load(1, XDATA, add(CFA_XSP16, literal(-15)))
          CFI V0 load(1, XDATA, add(CFA_XSP16, literal(-14)))
          CFI V1 load(1, XDATA, add(CFA_XSP16, literal(-13)))
          CFI V2 load(1, XDATA, add(CFA_XSP16, literal(-12)))
          CFI V3 load(1, XDATA, add(CFA_XSP16, literal(-11)))
          CFI V4 load(1, XDATA, add(CFA_XSP16, literal(-10)))
          CFI V5 load(1, XDATA, add(CFA_XSP16, literal(-9)))
          CFI V6 load(1, XDATA, add(CFA_XSP16, literal(-8)))
          CFI V7 load(1, XDATA, add(CFA_XSP16, literal(-7)))
          CFI R7 load(1, XDATA, add(CFA_XSP16, literal(-6)))
          CFI ?RET_LOW load(1, XDATA, add(CFA_XSP16, literal(-5)))
          CFI ?RET_HIGH load(1, XDATA, add(CFA_XSP16, literal(-4)))
          CFI ?BRET_EXT load(1, XDATA, add(CFA_XSP16, literal(-3)))
          CFI DPL0 load(1, XDATA, add(CFA_XSP16, literal(-2)))
          CFI DPH0 load(1, XDATA, add(CFA_XSP16, literal(-1)))
          CFI CFA_SP SP+-2
          CFI CFA_XSP16 add(XSP16, 20)
          CFI Block cfiCond422 Using cfiCommon0
          CFI (cfiCond422) Function ZDSecMgrWriteNV
          CFI (cfiCond422) Conditional ??CrossCallReturnLabel_50
          CFI (cfiCond422) R6 load(1, XDATA, add(CFA_XSP16, literal(-12)))
          CFI (cfiCond422) VB load(1, XDATA, add(CFA_XSP16, literal(-11)))
          CFI (cfiCond422) V0 load(1, XDATA, add(CFA_XSP16, literal(-10)))
          CFI (cfiCond422) V1 load(1, XDATA, add(CFA_XSP16, literal(-9)))
          CFI (cfiCond422) V2 load(1, XDATA, add(CFA_XSP16, literal(-8)))
          CFI (cfiCond422) V3 load(1, XDATA, add(CFA_XSP16, literal(-7)))
          CFI (cfiCond422) R7 load(1, XDATA, add(CFA_XSP16, literal(-6)))
          CFI (cfiCond422) ?RET_LOW load(1, XDATA, add(CFA_XSP16, literal(-5)))
          CFI (cfiCond422) ?RET_HIGH load(1, XDATA, add(CFA_XSP16, literal(-4)))
          CFI (cfiCond422) ?BRET_EXT load(1, XDATA, add(CFA_XSP16, literal(-3)))
          CFI (cfiCond422) DPL0 load(1, XDATA, add(CFA_XSP16, literal(-2)))
          CFI (cfiCond422) DPH0 load(1, XDATA, add(CFA_XSP16, literal(-1)))
          CFI (cfiCond422) CFA_SP SP+-2
          CFI (cfiCond422) CFA_XSP16 add(XSP16, 14)
          CFI Block cfiPicker423 Using cfiCommon1
          CFI (cfiPicker423) NoFunction
          CFI (cfiPicker423) Picker
        MOVX    A,@DPTR
        ADD     A,#0x1
        MOVX    @DPTR,A
        INC     DPTR
        MOVX    A,@DPTR
        ADDC    A,#0x0
        RET
          CFI EndBlock cfiCond421
          CFI EndBlock cfiCond422
          CFI EndBlock cfiPicker423
// 2777 #endif // NV_RESTORE
// 2778 
// 2779 #if defined ( NV_RESTORE )
// 2780 /******************************************************************************
// 2781  * @fn          ZDSecMgrRestoreFromNV
// 2782  *
// 2783  * @brief       Restore the APS Link Key entry data from NV. It does not restore
// 2784  *              the key data itself as they remain in NV until they are used.
// 2785  *              Only list data is restored.
// 2786  *              Restore zgTrustCenterAdress from NV.
// 2787  *
// 2788  * @param       none
// 2789  *
// 2790  * @return      None.
// 2791  */

        RSEG BANKED_CODE:CODE:NOROOT(0)
// 2792 static void ZDSecMgrRestoreFromNV( void )
ZDSecMgrRestoreFromNV:
          CFI Block cfiBlock424 Using cfiCommon0
          CFI Function ZDSecMgrRestoreFromNV
        CODE
// 2793 {
        FUNCALL ZDSecMgrRestoreFromNV, osal_nv_read
        LOCFRAME ISTACK, 0, STACK
        LOCFRAME PSTACK, 0, STACK
        LOCFRAME XSTACK, 24, STACK
        LOCFRAME IOVERLAY, 0, STATIC
        LOCFRAME DOVERLAY, 0, STATIC
        ARGFRAME ISTACK, 0, STACK
        ARGFRAME PSTACK, 0, STACK
        ARGFRAME XSTACK, 24, STACK
        ARGFRAME IOVERLAY, 0, STATIC
        ARGFRAME DOVERLAY, 0, STATIC
        FUNCALL ZDSecMgrRestoreFromNV, osal_mem_alloc
        LOCFRAME ISTACK, 0, STACK
        LOCFRAME PSTACK, 0, STACK
        LOCFRAME XSTACK, 20, STACK
        LOCFRAME IOVERLAY, 0, STATIC
        LOCFRAME DOVERLAY, 0, STATIC
        ARGFRAME ISTACK, 0, STACK
        ARGFRAME PSTACK, 0, STACK
        ARGFRAME XSTACK, 20, STACK
        ARGFRAME IOVERLAY, 0, STATIC
        ARGFRAME DOVERLAY, 0, STATIC
        FUNCALL ZDSecMgrRestoreFromNV, osal_nv_read
        LOCFRAME ISTACK, 0, STACK
        LOCFRAME PSTACK, 0, STACK
        LOCFRAME XSTACK, 24, STACK
        LOCFRAME IOVERLAY, 0, STATIC
        LOCFRAME DOVERLAY, 0, STATIC
        ARGFRAME ISTACK, 0, STACK
        ARGFRAME PSTACK, 0, STACK
        ARGFRAME XSTACK, 24, STACK
        ARGFRAME IOVERLAY, 0, STATIC
        ARGFRAME DOVERLAY, 0, STATIC
        FUNCALL ZDSecMgrRestoreFromNV, osal_nv_read
        LOCFRAME ISTACK, 0, STACK
        LOCFRAME PSTACK, 0, STACK
        LOCFRAME XSTACK, 24, STACK
        LOCFRAME IOVERLAY, 0, STATIC
        LOCFRAME DOVERLAY, 0, STATIC
        ARGFRAME ISTACK, 0, STACK
        ARGFRAME PSTACK, 0, STACK
        ARGFRAME XSTACK, 24, STACK
        ARGFRAME IOVERLAY, 0, STATIC
        ARGFRAME DOVERLAY, 0, STATIC
        FUNCALL ZDSecMgrRestoreFromNV, osal_nv_write
        LOCFRAME ISTACK, 0, STACK
        LOCFRAME PSTACK, 0, STACK
        LOCFRAME XSTACK, 24, STACK
        LOCFRAME IOVERLAY, 0, STATIC
        LOCFRAME DOVERLAY, 0, STATIC
        ARGFRAME ISTACK, 0, STACK
        ARGFRAME PSTACK, 0, STACK
        ARGFRAME XSTACK, 24, STACK
        ARGFRAME IOVERLAY, 0, STATIC
        ARGFRAME DOVERLAY, 0, STATIC
        FUNCALL ZDSecMgrRestoreFromNV, osal_memset
        LOCFRAME ISTACK, 0, STACK
        LOCFRAME PSTACK, 0, STACK
        LOCFRAME XSTACK, 20, STACK
        LOCFRAME IOVERLAY, 0, STATIC
        LOCFRAME DOVERLAY, 0, STATIC
        ARGFRAME ISTACK, 0, STACK
        ARGFRAME PSTACK, 0, STACK
        ARGFRAME XSTACK, 20, STACK
        ARGFRAME IOVERLAY, 0, STATIC
        ARGFRAME DOVERLAY, 0, STATIC
        FUNCALL ZDSecMgrRestoreFromNV, osal_mem_free
        LOCFRAME ISTACK, 0, STACK
        LOCFRAME PSTACK, 0, STACK
        LOCFRAME XSTACK, 20, STACK
        LOCFRAME IOVERLAY, 0, STATIC
        LOCFRAME DOVERLAY, 0, STATIC
        ARGFRAME ISTACK, 0, STACK
        ARGFRAME PSTACK, 0, STACK
        ARGFRAME XSTACK, 20, STACK
        ARGFRAME IOVERLAY, 0, STATIC
        ARGFRAME DOVERLAY, 0, STATIC
        FUNCALL ZDSecMgrRestoreFromNV, osal_nv_read
        LOCFRAME ISTACK, 0, STACK
        LOCFRAME PSTACK, 0, STACK
        LOCFRAME XSTACK, 24, STACK
        LOCFRAME IOVERLAY, 0, STATIC
        LOCFRAME DOVERLAY, 0, STATIC
        ARGFRAME ISTACK, 0, STACK
        ARGFRAME PSTACK, 0, STACK
        ARGFRAME XSTACK, 24, STACK
        ARGFRAME IOVERLAY, 0, STATIC
        ARGFRAME DOVERLAY, 0, STATIC
        REQUIRE ?V0
        REQUIRE ?V1
        REQUIRE ?V2
        REQUIRE ?V3
        REQUIRE ?V4
        REQUIRE ?V5
        REQUIRE ?V6
        REQUIRE ?V7
        REQUIRE ?V8
        REQUIRE ?V9
        MOV     A,#-0x12
        LCALL   ?BANKED_ENTER_XDATA
          CFI DPH0 load(1, XDATA, add(CFA_XSP16, literal(-1)))
          CFI DPL0 load(1, XDATA, add(CFA_XSP16, literal(-2)))
          CFI ?BRET_EXT load(1, XDATA, add(CFA_XSP16, literal(-3)))
          CFI ?RET_HIGH load(1, XDATA, add(CFA_XSP16, literal(-4)))
          CFI ?RET_LOW load(1, XDATA, add(CFA_XSP16, literal(-5)))
          CFI R7 load(1, XDATA, add(CFA_XSP16, literal(-6)))
          CFI V9 load(1, XDATA, add(CFA_XSP16, literal(-7)))
          CFI V8 load(1, XDATA, add(CFA_XSP16, literal(-8)))
          CFI V7 load(1, XDATA, add(CFA_XSP16, literal(-9)))
          CFI V6 load(1, XDATA, add(CFA_XSP16, literal(-10)))
          CFI V5 load(1, XDATA, add(CFA_XSP16, literal(-11)))
          CFI V4 load(1, XDATA, add(CFA_XSP16, literal(-12)))
          CFI V3 load(1, XDATA, add(CFA_XSP16, literal(-13)))
          CFI V2 load(1, XDATA, add(CFA_XSP16, literal(-14)))
          CFI V1 load(1, XDATA, add(CFA_XSP16, literal(-15)))
          CFI V0 load(1, XDATA, add(CFA_XSP16, literal(-16)))
          CFI VB load(1, XDATA, add(CFA_XSP16, literal(-17)))
          CFI R6 load(1, XDATA, add(CFA_XSP16, literal(-18)))
          CFI CFA_SP SP+0
          CFI CFA_XSP16 add(XSP16, 18)
        ; Saved register size: 18
        ; Auto size: 2
        MOV     A,#-0x2
        LCALL   ?ALLOC_XSTACK8
          CFI CFA_XSP16 add(XSP16, 20)
// 2794   nvDeviceListHdr_t hdr;
// 2795   APSME_LinkKeyData_t *pApsLinkKey = NULL;
// 2796 
// 2797   if ((osal_nv_read(ZCD_NV_APS_LINK_KEY_TABLE, 0, sizeof(nvDeviceListHdr_t), &hdr) == ZSUCCESS) &&
// 2798       ((hdr.numRecs > 0) && (hdr.numRecs <= ZDSECMGR_ENTRY_MAX)))
        ; Setup parameters for call to function osal_nv_read
        MOV     R0,?XSP + 0
        MOV     R1,?XSP + 1
        MOV     ?V0,R0
        MOV     ?V1,R1
        MOV     R0,#?V0
        LCALL   ?PUSH_XSTACK_I_TWO
          CFI CFA_XSP16 add(XSP16, 22)
        MOV     ?V0,#0x2
        MOV     ?V1,#0x0
        MOV     R0,#?V0
        LCALL   ?PUSH_XSTACK_I_TWO
          CFI CFA_XSP16 add(XSP16, 24)
        MOV     R4,#0x0
        MOV     R5,#0x0
        MOV     R2,#0x4c
        MOV     R3,#0x0
        LCALL   `??osal_nv_read::?relay`; Banked call to: osal_nv_read
        MOV     A,#0x4
        LCALL   ?DEALLOC_XSTACK8
          CFI CFA_XSP16 add(XSP16, 20)
        MOV     A,R1
        JZ      $+5
        LJMP    ??ZDSecMgrRestoreFromNV_0 & 0xFFFF
        LCALL   ?Subroutine28 & 0xFFFF
??CrossCallReturnLabel_162:
        JNZ     $+5
        LJMP    ??ZDSecMgrRestoreFromNV_0 & 0xFFFF
        MOV     DPL,?XSP + 0
        MOV     DPH,?XSP + 1
        CLR     C
        MOVX    A,@DPTR
        SUBB    A,#0x4
        INC     DPTR
        MOVX    A,@DPTR
        SUBB    A,#0x0
        JC      $+5
        LJMP    ??ZDSecMgrRestoreFromNV_0 & 0xFFFF
// 2799   {
// 2800     uint8 x;
// 2801 
// 2802     pApsLinkKey = (APSME_LinkKeyData_t *)osal_mem_alloc(sizeof(APSME_LinkKeyData_t));
        ; Setup parameters for call to function osal_mem_alloc
        MOV     R2,#0x18
        MOV     R3,#0x0
        LCALL   `??osal_mem_alloc::?relay`; Banked call to: osal_mem_alloc
        MOV     ?V8,R2
        MOV     ?V9,R3
// 2803 
// 2804     for (x = 0; x < ZDSECMGR_ENTRY_MAX; x++)
        MOV     ?V0,#0x0
        MOV     A,R2
        ADD     A,#0x10
        MOV     ?V2,A
        CLR     A
        ADDC    A,?V9
        MOV     ?V3,A
// 2805     {
// 2806       if ( osal_nv_read( ZCD_NV_APS_LINK_KEY_TABLE,
// 2807                         (uint16)(sizeof(nvDeviceListHdr_t) + (x * sizeof(ZDSecMgrEntry_t))),
// 2808                         sizeof(ZDSecMgrEntry_t), &ZDSecMgrEntries[x] ) == SUCCESS )
??ZDSecMgrRestoreFromNV_1:
        MOV     A,?V0
        MOV     B,#0x5
        MUL     AB
        MOV     R6,A
        MOV     R7,B
        ; Setup parameters for call to function osal_nv_read
        MOV     DPTR,#ZDSecMgrEntries
        MOVX    A,@DPTR
        ADD     A,R6
        MOV     ?V4,A
        INC     DPTR
        MOVX    A,@DPTR
        ADDC    A,R7
        MOV     ?V5,A
        MOV     R0,#?V4
        LCALL   ?PUSH_XSTACK_I_TWO
          CFI CFA_XSP16 add(XSP16, 22)
        MOV     ?V4,#0x5
        MOV     ?V5,#0x0
        MOV     R0,#?V4
        LCALL   ?PUSH_XSTACK_I_TWO
          CFI CFA_XSP16 add(XSP16, 24)
        MOV     A,?V0
        MOV     B,#0x5
        MUL     AB
        MOV     R0,A
        MOV     A,R7
        LCALL   ?Subroutine56 & 0xFFFF
??CrossCallReturnLabel_82:
        LCALL   `??osal_nv_read::?relay`; Banked call to: osal_nv_read
        MOV     A,#0x4
        LCALL   ?DEALLOC_XSTACK8
          CFI CFA_XSP16 add(XSP16, 20)
        MOV     A,R1
        JZ      $+5
        LJMP    ??ZDSecMgrRestoreFromNV_2 & 0xFFFF
// 2809       {
// 2810         // update data only for valid entries
// 2811         if ( ZDSecMgrEntries[x].ami != INVALID_NODE_ADDR )
        MOV     DPTR,#ZDSecMgrEntries
        MOVX    A,@DPTR
        ADD     A,R6
        MOV     R0,A
        INC     DPTR
        MOVX    A,@DPTR
        ADDC    A,R7
        MOV     R1,A
        MOV     A,R0
        MOV     R2,A
        MOV     A,R1
        MOV     R3,A
        MOV     DPL,R2
        MOV     DPH,R3
        MOVX    A,@DPTR
        XRL     A,#0xfe
        JNZ     ??ZDSecMgrRestoreFromNV_3
        INC     DPTR
        MOVX    A,@DPTR
        CPL     A
??ZDSecMgrRestoreFromNV_3:
        JNZ     $+5
        LJMP    ??ZDSecMgrRestoreFromNV_2 & 0xFFFF
// 2812         {
// 2813           if (pApsLinkKey != NULL)
        MOV     A,?V8
        ORL     A,?V9
        JNZ     $+5
        LJMP    ??ZDSecMgrRestoreFromNV_2 & 0xFFFF
// 2814           {
// 2815             // read the key form NV, keyNvId must be ZCD_NV_APS_LINK_KEY_DATA_START based
// 2816             osal_nv_read( ZDSecMgrEntries[x].keyNvId, 0,
// 2817                          sizeof(APSME_LinkKeyData_t), pApsLinkKey );
        ; Setup parameters for call to function osal_nv_read
        MOV     R0,#?V8
        LCALL   ?PUSH_XSTACK_I_TWO
          CFI CFA_XSP16 add(XSP16, 22)
        MOV     ?V4,#0x18
        MOV     R0,#?V4
        LCALL   ?PUSH_XSTACK_I_TWO
          CFI CFA_XSP16 add(XSP16, 24)
        MOV     R4,#0x0
        MOV     R5,#0x0
        MOV     DPL,R2
        MOV     DPH,R3
        LCALL   ??Subroutine61_0 & 0xFFFF
??CrossCallReturnLabel_122:
        LCALL   `??osal_nv_read::?relay`; Banked call to: osal_nv_read
        MOV     A,#0x4
        LCALL   ?DEALLOC_XSTACK8
          CFI CFA_XSP16 add(XSP16, 20)
// 2818 
// 2819             // set new values for the counter
// 2820             pApsLinkKey->txFrmCntr += ( MAX_APS_FRAMECOUNTER_CHANGES + 1 );
        MOV     DPTR,#__Constant_3e9
        MOV     R0,#?V4
        LCALL   ?L_MOV_X
        MOV     DPL,?V2
        MOV     DPH,?V3
        MOV     R0,#?V4
        LCALL   ?L_ADD_TO_X
        LCALL   ?Subroutine36 & 0xFFFF
??CrossCallReturnLabel_46:
        INC     DPTR
        INC     DPTR
        MOVX    A,@DPTR
        MOV     R6,A
        INC     DPTR
        MOVX    A,@DPTR
        MOV     R7,A
        MOV     A,R6
        MOV     R0,A
        MOV     A,R7
        MOV     R1,A
        MOV     A,R0
        MOV     B,#0x9
        MUL     AB
        MOV     R0,A
        MOV     R2,B
        MOV     B,#0x9
        MOV     A,R1
        MUL     AB
        ADD     A,R2
        MOV     R1,A
        MOV     A,#ApsLinkKeyFrmCntr & 0xff
        ADD     A,R0
        MOV     R4,A
        MOV     A,#(ApsLinkKeyFrmCntr >> 8) & 0xff
        ADDC    A,R1
        MOV     R5,A
        MOV     DPL,?V2
        MOV     DPH,?V3
        LCALL   ?XLOAD_R0123
        MOV     A,R4
        ADD     A,#-0x9
        MOV     DPL,A
        MOV     A,R5
        ADDC    A,#-0x13
        MOV     DPH,A
        LCALL   ?XSTORE_R0123
// 2821 
// 2822             // restore values for counters in RAM
// 2823             ApsLinkKeyFrmCntr[ZDSecMgrEntries[x].keyNvId - ZCD_NV_APS_LINK_KEY_DATA_START].txFrmCntr =
// 2824                                             pApsLinkKey->txFrmCntr;
// 2825 
// 2826             ApsLinkKeyFrmCntr[ZDSecMgrEntries[x].keyNvId - ZCD_NV_APS_LINK_KEY_DATA_START].rxFrmCntr =
// 2827                                             pApsLinkKey->rxFrmCntr;
        MOV     A,?V8
        ADD     A,#0x14
        MOV     DPL,A
        CLR     A
        ADDC    A,?V9
        MOV     DPH,A
        LCALL   ?XLOAD_R0123
        MOV     A,R4
        ADD     A,#-0x5
        MOV     DPL,A
        MOV     A,R5
        ADDC    A,#-0x13
        MOV     DPH,A
        LCALL   ?XSTORE_R0123
// 2828 
// 2829             osal_nv_write( ZDSecMgrEntries[x].keyNvId, 0,
// 2830                           sizeof(APSME_LinkKeyData_t), pApsLinkKey );
        ; Setup parameters for call to function osal_nv_write
        MOV     R0,#?V8
        LCALL   ?PUSH_XSTACK_I_TWO
          CFI CFA_XSP16 add(XSP16, 22)
        MOV     ?V4,#0x18
        MOV     ?V5,#0x0
        MOV     R0,#?V4
        LCALL   ?PUSH_XSTACK_I_TWO
          CFI CFA_XSP16 add(XSP16, 24)
        MOV     R4,#0x0
        MOV     R5,#0x0
        MOV     A,R6
        MOV     R2,A
        MOV     A,R7
        MOV     R3,A
        LCALL   `??osal_nv_write::?relay`; Banked call to: osal_nv_write
        MOV     A,#0x4
        LCALL   ?DEALLOC_XSTACK8
          CFI CFA_XSP16 add(XSP16, 20)
// 2831 
// 2832             // clear copy of key in RAM
// 2833             osal_memset(pApsLinkKey, 0x00, sizeof(APSME_LinkKeyData_t));
        ; Setup parameters for call to function osal_memset
        MOV     R4,#0x18
        MOV     R5,#0x0
        MOV     R1,#0x0
        MOV     R2,?V8
        MOV     R3,?V9
        LCALL   `??osal_memset::?relay`; Banked call to: osal_memset
// 2834           }
// 2835         }
// 2836       }
// 2837     }
??ZDSecMgrRestoreFromNV_2:
        INC     ?V0
        MOV     A,?V0
        CLR     C
        SUBB    A,#0x3
        JNC     $+5
        LJMP    ??ZDSecMgrRestoreFromNV_1 & 0xFFFF
// 2838 
// 2839     if (pApsLinkKey != NULL)
        MOV     A,?V8
        ORL     A,?V9
        JZ      ??ZDSecMgrRestoreFromNV_0
// 2840     {
// 2841       osal_mem_free(pApsLinkKey);
        ; Setup parameters for call to function osal_mem_free
        MOV     R2,?V8
        MOV     R3,?V9
        LCALL   `??osal_mem_free::?relay`; Banked call to: osal_mem_free
// 2842     }
// 2843   }
// 2844 
// 2845   osal_nv_read( ZCD_NV_TRUSTCENTER_ADDR, 0, Z_EXTADDR_LEN, zgApsTrustCenterAddr );
??ZDSecMgrRestoreFromNV_0:
        ; Setup parameters for call to function osal_nv_read
        MOV     ?V0,#zgApsTrustCenterAddr & 0xff
        MOV     ?V1,#(zgApsTrustCenterAddr >> 8) & 0xff
        MOV     R0,#?V0
        LCALL   ?PUSH_XSTACK_I_TWO
          CFI CFA_XSP16 add(XSP16, 22)
        MOV     ?V0,#0x8
        MOV     ?V1,#0x0
        MOV     R0,#?V0
        LCALL   ?PUSH_XSTACK_I_TWO
          CFI CFA_XSP16 add(XSP16, 24)
        MOV     R4,#0x0
        MOV     R5,#0x0
        MOV     R2,#0x71
        MOV     R3,#0x0
        LCALL   `??osal_nv_read::?relay`; Banked call to: osal_nv_read
        MOV     A,#0x4
        LCALL   ?DEALLOC_XSTACK8
          CFI CFA_XSP16 add(XSP16, 20)
// 2846 }
        MOV     A,#0x2
        LJMP    ?Subroutine6 & 0xFFFF
          CFI EndBlock cfiBlock424

        RSEG BANKED_CODE:CODE:NOROOT(0)
?Subroutine36:
          CFI Block cfiCond425 Using cfiCommon0
          CFI Function ZDSecMgrEntryFree
          CFI Conditional ??CrossCallReturnLabel_45
          CFI R6 load(1, XDATA, add(CFA_XSP16, literal(-16)))
          CFI VB load(1, XDATA, add(CFA_XSP16, literal(-15)))
          CFI V0 load(1, XDATA, add(CFA_XSP16, literal(-14)))
          CFI V1 load(1, XDATA, add(CFA_XSP16, literal(-13)))
          CFI V2 load(1, XDATA, add(CFA_XSP16, literal(-12)))
          CFI V3 load(1, XDATA, add(CFA_XSP16, literal(-11)))
          CFI V4 load(1, XDATA, add(CFA_XSP16, literal(-10)))
          CFI V5 load(1, XDATA, add(CFA_XSP16, literal(-9)))
          CFI V6 load(1, XDATA, add(CFA_XSP16, literal(-8)))
          CFI V7 load(1, XDATA, add(CFA_XSP16, literal(-7)))
          CFI R7 load(1, XDATA, add(CFA_XSP16, literal(-6)))
          CFI ?RET_LOW load(1, XDATA, add(CFA_XSP16, literal(-5)))
          CFI ?RET_HIGH load(1, XDATA, add(CFA_XSP16, literal(-4)))
          CFI ?BRET_EXT load(1, XDATA, add(CFA_XSP16, literal(-3)))
          CFI DPL0 load(1, XDATA, add(CFA_XSP16, literal(-2)))
          CFI DPH0 load(1, XDATA, add(CFA_XSP16, literal(-1)))
          CFI CFA_SP SP+-2
          CFI CFA_XSP16 add(XSP16, 20)
          CFI Block cfiCond426 Using cfiCommon0
          CFI (cfiCond426) Function ZDSecMgrRestoreFromNV
          CFI (cfiCond426) Conditional ??CrossCallReturnLabel_46
          CFI (cfiCond426) R6 load(1, XDATA, add(CFA_XSP16, literal(-18)))
          CFI (cfiCond426) VB load(1, XDATA, add(CFA_XSP16, literal(-17)))
          CFI (cfiCond426) V0 load(1, XDATA, add(CFA_XSP16, literal(-16)))
          CFI (cfiCond426) V1 load(1, XDATA, add(CFA_XSP16, literal(-15)))
          CFI (cfiCond426) V2 load(1, XDATA, add(CFA_XSP16, literal(-14)))
          CFI (cfiCond426) V3 load(1, XDATA, add(CFA_XSP16, literal(-13)))
          CFI (cfiCond426) V4 load(1, XDATA, add(CFA_XSP16, literal(-12)))
          CFI (cfiCond426) V5 load(1, XDATA, add(CFA_XSP16, literal(-11)))
          CFI (cfiCond426) V6 load(1, XDATA, add(CFA_XSP16, literal(-10)))
          CFI (cfiCond426) V7 load(1, XDATA, add(CFA_XSP16, literal(-9)))
          CFI (cfiCond426) V8 load(1, XDATA, add(CFA_XSP16, literal(-8)))
          CFI (cfiCond426) V9 load(1, XDATA, add(CFA_XSP16, literal(-7)))
          CFI (cfiCond426) R7 load(1, XDATA, add(CFA_XSP16, literal(-6)))
          CFI (cfiCond426) ?RET_LOW load(1, XDATA, add(CFA_XSP16, literal(-5)))
          CFI (cfiCond426) ?RET_HIGH load(1, XDATA, add(CFA_XSP16, literal(-4)))
          CFI (cfiCond426) ?BRET_EXT load(1, XDATA, add(CFA_XSP16, literal(-3)))
          CFI (cfiCond426) DPL0 load(1, XDATA, add(CFA_XSP16, literal(-2)))
          CFI (cfiCond426) DPH0 load(1, XDATA, add(CFA_XSP16, literal(-1)))
          CFI (cfiCond426) CFA_SP SP+-2
          CFI (cfiCond426) CFA_XSP16 add(XSP16, 20)
          CFI Block cfiPicker427 Using cfiCommon1
          CFI (cfiPicker427) NoFunction
          CFI (cfiPicker427) Picker
        MOV     DPTR,#ZDSecMgrEntries
        MOVX    A,@DPTR
        ADD     A,R6
        MOV     R0,A
        INC     DPTR
        MOVX    A,@DPTR
        ADDC    A,R7
        MOV     DPL,R0
        MOV     DPH,A
        RET
          CFI EndBlock cfiCond425
          CFI EndBlock cfiCond426
          CFI EndBlock cfiPicker427
// 2847 #endif // NV_RESTORE
// 2848 
// 2849 /*********************************************************************
// 2850  * @fn          ZDSecMgrSetDefaultNV
// 2851  *
// 2852  * @brief       Write the defaults to NV for Entry table and for APS key data table
// 2853  *
// 2854  * @param       none
// 2855  *
// 2856  * @return      none
// 2857  */

        RSEG BANKED_CODE:CODE:NOROOT(0)
// 2858 void ZDSecMgrSetDefaultNV( void )
ZDSecMgrSetDefaultNV:
          CFI Block cfiBlock428 Using cfiCommon0
          CFI Function ZDSecMgrSetDefaultNV
        CODE
// 2859 {
        FUNCALL ZDSecMgrSetDefaultNV, osal_nv_write
        LOCFRAME ISTACK, 0, STACK
        LOCFRAME PSTACK, 0, STACK
        LOCFRAME XSTACK, 23, STACK
        LOCFRAME IOVERLAY, 0, STATIC
        LOCFRAME DOVERLAY, 0, STATIC
        ARGFRAME ISTACK, 0, STACK
        ARGFRAME PSTACK, 0, STACK
        ARGFRAME XSTACK, 23, STACK
        ARGFRAME IOVERLAY, 0, STATIC
        ARGFRAME DOVERLAY, 0, STATIC
        FUNCALL ZDSecMgrSetDefaultNV, osal_memset
        LOCFRAME ISTACK, 0, STACK
        LOCFRAME PSTACK, 0, STACK
        LOCFRAME XSTACK, 19, STACK
        LOCFRAME IOVERLAY, 0, STATIC
        LOCFRAME DOVERLAY, 0, STATIC
        ARGFRAME ISTACK, 0, STACK
        ARGFRAME PSTACK, 0, STACK
        ARGFRAME XSTACK, 19, STACK
        ARGFRAME IOVERLAY, 0, STATIC
        ARGFRAME DOVERLAY, 0, STATIC
        FUNCALL ZDSecMgrSetDefaultNV, osal_nv_write
        LOCFRAME ISTACK, 0, STACK
        LOCFRAME PSTACK, 0, STACK
        LOCFRAME XSTACK, 23, STACK
        LOCFRAME IOVERLAY, 0, STATIC
        LOCFRAME DOVERLAY, 0, STATIC
        ARGFRAME ISTACK, 0, STACK
        ARGFRAME PSTACK, 0, STACK
        ARGFRAME XSTACK, 23, STACK
        ARGFRAME IOVERLAY, 0, STATIC
        ARGFRAME DOVERLAY, 0, STATIC
        FUNCALL ZDSecMgrSetDefaultNV, osal_mem_alloc
        LOCFRAME ISTACK, 0, STACK
        LOCFRAME PSTACK, 0, STACK
        LOCFRAME XSTACK, 19, STACK
        LOCFRAME IOVERLAY, 0, STATIC
        LOCFRAME DOVERLAY, 0, STATIC
        ARGFRAME ISTACK, 0, STACK
        ARGFRAME PSTACK, 0, STACK
        ARGFRAME XSTACK, 19, STACK
        ARGFRAME IOVERLAY, 0, STATIC
        ARGFRAME DOVERLAY, 0, STATIC
        FUNCALL ZDSecMgrSetDefaultNV, osal_memset
        LOCFRAME ISTACK, 0, STACK
        LOCFRAME PSTACK, 0, STACK
        LOCFRAME XSTACK, 19, STACK
        LOCFRAME IOVERLAY, 0, STATIC
        LOCFRAME DOVERLAY, 0, STATIC
        ARGFRAME ISTACK, 0, STACK
        ARGFRAME PSTACK, 0, STACK
        ARGFRAME XSTACK, 19, STACK
        ARGFRAME IOVERLAY, 0, STATIC
        ARGFRAME DOVERLAY, 0, STATIC
        FUNCALL ZDSecMgrSetDefaultNV, osal_nv_write
        LOCFRAME ISTACK, 0, STACK
        LOCFRAME PSTACK, 0, STACK
        LOCFRAME XSTACK, 23, STACK
        LOCFRAME IOVERLAY, 0, STATIC
        LOCFRAME DOVERLAY, 0, STATIC
        ARGFRAME ISTACK, 0, STACK
        ARGFRAME PSTACK, 0, STACK
        ARGFRAME XSTACK, 23, STACK
        ARGFRAME IOVERLAY, 0, STATIC
        ARGFRAME DOVERLAY, 0, STATIC
        FUNCALL ZDSecMgrSetDefaultNV, osal_mem_free
        LOCFRAME ISTACK, 0, STACK
        LOCFRAME PSTACK, 0, STACK
        LOCFRAME XSTACK, 19, STACK
        LOCFRAME IOVERLAY, 0, STATIC
        LOCFRAME DOVERLAY, 0, STATIC
        ARGFRAME ISTACK, 0, STACK
        ARGFRAME PSTACK, 0, STACK
        ARGFRAME XSTACK, 19, STACK
        ARGFRAME IOVERLAY, 0, STATIC
        ARGFRAME DOVERLAY, 0, STATIC
        REQUIRE ?V0
        REQUIRE ?V1
        REQUIRE ?V2
        REQUIRE ?V3
        MOV     A,#-0xc
        LCALL   ?BANKED_ENTER_XDATA
          CFI DPH0 load(1, XDATA, add(CFA_XSP16, literal(-1)))
          CFI DPL0 load(1, XDATA, add(CFA_XSP16, literal(-2)))
          CFI ?BRET_EXT load(1, XDATA, add(CFA_XSP16, literal(-3)))
          CFI ?RET_HIGH load(1, XDATA, add(CFA_XSP16, literal(-4)))
          CFI ?RET_LOW load(1, XDATA, add(CFA_XSP16, literal(-5)))
          CFI R7 load(1, XDATA, add(CFA_XSP16, literal(-6)))
          CFI V3 load(1, XDATA, add(CFA_XSP16, literal(-7)))
          CFI V2 load(1, XDATA, add(CFA_XSP16, literal(-8)))
          CFI V1 load(1, XDATA, add(CFA_XSP16, literal(-9)))
          CFI V0 load(1, XDATA, add(CFA_XSP16, literal(-10)))
          CFI VB load(1, XDATA, add(CFA_XSP16, literal(-11)))
          CFI R6 load(1, XDATA, add(CFA_XSP16, literal(-12)))
          CFI CFA_SP SP+0
          CFI CFA_XSP16 add(XSP16, 12)
        ; Saved register size: 12
        ; Auto size: 7
        MOV     A,#-0x7
        LCALL   ?ALLOC_XSTACK8
          CFI CFA_XSP16 add(XSP16, 19)
// 2860   uint16 i;
// 2861   nvDeviceListHdr_t hdr;
// 2862   ZDSecMgrEntry_t secMgrEntry;
// 2863   APSME_LinkKeyData_t *pApsLinkKey = NULL;
// 2864 
// 2865   // Initialize the header
// 2866   hdr.numRecs = 0;
        LCALL   ?Subroutine14 & 0xFFFF
// 2867 
// 2868   // clear the header
// 2869   osal_nv_write(ZCD_NV_APS_LINK_KEY_TABLE, 0, sizeof(nvDeviceListHdr_t), &hdr);
??CrossCallReturnLabel_3:
        LCALL   ?PUSH_XSTACK_I_TWO
          CFI CFA_XSP16 add(XSP16, 21)
        MOV     ?V0,#0x2
        MOV     ?V1,#0x0
        MOV     R0,#?V0
        LCALL   ?PUSH_XSTACK_I_TWO
          CFI CFA_XSP16 add(XSP16, 23)
        MOV     R4,#0x0
        MOV     R5,#0x0
        MOV     R2,#0x4c
        MOV     R3,#0x0
        LCALL   `??osal_nv_write::?relay`; Banked call to: osal_nv_write
        MOV     A,#0x4
        LCALL   ?DEALLOC_XSTACK8
          CFI CFA_XSP16 add(XSP16, 19)
// 2870 
// 2871   osal_memset( &secMgrEntry, 0x00, sizeof(ZDSecMgrEntry_t) );
        ; Setup parameters for call to function osal_memset
        MOV     R4,#0x5
        MOV     R5,#0x0
        MOV     R1,#0x0
        MOV     A,#0x2
        LCALL   ?XSTACK_DISP101_8
        LCALL   `??osal_memset::?relay`; Banked call to: osal_memset
// 2872 
// 2873   for ( i = 0; i < ZDSECMGR_ENTRY_MAX; i++ )
        MOV     R6,#0x0
        MOV     R7,#0x0
// 2874   {
// 2875     // Clear the record
// 2876     osal_nv_write( ZCD_NV_APS_LINK_KEY_TABLE,
// 2877                 (uint16)((sizeof(nvDeviceListHdr_t)) + (i * sizeof(ZDSecMgrEntry_t))),
// 2878                         sizeof(ZDSecMgrEntry_t), &secMgrEntry );
??ZDSecMgrSetDefaultNV_0:
        ; Setup parameters for call to function osal_nv_write
        MOV     A,#0x2
        LCALL   ?XSTACK_DISP100_8
        MOV     ?V0,R0
        MOV     ?V1,R1
        MOV     R0,#?V0
        LCALL   ?PUSH_XSTACK_I_TWO
          CFI CFA_XSP16 add(XSP16, 21)
        MOV     ?V0,#0x5
        MOV     ?V1,#0x0
        MOV     R0,#?V0
        LCALL   ?PUSH_XSTACK_I_TWO
          CFI CFA_XSP16 add(XSP16, 23)
        LCALL   ?Subroutine40 & 0xFFFF
// 2879   }
??CrossCallReturnLabel_54:
        LCALL   `??osal_nv_write::?relay`; Banked call to: osal_nv_write
        MOV     A,#0x4
        LCALL   ?DEALLOC_XSTACK8
          CFI CFA_XSP16 add(XSP16, 19)
        INC     R6
        MOV     A,R6
        JNZ     ??ZDSecMgrSetDefaultNV_1
        INC     R7
??ZDSecMgrSetDefaultNV_1:
        CLR     C
        SUBB    A,#0x3
        MOV     A,R7
        SUBB    A,#0x0
        JC      ??ZDSecMgrSetDefaultNV_0
// 2880 
// 2881   pApsLinkKey = (APSME_LinkKeyData_t *)osal_mem_alloc(sizeof(APSME_LinkKeyData_t));
        ; Setup parameters for call to function osal_mem_alloc
        MOV     R2,#0x18
        MOV     R3,#0x0
        LCALL   `??osal_mem_alloc::?relay`; Banked call to: osal_mem_alloc
        MOV     ?V0,R2
        MOV     ?V1,R3
// 2882 
// 2883   if (pApsLinkKey != NULL)
        MOV     A,R2
        ORL     A,?V1
        JZ      ??ZDSecMgrSetDefaultNV_2
// 2884   {
// 2885     osal_memset( pApsLinkKey, 0x00, sizeof(APSME_LinkKeyData_t) );
        ; Setup parameters for call to function osal_memset
        MOV     R4,#0x18
        MOV     R5,#0x0
        MOV     R1,#0x0
        LCALL   `??osal_memset::?relay`; Banked call to: osal_memset
// 2886 
// 2887     for ( i = 0; i < ZDSECMGR_ENTRY_MAX; i++ )
        MOV     R6,#0x0
        MOV     R7,#0x0
// 2888     {
// 2889       // Clear the record
// 2890       osal_nv_write( (ZCD_NV_APS_LINK_KEY_DATA_START + i), 0,
// 2891                     sizeof(APSME_LinkKeyData_t), pApsLinkKey);
??ZDSecMgrSetDefaultNV_3:
        ; Setup parameters for call to function osal_nv_write
        MOV     R0,#?V0
        LCALL   ?PUSH_XSTACK_I_TWO
          CFI CFA_XSP16 add(XSP16, 21)
        MOV     ?V2,#0x18
        MOV     ?V3,#0x0
        MOV     R0,#?V2
        LCALL   ?PUSH_XSTACK_I_TWO
          CFI CFA_XSP16 add(XSP16, 23)
        MOV     R4,#0x0
        MOV     R5,#0x0
        MOV     A,R6
        ADD     A,#0x1
        MOV     R2,A
        MOV     A,R7
        ADDC    A,#0x2
        MOV     R3,A
        LCALL   `??osal_nv_write::?relay`; Banked call to: osal_nv_write
        MOV     A,#0x4
        LCALL   ?DEALLOC_XSTACK8
          CFI CFA_XSP16 add(XSP16, 19)
// 2892     }
        INC     R6
        MOV     A,R6
        JNZ     ??ZDSecMgrSetDefaultNV_4
        INC     R7
??ZDSecMgrSetDefaultNV_4:
        CLR     C
        SUBB    A,#0x3
        MOV     A,R7
        SUBB    A,#0x0
        JC      ??ZDSecMgrSetDefaultNV_3
// 2893 
// 2894     osal_mem_free(pApsLinkKey);
        ; Setup parameters for call to function osal_mem_free
        MOV     R2,?V0
        MOV     R3,?V1
        LCALL   `??osal_mem_free::?relay`; Banked call to: osal_mem_free
// 2895   }
// 2896 }
??ZDSecMgrSetDefaultNV_2:
        MOV     A,#0x7
        LJMP    ?Subroutine3 & 0xFFFF
          CFI EndBlock cfiBlock428

        RSEG BANKED_CODE:CODE:NOROOT(0)
?Subroutine40:
          CFI Block cfiCond429 Using cfiCommon0
          CFI Function ZDSecMgrWriteNV
          CFI Conditional ??CrossCallReturnLabel_53
          CFI R6 load(1, XDATA, add(CFA_XSP16, literal(-12)))
          CFI VB load(1, XDATA, add(CFA_XSP16, literal(-11)))
          CFI V0 load(1, XDATA, add(CFA_XSP16, literal(-10)))
          CFI V1 load(1, XDATA, add(CFA_XSP16, literal(-9)))
          CFI V2 load(1, XDATA, add(CFA_XSP16, literal(-8)))
          CFI V3 load(1, XDATA, add(CFA_XSP16, literal(-7)))
          CFI R7 load(1, XDATA, add(CFA_XSP16, literal(-6)))
          CFI ?RET_LOW load(1, XDATA, add(CFA_XSP16, literal(-5)))
          CFI ?RET_HIGH load(1, XDATA, add(CFA_XSP16, literal(-4)))
          CFI ?BRET_EXT load(1, XDATA, add(CFA_XSP16, literal(-3)))
          CFI DPL0 load(1, XDATA, add(CFA_XSP16, literal(-2)))
          CFI DPH0 load(1, XDATA, add(CFA_XSP16, literal(-1)))
          CFI CFA_SP SP+-2
          CFI CFA_XSP16 add(XSP16, 18)
          CFI Block cfiCond430 Using cfiCommon0
          CFI (cfiCond430) Function ZDSecMgrSetDefaultNV
          CFI (cfiCond430) Conditional ??CrossCallReturnLabel_54
          CFI (cfiCond430) R6 load(1, XDATA, add(CFA_XSP16, literal(-12)))
          CFI (cfiCond430) VB load(1, XDATA, add(CFA_XSP16, literal(-11)))
          CFI (cfiCond430) V0 load(1, XDATA, add(CFA_XSP16, literal(-10)))
          CFI (cfiCond430) V1 load(1, XDATA, add(CFA_XSP16, literal(-9)))
          CFI (cfiCond430) V2 load(1, XDATA, add(CFA_XSP16, literal(-8)))
          CFI (cfiCond430) V3 load(1, XDATA, add(CFA_XSP16, literal(-7)))
          CFI (cfiCond430) R7 load(1, XDATA, add(CFA_XSP16, literal(-6)))
          CFI (cfiCond430) ?RET_LOW load(1, XDATA, add(CFA_XSP16, literal(-5)))
          CFI (cfiCond430) ?RET_HIGH load(1, XDATA, add(CFA_XSP16, literal(-4)))
          CFI (cfiCond430) ?BRET_EXT load(1, XDATA, add(CFA_XSP16, literal(-3)))
          CFI (cfiCond430) DPL0 load(1, XDATA, add(CFA_XSP16, literal(-2)))
          CFI (cfiCond430) DPH0 load(1, XDATA, add(CFA_XSP16, literal(-1)))
          CFI (cfiCond430) CFA_SP SP+-2
          CFI (cfiCond430) CFA_XSP16 add(XSP16, 23)
          CFI Block cfiPicker431 Using cfiCommon1
          CFI (cfiPicker431) NoFunction
          CFI (cfiPicker431) Picker
        MOV     A,R6
        MOV     R0,A
        MOV     A,R7
        MOV     R1,A
        MOV     A,R0
        MOV     B,#0x5
        MUL     AB
        MOV     R0,A
        MOV     R2,B
        MOV     B,#0x5
        MOV     A,R1
        MUL     AB
        ADD     A,R2
        LCALL   ?Subroutine56 & 0xFFFF
??CrossCallReturnLabel_83:
        RET
          CFI EndBlock cfiCond429
          CFI EndBlock cfiCond430
          CFI EndBlock cfiPicker431

        RSEG BANKED_CODE:CODE:NOROOT(0)
?Subroutine56:
          CFI Block cfiCond432 Using cfiCommon0
          CFI Function ZDSecMgrRestoreFromNV
          CFI Conditional ??CrossCallReturnLabel_82
          CFI R6 load(1, XDATA, add(CFA_XSP16, literal(-18)))
          CFI VB load(1, XDATA, add(CFA_XSP16, literal(-17)))
          CFI V0 load(1, XDATA, add(CFA_XSP16, literal(-16)))
          CFI V1 load(1, XDATA, add(CFA_XSP16, literal(-15)))
          CFI V2 load(1, XDATA, add(CFA_XSP16, literal(-14)))
          CFI V3 load(1, XDATA, add(CFA_XSP16, literal(-13)))
          CFI V4 load(1, XDATA, add(CFA_XSP16, literal(-12)))
          CFI V5 load(1, XDATA, add(CFA_XSP16, literal(-11)))
          CFI V6 load(1, XDATA, add(CFA_XSP16, literal(-10)))
          CFI V7 load(1, XDATA, add(CFA_XSP16, literal(-9)))
          CFI V8 load(1, XDATA, add(CFA_XSP16, literal(-8)))
          CFI V9 load(1, XDATA, add(CFA_XSP16, literal(-7)))
          CFI R7 load(1, XDATA, add(CFA_XSP16, literal(-6)))
          CFI ?RET_LOW load(1, XDATA, add(CFA_XSP16, literal(-5)))
          CFI ?RET_HIGH load(1, XDATA, add(CFA_XSP16, literal(-4)))
          CFI ?BRET_EXT load(1, XDATA, add(CFA_XSP16, literal(-3)))
          CFI DPL0 load(1, XDATA, add(CFA_XSP16, literal(-2)))
          CFI DPH0 load(1, XDATA, add(CFA_XSP16, literal(-1)))
          CFI CFA_SP SP+-2
          CFI CFA_XSP16 add(XSP16, 24)
          CFI Block cfiCond433 Using cfiCommon0
          CFI (cfiCond433) Function ZDSecMgrWriteNV
          CFI (cfiCond433) Conditional ??CrossCallReturnLabel_83, ??CrossCallReturnLabel_53
          CFI (cfiCond433) R6 load(1, XDATA, add(CFA_XSP16, literal(-12)))
          CFI (cfiCond433) VB load(1, XDATA, add(CFA_XSP16, literal(-11)))
          CFI (cfiCond433) V0 load(1, XDATA, add(CFA_XSP16, literal(-10)))
          CFI (cfiCond433) V1 load(1, XDATA, add(CFA_XSP16, literal(-9)))
          CFI (cfiCond433) V2 load(1, XDATA, add(CFA_XSP16, literal(-8)))
          CFI (cfiCond433) V3 load(1, XDATA, add(CFA_XSP16, literal(-7)))
          CFI (cfiCond433) R7 load(1, XDATA, add(CFA_XSP16, literal(-6)))
          CFI (cfiCond433) ?RET_LOW load(1, XDATA, add(CFA_XSP16, literal(-5)))
          CFI (cfiCond433) ?RET_HIGH load(1, XDATA, add(CFA_XSP16, literal(-4)))
          CFI (cfiCond433) ?BRET_EXT load(1, XDATA, add(CFA_XSP16, literal(-3)))
          CFI (cfiCond433) DPL0 load(1, XDATA, add(CFA_XSP16, literal(-2)))
          CFI (cfiCond433) DPH0 load(1, XDATA, add(CFA_XSP16, literal(-1)))
          CFI (cfiCond433) CFA_SP SP+-4
          CFI (cfiCond433) CFA_XSP16 add(XSP16, 18)
          CFI Block cfiCond434 Using cfiCommon0
          CFI (cfiCond434) Function ZDSecMgrSetDefaultNV
          CFI (cfiCond434) Conditional ??CrossCallReturnLabel_83, ??CrossCallReturnLabel_54
          CFI (cfiCond434) R6 load(1, XDATA, add(CFA_XSP16, literal(-12)))
          CFI (cfiCond434) VB load(1, XDATA, add(CFA_XSP16, literal(-11)))
          CFI (cfiCond434) V0 load(1, XDATA, add(CFA_XSP16, literal(-10)))
          CFI (cfiCond434) V1 load(1, XDATA, add(CFA_XSP16, literal(-9)))
          CFI (cfiCond434) V2 load(1, XDATA, add(CFA_XSP16, literal(-8)))
          CFI (cfiCond434) V3 load(1, XDATA, add(CFA_XSP16, literal(-7)))
          CFI (cfiCond434) R7 load(1, XDATA, add(CFA_XSP16, literal(-6)))
          CFI (cfiCond434) ?RET_LOW load(1, XDATA, add(CFA_XSP16, literal(-5)))
          CFI (cfiCond434) ?RET_HIGH load(1, XDATA, add(CFA_XSP16, literal(-4)))
          CFI (cfiCond434) ?BRET_EXT load(1, XDATA, add(CFA_XSP16, literal(-3)))
          CFI (cfiCond434) DPL0 load(1, XDATA, add(CFA_XSP16, literal(-2)))
          CFI (cfiCond434) DPH0 load(1, XDATA, add(CFA_XSP16, literal(-1)))
          CFI (cfiCond434) CFA_SP SP+-4
          CFI (cfiCond434) CFA_XSP16 add(XSP16, 23)
          CFI Block cfiPicker435 Using cfiCommon1
          CFI (cfiPicker435) NoFunction
          CFI (cfiPicker435) Picker
        MOV     R1,A
        MOV     A,R0
        ADD     A,#0x2
        MOV     R4,A
        CLR     A
        ADDC    A,R1
        MOV     R5,A
        MOV     R2,#0x4c
        MOV     R3,#0x0
        RET
          CFI EndBlock cfiCond432
          CFI EndBlock cfiCond433
          CFI EndBlock cfiCond434
          CFI EndBlock cfiPicker435

        RSEG BANKED_CODE:CODE:NOROOT(0)
?Subroutine14:
          CFI Block cfiCond436 Using cfiCommon0
          CFI Function ZDSecMgrInitNV
          CFI Conditional ??CrossCallReturnLabel_2
          CFI R6 load(1, XDATA, add(CFA_XSP16, literal(-10)))
          CFI VB load(1, XDATA, add(CFA_XSP16, literal(-9)))
          CFI V0 load(1, XDATA, add(CFA_XSP16, literal(-8)))
          CFI V1 load(1, XDATA, add(CFA_XSP16, literal(-7)))
          CFI R7 load(1, XDATA, add(CFA_XSP16, literal(-6)))
          CFI ?RET_LOW load(1, XDATA, add(CFA_XSP16, literal(-5)))
          CFI ?RET_HIGH load(1, XDATA, add(CFA_XSP16, literal(-4)))
          CFI ?BRET_EXT load(1, XDATA, add(CFA_XSP16, literal(-3)))
          CFI DPL0 load(1, XDATA, add(CFA_XSP16, literal(-2)))
          CFI DPH0 load(1, XDATA, add(CFA_XSP16, literal(-1)))
          CFI CFA_SP SP+-2
          CFI CFA_XSP16 add(XSP16, 12)
          CFI Block cfiCond437 Using cfiCommon0
          CFI (cfiCond437) Function ZDSecMgrSetDefaultNV
          CFI (cfiCond437) Conditional ??CrossCallReturnLabel_3
          CFI (cfiCond437) R6 load(1, XDATA, add(CFA_XSP16, literal(-12)))
          CFI (cfiCond437) VB load(1, XDATA, add(CFA_XSP16, literal(-11)))
          CFI (cfiCond437) V0 load(1, XDATA, add(CFA_XSP16, literal(-10)))
          CFI (cfiCond437) V1 load(1, XDATA, add(CFA_XSP16, literal(-9)))
          CFI (cfiCond437) V2 load(1, XDATA, add(CFA_XSP16, literal(-8)))
          CFI (cfiCond437) V3 load(1, XDATA, add(CFA_XSP16, literal(-7)))
          CFI (cfiCond437) R7 load(1, XDATA, add(CFA_XSP16, literal(-6)))
          CFI (cfiCond437) ?RET_LOW load(1, XDATA, add(CFA_XSP16, literal(-5)))
          CFI (cfiCond437) ?RET_HIGH load(1, XDATA, add(CFA_XSP16, literal(-4)))
          CFI (cfiCond437) ?BRET_EXT load(1, XDATA, add(CFA_XSP16, literal(-3)))
          CFI (cfiCond437) DPL0 load(1, XDATA, add(CFA_XSP16, literal(-2)))
          CFI (cfiCond437) DPH0 load(1, XDATA, add(CFA_XSP16, literal(-1)))
          CFI (cfiCond437) CFA_SP SP+-2
          CFI (cfiCond437) CFA_XSP16 add(XSP16, 19)
          CFI Block cfiPicker438 Using cfiCommon1
          CFI (cfiPicker438) NoFunction
          CFI (cfiPicker438) Picker
        MOV     DPL,?XSP + 0
        MOV     DPH,?XSP + 1
        CLR     A
        MOVX    @DPTR,A
        INC     DPTR
        MOVX    @DPTR,A
        ; Setup parameters for call to function osal_nv_write
        ; Setup parameters for call to function osal_nv_write
        MOV     R0,?XSP + 0
        MOV     R1,?XSP + 1
        MOV     ?V0,R0
        MOV     ?V1,R1
        MOV     R0,#?V0
        RET
          CFI EndBlock cfiCond436
          CFI EndBlock cfiCond437
          CFI EndBlock cfiPicker438
// 2897 
// 2898 #if defined ( NV_RESTORE )
// 2899 /*********************************************************************
// 2900  * @fn      ZDSecMgrUpdateNV()
// 2901  *
// 2902  * @brief   Updates one entry of the APS link key table to NV
// 2903  *
// 2904  * @param   index - to the entry in security manager table
// 2905  *
// 2906  * @return  none
// 2907  */
// 2908 static void ZDSecMgrUpdateNV( uint16 index )
// 2909 {
// 2910   nvDeviceListHdr_t hdr;
// 2911 
// 2912   if (ZDSecMgrEntries != NULL)
// 2913   {
// 2914     // Save off the record
// 2915     osal_nv_write( ZCD_NV_APS_LINK_KEY_TABLE,
// 2916                    (uint16)((sizeof(nvDeviceListHdr_t)) + (index * sizeof(ZDSecMgrEntry_t))),
// 2917                    sizeof(ZDSecMgrEntry_t), &ZDSecMgrEntries[index] );
// 2918   }
// 2919 
// 2920   if (osal_nv_read(ZCD_NV_APS_LINK_KEY_TABLE, 0, sizeof(nvDeviceListHdr_t), &hdr) == ZSUCCESS)
// 2921   {
// 2922     if ( ZDSecMgrEntries[index].ami == INVALID_NODE_ADDR )
// 2923     {
// 2924       if (hdr.numRecs > 0)
// 2925       {
// 2926         hdr.numRecs--;
// 2927       }
// 2928     }
// 2929     else
// 2930     {
// 2931       hdr.numRecs++;
// 2932     }
// 2933 
// 2934     // Save off the header
// 2935     osal_nv_write( ZCD_NV_APS_LINK_KEY_TABLE, 0, sizeof( nvDeviceListHdr_t ), &hdr );
// 2936   }
// 2937 }
// 2938 #endif // NV_RESTORE
// 2939 
// 2940 /******************************************************************************
// 2941  * @fn          ZDSecMgrAPSRemove
// 2942  *
// 2943  * @brief       Remove device from network.
// 2944  *
// 2945  * @param       nwkAddr - device's NWK address
// 2946  * @param       extAddr - device's Extended address
// 2947  * @param       parentAddr - parent's NWK address
// 2948  *
// 2949  * @return      ZStatus_t
// 2950  */

        RSEG BANKED_CODE:CODE:NOROOT(0)
// 2951 ZStatus_t ZDSecMgrAPSRemove( uint16 nwkAddr, uint8 *extAddr, uint16 parentAddr )
ZDSecMgrAPSRemove:
          CFI Block cfiBlock439 Using cfiCommon0
          CFI Function ZDSecMgrAPSRemove
        CODE
// 2952 {
        FUNCALL ZDSecMgrAPSRemove, ZDSecMgrDeviceRemove
        LOCFRAME ISTACK, 2, STACK
        LOCFRAME PSTACK, 0, STACK
        LOCFRAME XSTACK, 8, STACK
        LOCFRAME IOVERLAY, 0, STATIC
        LOCFRAME DOVERLAY, 0, STATIC
        ARGFRAME ISTACK, 2, STACK
        ARGFRAME PSTACK, 0, STACK
        ARGFRAME XSTACK, 8, STACK
        ARGFRAME IOVERLAY, 0, STATIC
        ARGFRAME DOVERLAY, 0, STATIC
        PUSH    DPL
          CFI DPL0 Frame(CFA_SP, 4)
          CFI CFA_SP SP+-4
        PUSH    DPH
          CFI DPH0 Frame(CFA_SP, 5)
          CFI CFA_SP SP+-5
        ; Saved register size: 2
        ; Auto size: 8
        MOV     A,#-0x8
        LCALL   ?ALLOC_XSTACK8
          CFI CFA_XSP16 add(XSP16, 8)
// 2953   ZDSecMgrDevice_t device;
// 2954 
// 2955   if ( ( nwkAddr == INVALID_NODE_ADDR ) ||
// 2956        ( extAddr == NULL )              ||
// 2957        ( parentAddr == INVALID_NODE_ADDR ) )
        MOV     A,#-0x2
        XRL     A,R2
        JNZ     ??ZDSecMgrAPSRemove_0
        MOV     A,#-0x1
        XRL     A,R3
??ZDSecMgrAPSRemove_0:
        JZ      ??ZDSecMgrAPSRemove_1
        MOV     A,R4
        ORL     A,R5
        JZ      ??ZDSecMgrAPSRemove_1
        MOV     A,#0x8
        LCALL   ?XSTACK_DISP0_8
        LCALL   ??Subroutine74_0 & 0xFFFF
??CrossCallReturnLabel_178:
        MOV     A,#-0x2
        XRL     A,R0
        JNZ     ??ZDSecMgrAPSRemove_2
        MOV     A,#-0x1
        XRL     A,R1
??ZDSecMgrAPSRemove_2:
        JNZ     ??ZDSecMgrAPSRemove_3
// 2958   {
// 2959     return ( ZFailure );
??ZDSecMgrAPSRemove_1:
        MOV     R1,#0x1
        SJMP    ??ZDSecMgrAPSRemove_4
// 2960   }
// 2961 
// 2962   device.nwkAddr = nwkAddr;
??ZDSecMgrAPSRemove_3:
        MOV     DPL,?XSP + 0
        MOV     DPH,?XSP + 1
        LCALL   ?Subroutine50 & 0xFFFF
// 2963   device.extAddr = extAddr;
??CrossCallReturnLabel_72:
        MOV     A,#0x2
        LCALL   ?XSTACK_DISP0_8
        MOV     A,R4
        MOVX    @DPTR,A
        INC     DPTR
        MOV     A,R5
        MOVX    @DPTR,A
// 2964   device.parentAddr = parentAddr;
        MOV     A,#0x4
        LCALL   ?XSTACK_DISP0_8
        MOV     A,R0
        MOVX    @DPTR,A
        INC     DPTR
        MOV     A,R1
        LCALL   ??Subroutine76_0 & 0xFFFF
// 2965 
// 2966   // remove device
// 2967   ZDSecMgrDeviceRemove( &device );
??CrossCallReturnLabel_191:
        LCALL   `??ZDSecMgrDeviceRemove::?relay`; Banked call to: ZDSecMgrDeviceRemove
// 2968 
// 2969   return ( ZSuccess );
        MOV     R1,#0x0
??ZDSecMgrAPSRemove_4:
        LJMP    ?Subroutine2 & 0xFFFF
// 2970 }
          CFI EndBlock cfiBlock439

        RSEG BANKED_CODE:CODE:NOROOT(0)
?Subroutine18:
          CFI Block cfiCond440 Using cfiCommon0
          CFI Function ZDSecMgrEntryLookup
          CFI Conditional ??CrossCallReturnLabel_187
          CFI R6 load(1, XDATA, add(CFA_XSP16, literal(-9)))
          CFI VB load(1, XDATA, add(CFA_XSP16, literal(-8)))
          CFI V0 load(1, XDATA, add(CFA_XSP16, literal(-7)))
          CFI R7 load(1, XDATA, add(CFA_XSP16, literal(-6)))
          CFI ?RET_LOW load(1, XDATA, add(CFA_XSP16, literal(-5)))
          CFI ?RET_HIGH load(1, XDATA, add(CFA_XSP16, literal(-4)))
          CFI ?BRET_EXT load(1, XDATA, add(CFA_XSP16, literal(-3)))
          CFI DPL0 load(1, XDATA, add(CFA_XSP16, literal(-2)))
          CFI DPH0 load(1, XDATA, add(CFA_XSP16, literal(-1)))
          CFI CFA_SP SP+-2
          CFI CFA_XSP16 add(XSP16, 22)
          CFI Block cfiCond441 Using cfiCommon0
          CFI (cfiCond441) Function ZDSecMgrRequestAppKey
          CFI (cfiCond441) Conditional ??CrossCallReturnLabel_188
          CFI (cfiCond441) DPL0 Frame(CFA_SP, 4)
          CFI (cfiCond441) DPH0 Frame(CFA_SP, 5)
          CFI (cfiCond441) CFA_SP SP+-7
          CFI (cfiCond441) CFA_XSP16 add(XSP16, 4)
          CFI Block cfiPicker442 Using cfiCommon1
          CFI (cfiPicker442) NoFunction
          CFI (cfiPicker442) Picker
        MOV     A,R2
        MOVX    @DPTR,A
        INC     DPTR
        MOV     A,R3
          CFI EndBlock cfiCond440
          CFI EndBlock cfiCond441
          CFI EndBlock cfiPicker442
        REQUIRE ??Subroutine76_0
        ; // Fall through to label ??Subroutine76_0

        RSEG BANKED_CODE:CODE:NOROOT(0)
??Subroutine76_0:
          CFI Block cfiCond443 Using cfiCommon0
          CFI Function ZDSecMgrNewDeviceEvent
          CFI Conditional ??CrossCallReturnLabel_189
          CFI R6 load(1, XDATA, add(CFA_XSP16, literal(-12)))
          CFI VB load(1, XDATA, add(CFA_XSP16, literal(-11)))
          CFI V0 load(1, XDATA, add(CFA_XSP16, literal(-10)))
          CFI V1 load(1, XDATA, add(CFA_XSP16, literal(-9)))
          CFI V2 load(1, XDATA, add(CFA_XSP16, literal(-8)))
          CFI V3 load(1, XDATA, add(CFA_XSP16, literal(-7)))
          CFI R7 load(1, XDATA, add(CFA_XSP16, literal(-6)))
          CFI ?RET_LOW load(1, XDATA, add(CFA_XSP16, literal(-5)))
          CFI ?RET_HIGH load(1, XDATA, add(CFA_XSP16, literal(-4)))
          CFI ?BRET_EXT load(1, XDATA, add(CFA_XSP16, literal(-3)))
          CFI DPL0 load(1, XDATA, add(CFA_XSP16, literal(-2)))
          CFI DPH0 load(1, XDATA, add(CFA_XSP16, literal(-1)))
          CFI CFA_SP SP+-2
          CFI CFA_XSP16 add(XSP16, 33)
          CFI Block cfiCond444 Using cfiCommon0
          CFI (cfiCond444) Function ZDSecMgrRemoveDeviceInd
          CFI (cfiCond444) Conditional ??CrossCallReturnLabel_190
          CFI (cfiCond444) R6 load(1, XDATA, add(CFA_XSP16, literal(-9)))
          CFI (cfiCond444) VB load(1, XDATA, add(CFA_XSP16, literal(-8)))
          CFI (cfiCond444) V0 load(1, XDATA, add(CFA_XSP16, literal(-7)))
          CFI (cfiCond444) R7 load(1, XDATA, add(CFA_XSP16, literal(-6)))
          CFI (cfiCond444) ?RET_LOW load(1, XDATA, add(CFA_XSP16, literal(-5)))
          CFI (cfiCond444) ?RET_HIGH load(1, XDATA, add(CFA_XSP16, literal(-4)))
          CFI (cfiCond444) ?BRET_EXT load(1, XDATA, add(CFA_XSP16, literal(-3)))
          CFI (cfiCond444) DPL0 load(1, XDATA, add(CFA_XSP16, literal(-2)))
          CFI (cfiCond444) DPH0 load(1, XDATA, add(CFA_XSP16, literal(-1)))
          CFI (cfiCond444) CFA_SP SP+-2
          CFI (cfiCond444) CFA_XSP16 add(XSP16, 17)
          CFI Block cfiCond445 Using cfiCommon0
          CFI (cfiCond445) Function ZDSecMgrAPSRemove
          CFI (cfiCond445) Conditional ??CrossCallReturnLabel_191
          CFI (cfiCond445) DPL0 Frame(CFA_SP, 4)
          CFI (cfiCond445) DPH0 Frame(CFA_SP, 5)
          CFI (cfiCond445) CFA_SP SP+-7
          CFI (cfiCond445) CFA_XSP16 add(XSP16, 8)
          CFI Block cfiCond446 Using cfiCommon0
          CFI (cfiCond446) Function ZDSecMgrEntryLookup
          CFI (cfiCond446) Conditional ??CrossCallReturnLabel_187
          CFI (cfiCond446) R6 load(1, XDATA, add(CFA_XSP16, literal(-9)))
          CFI (cfiCond446) VB load(1, XDATA, add(CFA_XSP16, literal(-8)))
          CFI (cfiCond446) V0 load(1, XDATA, add(CFA_XSP16, literal(-7)))
          CFI (cfiCond446) R7 load(1, XDATA, add(CFA_XSP16, literal(-6)))
          CFI (cfiCond446) ?RET_LOW load(1, XDATA, add(CFA_XSP16, literal(-5)))
          CFI (cfiCond446) ?RET_HIGH load(1, XDATA, add(CFA_XSP16, literal(-4)))
          CFI (cfiCond446) ?BRET_EXT load(1, XDATA, add(CFA_XSP16, literal(-3)))
          CFI (cfiCond446) DPL0 load(1, XDATA, add(CFA_XSP16, literal(-2)))
          CFI (cfiCond446) DPH0 load(1, XDATA, add(CFA_XSP16, literal(-1)))
          CFI (cfiCond446) CFA_SP SP+-2
          CFI (cfiCond446) CFA_XSP16 add(XSP16, 22)
          CFI Block cfiCond447 Using cfiCommon0
          CFI (cfiCond447) Function ZDSecMgrRequestAppKey
          CFI (cfiCond447) Conditional ??CrossCallReturnLabel_188
          CFI (cfiCond447) DPL0 Frame(CFA_SP, 4)
          CFI (cfiCond447) DPH0 Frame(CFA_SP, 5)
          CFI (cfiCond447) CFA_SP SP+-7
          CFI (cfiCond447) CFA_XSP16 add(XSP16, 4)
          CFI Block cfiPicker448 Using cfiCommon1
          CFI (cfiPicker448) NoFunction
          CFI (cfiPicker448) Picker
        MOVX    @DPTR,A
        ; Setup parameters for call to function AddrMgrEntryLookupNwk
        ; Setup parameters for call to function APSME_RequestKeyReq
        ; Setup parameters for call to function ZDSecMgrDeviceNew
        ; Setup parameters for call to function ZDSecMgrDeviceRemove
        ; Setup parameters for call to function ZDSecMgrDeviceRemove
        MOV     R2,?XSP + 0
        MOV     R3,?XSP + 1
        RET
          CFI EndBlock cfiCond443
          CFI EndBlock cfiCond444
          CFI EndBlock cfiCond445
          CFI EndBlock cfiCond446
          CFI EndBlock cfiCond447
          CFI EndBlock cfiPicker448
// 2971 
// 2972 /******************************************************************************
// 2973  * @fn          APSME_TCLinkKeyInit
// 2974  *
// 2975  * @brief       Initialize the NV table for preconfigured TC link key
// 2976  *
// 2977  *              When zgUseDefaultTCL is set to TRUE, the default preconfig
// 2978  *              Trust Center Link Key is written to NV. A single tclk is used
// 2979  *              by all devices joining the network.
// 2980  *
// 2981  * @param       setDefault - TRUE to set default values
// 2982  *
// 2983  * @return      none
// 2984  */

        RSEG BANKED_CODE:CODE:NOROOT(0)
// 2985 void APSME_TCLinkKeyInit(uint8 setDefault)
APSME_TCLinkKeyInit:
          CFI Block cfiBlock449 Using cfiCommon0
          CFI Function APSME_TCLinkKeyInit
        CODE
// 2986 {
        FUNCALL APSME_TCLinkKeyInit, osal_memset
        LOCFRAME ISTACK, 0, STACK
        LOCFRAME PSTACK, 0, STACK
        LOCFRAME XSTACK, 37, STACK
        LOCFRAME IOVERLAY, 0, STATIC
        LOCFRAME DOVERLAY, 0, STATIC
        ARGFRAME ISTACK, 0, STACK
        ARGFRAME PSTACK, 0, STACK
        ARGFRAME XSTACK, 37, STACK
        ARGFRAME IOVERLAY, 0, STATIC
        ARGFRAME DOVERLAY, 0, STATIC
        FUNCALL APSME_TCLinkKeyInit, osal_nv_item_init
        LOCFRAME ISTACK, 0, STACK
        LOCFRAME PSTACK, 0, STACK
        LOCFRAME XSTACK, 39, STACK
        LOCFRAME IOVERLAY, 0, STATIC
        LOCFRAME DOVERLAY, 0, STATIC
        ARGFRAME ISTACK, 0, STACK
        ARGFRAME PSTACK, 0, STACK
        ARGFRAME XSTACK, 39, STACK
        ARGFRAME IOVERLAY, 0, STATIC
        ARGFRAME DOVERLAY, 0, STATIC
        FUNCALL APSME_TCLinkKeyInit, osal_nv_write
        LOCFRAME ISTACK, 0, STACK
        LOCFRAME PSTACK, 0, STACK
        LOCFRAME XSTACK, 41, STACK
        LOCFRAME IOVERLAY, 0, STATIC
        LOCFRAME DOVERLAY, 0, STATIC
        ARGFRAME ISTACK, 0, STACK
        ARGFRAME PSTACK, 0, STACK
        ARGFRAME XSTACK, 41, STACK
        ARGFRAME IOVERLAY, 0, STATIC
        ARGFRAME DOVERLAY, 0, STATIC
        FUNCALL APSME_TCLinkKeyInit, osal_nv_read
        LOCFRAME ISTACK, 0, STACK
        LOCFRAME PSTACK, 0, STACK
        LOCFRAME XSTACK, 41, STACK
        LOCFRAME IOVERLAY, 0, STATIC
        LOCFRAME DOVERLAY, 0, STATIC
        ARGFRAME ISTACK, 0, STACK
        ARGFRAME PSTACK, 0, STACK
        ARGFRAME XSTACK, 41, STACK
        ARGFRAME IOVERLAY, 0, STATIC
        ARGFRAME DOVERLAY, 0, STATIC
        FUNCALL APSME_TCLinkKeyInit, osal_nv_write
        LOCFRAME ISTACK, 0, STACK
        LOCFRAME PSTACK, 0, STACK
        LOCFRAME XSTACK, 41, STACK
        LOCFRAME IOVERLAY, 0, STATIC
        LOCFRAME DOVERLAY, 0, STATIC
        ARGFRAME ISTACK, 0, STACK
        ARGFRAME PSTACK, 0, STACK
        ARGFRAME XSTACK, 41, STACK
        ARGFRAME IOVERLAY, 0, STATIC
        ARGFRAME DOVERLAY, 0, STATIC
        FUNCALL APSME_TCLinkKeyInit, osal_memset
        LOCFRAME ISTACK, 0, STACK
        LOCFRAME PSTACK, 0, STACK
        LOCFRAME XSTACK, 37, STACK
        LOCFRAME IOVERLAY, 0, STATIC
        LOCFRAME DOVERLAY, 0, STATIC
        ARGFRAME ISTACK, 0, STACK
        ARGFRAME PSTACK, 0, STACK
        ARGFRAME XSTACK, 37, STACK
        ARGFRAME IOVERLAY, 0, STATIC
        ARGFRAME DOVERLAY, 0, STATIC
        FUNCALL APSME_TCLinkKeyInit, APSME_EraseICEntry
        LOCFRAME ISTACK, 0, STACK
        LOCFRAME PSTACK, 0, STACK
        LOCFRAME XSTACK, 37, STACK
        LOCFRAME IOVERLAY, 0, STATIC
        LOCFRAME DOVERLAY, 0, STATIC
        ARGFRAME ISTACK, 0, STACK
        ARGFRAME PSTACK, 0, STACK
        ARGFRAME XSTACK, 37, STACK
        ARGFRAME IOVERLAY, 0, STATIC
        ARGFRAME DOVERLAY, 0, STATIC
        REQUIRE ?V0
        REQUIRE ?V1
        REQUIRE ?V2
        REQUIRE ?V3
        REQUIRE ?V4
        REQUIRE ?V5
        REQUIRE ?V6
        REQUIRE ?V7
        REQUIRE ?V8
        REQUIRE ?V9
        MOV     A,#-0x12
        LCALL   ?BANKED_ENTER_XDATA
          CFI DPH0 load(1, XDATA, add(CFA_XSP16, literal(-1)))
          CFI DPL0 load(1, XDATA, add(CFA_XSP16, literal(-2)))
          CFI ?BRET_EXT load(1, XDATA, add(CFA_XSP16, literal(-3)))
          CFI ?RET_HIGH load(1, XDATA, add(CFA_XSP16, literal(-4)))
          CFI ?RET_LOW load(1, XDATA, add(CFA_XSP16, literal(-5)))
          CFI R7 load(1, XDATA, add(CFA_XSP16, literal(-6)))
          CFI V9 load(1, XDATA, add(CFA_XSP16, literal(-7)))
          CFI V8 load(1, XDATA, add(CFA_XSP16, literal(-8)))
          CFI V7 load(1, XDATA, add(CFA_XSP16, literal(-9)))
          CFI V6 load(1, XDATA, add(CFA_XSP16, literal(-10)))
          CFI V5 load(1, XDATA, add(CFA_XSP16, literal(-11)))
          CFI V4 load(1, XDATA, add(CFA_XSP16, literal(-12)))
          CFI V3 load(1, XDATA, add(CFA_XSP16, literal(-13)))
          CFI V2 load(1, XDATA, add(CFA_XSP16, literal(-14)))
          CFI V1 load(1, XDATA, add(CFA_XSP16, literal(-15)))
          CFI V0 load(1, XDATA, add(CFA_XSP16, literal(-16)))
          CFI VB load(1, XDATA, add(CFA_XSP16, literal(-17)))
          CFI R6 load(1, XDATA, add(CFA_XSP16, literal(-18)))
          CFI CFA_SP SP+0
          CFI CFA_XSP16 add(XSP16, 18)
        ; Saved register size: 18
        ; Auto size: 19
        MOV     A,#-0x13
        LCALL   ?ALLOC_XSTACK8
          CFI CFA_XSP16 add(XSP16, 37)
        MOV     A,R1
        MOV     R7,A
// 2987   APSME_TCLKDevEntry_t TCLKDevEntry;
// 2988   uint8                rtrn;
// 2989   uint8                i;
// 2990   
// 2991   //Initialize the default key
// 2992   //osal_nv_item_init(ZCD_NV_TCLK_DEFAULT, SEC_KEY_LEN,(void*) &defaultTCLinkKey);
// 2993 
// 2994   // Clear the data for the keys
// 2995   osal_memset( &TCLKDevEntry, 0x00, sizeof(APSME_TCLKDevEntry_t) );
        ; Setup parameters for call to function osal_memset
        MOV     R4,#0x13
        MOV     R5,#0x0
        MOV     R1,#0x0
        MOV     R2,?XSP + 0
        MOV     R3,?XSP + 1
        LCALL   `??osal_memset::?relay`; Banked call to: osal_memset
// 2996   TCLKDevEntry.keyAttributes = ZG_DEFAULT_KEY;
        MOV     A,#0x10
        LCALL   ?XSTACK_DISP0_8
        MOV     A,#-0x1
        MOVX    @DPTR,A
// 2997   
// 2998   // Initialize all NV items
// 2999   for( i = 0; i < gZDSECMGR_TC_DEVICE_MAX; i++ )
        MOV     R6,#0x0
// 3000   {
// 3001     // If the item doesn't exist in NV memory, create and initialize
// 3002     // it with the default value passed in, either defaultTCLK or 0
// 3003     rtrn = osal_nv_item_init( (ZCD_NV_TCLK_TABLE_START + i),
// 3004                                sizeof(APSME_TCLKDevEntry_t), &TCLKDevEntry);
// 3005 
// 3006     if (rtrn == SUCCESS)
??APSME_TCLinkKeyInit_0:
        MOV     ?V2,R6
        MOV     A,?V2
        ADD     A,#0x11
        MOV     ?V0,A
        CLR     A
        ADDC    A,#0x1
        MOV     ?V1,A
        ; Setup parameters for call to function osal_nv_item_init
        MOV     R0,?XSP + 0
        MOV     R1,?XSP + 1
        MOV     ?V4,R0
        MOV     ?V5,R1
        MOV     R0,#?V4
        LCALL   ?PUSH_XSTACK_I_TWO
          CFI CFA_XSP16 add(XSP16, 39)
        MOV     R4,#0x13
        MOV     R5,#0x0
        MOV     R2,?V0
        MOV     R3,?V1
        LCALL   `??osal_nv_item_init::?relay`; Banked call to: osal_nv_item_init
        MOV     A,#0x2
        LCALL   ?DEALLOC_XSTACK8
          CFI CFA_XSP16 add(XSP16, 37)
        MOV     A,R1
        JZ      $+5
        LJMP    ??APSME_TCLinkKeyInit_1 & 0xFFFF
// 3007     {
// 3008       if(setDefault)
        MOV     A,?V2
        MOV     B,#0x9
        MUL     AB
        MOV     ?V2,A
        MOV     A,B
        MOV     ?V3,A
        MOV     A,#TCLinkKeyFrmCntr & 0xff
        ADD     A,?V2
        MOV     ?V2,A
        MOV     A,#(TCLinkKeyFrmCntr >> 8) & 0xff
        ADDC    A,?V3
        MOV     ?V3,A
        MOV     A,?V2
        ADD     A,#0x4
        MOV     ?V8,A
        CLR     A
        ADDC    A,?V3
        MOV     ?V9,A
        MOV     A,R7
        MOV     R0,#?V4
        JZ      ??APSME_TCLinkKeyInit_2
// 3009       {
// 3010         //Force to initialize the entry
// 3011         osal_nv_write(ZCD_NV_TCLK_TABLE_START + i, 0, sizeof(APSME_TCLKDevEntry_t), &TCLKDevEntry);
        ; Setup parameters for call to function osal_nv_write
        LCALL   ?PUSH_XSTACK_I_TWO
          CFI CFA_XSP16 add(XSP16, 39)
        MOV     ?V4,#0x13
        MOV     ?V5,#0x0
        MOV     R0,#?V4
        LCALL   ?PUSH_XSTACK_I_TWO
          CFI CFA_XSP16 add(XSP16, 41)
        MOV     R4,#0x0
        MOV     R5,#0x0
        MOV     R2,?V0
        MOV     R3,?V1
        LCALL   `??osal_nv_write::?relay`; Banked call to: osal_nv_write
        MOV     A,#0x4
        LCALL   ?DEALLOC_XSTACK8
          CFI CFA_XSP16 add(XSP16, 37)
// 3012         TCLinkKeyFrmCntr[i].txFrmCntr = 0;
        MOV     DPL,?V2
        MOV     DPH,?V3
        MOV     ?V0,#0x0
        MOV     ?V1,#0x0
        MOV     ?V2,#0x0
        MOV     ?V3,#0x0
        MOV     R0,#?V0
        LCALL   ?L_MOV_TO_X
// 3013         TCLinkKeyFrmCntr[i].rxFrmCntr = 0;
        MOV     DPL,?V8
        MOV     DPH,?V9
        CLR     A
        MOVX    @DPTR,A
        INC     DPTR
        MOVX    @DPTR,A
        INC     DPTR
        MOVX    @DPTR,A
        INC     DPTR
        LJMP    ??APSME_TCLinkKeyInit_3 & 0xFFFF
// 3014       }
// 3015       else
// 3016       {
// 3017         // set the Frame counters to 0 to existing keys in NV
// 3018         osal_nv_read( ( ZCD_NV_TCLK_TABLE_START + i), 0,
// 3019                        sizeof(APSME_TCLKDevEntry_t), &TCLKDevEntry );
??APSME_TCLinkKeyInit_2:
        ; Setup parameters for call to function osal_nv_read
        LCALL   ?PUSH_XSTACK_I_TWO
          CFI CFA_XSP16 add(XSP16, 39)
        MOV     ?V4,#0x13
        MOV     ?V5,#0x0
        MOV     R0,#?V4
        LCALL   ?PUSH_XSTACK_I_TWO
          CFI CFA_XSP16 add(XSP16, 41)
        MOV     R4,#0x0
        MOV     R5,#0x0
        MOV     R2,?V0
        MOV     R3,?V1
        LCALL   `??osal_nv_read::?relay`; Banked call to: osal_nv_read
        MOV     A,#0x4
        LCALL   ?DEALLOC_XSTACK8
          CFI CFA_XSP16 add(XSP16, 37)
// 3020 
// 3021         // increase the value stored in NV
// 3022         TCLKDevEntry.txFrmCntr += ( MAX_TCLK_FRAMECOUNTER_CHANGES + 1 );
        MOV     DPTR,#__Constant_b
        MOV     R0,#?V4
        LCALL   ?L_MOV_X
        MOV     DPL,?XSP + 0
        MOV     DPH,?XSP + 1
        MOV     R0,#?V4
        LCALL   ?L_ADD_TO_X
// 3023 
// 3024         osal_nv_write( ( ZCD_NV_TCLK_TABLE_START + i), 0,
// 3025                         sizeof(APSME_TCLKDevEntry_t), &TCLKDevEntry );
        ; Setup parameters for call to function osal_nv_write
        MOV     R0,?XSP + 0
        MOV     R1,?XSP + 1
        MOV     ?V4,R0
        MOV     ?V5,R1
        MOV     R0,#?V4
        LCALL   ?PUSH_XSTACK_I_TWO
          CFI CFA_XSP16 add(XSP16, 39)
        MOV     ?V4,#0x13
        MOV     ?V5,#0x0
        MOV     R0,#?V4
        LCALL   ?PUSH_XSTACK_I_TWO
          CFI CFA_XSP16 add(XSP16, 41)
        MOV     R4,#0x0
        MOV     R5,#0x0
        MOV     R2,?V0
        MOV     R3,?V1
        LCALL   `??osal_nv_write::?relay`; Banked call to: osal_nv_write
        MOV     A,#0x4
        LCALL   ?DEALLOC_XSTACK8
          CFI CFA_XSP16 add(XSP16, 37)
// 3026 
// 3027         // set initial values for counters in RAM
// 3028         TCLinkKeyFrmCntr[i].txFrmCntr = TCLKDevEntry.txFrmCntr;
        MOV     DPL,?XSP + 0
        MOV     DPH,?XSP + 1
        LCALL   ?XLOAD_R0123
        MOV     DPL,?V2
        MOV     DPH,?V3
        LCALL   ?XSTORE_R0123
// 3029         TCLinkKeyFrmCntr[i].rxFrmCntr = TCLKDevEntry.rxFrmCntr;
        MOV     A,#0x4
        LCALL   ?XSTACK_DISP0_8
        LCALL   ?XLOAD_R0123
        MOV     DPL,?V8
        MOV     DPH,?V9
        LCALL   ?XSTORE_R0123
// 3030         
// 3031         // Making sure data is cleared and set to default for every key all the time
// 3032         osal_memset( &TCLKDevEntry, 0x00, sizeof(APSME_TCLKDevEntry_t) );
        ; Setup parameters for call to function osal_memset
        MOV     R4,#0x13
        MOV     R5,#0x0
        MOV     R1,#0x0
        MOV     R2,?XSP + 0
        MOV     R3,?XSP + 1
        LCALL   `??osal_memset::?relay`; Banked call to: osal_memset
// 3033         TCLKDevEntry.keyAttributes = ZG_DEFAULT_KEY;
        MOV     A,#0x10
        LCALL   ?XSTACK_DISP0_8
        MOV     A,#-0x1
??APSME_TCLinkKeyInit_3:
        MOVX    @DPTR,A
// 3034       }
// 3035     }
// 3036   }
??APSME_TCLinkKeyInit_1:
        INC     R6
        MOV     A,R6
        CLR     C
        SUBB    A,#0x3
        JNC     $+5
        LJMP    ??APSME_TCLinkKeyInit_0 & 0xFFFF
// 3037 
// 3038   if(setDefault)
        MOV     A,R7
        JZ      ??APSME_TCLinkKeyInit_4
// 3039   {
// 3040     //Force to erase all IC
// 3041     APSME_EraseICEntry(NULL);
        ; Setup parameters for call to function APSME_EraseICEntry
        MOV     R2,#0x0
        MOV     R3,#0x0
        LCALL   `??APSME_EraseICEntry::?relay`; Banked call to: APSME_EraseICEntry
// 3042   }
// 3043 }
??APSME_TCLinkKeyInit_4:
        MOV     A,#0x13
        LJMP    ?Subroutine6 & 0xFFFF
          CFI EndBlock cfiBlock449
// 3044 
// 3045 
// 3046 
// 3047 
// 3048 
// 3049 
// 3050 
// 3051 
// 3052 
// 3053 /******************************************************************************
// 3054  * @fn          APSME_TCLinkKeySync
// 3055  *
// 3056  * @brief       Sync Trust Center LINK key data.
// 3057  *
// 3058  * @param       srcAddr - [in] srcAddr
// 3059  * @param       si      - [in, out] SSP_Info_t
// 3060  *
// 3061  * @return      ZStatus_t
// 3062  */

        RSEG BANKED_CODE:CODE:NOROOT(0)
// 3063 ZStatus_t APSME_TCLinkKeySync( uint16 srcAddr, SSP_Info_t* si )
APSME_TCLinkKeySync:
          CFI Block cfiBlock450 Using cfiCommon0
          CFI Function APSME_TCLinkKeySync
        CODE
// 3064 {
        FUNCALL APSME_TCLinkKeySync, AddrMgrExtAddrValid
        LOCFRAME ISTACK, 0, STACK
        LOCFRAME PSTACK, 0, STACK
        LOCFRAME XSTACK, 42, STACK
        LOCFRAME IOVERLAY, 0, STATIC
        LOCFRAME DOVERLAY, 0, STATIC
        ARGFRAME ISTACK, 0, STACK
        ARGFRAME PSTACK, 0, STACK
        ARGFRAME XSTACK, 42, STACK
        ARGFRAME IOVERLAY, 0, STATIC
        ARGFRAME DOVERLAY, 0, STATIC
        FUNCALL APSME_TCLinkKeySync, APSME_LookupExtAddr
        LOCFRAME ISTACK, 0, STACK
        LOCFRAME PSTACK, 0, STACK
        LOCFRAME XSTACK, 42, STACK
        LOCFRAME IOVERLAY, 0, STATIC
        LOCFRAME DOVERLAY, 0, STATIC
        ARGFRAME ISTACK, 0, STACK
        ARGFRAME PSTACK, 0, STACK
        ARGFRAME XSTACK, 42, STACK
        ARGFRAME IOVERLAY, 0, STATIC
        ARGFRAME DOVERLAY, 0, STATIC
        FUNCALL APSME_TCLinkKeySync, APSME_SearchTCLinkKeyEntry
        LOCFRAME ISTACK, 0, STACK
        LOCFRAME PSTACK, 0, STACK
        LOCFRAME XSTACK, 44, STACK
        LOCFRAME IOVERLAY, 0, STATIC
        LOCFRAME DOVERLAY, 0, STATIC
        ARGFRAME ISTACK, 0, STACK
        ARGFRAME PSTACK, 0, STACK
        ARGFRAME XSTACK, 44, STACK
        ARGFRAME IOVERLAY, 0, STATIC
        ARGFRAME DOVERLAY, 0, STATIC
        FUNCALL APSME_TCLinkKeySync, osal_memset
        LOCFRAME ISTACK, 0, STACK
        LOCFRAME PSTACK, 0, STACK
        LOCFRAME XSTACK, 42, STACK
        LOCFRAME IOVERLAY, 0, STATIC
        LOCFRAME DOVERLAY, 0, STATIC
        ARGFRAME ISTACK, 0, STACK
        ARGFRAME PSTACK, 0, STACK
        ARGFRAME XSTACK, 42, STACK
        ARGFRAME IOVERLAY, 0, STATIC
        ARGFRAME DOVERLAY, 0, STATIC
        FUNCALL APSME_TCLinkKeySync, APSME_SearchTCLinkKeyEntry
        LOCFRAME ISTACK, 0, STACK
        LOCFRAME PSTACK, 0, STACK
        LOCFRAME XSTACK, 44, STACK
        LOCFRAME IOVERLAY, 0, STATIC
        LOCFRAME DOVERLAY, 0, STATIC
        ARGFRAME ISTACK, 0, STACK
        ARGFRAME PSTACK, 0, STACK
        ARGFRAME XSTACK, 44, STACK
        ARGFRAME IOVERLAY, 0, STATIC
        ARGFRAME DOVERLAY, 0, STATIC
        FUNCALL APSME_TCLinkKeySync, osal_memcpy
        LOCFRAME ISTACK, 0, STACK
        LOCFRAME PSTACK, 0, STACK
        LOCFRAME XSTACK, 45, STACK
        LOCFRAME IOVERLAY, 0, STATIC
        LOCFRAME DOVERLAY, 0, STATIC
        ARGFRAME ISTACK, 0, STACK
        ARGFRAME PSTACK, 0, STACK
        ARGFRAME XSTACK, 45, STACK
        ARGFRAME IOVERLAY, 0, STATIC
        ARGFRAME DOVERLAY, 0, STATIC
        REQUIRE ?V0
        REQUIRE ?V1
        REQUIRE ?V2
        REQUIRE ?V3
        REQUIRE ?V4
        REQUIRE ?V5
        MOV     A,#-0xe
        LCALL   ?BANKED_ENTER_XDATA
          CFI DPH0 load(1, XDATA, add(CFA_XSP16, literal(-1)))
          CFI DPL0 load(1, XDATA, add(CFA_XSP16, literal(-2)))
          CFI ?BRET_EXT load(1, XDATA, add(CFA_XSP16, literal(-3)))
          CFI ?RET_HIGH load(1, XDATA, add(CFA_XSP16, literal(-4)))
          CFI ?RET_LOW load(1, XDATA, add(CFA_XSP16, literal(-5)))
          CFI R7 load(1, XDATA, add(CFA_XSP16, literal(-6)))
          CFI V5 load(1, XDATA, add(CFA_XSP16, literal(-7)))
          CFI V4 load(1, XDATA, add(CFA_XSP16, literal(-8)))
          CFI V3 load(1, XDATA, add(CFA_XSP16, literal(-9)))
          CFI V2 load(1, XDATA, add(CFA_XSP16, literal(-10)))
          CFI V1 load(1, XDATA, add(CFA_XSP16, literal(-11)))
          CFI V0 load(1, XDATA, add(CFA_XSP16, literal(-12)))
          CFI VB load(1, XDATA, add(CFA_XSP16, literal(-13)))
          CFI R6 load(1, XDATA, add(CFA_XSP16, literal(-14)))
          CFI CFA_SP SP+0
          CFI CFA_XSP16 add(XSP16, 14)
        ; Saved register size: 14
        ; Auto size: 28
        MOV     A,#-0x1c
        LCALL   ?ALLOC_XSTACK8
          CFI CFA_XSP16 add(XSP16, 42)
        MOV     ?V2,R2
        MOV     ?V3,R3
        MOV     ?V4,R4
        MOV     ?V5,R5
// 3065   uint8 selectedId = gZDSECMGR_TC_DEVICE_MAX;
// 3066   ZStatus_t status = ZSecNoKey;
        MOV     R6,#-0x5f
// 3067   APSME_TCLKDevEntry_t TCLKDevEntry;
// 3068   uint32 *tclkRxFrmCntr;
// 3069   uint16                entryIndex = 0xFFFF;
// 3070   uint8                 entryFound = FALSE;
        MOV     DPL,?XSP + 0
        MOV     DPH,?XSP + 1
        CLR     A
        MOVX    @DPTR,A
// 3071   
// 3072 #if ZG_BUILD_JOINING_TYPE
// 3073   uint8   defaultEntry[Z_EXTADDR_LEN];
// 3074 #endif
// 3075   
// 3076   
// 3077   // Look up the IEEE address of the trust center if it's available
// 3078   if ( AddrMgrExtAddrValid( si->extAddr ) == FALSE )
        MOV     A,R4
        ADD     A,#0x6
        MOV     ?V0,A
        CLR     A
        ADDC    A,?V5
        MOV     ?V1,A
        ; Setup parameters for call to function AddrMgrExtAddrValid
        MOV     R2,?V0
        MOV     R3,A
        LCALL   `??AddrMgrExtAddrValid::?relay`; Banked call to: AddrMgrExtAddrValid
        MOV     A,R1
        JNZ     ??APSME_TCLinkKeySync_0
// 3079   {
// 3080     APSME_LookupExtAddr( srcAddr, si->extAddr );
        ; Setup parameters for call to function APSME_LookupExtAddr
        MOV     R4,?V0
        MOV     R5,?V1
        MOV     R2,?V2
        MOV     R3,?V3
        LCALL   `??APSME_LookupExtAddr::?relay`; Banked call to: APSME_LookupExtAddr
// 3081   }
// 3082 
// 3083   entryIndex = APSME_SearchTCLinkKeyEntry(si->extAddr,&entryFound,&TCLKDevEntry);
??APSME_TCLinkKeySync_0:
        ; Setup parameters for call to function APSME_SearchTCLinkKeyEntry
        MOV     A,#0x9
        LCALL   ?XSTACK_DISP100_8
        MOV     ?V2,R0
        MOV     ?V3,R1
        MOV     R0,#?V2
        LCALL   ?PUSH_XSTACK_I_TWO
          CFI CFA_XSP16 add(XSP16, 44)
        MOV     A,#0x2
        LCALL   ?XSTACK_DISP102_8
        MOV     R2,?V0
        MOV     R3,?V1
        LCALL   `??APSME_SearchTCLinkKeyEntry::?relay`; Banked call to: APSME_SearchTCLinkKeyEntry
        MOV     A,#0x2
        LCALL   ?DEALLOC_XSTACK8
          CFI CFA_XSP16 add(XSP16, 42)
        MOV     ?V0,R2
        MOV     R0,?V0
// 3084   
// 3085 #if ZG_BUILD_JOINING_TYPE
// 3086   if(ZG_DEVICE_JOINING_TYPE && !entryFound)
        MOV     DPTR,#zgDeviceLogicalType
        MOVX    A,@DPTR
        XRL     A,#0x1
        JZ      ??APSME_TCLinkKeySync_1
        MOVX    A,@DPTR
        XRL     A,#0x2
        JNZ     ??APSME_TCLinkKeySync_2
??APSME_TCLinkKeySync_1:
        MOV     DPL,?XSP + 0
        MOV     DPH,?XSP + 1
        MOVX    A,@DPTR
        JNZ     ??APSME_TCLinkKeySync_2
// 3087   {
// 3088     osal_memset(defaultEntry, 0, Z_EXTADDR_LEN);
        ; Setup parameters for call to function osal_memset
        MOV     R4,#0x8
        MOV     R5,#0x0
        MOV     R1,#0x0
        MOV     A,#0x1
        LCALL   ?XSTACK_DISP101_8
        LCALL   `??osal_memset::?relay`; Banked call to: osal_memset
// 3089     entryIndex = APSME_SearchTCLinkKeyEntry(defaultEntry,&entryFound,&TCLKDevEntry);
        ; Setup parameters for call to function APSME_SearchTCLinkKeyEntry
        MOV     A,#0x9
        LCALL   ?XSTACK_DISP100_8
        MOV     ?V0,R0
        MOV     ?V1,R1
        MOV     R0,#?V0
        LCALL   ?PUSH_XSTACK_I_TWO
          CFI CFA_XSP16 add(XSP16, 44)
        MOV     A,#0x2
        LCALL   ?XSTACK_DISP102_8
        MOV     A,#0x3
        LCALL   ?XSTACK_DISP101_8
        LCALL   `??APSME_SearchTCLinkKeyEntry::?relay`; Banked call to: APSME_SearchTCLinkKeyEntry
        MOV     A,#0x2
        LCALL   ?DEALLOC_XSTACK8
          CFI CFA_XSP16 add(XSP16, 42)
        MOV     ?V0,R2
        MOV     R0,?V0
// 3090   }
// 3091 #endif
// 3092   
// 3093   if(entryFound)
??APSME_TCLinkKeySync_2:
        MOV     DPL,?XSP + 0
        MOV     DPH,?XSP + 1
        MOVX    A,@DPTR
        JNZ     $+5
        LJMP    ??APSME_TCLinkKeySync_3 & 0xFFFF
// 3094   {
// 3095     status = ZSuccess;
        MOV     R6,#0x0
// 3096     
// 3097     selectedId = entryIndex - ZCD_NV_TCLK_TABLE_START;
// 3098 
// 3099     switch(TCLKDevEntry.keyAttributes)
        MOV     A,?V4
        ADD     A,#0xf
        MOV     R2,A
        CLR     A
        ADDC    A,?V5
        MOV     R3,A
        MOV     A,#0x19
        LCALL   ?XSTACK_DISP0_8
        MOVX    A,@DPTR
        JZ      ??APSME_TCLinkKeySync_4
        DEC     A
        JZ      ??APSME_TCLinkKeySync_5
        DEC     A
        JZ      ??APSME_TCLinkKeySync_6
        ADD     A,#0x3
        JZ      ??APSME_TCLinkKeySync_7
        LJMP    ??APSME_TCLinkKeySync_3 & 0xFFFF
// 3100     {
// 3101       case ZG_UNVERIFIED_KEY:
// 3102         #if ZG_BUILD_JOINING_TYPE
// 3103         if(ZG_DEVICE_JOINING_TYPE)
??APSME_TCLinkKeySync_5:
        MOV     DPTR,#zgDeviceLogicalType
        MOVX    A,@DPTR
        XRL     A,#0x1
        JNZ     $+5
        LJMP    ??APSME_TCLinkKeySync_8 & 0xFFFF
        MOVX    A,@DPTR
        XRL     A,#0x2
        JNZ     ??APSME_TCLinkKeySync_9
        LJMP    ??APSME_TCLinkKeySync_8 & 0xFFFF
// 3104         {   
// 3105           si->keyNvId = ZCD_NV_TCLK_JOIN_DEV;
// 3106           break;
// 3107         }
// 3108         #endif
// 3109       case ZG_DEFAULT_KEY:
// 3110         if(ZG_DEVICE_JOINING_TYPE)
??APSME_TCLinkKeySync_7:
        MOV     DPTR,#zgDeviceLogicalType
        MOVX    A,@DPTR
        XRL     A,#0x1
        JZ      ??APSME_TCLinkKeySync_10
??APSME_TCLinkKeySync_9:
        MOVX    A,@DPTR
        XRL     A,#0x2
        JNZ     ??APSME_TCLinkKeySync_11
// 3111         { 
// 3112           //If default was found, then it is joining as FN, then try distributed key as well
// 3113           si->distributedKeyTry = TRUE;
??APSME_TCLinkKeySync_10:
        MOV     A,?V4
        ADD     A,#0x20
        MOV     DPL,A
        CLR     A
        ADDC    A,?V5
        MOV     DPH,A
        MOV     A,#0x1
        MOVX    @DPTR,A
// 3114         }
// 3115         si->keyNvId = ZCD_NV_TCLK_DEFAULT;
??APSME_TCLinkKeySync_11:
        MOV     DPL,R2
        MOV     DPH,R3
        MOV     A,#0x3
        MOVX    @DPTR,A
        INC     DPTR
        MOV     A,#0x1
        SJMP    ??APSME_TCLinkKeySync_12
// 3116       break;
// 3117       case ZG_PROVISIONAL_KEY:
// 3118         si->keyNvId = ZCD_NV_TCLK_IC_TABLE_START + TCLKDevEntry.SeedShift_IcIndex;
??APSME_TCLinkKeySync_4:
        MOV     A,#0x1b
        LCALL   ?XSTACK_DISP0_8
        LCALL   ?Subroutine39 & 0xFFFF
??CrossCallReturnLabel_51:
        MOV     DPL,R2
        MOV     DPH,R3
        MOV     A,R0
        MOVX    @DPTR,A
        INC     DPTR
        MOV     A,R1
        SJMP    ??APSME_TCLinkKeySync_12
// 3119       break;
// 3120       case ZG_VERIFIED_KEY:
// 3121         //Only verify the frame counter for Verified keys
// 3122         tclkRxFrmCntr = &TCLinkKeyFrmCntr[selectedId].rxFrmCntr;
??APSME_TCLinkKeySync_6:
        MOV     A,R0
        ADD     A,#-0x11
        MOV     B,#0x9
        MUL     AB
        MOV     R0,A
        MOV     R1,B
        MOV     A,#(TCLinkKeyFrmCntr + 4) & 0xff
        ADD     A,R0
        MOV     R4,A
        MOV     A,#((TCLinkKeyFrmCntr + 4) >> 8) & 0xff
        ADDC    A,R1
        MOV     R5,A
// 3123 
// 3124         if ( si->frmCntr >= *tclkRxFrmCntr )
        MOV     A,?V4
        ADD     A,#0x12
        MOV     DPL,A
        CLR     A
        ADDC    A,?V5
        MOV     DPH,A
        MOV     R0,#?V0
        LCALL   ?L_MOV_X
        MOV     DPL,R4
        MOV     DPH,R5
        MOV     R0,#?V0
        LCALL   ?UL_GE_X
        JNC     ??APSME_TCLinkKeySync_13
// 3125         {
// 3126           // update the rx frame counter
// 3127           *tclkRxFrmCntr = si->frmCntr + 1;
        MOV     DPTR,#__Constant_1
        MOV     R0,#?V0
        LCALL   ?L_ADD_X
        MOV     DPL,R4
        MOV     DPH,R5
        MOV     R0,#?V0
        LCALL   ?L_MOV_TO_X
// 3128           status = ZSuccess;
// 3129           
// 3130           #if ZG_BUILD_JOINING_TYPE
// 3131           if(ZG_DEVICE_JOINING_TYPE)
        MOV     DPTR,#zgDeviceLogicalType
        MOVX    A,@DPTR
        XRL     A,#0x1
        JZ      ??APSME_TCLinkKeySync_8
        MOVX    A,@DPTR
        XRL     A,#0x2
        JNZ     ??APSME_TCLinkKeySync_14
// 3132           {   
// 3133             si->keyNvId = ZCD_NV_TCLK_JOIN_DEV;
??APSME_TCLinkKeySync_8:
        MOV     DPL,R2
        MOV     DPH,R3
        MOV     A,#0x2
        MOVX    @DPTR,A
        INC     DPTR
        DEC     A
??APSME_TCLinkKeySync_12:
        MOVX    @DPTR,A
// 3134             break;
        SJMP    ??APSME_TCLinkKeySync_3
// 3135           }
// 3136           #endif
// 3137           #if ZG_BUILD_COORDINATOR_TYPE
// 3138           if(ZG_DEVICE_COORDINATOR_TYPE)
// 3139           {
// 3140             si->keyNvId = ZCD_NV_TCLK_SEED;
// 3141             si->seedShift = TCLKDevEntry.SeedShift_IcIndex;
// 3142           }
// 3143           #endif
// 3144           osal_memcpy(si->dstExtAddr, TCLKDevEntry.extAddr,Z_EXTADDR_LEN);
??APSME_TCLinkKeySync_14:
        ; Setup parameters for call to function osal_memcpy
        MOV     A,#0x11
        LCALL   ?XSTACK_DISP0_8
        MOV     R1,DPL
        MOV     R2,DPH
        MOV     ?V0,R1
        MOV     ?V1,R2
        MOV     ?V2,R6
        MOV     R0,#?V0
        LCALL   ?PUSH_XSTACK_I_THREE
          CFI CFA_XSP16 add(XSP16, 45)
        MOV     R4,#0x8
        MOV     R5,#0x0
        MOV     A,?V4
        ADD     A,#0x18
        MOV     R2,A
        CLR     A
        ADDC    A,?V5
        MOV     R3,A
        LCALL   `??osal_memcpy::?relay`; Banked call to: osal_memcpy
        MOV     A,#0x3
        LCALL   ?DEALLOC_XSTACK8
          CFI CFA_XSP16 add(XSP16, 42)
        SJMP    ??APSME_TCLinkKeySync_3
// 3145         }
// 3146         else
// 3147         {
// 3148           status = ZSecOldFrmCount;
??APSME_TCLinkKeySync_13:
        MOV     R6,#-0x5e
// 3149         }
// 3150       break;
// 3151       default:
// 3152         //This should not happen
// 3153       break;
// 3154     }
// 3155   }
// 3156   
// 3157   return status;
??APSME_TCLinkKeySync_3:
        MOV     A,R6
        MOV     R1,A
        MOV     A,#0x1c
        LJMP    ?Subroutine5 & 0xFFFF
// 3158 }
          CFI EndBlock cfiBlock450
// 3159 
// 3160 /******************************************************************************
// 3161  * @fn          APSME_TCLinkKeyLoad
// 3162  *
// 3163  * @brief       Load Trust Center LINK key data.
// 3164  *
// 3165  * @param       dstAddr - [in] dstAddr
// 3166  * @param       si      - [in, out] SSP_Info_t
// 3167  *
// 3168  * @return      ZStatus_t
// 3169  */

        RSEG BANKED_CODE:CODE:NOROOT(0)
// 3170 ZStatus_t APSME_TCLinkKeyLoad( uint16 dstAddr, SSP_Info_t* si )
APSME_TCLinkKeyLoad:
          CFI Block cfiBlock451 Using cfiCommon0
          CFI Function APSME_TCLinkKeyLoad
        CODE
// 3171 {
        FUNCALL APSME_TCLinkKeyLoad, AddrMgrExtAddrValid
        LOCFRAME ISTACK, 0, STACK
        LOCFRAME PSTACK, 0, STACK
        LOCFRAME XSTACK, 51, STACK
        LOCFRAME IOVERLAY, 0, STATIC
        LOCFRAME DOVERLAY, 0, STATIC
        ARGFRAME ISTACK, 0, STACK
        ARGFRAME PSTACK, 0, STACK
        ARGFRAME XSTACK, 51, STACK
        ARGFRAME IOVERLAY, 0, STATIC
        ARGFRAME DOVERLAY, 0, STATIC
        FUNCALL APSME_TCLinkKeyLoad, APSME_SearchTCLinkKeyEntry
        LOCFRAME ISTACK, 0, STACK
        LOCFRAME PSTACK, 0, STACK
        LOCFRAME XSTACK, 53, STACK
        LOCFRAME IOVERLAY, 0, STATIC
        LOCFRAME DOVERLAY, 0, STATIC
        ARGFRAME ISTACK, 0, STACK
        ARGFRAME PSTACK, 0, STACK
        ARGFRAME XSTACK, 53, STACK
        ARGFRAME IOVERLAY, 0, STATIC
        ARGFRAME DOVERLAY, 0, STATIC
        FUNCALL APSME_TCLinkKeyLoad, osal_memcpy
        LOCFRAME ISTACK, 0, STACK
        LOCFRAME PSTACK, 0, STACK
        LOCFRAME XSTACK, 54, STACK
        LOCFRAME IOVERLAY, 0, STATIC
        LOCFRAME DOVERLAY, 0, STATIC
        ARGFRAME ISTACK, 0, STACK
        ARGFRAME PSTACK, 0, STACK
        ARGFRAME XSTACK, 54, STACK
        ARGFRAME IOVERLAY, 0, STATIC
        ARGFRAME DOVERLAY, 0, STATIC
        FUNCALL APSME_TCLinkKeyLoad, osal_memcpy
        LOCFRAME ISTACK, 0, STACK
        LOCFRAME PSTACK, 0, STACK
        LOCFRAME XSTACK, 54, STACK
        LOCFRAME IOVERLAY, 0, STATIC
        LOCFRAME DOVERLAY, 0, STATIC
        ARGFRAME ISTACK, 0, STACK
        ARGFRAME PSTACK, 0, STACK
        ARGFRAME XSTACK, 54, STACK
        ARGFRAME IOVERLAY, 0, STATIC
        ARGFRAME DOVERLAY, 0, STATIC
        FUNCALL APSME_TCLinkKeyLoad, osal_rand
        LOCFRAME ISTACK, 0, STACK
        LOCFRAME PSTACK, 0, STACK
        LOCFRAME XSTACK, 51, STACK
        LOCFRAME IOVERLAY, 0, STATIC
        LOCFRAME DOVERLAY, 0, STATIC
        ARGFRAME ISTACK, 0, STACK
        ARGFRAME PSTACK, 0, STACK
        ARGFRAME XSTACK, 51, STACK
        ARGFRAME IOVERLAY, 0, STATIC
        ARGFRAME DOVERLAY, 0, STATIC
        FUNCALL APSME_TCLinkKeyLoad, osal_nv_write
        LOCFRAME ISTACK, 0, STACK
        LOCFRAME PSTACK, 0, STACK
        LOCFRAME XSTACK, 55, STACK
        LOCFRAME IOVERLAY, 0, STATIC
        LOCFRAME DOVERLAY, 0, STATIC
        ARGFRAME ISTACK, 0, STACK
        ARGFRAME PSTACK, 0, STACK
        ARGFRAME XSTACK, 55, STACK
        ARGFRAME IOVERLAY, 0, STATIC
        ARGFRAME DOVERLAY, 0, STATIC
        FUNCALL APSME_TCLinkKeyLoad, osal_memset
        LOCFRAME ISTACK, 0, STACK
        LOCFRAME PSTACK, 0, STACK
        LOCFRAME XSTACK, 51, STACK
        LOCFRAME IOVERLAY, 0, STATIC
        LOCFRAME DOVERLAY, 0, STATIC
        ARGFRAME ISTACK, 0, STACK
        ARGFRAME PSTACK, 0, STACK
        ARGFRAME XSTACK, 51, STACK
        ARGFRAME IOVERLAY, 0, STATIC
        ARGFRAME DOVERLAY, 0, STATIC
        FUNCALL APSME_TCLinkKeyLoad, osal_set_event
        LOCFRAME ISTACK, 0, STACK
        LOCFRAME PSTACK, 0, STACK
        LOCFRAME XSTACK, 51, STACK
        LOCFRAME IOVERLAY, 0, STATIC
        LOCFRAME DOVERLAY, 0, STATIC
        ARGFRAME ISTACK, 0, STACK
        ARGFRAME PSTACK, 0, STACK
        ARGFRAME XSTACK, 51, STACK
        ARGFRAME IOVERLAY, 0, STATIC
        ARGFRAME DOVERLAY, 0, STATIC
        FUNCALL APSME_TCLinkKeyLoad, AddrMgrEntryLookupNwk
        LOCFRAME ISTACK, 0, STACK
        LOCFRAME PSTACK, 0, STACK
        LOCFRAME XSTACK, 51, STACK
        LOCFRAME IOVERLAY, 0, STATIC
        LOCFRAME DOVERLAY, 0, STATIC
        ARGFRAME ISTACK, 0, STACK
        ARGFRAME PSTACK, 0, STACK
        ARGFRAME XSTACK, 51, STACK
        ARGFRAME IOVERLAY, 0, STATIC
        ARGFRAME DOVERLAY, 0, STATIC
        FUNCALL APSME_TCLinkKeyLoad, AddrMgrEntryRelease
        LOCFRAME ISTACK, 0, STACK
        LOCFRAME PSTACK, 0, STACK
        LOCFRAME XSTACK, 51, STACK
        LOCFRAME IOVERLAY, 0, STATIC
        LOCFRAME DOVERLAY, 0, STATIC
        ARGFRAME ISTACK, 0, STACK
        ARGFRAME PSTACK, 0, STACK
        ARGFRAME XSTACK, 51, STACK
        ARGFRAME IOVERLAY, 0, STATIC
        ARGFRAME DOVERLAY, 0, STATIC
        REQUIRE ?V0
        REQUIRE ?V1
        REQUIRE ?V2
        REQUIRE ?V3
        REQUIRE ?V4
        REQUIRE ?V5
        REQUIRE ?V6
        REQUIRE ?V7
        REQUIRE ?V8
        REQUIRE ?V9
        MOV     A,#-0x12
        LCALL   ?BANKED_ENTER_XDATA
          CFI DPH0 load(1, XDATA, add(CFA_XSP16, literal(-1)))
          CFI DPL0 load(1, XDATA, add(CFA_XSP16, literal(-2)))
          CFI ?BRET_EXT load(1, XDATA, add(CFA_XSP16, literal(-3)))
          CFI ?RET_HIGH load(1, XDATA, add(CFA_XSP16, literal(-4)))
          CFI ?RET_LOW load(1, XDATA, add(CFA_XSP16, literal(-5)))
          CFI R7 load(1, XDATA, add(CFA_XSP16, literal(-6)))
          CFI V9 load(1, XDATA, add(CFA_XSP16, literal(-7)))
          CFI V8 load(1, XDATA, add(CFA_XSP16, literal(-8)))
          CFI V7 load(1, XDATA, add(CFA_XSP16, literal(-9)))
          CFI V6 load(1, XDATA, add(CFA_XSP16, literal(-10)))
          CFI V5 load(1, XDATA, add(CFA_XSP16, literal(-11)))
          CFI V4 load(1, XDATA, add(CFA_XSP16, literal(-12)))
          CFI V3 load(1, XDATA, add(CFA_XSP16, literal(-13)))
          CFI V2 load(1, XDATA, add(CFA_XSP16, literal(-14)))
          CFI V1 load(1, XDATA, add(CFA_XSP16, literal(-15)))
          CFI V0 load(1, XDATA, add(CFA_XSP16, literal(-16)))
          CFI VB load(1, XDATA, add(CFA_XSP16, literal(-17)))
          CFI R6 load(1, XDATA, add(CFA_XSP16, literal(-18)))
          CFI CFA_SP SP+0
          CFI CFA_XSP16 add(XSP16, 18)
        ; Saved register size: 18
        ; Auto size: 33
        MOV     A,#-0x21
        LCALL   ?ALLOC_XSTACK8
          CFI CFA_XSP16 add(XSP16, 51)
        MOV     ?V2,R4
        MOV     ?V3,R5
// 3172   APSME_TCLKDevEntry_t TCLKDevEntry;
// 3173   AddrMgrEntry_t       addrEntry;
// 3174   uint16               entryIndex;
// 3175   uint8                extAddrFound;
// 3176   uint8                found;
// 3177   ZStatus_t status =   ZSecNoKey;
        MOV     R6,#-0x5f
// 3178   
// 3179   // Look up the ami of the srcAddr if available
// 3180   addrEntry.user    = ADDRMGR_USER_DEFAULT;
        MOV     A,#0x14
        LCALL   ?XSTACK_DISP0_8
        CLR     A
        MOVX    @DPTR,A
// 3181   addrEntry.nwkAddr = dstAddr;
        MOV     A,#0x15
        LCALL   ?XSTACK_DISP0_8
        LCALL   ?Subroutine50 & 0xFFFF
// 3182 
// 3183   extAddrFound = AddrMgrExtAddrValid( si->extAddr );
// 3184   
// 3185   if(extAddrFound)
??CrossCallReturnLabel_73:
        MOV     A,R4
        ADD     A,#0x6
        MOV     ?V4,A
        CLR     A
        ADDC    A,?V3
        MOV     ?V5,A
        ; Setup parameters for call to function AddrMgrExtAddrValid
        MOV     R2,?V4
        MOV     R3,A
        LCALL   `??AddrMgrExtAddrValid::?relay`; Banked call to: AddrMgrExtAddrValid
        MOV     A,R1
        JNZ     $+5
        LJMP    ??APSME_TCLinkKeyLoad_0 & 0xFFFF
// 3186   {
// 3187     entryIndex = APSME_SearchTCLinkKeyEntry(si->extAddr,&found,&TCLKDevEntry);
        ; Setup parameters for call to function APSME_SearchTCLinkKeyEntry
        MOV     A,#0x1
        LCALL   ?XSTACK_DISP100_8
        MOV     ?V0,R0
        MOV     ?V1,R1
        MOV     R0,#?V0
        LCALL   ?PUSH_XSTACK_I_TWO
          CFI CFA_XSP16 add(XSP16, 53)
        MOV     A,#0x2
        LCALL   ?XSTACK_DISP102_8
        MOV     R2,?V4
        MOV     R3,?V5
        LCALL   `??APSME_SearchTCLinkKeyEntry::?relay`; Banked call to: APSME_SearchTCLinkKeyEntry
        MOV     A,#0x2
        LCALL   ?DEALLOC_XSTACK8
          CFI CFA_XSP16 add(XSP16, 51)
        MOV     ?V0,R2
        MOV     ?V1,R3
        MOV     R6,?V0
        MOV     R7,?V1
// 3188     if(entryIndex != 0xFFFF)
        MOV     A,?V2
        ADD     A,#0xf
        MOV     ?V0,A
        CLR     A
        ADDC    A,?V3
        MOV     ?V1,A
        MOV     A,#-0x1
        XRL     A,R6
        JNZ     ??APSME_TCLinkKeyLoad_1
        MOV     A,#-0x1
        XRL     A,R7
??APSME_TCLinkKeyLoad_1:
        JNZ     $+5
        LJMP    ??APSME_TCLinkKeyLoad_2 & 0xFFFF
// 3189     {
// 3190       uint8   i = entryIndex - ZCD_NV_TCLK_TABLE_START;
        MOV     A,R6
        LCALL   ?Subroutine46 & 0xFFFF
// 3191       
// 3192       if(found)
??CrossCallReturnLabel_64:
        MOV     ?V8,A
        MOV     A,#(TCLinkKeyFrmCntr >> 8) & 0xff
        ADDC    A,R1
        MOV     ?V9,A
        MOV     DPL,?XSP + 0
        MOV     DPH,?XSP + 1
        MOVX    A,@DPTR
        JNZ     $+5
        LJMP    ??APSME_TCLinkKeyLoad_3 & 0xFFFF
// 3193       {
// 3194         switch(TCLKDevEntry.keyAttributes)
        MOV     A,#0x11
        LCALL   ?XSTACK_DISP0_8
        MOVX    A,@DPTR
        JZ      ??APSME_TCLinkKeyLoad_4
        DEC     A
        JZ      ??APSME_TCLinkKeyLoad_5
        DEC     A
        JZ      ??APSME_TCLinkKeyLoad_6
        ADD     A,#0x3
        JZ      ??APSME_TCLinkKeyLoad_7
        LJMP    ??APSME_TCLinkKeyLoad_8 & 0xFFFF
// 3195         {
// 3196           case ZG_UNVERIFIED_KEY:
// 3197             #if ZG_BUILD_JOINING_TYPE
// 3198             if(ZG_DEVICE_JOINING_TYPE)
??APSME_TCLinkKeyLoad_5:
        MOV     DPTR,#zgDeviceLogicalType
        MOVX    A,@DPTR
        XRL     A,#0x1
        JZ      ??APSME_TCLinkKeyLoad_9
        MOVX    A,@DPTR
        XRL     A,#0x2
        JZ      ??APSME_TCLinkKeyLoad_9
// 3199             {   
// 3200               si->keyNvId = ZCD_NV_TCLK_JOIN_DEV;
// 3201               break;
// 3202             }
// 3203             #endif
// 3204           case ZG_DEFAULT_KEY:
// 3205             si->keyNvId = ZCD_NV_TCLK_DEFAULT;
??APSME_TCLinkKeyLoad_7:
        LJMP    ??APSME_TCLinkKeyLoad_10 & 0xFFFF
// 3206           break;
// 3207           case ZG_PROVISIONAL_KEY:
// 3208             si->keyNvId = ZCD_NV_TCLK_IC_TABLE_START + TCLKDevEntry.SeedShift_IcIndex;
??APSME_TCLinkKeyLoad_4:
        MOV     A,#0x13
        LCALL   ?XSTACK_DISP0_8
        LCALL   ?Subroutine39 & 0xFFFF
??CrossCallReturnLabel_52:
        MOV     DPL,?V0
        MOV     DPH,?V1
        MOV     A,R0
        MOVX    @DPTR,A
        INC     DPTR
        MOV     A,R1
        LJMP    ??APSME_TCLinkKeyLoad_11 & 0xFFFF
// 3209           break;
// 3210           case ZG_VERIFIED_KEY:
// 3211             #if ZG_BUILD_JOINING_TYPE
// 3212             if(ZG_DEVICE_JOINING_TYPE)
??APSME_TCLinkKeyLoad_6:
        MOV     DPTR,#zgDeviceLogicalType
        MOVX    A,@DPTR
        XRL     A,#0x1
        JZ      ??APSME_TCLinkKeyLoad_9
        MOVX    A,@DPTR
        XRL     A,#0x2
        JNZ     ??APSME_TCLinkKeyLoad_12
// 3213             {   
// 3214               si->keyNvId = ZCD_NV_TCLK_JOIN_DEV;
??APSME_TCLinkKeyLoad_9:
        MOV     DPL,?V0
        MOV     DPH,?V1
        MOV     A,#0x2
        MOVX    @DPTR,A
        INC     DPTR
        DEC     A
        LJMP    ??APSME_TCLinkKeyLoad_11 & 0xFFFF
// 3215               break;
// 3216             }
// 3217             #endif
// 3218             #if ZG_BUILD_COORDINATOR_TYPE
// 3219             if(ZG_DEVICE_COORDINATOR_TYPE)
// 3220             {
// 3221               si->keyNvId = ZCD_NV_TCLK_SEED;
// 3222               si->seedShift = TCLKDevEntry.SeedShift_IcIndex;
// 3223             }
// 3224             #endif
// 3225             osal_memcpy(si->dstExtAddr, TCLKDevEntry.extAddr,Z_EXTADDR_LEN);
??APSME_TCLinkKeyLoad_12:
        ; Setup parameters for call to function osal_memcpy
        MOV     A,#0x9
        LCALL   ?XSTACK_DISP0_8
        MOV     R1,DPL
        MOV     R2,DPH
        MOV     ?V4,R1
        MOV     ?V5,R2
        MOV     ?V6,#0x0
        MOV     R0,#?V4
        LCALL   ?PUSH_XSTACK_I_THREE
          CFI CFA_XSP16 add(XSP16, 54)
        MOV     R4,#0x8
        MOV     R5,#0x0
        MOV     A,?V2
        ADD     A,#0x18
        MOV     R2,A
        CLR     A
        ADDC    A,?V3
        MOV     R3,A
        LCALL   `??osal_memcpy::?relay`; Banked call to: osal_memcpy
        MOV     A,#0x3
        LCALL   ?DEALLOC_XSTACK8
          CFI CFA_XSP16 add(XSP16, 51)
// 3226           break;
        LJMP    ??APSME_TCLinkKeyLoad_8 & 0xFFFF
// 3227           default:
// 3228             //This should not happen
// 3229           break;
// 3230         }
// 3231       }
// 3232       //Not found, then create an entry for it. Adding the device to the TCLKDev Entries for first time
// 3233       else
// 3234       {
// 3235         //Initialize the entry
// 3236         osal_memcpy(TCLKDevEntry.extAddr, si->extAddr, Z_EXTADDR_LEN);
??APSME_TCLinkKeyLoad_3:
        ; Setup parameters for call to function osal_memcpy
        MOV     ?V6,#0x0
        MOV     R0,#?V4
        LCALL   ?PUSH_XSTACK_I_THREE
          CFI CFA_XSP16 add(XSP16, 54)
        MOV     R4,#0x8
        MOV     R5,#0x0
        MOV     A,#0xc
        LCALL   ?XSTACK_DISP0_8
        MOV     R2,DPL
        MOV     R3,DPH
        LCALL   `??osal_memcpy::?relay`; Banked call to: osal_memcpy
        MOV     A,#0x3
        LCALL   ?DEALLOC_XSTACK8
          CFI CFA_XSP16 add(XSP16, 51)
// 3237         TCLKDevEntry.keyAttributes = ZG_DEFAULT_KEY;
        MOV     A,#0x11
        LCALL   ?XSTACK_DISP0_8
        MOV     A,#-0x1
        MOVX    @DPTR,A
// 3238         TCLKDevEntry.keyType = ZG_GLOBAL_LINK_KEY;
        MOV     A,#0x12
        LCALL   ?XSTACK_DISP0_8
        MOV     A,#0x1
        MOVX    @DPTR,A
// 3239         //Create the entry with a random shift of the seed. Validate the maximum shift of the seed which is 15
// 3240         TCLKDevEntry.SeedShift_IcIndex = osal_rand() & 0x000F;
        ; Setup parameters for call to function osal_rand
        LCALL   `??osal_rand::?relay`; Banked call to: osal_rand
        MOV     A,R2
        ANL     A,#0xf
        PUSH    A
          CFI CFA_SP SP+-1
        MOV     A,#0x13
        LCALL   ?XSTACK_DISP0_8
        POP     A
          CFI CFA_SP SP+0
        MOVX    @DPTR,A
// 3241         TCLKDevEntry.txFrmCntr = 0;
        MOV     A,#0x1
        LCALL   ?XSTACK_DISP0_8
        LCALL   ?Subroutine23 & 0xFFFF
// 3242         TCLKDevEntry.rxFrmCntr = 0;
??CrossCallReturnLabel_21:
        LCALL   ?XSTACK_DISP0_8
        LCALL   ?Subroutine13 & 0xFFFF
// 3243         //save entry in nv
// 3244         osal_nv_write(entryIndex,0,sizeof(APSME_TCLKDevEntry_t),&TCLKDevEntry);
??CrossCallReturnLabel_193:
        LCALL   ?XSTACK_DISP100_8
        MOV     ?V4,R0
        MOV     ?V5,R1
        MOV     R0,#?V4
        LCALL   ?PUSH_XSTACK_I_TWO
          CFI CFA_XSP16 add(XSP16, 53)
        MOV     ?V4,#0x13
        MOV     ?V5,#0x0
        MOV     R0,#?V4
        LCALL   ?PUSH_XSTACK_I_TWO
          CFI CFA_XSP16 add(XSP16, 55)
        MOV     R4,#0x0
        MOV     R5,#0x0
        MOV     A,R6
        MOV     R2,A
        MOV     A,R7
        MOV     R3,A
        LCALL   `??osal_nv_write::?relay`; Banked call to: osal_nv_write
        MOV     A,#0x4
        LCALL   ?DEALLOC_XSTACK8
          CFI CFA_XSP16 add(XSP16, 51)
// 3245         //Initialize framecounter
// 3246         osal_memset(&TCLinkKeyFrmCntr[i],0,sizeof(APSME_TCLinkKeyFrmCntr_t));
        ; Setup parameters for call to function osal_memset
        MOV     R4,#0x9
        MOV     R5,#0x0
        MOV     R1,#0x0
        MOV     R2,?V8
        MOV     R3,?V9
        LCALL   `??osal_memset::?relay`; Banked call to: osal_memset
// 3247         // set the keyNvId to use
// 3248         si->keyNvId = ZCD_NV_TCLK_DEFAULT;
??APSME_TCLinkKeyLoad_10:
        MOV     DPL,?V0
        MOV     DPH,?V1
        MOV     A,#0x3
        MOVX    @DPTR,A
        INC     DPTR
        MOV     A,#0x1
??APSME_TCLinkKeyLoad_11:
        MOVX    @DPTR,A
// 3249       }
// 3250 
// 3251       // update link key related fields
// 3252       si->keyID   = SEC_KEYID_LINK;
??APSME_TCLinkKeyLoad_8:
        MOV     A,?V2
        ADD     A,#0xe
        MOV     DPL,A
        CLR     A
        ADDC    A,?V3
        MOV     DPH,A
        CLR     A
        MOVX    @DPTR,A
// 3253       si->frmCntr = TCLinkKeyFrmCntr[i].txFrmCntr;
        MOV     DPL,?V8
        MOV     DPH,?V9
        LCALL   ?XLOAD_R0123
        MOV     A,?V2
        ADD     A,#0x12
        MOV     DPL,A
        CLR     A
        ADDC    A,?V3
        MOV     DPH,A
        LCALL   ?XSTORE_R0123
// 3254 
// 3255       // update outgoing frame counter
// 3256       TCLinkKeyFrmCntr[i].txFrmCntr++;
        MOV     DPTR,#__Constant_1
        MOV     R0,#?V0
        LCALL   ?L_MOV_X
        MOV     DPL,?V8
        MOV     DPH,?V9
        MOV     R0,#?V0
        LCALL   ?L_ADD_TO_X
// 3257 
// 3258   #if defined ( NV_RESTORE )
// 3259       // write periodically to NV
// 3260       if ( !(TCLinkKeyFrmCntr[i].txFrmCntr % MAX_TCLK_FRAMECOUNTER_CHANGES) )
        MOV     DPL,?V8
        MOV     DPH,?V9
        MOV     R0,#?V0
        LCALL   ?L_MOV_X
        MOV     DPTR,#__Constant_a
        MOV     R0,#?V4
        LCALL   ?L_MOV_X
        MOV     R0,#?V0
        MOV     R1,#?V4
        LCALL   ?UL_DIV_MOD
        MOV     A,?V4
        ORL     A,?V5
        ORL     A,?V6
        ORL     A,?V7
        JNZ     ??APSME_TCLinkKeyLoad_13
// 3261       {
// 3262         // set the flag to write key to NV
// 3263         TCLinkKeyFrmCntr[i].pendingFlag = TRUE;
        MOV     DPL,?V8
        MOV     DPH,?V9
        INC     DPTR
        INC     DPTR
        INC     DPTR
        INC     DPTR
        INC     DPTR
        INC     DPTR
        INC     DPTR
        INC     DPTR
        MOV     A,#0x1
        MOVX    @DPTR,A
// 3264 
// 3265         // Notify the ZDApp that the frame counter has changed.
// 3266         osal_set_event( ZDAppTaskID, ZDO_TCLK_FRAMECOUNTER_CHANGE );
        ; Setup parameters for call to function osal_set_event
        MOV     R2,#0x0
        MOV     R3,#0x4
        MOV     DPTR,#ZDAppTaskID
        MOVX    A,@DPTR
        MOV     R1,A
        LCALL   `??osal_set_event::?relay`; Banked call to: osal_set_event
        SJMP    ??APSME_TCLinkKeyLoad_13
// 3267       }
// 3268   #endif
// 3269     }  
// 3270     else
// 3271     {
// 3272       //If no more TCLK entries, try global so we can try to add legacy devices
// 3273       si->keyNvId = ZCD_NV_TCLK_DEFAULT;
??APSME_TCLinkKeyLoad_2:
        MOV     DPL,?V0
        MOV     DPH,?V1
        MOV     A,#0x3
        MOVX    @DPTR,A
        INC     DPTR
        MOV     A,#0x1
        MOVX    @DPTR,A
// 3274     }
// 3275     status = ZSuccess;
??APSME_TCLinkKeyLoad_13:
        MOV     R6,#0x0
        SJMP    ??APSME_TCLinkKeyLoad_14
??APSME_TCLinkKeyLoad_0:
        ; Setup parameters for call to function AddrMgrEntryLookupNwk
// 3276   }
        MOV     A,#0x14
        LCALL   ?XSTACK_DISP101_8
        LCALL   `??AddrMgrEntryLookupNwk::?relay`; Banked call to: AddrMgrEntryLookupNwk
        MOV     A,R1
        XRL     A,#0x1
        JNZ     ??APSME_TCLinkKeyLoad_14
// 3277   
// 3278   // If no TC link key found, remove the device from the address manager
// 3279   if ( (status != ZSuccess) && (AddrMgrEntryLookupNwk(&addrEntry) == TRUE) )
// 3280   {
// 3281     AddrMgrEntryRelease( &addrEntry );
        ; Setup parameters for call to function AddrMgrEntryRelease
        MOV     A,#0x14
        LCALL   ?XSTACK_DISP101_8
        LCALL   `??AddrMgrEntryRelease::?relay`; Banked call to: AddrMgrEntryRelease
// 3282   }
// 3283 
// 3284   return status;
??APSME_TCLinkKeyLoad_14:
        MOV     A,R6
        MOV     R1,A
        MOV     A,#0x21
          CFI EndBlock cfiBlock451
        REQUIRE ?Subroutine6
        ; // Fall through to label ?Subroutine6
// 3285 }

        RSEG BANKED_CODE:CODE:NOROOT(0)
?Subroutine6:
          CFI Block cfiBlock452 Using cfiCommon0
          CFI NoFunction
          CFI CFA_SP SP+0
          CFI CFA_XSP16 add(XSP16, 34)
          CFI VB load(1, XDATA, add(CFA_XSP16, literal(-17)))
          CFI DPL0 load(1, XDATA, add(CFA_XSP16, literal(-2)))
          CFI DPH0 load(1, XDATA, add(CFA_XSP16, literal(-1)))
          CFI R6 load(1, XDATA, add(CFA_XSP16, literal(-18)))
          CFI R7 load(1, XDATA, add(CFA_XSP16, literal(-6)))
          CFI V0 load(1, XDATA, add(CFA_XSP16, literal(-16)))
          CFI V1 load(1, XDATA, add(CFA_XSP16, literal(-15)))
          CFI V2 load(1, XDATA, add(CFA_XSP16, literal(-14)))
          CFI V3 load(1, XDATA, add(CFA_XSP16, literal(-13)))
          CFI V4 load(1, XDATA, add(CFA_XSP16, literal(-12)))
          CFI V5 load(1, XDATA, add(CFA_XSP16, literal(-11)))
          CFI V6 load(1, XDATA, add(CFA_XSP16, literal(-10)))
          CFI V7 load(1, XDATA, add(CFA_XSP16, literal(-9)))
          CFI V8 load(1, XDATA, add(CFA_XSP16, literal(-8)))
          CFI V9 load(1, XDATA, add(CFA_XSP16, literal(-7)))
          CFI ?BRET_EXT load(1, XDATA, add(CFA_XSP16, literal(-3)))
          CFI ?RET_HIGH load(1, XDATA, add(CFA_XSP16, literal(-4)))
          CFI ?RET_LOW load(1, XDATA, add(CFA_XSP16, literal(-5)))
          CFI Invalid
        LCALL   ?DEALLOC_XSTACK8
          CFI EndBlock cfiBlock452
        REQUIRE ??Subroutine77_0
        ; // Fall through to label ??Subroutine77_0

        RSEG BANKED_CODE:CODE:NOROOT(0)
??Subroutine77_0:
          CFI Block cfiBlock453 Using cfiCommon0
          CFI NoFunction
          CFI CFA_SP SP+0
          CFI CFA_XSP16 add(XSP16, 18)
          CFI VB load(1, XDATA, add(CFA_XSP16, literal(-17)))
          CFI DPL0 load(1, XDATA, add(CFA_XSP16, literal(-2)))
          CFI DPH0 load(1, XDATA, add(CFA_XSP16, literal(-1)))
          CFI R6 load(1, XDATA, add(CFA_XSP16, literal(-18)))
          CFI R7 load(1, XDATA, add(CFA_XSP16, literal(-6)))
          CFI V0 load(1, XDATA, add(CFA_XSP16, literal(-16)))
          CFI V1 load(1, XDATA, add(CFA_XSP16, literal(-15)))
          CFI V2 load(1, XDATA, add(CFA_XSP16, literal(-14)))
          CFI V3 load(1, XDATA, add(CFA_XSP16, literal(-13)))
          CFI V4 load(1, XDATA, add(CFA_XSP16, literal(-12)))
          CFI V5 load(1, XDATA, add(CFA_XSP16, literal(-11)))
          CFI V6 load(1, XDATA, add(CFA_XSP16, literal(-10)))
          CFI V7 load(1, XDATA, add(CFA_XSP16, literal(-9)))
          CFI V8 load(1, XDATA, add(CFA_XSP16, literal(-8)))
          CFI V9 load(1, XDATA, add(CFA_XSP16, literal(-7)))
          CFI ?BRET_EXT load(1, XDATA, add(CFA_XSP16, literal(-3)))
          CFI ?RET_HIGH load(1, XDATA, add(CFA_XSP16, literal(-4)))
          CFI ?RET_LOW load(1, XDATA, add(CFA_XSP16, literal(-5)))
        MOV     R7,#0xa
        LJMP    ?BANKED_LEAVE_XDATA
          CFI EndBlock cfiBlock453

        RSEG BANKED_CODE:CODE:NOROOT(0)
?Subroutine46:
          CFI Block cfiCond454 Using cfiCommon0
          CFI Function ZDSecMgrDeviceJoinDirect
          CFI Conditional ??CrossCallReturnLabel_63
          CFI R6 load(1, XDATA, add(CFA_XSP16, literal(-12)))
          CFI VB load(1, XDATA, add(CFA_XSP16, literal(-11)))
          CFI V0 load(1, XDATA, add(CFA_XSP16, literal(-10)))
          CFI V1 load(1, XDATA, add(CFA_XSP16, literal(-9)))
          CFI V2 load(1, XDATA, add(CFA_XSP16, literal(-8)))
          CFI V3 load(1, XDATA, add(CFA_XSP16, literal(-7)))
          CFI R7 load(1, XDATA, add(CFA_XSP16, literal(-6)))
          CFI ?RET_LOW load(1, XDATA, add(CFA_XSP16, literal(-5)))
          CFI ?RET_HIGH load(1, XDATA, add(CFA_XSP16, literal(-4)))
          CFI ?BRET_EXT load(1, XDATA, add(CFA_XSP16, literal(-3)))
          CFI DPL0 load(1, XDATA, add(CFA_XSP16, literal(-2)))
          CFI DPH0 load(1, XDATA, add(CFA_XSP16, literal(-1)))
          CFI CFA_SP SP+-2
          CFI CFA_XSP16 add(XSP16, 32)
          CFI Block cfiCond455 Using cfiCommon0
          CFI (cfiCond455) Function APSME_TCLinkKeyLoad
          CFI (cfiCond455) Conditional ??CrossCallReturnLabel_64
          CFI (cfiCond455) R6 load(1, XDATA, add(CFA_XSP16, literal(-18)))
          CFI (cfiCond455) VB load(1, XDATA, add(CFA_XSP16, literal(-17)))
          CFI (cfiCond455) V0 load(1, XDATA, add(CFA_XSP16, literal(-16)))
          CFI (cfiCond455) V1 load(1, XDATA, add(CFA_XSP16, literal(-15)))
          CFI (cfiCond455) V2 load(1, XDATA, add(CFA_XSP16, literal(-14)))
          CFI (cfiCond455) V3 load(1, XDATA, add(CFA_XSP16, literal(-13)))
          CFI (cfiCond455) V4 load(1, XDATA, add(CFA_XSP16, literal(-12)))
          CFI (cfiCond455) V5 load(1, XDATA, add(CFA_XSP16, literal(-11)))
          CFI (cfiCond455) V6 load(1, XDATA, add(CFA_XSP16, literal(-10)))
          CFI (cfiCond455) V7 load(1, XDATA, add(CFA_XSP16, literal(-9)))
          CFI (cfiCond455) V8 load(1, XDATA, add(CFA_XSP16, literal(-8)))
          CFI (cfiCond455) V9 load(1, XDATA, add(CFA_XSP16, literal(-7)))
          CFI (cfiCond455) R7 load(1, XDATA, add(CFA_XSP16, literal(-6)))
          CFI (cfiCond455) ?RET_LOW load(1, XDATA, add(CFA_XSP16, literal(-5)))
          CFI (cfiCond455) ?RET_HIGH load(1, XDATA, add(CFA_XSP16, literal(-4)))
          CFI (cfiCond455) ?BRET_EXT load(1, XDATA, add(CFA_XSP16, literal(-3)))
          CFI (cfiCond455) DPL0 load(1, XDATA, add(CFA_XSP16, literal(-2)))
          CFI (cfiCond455) DPH0 load(1, XDATA, add(CFA_XSP16, literal(-1)))
          CFI (cfiCond455) CFA_SP SP+-2
          CFI (cfiCond455) CFA_XSP16 add(XSP16, 51)
          CFI Block cfiPicker456 Using cfiCommon1
          CFI (cfiPicker456) NoFunction
          CFI (cfiPicker456) Picker
        ADD     A,#-0x11
        MOV     R0,A
        MOV     B,#0x9
        MUL     AB
        MOV     R0,A
        MOV     R1,B
        MOV     A,#TCLinkKeyFrmCntr & 0xff
        ADD     A,R0
        RET
          CFI EndBlock cfiCond454
          CFI EndBlock cfiCond455
          CFI EndBlock cfiPicker456

        RSEG BANKED_CODE:CODE:NOROOT(0)
?Subroutine39:
          CFI Block cfiCond457 Using cfiCommon0
          CFI Function APSME_TCLinkKeySync
          CFI Conditional ??CrossCallReturnLabel_51
          CFI R6 load(1, XDATA, add(CFA_XSP16, literal(-14)))
          CFI VB load(1, XDATA, add(CFA_XSP16, literal(-13)))
          CFI V0 load(1, XDATA, add(CFA_XSP16, literal(-12)))
          CFI V1 load(1, XDATA, add(CFA_XSP16, literal(-11)))
          CFI V2 load(1, XDATA, add(CFA_XSP16, literal(-10)))
          CFI V3 load(1, XDATA, add(CFA_XSP16, literal(-9)))
          CFI V4 load(1, XDATA, add(CFA_XSP16, literal(-8)))
          CFI V5 load(1, XDATA, add(CFA_XSP16, literal(-7)))
          CFI R7 load(1, XDATA, add(CFA_XSP16, literal(-6)))
          CFI ?RET_LOW load(1, XDATA, add(CFA_XSP16, literal(-5)))
          CFI ?RET_HIGH load(1, XDATA, add(CFA_XSP16, literal(-4)))
          CFI ?BRET_EXT load(1, XDATA, add(CFA_XSP16, literal(-3)))
          CFI DPL0 load(1, XDATA, add(CFA_XSP16, literal(-2)))
          CFI DPH0 load(1, XDATA, add(CFA_XSP16, literal(-1)))
          CFI CFA_SP SP+-2
          CFI CFA_XSP16 add(XSP16, 42)
          CFI Block cfiCond458 Using cfiCommon0
          CFI (cfiCond458) Function APSME_TCLinkKeyLoad
          CFI (cfiCond458) Conditional ??CrossCallReturnLabel_52
          CFI (cfiCond458) R6 load(1, XDATA, add(CFA_XSP16, literal(-18)))
          CFI (cfiCond458) VB load(1, XDATA, add(CFA_XSP16, literal(-17)))
          CFI (cfiCond458) V0 load(1, XDATA, add(CFA_XSP16, literal(-16)))
          CFI (cfiCond458) V1 load(1, XDATA, add(CFA_XSP16, literal(-15)))
          CFI (cfiCond458) V2 load(1, XDATA, add(CFA_XSP16, literal(-14)))
          CFI (cfiCond458) V3 load(1, XDATA, add(CFA_XSP16, literal(-13)))
          CFI (cfiCond458) V4 load(1, XDATA, add(CFA_XSP16, literal(-12)))
          CFI (cfiCond458) V5 load(1, XDATA, add(CFA_XSP16, literal(-11)))
          CFI (cfiCond458) V6 load(1, XDATA, add(CFA_XSP16, literal(-10)))
          CFI (cfiCond458) V7 load(1, XDATA, add(CFA_XSP16, literal(-9)))
          CFI (cfiCond458) V8 load(1, XDATA, add(CFA_XSP16, literal(-8)))
          CFI (cfiCond458) V9 load(1, XDATA, add(CFA_XSP16, literal(-7)))
          CFI (cfiCond458) R7 load(1, XDATA, add(CFA_XSP16, literal(-6)))
          CFI (cfiCond458) ?RET_LOW load(1, XDATA, add(CFA_XSP16, literal(-5)))
          CFI (cfiCond458) ?RET_HIGH load(1, XDATA, add(CFA_XSP16, literal(-4)))
          CFI (cfiCond458) ?BRET_EXT load(1, XDATA, add(CFA_XSP16, literal(-3)))
          CFI (cfiCond458) DPL0 load(1, XDATA, add(CFA_XSP16, literal(-2)))
          CFI (cfiCond458) DPH0 load(1, XDATA, add(CFA_XSP16, literal(-1)))
          CFI (cfiCond458) CFA_SP SP+-2
          CFI (cfiCond458) CFA_XSP16 add(XSP16, 51)
          CFI Block cfiPicker459 Using cfiCommon1
          CFI (cfiPicker459) NoFunction
          CFI (cfiPicker459) Picker
        MOVX    A,@DPTR
        ADD     A,#0x4
        MOV     R0,A
        CLR     A
        ADDC    A,#0x1
        MOV     R1,A
        RET
          CFI EndBlock cfiCond457
          CFI EndBlock cfiCond458
          CFI EndBlock cfiPicker459

        RSEG BANKED_CODE:CODE:NOROOT(0)
?Subroutine23:
          CFI Block cfiCond460 Using cfiCommon0
          CFI Function ZDSecMgrTransportKeyInd
          CFI Conditional ??CrossCallReturnLabel_20
          CFI R6 load(1, XDATA, add(CFA_XSP16, literal(-14)))
          CFI VB load(1, XDATA, add(CFA_XSP16, literal(-13)))
          CFI V0 load(1, XDATA, add(CFA_XSP16, literal(-12)))
          CFI V1 load(1, XDATA, add(CFA_XSP16, literal(-11)))
          CFI V2 load(1, XDATA, add(CFA_XSP16, literal(-10)))
          CFI V3 load(1, XDATA, add(CFA_XSP16, literal(-9)))
          CFI V4 load(1, XDATA, add(CFA_XSP16, literal(-8)))
          CFI V5 load(1, XDATA, add(CFA_XSP16, literal(-7)))
          CFI R7 load(1, XDATA, add(CFA_XSP16, literal(-6)))
          CFI ?RET_LOW load(1, XDATA, add(CFA_XSP16, literal(-5)))
          CFI ?RET_HIGH load(1, XDATA, add(CFA_XSP16, literal(-4)))
          CFI ?BRET_EXT load(1, XDATA, add(CFA_XSP16, literal(-3)))
          CFI DPL0 load(1, XDATA, add(CFA_XSP16, literal(-2)))
          CFI DPH0 load(1, XDATA, add(CFA_XSP16, literal(-1)))
          CFI CFA_SP SP+-2
          CFI CFA_XSP16 add(XSP16, 54)
          CFI Block cfiCond461 Using cfiCommon0
          CFI (cfiCond461) Function APSME_TCLinkKeyLoad
          CFI (cfiCond461) Conditional ??CrossCallReturnLabel_21
          CFI (cfiCond461) R6 load(1, XDATA, add(CFA_XSP16, literal(-18)))
          CFI (cfiCond461) VB load(1, XDATA, add(CFA_XSP16, literal(-17)))
          CFI (cfiCond461) V0 load(1, XDATA, add(CFA_XSP16, literal(-16)))
          CFI (cfiCond461) V1 load(1, XDATA, add(CFA_XSP16, literal(-15)))
          CFI (cfiCond461) V2 load(1, XDATA, add(CFA_XSP16, literal(-14)))
          CFI (cfiCond461) V3 load(1, XDATA, add(CFA_XSP16, literal(-13)))
          CFI (cfiCond461) V4 load(1, XDATA, add(CFA_XSP16, literal(-12)))
          CFI (cfiCond461) V5 load(1, XDATA, add(CFA_XSP16, literal(-11)))
          CFI (cfiCond461) V6 load(1, XDATA, add(CFA_XSP16, literal(-10)))
          CFI (cfiCond461) V7 load(1, XDATA, add(CFA_XSP16, literal(-9)))
          CFI (cfiCond461) V8 load(1, XDATA, add(CFA_XSP16, literal(-8)))
          CFI (cfiCond461) V9 load(1, XDATA, add(CFA_XSP16, literal(-7)))
          CFI (cfiCond461) R7 load(1, XDATA, add(CFA_XSP16, literal(-6)))
          CFI (cfiCond461) ?RET_LOW load(1, XDATA, add(CFA_XSP16, literal(-5)))
          CFI (cfiCond461) ?RET_HIGH load(1, XDATA, add(CFA_XSP16, literal(-4)))
          CFI (cfiCond461) ?BRET_EXT load(1, XDATA, add(CFA_XSP16, literal(-3)))
          CFI (cfiCond461) DPL0 load(1, XDATA, add(CFA_XSP16, literal(-2)))
          CFI (cfiCond461) DPH0 load(1, XDATA, add(CFA_XSP16, literal(-1)))
          CFI (cfiCond461) CFA_SP SP+-2
          CFI (cfiCond461) CFA_XSP16 add(XSP16, 51)
          CFI Block cfiPicker462 Using cfiCommon1
          CFI (cfiPicker462) NoFunction
          CFI (cfiPicker462) Picker
        LCALL   ?Subroutine47 & 0xFFFF
??CrossCallReturnLabel_195:
        MOV     A,#0x5
        RET
          CFI EndBlock cfiCond460
          CFI EndBlock cfiCond461
          CFI EndBlock cfiPicker462

        RSEG BANKED_CODE:CODE:NOROOT(0)
?Subroutine13:
          CFI Block cfiCond463 Using cfiCommon0
          CFI Function ZDSecMgrDeviceJoinDirect
          CFI Conditional ??CrossCallReturnLabel_192
          CFI R6 load(1, XDATA, add(CFA_XSP16, literal(-12)))
          CFI VB load(1, XDATA, add(CFA_XSP16, literal(-11)))
          CFI V0 load(1, XDATA, add(CFA_XSP16, literal(-10)))
          CFI V1 load(1, XDATA, add(CFA_XSP16, literal(-9)))
          CFI V2 load(1, XDATA, add(CFA_XSP16, literal(-8)))
          CFI V3 load(1, XDATA, add(CFA_XSP16, literal(-7)))
          CFI R7 load(1, XDATA, add(CFA_XSP16, literal(-6)))
          CFI ?RET_LOW load(1, XDATA, add(CFA_XSP16, literal(-5)))
          CFI ?RET_HIGH load(1, XDATA, add(CFA_XSP16, literal(-4)))
          CFI ?BRET_EXT load(1, XDATA, add(CFA_XSP16, literal(-3)))
          CFI DPL0 load(1, XDATA, add(CFA_XSP16, literal(-2)))
          CFI DPH0 load(1, XDATA, add(CFA_XSP16, literal(-1)))
          CFI CFA_SP SP+-2
          CFI CFA_XSP16 add(XSP16, 32)
          CFI Block cfiCond464 Using cfiCommon0
          CFI (cfiCond464) Function APSME_TCLinkKeyLoad
          CFI (cfiCond464) Conditional ??CrossCallReturnLabel_193
          CFI (cfiCond464) R6 load(1, XDATA, add(CFA_XSP16, literal(-18)))
          CFI (cfiCond464) VB load(1, XDATA, add(CFA_XSP16, literal(-17)))
          CFI (cfiCond464) V0 load(1, XDATA, add(CFA_XSP16, literal(-16)))
          CFI (cfiCond464) V1 load(1, XDATA, add(CFA_XSP16, literal(-15)))
          CFI (cfiCond464) V2 load(1, XDATA, add(CFA_XSP16, literal(-14)))
          CFI (cfiCond464) V3 load(1, XDATA, add(CFA_XSP16, literal(-13)))
          CFI (cfiCond464) V4 load(1, XDATA, add(CFA_XSP16, literal(-12)))
          CFI (cfiCond464) V5 load(1, XDATA, add(CFA_XSP16, literal(-11)))
          CFI (cfiCond464) V6 load(1, XDATA, add(CFA_XSP16, literal(-10)))
          CFI (cfiCond464) V7 load(1, XDATA, add(CFA_XSP16, literal(-9)))
          CFI (cfiCond464) V8 load(1, XDATA, add(CFA_XSP16, literal(-8)))
          CFI (cfiCond464) V9 load(1, XDATA, add(CFA_XSP16, literal(-7)))
          CFI (cfiCond464) R7 load(1, XDATA, add(CFA_XSP16, literal(-6)))
          CFI (cfiCond464) ?RET_LOW load(1, XDATA, add(CFA_XSP16, literal(-5)))
          CFI (cfiCond464) ?RET_HIGH load(1, XDATA, add(CFA_XSP16, literal(-4)))
          CFI (cfiCond464) ?BRET_EXT load(1, XDATA, add(CFA_XSP16, literal(-3)))
          CFI (cfiCond464) DPL0 load(1, XDATA, add(CFA_XSP16, literal(-2)))
          CFI (cfiCond464) DPH0 load(1, XDATA, add(CFA_XSP16, literal(-1)))
          CFI (cfiCond464) CFA_SP SP+-2
          CFI (cfiCond464) CFA_XSP16 add(XSP16, 51)
          CFI Block cfiPicker465 Using cfiCommon1
          CFI (cfiPicker465) NoFunction
          CFI (cfiPicker465) Picker
        CLR     A
          CFI EndBlock cfiCond463
          CFI EndBlock cfiCond464
          CFI EndBlock cfiPicker465
        REQUIRE ??Subroutine78_0
        ; // Fall through to label ??Subroutine78_0

        RSEG BANKED_CODE:CODE:NOROOT(0)
??Subroutine78_0:
          CFI Block cfiCond466 Using cfiCommon0
          CFI Function ZDSecMgrDeviceJoinDirect
          CFI Conditional ??CrossCallReturnLabel_194
          CFI R6 load(1, XDATA, add(CFA_XSP16, literal(-12)))
          CFI VB load(1, XDATA, add(CFA_XSP16, literal(-11)))
          CFI V0 load(1, XDATA, add(CFA_XSP16, literal(-10)))
          CFI V1 load(1, XDATA, add(CFA_XSP16, literal(-9)))
          CFI V2 load(1, XDATA, add(CFA_XSP16, literal(-8)))
          CFI V3 load(1, XDATA, add(CFA_XSP16, literal(-7)))
          CFI R7 load(1, XDATA, add(CFA_XSP16, literal(-6)))
          CFI ?RET_LOW load(1, XDATA, add(CFA_XSP16, literal(-5)))
          CFI ?RET_HIGH load(1, XDATA, add(CFA_XSP16, literal(-4)))
          CFI ?BRET_EXT load(1, XDATA, add(CFA_XSP16, literal(-3)))
          CFI DPL0 load(1, XDATA, add(CFA_XSP16, literal(-2)))
          CFI DPH0 load(1, XDATA, add(CFA_XSP16, literal(-1)))
          CFI CFA_SP SP+-2
          CFI CFA_XSP16 add(XSP16, 32)
          CFI Block cfiCond467 Using cfiCommon0
          CFI (cfiCond467) Function ZDSecMgrDeviceJoinDirect
          CFI (cfiCond467) Conditional ??CrossCallReturnLabel_192
          CFI (cfiCond467) R6 load(1, XDATA, add(CFA_XSP16, literal(-12)))
          CFI (cfiCond467) VB load(1, XDATA, add(CFA_XSP16, literal(-11)))
          CFI (cfiCond467) V0 load(1, XDATA, add(CFA_XSP16, literal(-10)))
          CFI (cfiCond467) V1 load(1, XDATA, add(CFA_XSP16, literal(-9)))
          CFI (cfiCond467) V2 load(1, XDATA, add(CFA_XSP16, literal(-8)))
          CFI (cfiCond467) V3 load(1, XDATA, add(CFA_XSP16, literal(-7)))
          CFI (cfiCond467) R7 load(1, XDATA, add(CFA_XSP16, literal(-6)))
          CFI (cfiCond467) ?RET_LOW load(1, XDATA, add(CFA_XSP16, literal(-5)))
          CFI (cfiCond467) ?RET_HIGH load(1, XDATA, add(CFA_XSP16, literal(-4)))
          CFI (cfiCond467) ?BRET_EXT load(1, XDATA, add(CFA_XSP16, literal(-3)))
          CFI (cfiCond467) DPL0 load(1, XDATA, add(CFA_XSP16, literal(-2)))
          CFI (cfiCond467) DPH0 load(1, XDATA, add(CFA_XSP16, literal(-1)))
          CFI (cfiCond467) CFA_SP SP+-2
          CFI (cfiCond467) CFA_XSP16 add(XSP16, 32)
          CFI Block cfiCond468 Using cfiCommon0
          CFI (cfiCond468) Function APSME_TCLinkKeyLoad
          CFI (cfiCond468) Conditional ??CrossCallReturnLabel_193
          CFI (cfiCond468) R6 load(1, XDATA, add(CFA_XSP16, literal(-18)))
          CFI (cfiCond468) VB load(1, XDATA, add(CFA_XSP16, literal(-17)))
          CFI (cfiCond468) V0 load(1, XDATA, add(CFA_XSP16, literal(-16)))
          CFI (cfiCond468) V1 load(1, XDATA, add(CFA_XSP16, literal(-15)))
          CFI (cfiCond468) V2 load(1, XDATA, add(CFA_XSP16, literal(-14)))
          CFI (cfiCond468) V3 load(1, XDATA, add(CFA_XSP16, literal(-13)))
          CFI (cfiCond468) V4 load(1, XDATA, add(CFA_XSP16, literal(-12)))
          CFI (cfiCond468) V5 load(1, XDATA, add(CFA_XSP16, literal(-11)))
          CFI (cfiCond468) V6 load(1, XDATA, add(CFA_XSP16, literal(-10)))
          CFI (cfiCond468) V7 load(1, XDATA, add(CFA_XSP16, literal(-9)))
          CFI (cfiCond468) V8 load(1, XDATA, add(CFA_XSP16, literal(-8)))
          CFI (cfiCond468) V9 load(1, XDATA, add(CFA_XSP16, literal(-7)))
          CFI (cfiCond468) R7 load(1, XDATA, add(CFA_XSP16, literal(-6)))
          CFI (cfiCond468) ?RET_LOW load(1, XDATA, add(CFA_XSP16, literal(-5)))
          CFI (cfiCond468) ?RET_HIGH load(1, XDATA, add(CFA_XSP16, literal(-4)))
          CFI (cfiCond468) ?BRET_EXT load(1, XDATA, add(CFA_XSP16, literal(-3)))
          CFI (cfiCond468) DPL0 load(1, XDATA, add(CFA_XSP16, literal(-2)))
          CFI (cfiCond468) DPH0 load(1, XDATA, add(CFA_XSP16, literal(-1)))
          CFI (cfiCond468) CFA_SP SP+-2
          CFI (cfiCond468) CFA_XSP16 add(XSP16, 51)
          CFI Block cfiPicker469 Using cfiCommon1
          CFI (cfiPicker469) NoFunction
          CFI (cfiPicker469) Picker
        LCALL   ??Subroutine69_0 & 0xFFFF
??CrossCallReturnLabel_198:
        ; Setup parameters for call to function osal_nv_write
        ; Setup parameters for call to function osal_nv_write
        INC     A
        RET
          CFI EndBlock cfiCond466
          CFI EndBlock cfiCond467
          CFI EndBlock cfiCond468
          CFI EndBlock cfiPicker469
// 3286 
// 3287 /******************************************************************************
// 3288  * @fn          APSME_IsDefaultTCLK
// 3289  *
// 3290  * @brief       Return TRUE or FALSE based on the extended address.  If the
// 3291  *              input ext address is all FFs, it means the trust center link
// 3292  *              assoiciated with the address is the default trust center link key
// 3293  *
// 3294  * @param       extAddr - [in] extended address
// 3295  *
// 3296  * @return      uint8 TRUE/FALSE
// 3297  */

        RSEG BANKED_CODE:CODE:NOROOT(0)
// 3298 uint8 APSME_IsDefaultTCLK( uint8 *extAddr )
APSME_IsDefaultTCLK:
          CFI Block cfiBlock470 Using cfiCommon0
          CFI Function APSME_IsDefaultTCLK
        CODE
// 3299 {
        FUNCALL APSME_IsDefaultTCLK, osal_isbufset
        LOCFRAME ISTACK, 2, STACK
        LOCFRAME PSTACK, 0, STACK
        LOCFRAME XSTACK, 0, STACK
        LOCFRAME IOVERLAY, 0, STATIC
        LOCFRAME DOVERLAY, 0, STATIC
        ARGFRAME ISTACK, 2, STACK
        ARGFRAME PSTACK, 0, STACK
        ARGFRAME XSTACK, 0, STACK
        ARGFRAME IOVERLAY, 0, STATIC
        ARGFRAME DOVERLAY, 0, STATIC
        PUSH    DPL
          CFI DPL0 Frame(CFA_SP, 4)
          CFI CFA_SP SP+-4
        PUSH    DPH
          CFI DPH0 Frame(CFA_SP, 5)
          CFI CFA_SP SP+-5
        ; Saved register size: 2
        ; Auto size: 0
// 3300   return osal_isbufset( extAddr, 0xFF, Z_EXTADDR_LEN );
        ; Setup parameters for call to function osal_isbufset
        MOV     R4,#0x8
        MOV     R1,#-0x1
        LCALL   `??osal_isbufset::?relay`; Banked call to: osal_isbufset
        LJMP    ??Subroutine65_0 & 0xFFFF
// 3301 }
          CFI EndBlock cfiBlock470
// 3302 
// 3303 /******************************************************************************
// 3304  * @fn          ZDSecMgrNwkKeyInit
// 3305  *
// 3306  * @brief       Initialize the NV items for
// 3307  *                  ZCD_NV_NWKKEY,
// 3308  *                  ZCD_NV_NWK_ACTIVE_KEY_INFO and
// 3309  *                  ZCD_NV_NWK_ALTERN_KEY_INFO
// 3310  *
// 3311  * @param       setDefault
// 3312  *
// 3313  * @return      none
// 3314  */

        RSEG BANKED_CODE:CODE:NOROOT(0)
// 3315 void ZDSecMgrNwkKeyInit(uint8 setDefault)
ZDSecMgrNwkKeyInit:
          CFI Block cfiBlock471 Using cfiCommon0
          CFI Function ZDSecMgrNwkKeyInit
        CODE
// 3316 {
        FUNCALL ZDSecMgrNwkKeyInit, osal_memset
        LOCFRAME ISTACK, 0, STACK
        LOCFRAME PSTACK, 0, STACK
        LOCFRAME XSTACK, 62, STACK
        LOCFRAME IOVERLAY, 0, STATIC
        LOCFRAME DOVERLAY, 0, STATIC
        ARGFRAME ISTACK, 0, STACK
        ARGFRAME PSTACK, 0, STACK
        ARGFRAME XSTACK, 62, STACK
        ARGFRAME IOVERLAY, 0, STATIC
        ARGFRAME DOVERLAY, 0, STATIC
        FUNCALL ZDSecMgrNwkKeyInit, zgReadStartupOptions
        LOCFRAME ISTACK, 0, STACK
        LOCFRAME PSTACK, 0, STACK
        LOCFRAME XSTACK, 62, STACK
        LOCFRAME IOVERLAY, 0, STATIC
        LOCFRAME DOVERLAY, 0, STATIC
        ARGFRAME ISTACK, 0, STACK
        ARGFRAME PSTACK, 0, STACK
        ARGFRAME XSTACK, 62, STACK
        ARGFRAME IOVERLAY, 0, STATIC
        ARGFRAME DOVERLAY, 0, STATIC
        FUNCALL ZDSecMgrNwkKeyInit, osal_nv_item_init
        LOCFRAME ISTACK, 0, STACK
        LOCFRAME PSTACK, 0, STACK
        LOCFRAME XSTACK, 64, STACK
        LOCFRAME IOVERLAY, 0, STATIC
        LOCFRAME DOVERLAY, 0, STATIC
        ARGFRAME ISTACK, 0, STACK
        ARGFRAME PSTACK, 0, STACK
        ARGFRAME XSTACK, 64, STACK
        ARGFRAME IOVERLAY, 0, STATIC
        ARGFRAME DOVERLAY, 0, STATIC
        FUNCALL ZDSecMgrNwkKeyInit, osal_nv_write
        LOCFRAME ISTACK, 0, STACK
        LOCFRAME PSTACK, 0, STACK
        LOCFRAME XSTACK, 66, STACK
        LOCFRAME IOVERLAY, 0, STATIC
        LOCFRAME DOVERLAY, 0, STATIC
        ARGFRAME ISTACK, 0, STACK
        ARGFRAME PSTACK, 0, STACK
        ARGFRAME XSTACK, 66, STACK
        ARGFRAME IOVERLAY, 0, STATIC
        ARGFRAME DOVERLAY, 0, STATIC
        FUNCALL ZDSecMgrNwkKeyInit, osal_memset
        LOCFRAME ISTACK, 0, STACK
        LOCFRAME PSTACK, 0, STACK
        LOCFRAME XSTACK, 62, STACK
        LOCFRAME IOVERLAY, 0, STATIC
        LOCFRAME DOVERLAY, 0, STATIC
        ARGFRAME ISTACK, 0, STACK
        ARGFRAME PSTACK, 0, STACK
        ARGFRAME XSTACK, 62, STACK
        ARGFRAME IOVERLAY, 0, STATIC
        ARGFRAME DOVERLAY, 0, STATIC
        FUNCALL ZDSecMgrNwkKeyInit, osal_nv_item_init
        LOCFRAME ISTACK, 0, STACK
        LOCFRAME PSTACK, 0, STACK
        LOCFRAME XSTACK, 64, STACK
        LOCFRAME IOVERLAY, 0, STATIC
        LOCFRAME DOVERLAY, 0, STATIC
        ARGFRAME ISTACK, 0, STACK
        ARGFRAME PSTACK, 0, STACK
        ARGFRAME XSTACK, 64, STACK
        ARGFRAME IOVERLAY, 0, STATIC
        ARGFRAME DOVERLAY, 0, STATIC
        FUNCALL ZDSecMgrNwkKeyInit, osal_nv_write
        LOCFRAME ISTACK, 0, STACK
        LOCFRAME PSTACK, 0, STACK
        LOCFRAME XSTACK, 66, STACK
        LOCFRAME IOVERLAY, 0, STATIC
        LOCFRAME DOVERLAY, 0, STATIC
        ARGFRAME ISTACK, 0, STACK
        ARGFRAME PSTACK, 0, STACK
        ARGFRAME XSTACK, 66, STACK
        ARGFRAME IOVERLAY, 0, STATIC
        ARGFRAME DOVERLAY, 0, STATIC
        FUNCALL ZDSecMgrNwkKeyInit, osal_memset
        LOCFRAME ISTACK, 0, STACK
        LOCFRAME PSTACK, 0, STACK
        LOCFRAME XSTACK, 62, STACK
        LOCFRAME IOVERLAY, 0, STATIC
        LOCFRAME DOVERLAY, 0, STATIC
        ARGFRAME ISTACK, 0, STACK
        ARGFRAME PSTACK, 0, STACK
        ARGFRAME XSTACK, 62, STACK
        ARGFRAME IOVERLAY, 0, STATIC
        ARGFRAME DOVERLAY, 0, STATIC
        FUNCALL ZDSecMgrNwkKeyInit, osal_nv_item_init
        LOCFRAME ISTACK, 0, STACK
        LOCFRAME PSTACK, 0, STACK
        LOCFRAME XSTACK, 64, STACK
        LOCFRAME IOVERLAY, 0, STATIC
        LOCFRAME DOVERLAY, 0, STATIC
        ARGFRAME ISTACK, 0, STACK
        ARGFRAME PSTACK, 0, STACK
        ARGFRAME XSTACK, 64, STACK
        ARGFRAME IOVERLAY, 0, STATIC
        ARGFRAME DOVERLAY, 0, STATIC
        FUNCALL ZDSecMgrNwkKeyInit, osal_nv_write
        LOCFRAME ISTACK, 0, STACK
        LOCFRAME PSTACK, 0, STACK
        LOCFRAME XSTACK, 66, STACK
        LOCFRAME IOVERLAY, 0, STATIC
        LOCFRAME DOVERLAY, 0, STATIC
        ARGFRAME ISTACK, 0, STACK
        ARGFRAME PSTACK, 0, STACK
        ARGFRAME XSTACK, 66, STACK
        ARGFRAME IOVERLAY, 0, STATIC
        ARGFRAME DOVERLAY, 0, STATIC
        FUNCALL ZDSecMgrNwkKeyInit, osal_memset
        LOCFRAME ISTACK, 0, STACK
        LOCFRAME PSTACK, 0, STACK
        LOCFRAME XSTACK, 62, STACK
        LOCFRAME IOVERLAY, 0, STATIC
        LOCFRAME DOVERLAY, 0, STATIC
        ARGFRAME ISTACK, 0, STACK
        ARGFRAME PSTACK, 0, STACK
        ARGFRAME XSTACK, 62, STACK
        ARGFRAME IOVERLAY, 0, STATIC
        ARGFRAME DOVERLAY, 0, STATIC
        FUNCALL ZDSecMgrNwkKeyInit, osal_nv_item_init
        LOCFRAME ISTACK, 0, STACK
        LOCFRAME PSTACK, 0, STACK
        LOCFRAME XSTACK, 64, STACK
        LOCFRAME IOVERLAY, 0, STATIC
        LOCFRAME DOVERLAY, 0, STATIC
        ARGFRAME ISTACK, 0, STACK
        ARGFRAME PSTACK, 0, STACK
        ARGFRAME XSTACK, 64, STACK
        ARGFRAME IOVERLAY, 0, STATIC
        ARGFRAME DOVERLAY, 0, STATIC
        FUNCALL ZDSecMgrNwkKeyInit, osal_nv_write
        LOCFRAME ISTACK, 0, STACK
        LOCFRAME PSTACK, 0, STACK
        LOCFRAME XSTACK, 66, STACK
        LOCFRAME IOVERLAY, 0, STATIC
        LOCFRAME DOVERLAY, 0, STATIC
        ARGFRAME ISTACK, 0, STACK
        ARGFRAME PSTACK, 0, STACK
        ARGFRAME XSTACK, 66, STACK
        ARGFRAME IOVERLAY, 0, STATIC
        ARGFRAME DOVERLAY, 0, STATIC
        FUNCALL ZDSecMgrNwkKeyInit, osal_nv_item_init
        LOCFRAME ISTACK, 0, STACK
        LOCFRAME PSTACK, 0, STACK
        LOCFRAME XSTACK, 64, STACK
        LOCFRAME IOVERLAY, 0, STATIC
        LOCFRAME DOVERLAY, 0, STATIC
        ARGFRAME ISTACK, 0, STACK
        ARGFRAME PSTACK, 0, STACK
        ARGFRAME XSTACK, 64, STACK
        ARGFRAME IOVERLAY, 0, STATIC
        ARGFRAME DOVERLAY, 0, STATIC
        FUNCALL ZDSecMgrNwkKeyInit, osal_nv_write
        LOCFRAME ISTACK, 0, STACK
        LOCFRAME PSTACK, 0, STACK
        LOCFRAME XSTACK, 66, STACK
        LOCFRAME IOVERLAY, 0, STATIC
        LOCFRAME DOVERLAY, 0, STATIC
        ARGFRAME ISTACK, 0, STACK
        ARGFRAME PSTACK, 0, STACK
        ARGFRAME XSTACK, 66, STACK
        ARGFRAME IOVERLAY, 0, STATIC
        ARGFRAME DOVERLAY, 0, STATIC
        REQUIRE ?V0
        REQUIRE ?V1
        REQUIRE ?V2
        REQUIRE ?V3
        MOV     A,#-0xc
        LCALL   ?BANKED_ENTER_XDATA
          CFI DPH0 load(1, XDATA, add(CFA_XSP16, literal(-1)))
          CFI DPL0 load(1, XDATA, add(CFA_XSP16, literal(-2)))
          CFI ?BRET_EXT load(1, XDATA, add(CFA_XSP16, literal(-3)))
          CFI ?RET_HIGH load(1, XDATA, add(CFA_XSP16, literal(-4)))
          CFI ?RET_LOW load(1, XDATA, add(CFA_XSP16, literal(-5)))
          CFI R7 load(1, XDATA, add(CFA_XSP16, literal(-6)))
          CFI V3 load(1, XDATA, add(CFA_XSP16, literal(-7)))
          CFI V2 load(1, XDATA, add(CFA_XSP16, literal(-8)))
          CFI V1 load(1, XDATA, add(CFA_XSP16, literal(-9)))
          CFI V0 load(1, XDATA, add(CFA_XSP16, literal(-10)))
          CFI VB load(1, XDATA, add(CFA_XSP16, literal(-11)))
          CFI R6 load(1, XDATA, add(CFA_XSP16, literal(-12)))
          CFI CFA_SP SP+0
          CFI CFA_XSP16 add(XSP16, 12)
        ; Saved register size: 12
        ; Auto size: 50
        MOV     A,#-0x32
        LCALL   ?ALLOC_XSTACK8
          CFI CFA_XSP16 add(XSP16, 62)
        MOV     ?V0,R1
// 3317   uint8 status;
// 3318   nwkKeyDesc nwkKey;
// 3319   // Initialize NV items for NWK key, this structure contains the frame counter
// 3320   // and is only used when NV_RESTORE is enabled
// 3321   nwkActiveKeyItems keyItems;
// 3322   
// 3323 
// 3324   uint8 i,nwkFrameCounterReset = FALSE;
        CLR     ?VB.0
// 3325   nwkSecMaterialDesc_t nwkSecMaterialDesc;
// 3326   
// 3327   //NwkSecMaterial entry is empty if set to 0s
// 3328   osal_memset(&nwkSecMaterialDesc,0,sizeof(nwkSecMaterialDesc_t));
        ; Setup parameters for call to function osal_memset
        MOV     R4,#0xc
        MOV     R5,#0x0
        MOV     R1,#0x0
        MOV     R2,?XSP + 0
        MOV     R3,?XSP + 1
        LCALL   `??osal_memset::?relay`; Banked call to: osal_memset
// 3329   
// 3330   // Has been set to reset the nwk security material?
// 3331   if ( zgReadStartupOptions() & ZCD_STARTOPT_CLEAR_NWK_FRAME_COUNTER )
        ; Setup parameters for call to function zgReadStartupOptions
        LCALL   `??zgReadStartupOptions::?relay`; Banked call to: zgReadStartupOptions
        MOV     A,R1
        MOV     R0,A
        MOV     C,0xE0 /* A   */.7
        JNC     ??ZDSecMgrNwkKeyInit_0
// 3332   {
// 3333     nwkFrameCounterReset = TRUE;
        SETB    ?VB.0
// 3334   }
// 3335   
// 3336   //Initialize the nwk security material
// 3337   for( i = 0; i < gMAX_NWK_SEC_MATERIAL_TABLE_ENTRIES; i++)
??ZDSecMgrNwkKeyInit_0:
        MOV     ?V1,#0x0
        SJMP    ??ZDSecMgrNwkKeyInit_1
// 3338   {
// 3339     if((osal_nv_item_init(ZCD_NV_NWK_SEC_MATERIAL_TABLE_START + i,sizeof(nwkSecMaterialDesc_t),&nwkSecMaterialDesc) == SUCCESS) && (nwkFrameCounterReset))
??ZDSecMgrNwkKeyInit_2:
        MOV     A,R6
        ADD     A,#0x75
        MOV     R6,A
        JNC     ??ZDSecMgrNwkKeyInit_3
        INC     R7
??ZDSecMgrNwkKeyInit_3:
        ; Setup parameters for call to function osal_nv_item_init
        MOV     R0,?XSP + 0
        MOV     R1,?XSP + 1
        MOV     ?V2,R0
        MOV     ?V3,R1
        MOV     R0,#?V2
        LCALL   ?PUSH_XSTACK_I_TWO
          CFI CFA_XSP16 add(XSP16, 64)
        MOV     R4,#0xc
        MOV     R5,#0x0
        MOV     A,R6
        MOV     R2,A
        MOV     A,R7
        MOV     R3,A
        LCALL   `??osal_nv_item_init::?relay`; Banked call to: osal_nv_item_init
        MOV     A,#0x2
        LCALL   ?DEALLOC_XSTACK8
          CFI CFA_XSP16 add(XSP16, 62)
        MOV     A,R1
        JNZ     ??ZDSecMgrNwkKeyInit_4
        MOV     C,?VB.0
        JNC     ??ZDSecMgrNwkKeyInit_4
// 3340     {
// 3341       osal_nv_write(ZCD_NV_NWK_SEC_MATERIAL_TABLE_START + i,0,sizeof(nwkSecMaterialDesc_t),&nwkSecMaterialDesc);
        ; Setup parameters for call to function osal_nv_write
        MOV     R0,#?V2
        LCALL   ?PUSH_XSTACK_I_TWO
          CFI CFA_XSP16 add(XSP16, 64)
        MOV     ?V2,#0xc
        MOV     ?V3,#0x0
        MOV     R0,#?V2
        LCALL   ?PUSH_XSTACK_I_TWO
          CFI CFA_XSP16 add(XSP16, 66)
        MOV     R4,#0x0
        MOV     R5,#0x0
        MOV     A,R6
        MOV     R2,A
        MOV     A,R7
        MOV     R3,A
        LCALL   `??osal_nv_write::?relay`; Banked call to: osal_nv_write
        MOV     A,#0x4
        LCALL   ?DEALLOC_XSTACK8
          CFI CFA_XSP16 add(XSP16, 62)
// 3342     }
// 3343   }
??ZDSecMgrNwkKeyInit_4:
        INC     ?V1
??ZDSecMgrNwkKeyInit_1:
        MOV     R6,?V1
        MOV     R7,#0x0
        MOV     DPTR,#gMAX_NWK_SEC_MATERIAL_TABLE_ENTRIES
        CLR     A
        MOVC    A,@A+DPTR
        MOV     R0,A
        MOV     A,R6
        CLR     C
        SUBB    A,R0
        JC      ??ZDSecMgrNwkKeyInit_2
// 3344   //Set the last item to the generic nwk security material by setting extPanId to 0xFFs
// 3345   osal_memset(nwkSecMaterialDesc.extendedPanID,0xFF,Z_EXTADDR_LEN);
        ; Setup parameters for call to function osal_memset
        MOV     R4,#0x8
        MOV     R5,#0x0
        MOV     R1,#-0x1
        MOV     A,#0x4
        LCALL   ?XSTACK_DISP0_8
        MOV     R2,DPL
        MOV     R3,DPH
        LCALL   `??osal_memset::?relay`; Banked call to: osal_memset
// 3346   
// 3347   if((osal_nv_item_init(ZCD_NV_NWK_SEC_MATERIAL_TABLE_START + i - 1,sizeof(nwkSecMaterialDesc_t),&nwkSecMaterialDesc) == SUCCESS) && (nwkFrameCounterReset))
        MOV     A,R6
        ADD     A,#0x74
        MOV     R6,A
        JNC     ??ZDSecMgrNwkKeyInit_5
        INC     R7
??ZDSecMgrNwkKeyInit_5:
        ; Setup parameters for call to function osal_nv_item_init
        MOV     R0,?XSP + 0
        MOV     R1,?XSP + 1
        MOV     ?V2,R0
        MOV     ?V3,R1
        MOV     R0,#?V2
        LCALL   ?PUSH_XSTACK_I_TWO
          CFI CFA_XSP16 add(XSP16, 64)
        MOV     R4,#0xc
        MOV     R5,#0x0
        MOV     A,R6
        MOV     R2,A
        MOV     A,R7
        MOV     R3,A
        LCALL   `??osal_nv_item_init::?relay`; Banked call to: osal_nv_item_init
        MOV     A,#0x2
        LCALL   ?DEALLOC_XSTACK8
          CFI CFA_XSP16 add(XSP16, 62)
        MOV     A,R1
        JNZ     ??ZDSecMgrNwkKeyInit_6
        MOV     C,?VB.0
        JNC     ??ZDSecMgrNwkKeyInit_6
// 3348   {
// 3349     osal_nv_write(ZCD_NV_NWK_SEC_MATERIAL_TABLE_START + i - 1,0,sizeof(nwkSecMaterialDesc_t),&nwkSecMaterialDesc);
        ; Setup parameters for call to function osal_nv_write
        MOV     R0,#?V2
        LCALL   ?PUSH_XSTACK_I_TWO
          CFI CFA_XSP16 add(XSP16, 64)
        MOV     ?V2,#0xc
        MOV     ?V3,#0x0
        MOV     R0,#?V2
        LCALL   ?PUSH_XSTACK_I_TWO
          CFI CFA_XSP16 add(XSP16, 66)
        MOV     R4,#0x0
        MOV     R5,#0x0
        MOV     A,R6
        MOV     R2,A
        MOV     A,R7
        MOV     R3,A
        LCALL   `??osal_nv_write::?relay`; Banked call to: osal_nv_write
        MOV     A,#0x4
        LCALL   ?DEALLOC_XSTACK8
          CFI CFA_XSP16 add(XSP16, 62)
// 3350   }
// 3351 
// 3352 
// 3353   osal_memset( &keyItems, 0, sizeof( nwkActiveKeyItems ) );
??ZDSecMgrNwkKeyInit_6:
        ; Setup parameters for call to function osal_memset
        MOV     R4,#0x15
        MOV     R5,#0x0
        MOV     R1,#0x0
        MOV     A,#0x1d
        LCALL   ?XSTACK_DISP101_8
        LCALL   `??osal_memset::?relay`; Banked call to: osal_memset
// 3354 
// 3355   status = osal_nv_item_init( ZCD_NV_NWKKEY, sizeof(nwkActiveKeyItems), (void *)&keyItems );
// 3356 
// 3357 #if defined ( NV_RESTORE )
// 3358   // reset the values of NV items if NV_RESTORE is not enabled
// 3359   if ((status == SUCCESS) && (setDefault == TRUE))
        ; Setup parameters for call to function osal_nv_item_init
        MOV     A,#0x1d
        LCALL   ?XSTACK_DISP100_8
        MOV     ?V2,R0
        MOV     ?V3,R1
        MOV     R0,#?V2
        LCALL   ?PUSH_XSTACK_I_TWO
          CFI CFA_XSP16 add(XSP16, 64)
        MOV     R4,#0x15
        MOV     R5,#0x0
        MOV     R2,#-0x7e
        MOV     R3,#0x0
        LCALL   `??osal_nv_item_init::?relay`; Banked call to: osal_nv_item_init
        MOV     A,#0x2
        LCALL   ?DEALLOC_XSTACK8
          CFI CFA_XSP16 add(XSP16, 62)
        MOV     A,R1
        JNZ     ??ZDSecMgrNwkKeyInit_7
        MOV     A,#0x1
        XRL     A,?V0
        JNZ     ??ZDSecMgrNwkKeyInit_7
// 3360   {
// 3361     // clear NV data to default values
// 3362     osal_nv_write( ZCD_NV_NWKKEY, 0, sizeof(nwkActiveKeyItems), &keyItems );
        ; Setup parameters for call to function osal_nv_write
        MOV     R0,#?V2
        LCALL   ?PUSH_XSTACK_I_TWO
          CFI CFA_XSP16 add(XSP16, 64)
        MOV     ?V2,#0x15
        MOV     ?V3,#0x0
        MOV     R0,#?V2
        LCALL   ?PUSH_XSTACK_I_TWO
          CFI CFA_XSP16 add(XSP16, 66)
        MOV     R4,#0x0
        MOV     R5,#0x0
        MOV     R2,#-0x7e
        MOV     R3,#0x0
        LCALL   `??osal_nv_write::?relay`; Banked call to: osal_nv_write
        MOV     A,#0x4
        LCALL   ?DEALLOC_XSTACK8
          CFI CFA_XSP16 add(XSP16, 62)
// 3363   }
// 3364 #else
// 3365   (void)setDefault;   // to eliminate compiler warning
// 3366 
// 3367   // reset the values of NV items if NV_RESTORE is not enabled
// 3368   if (status == SUCCESS)
// 3369   {
// 3370     osal_nv_write( ZCD_NV_NWKKEY, 0, sizeof(nwkActiveKeyItems), &keyItems );
// 3371   }
// 3372 #endif // defined (NV_RESTORE)
// 3373 
// 3374   // Initialize NV items for NWK Active and Alternate keys. These items are used
// 3375   // all the time, independently of NV_RESTORE being set or not
// 3376   osal_memset( &nwkKey, 0x00, sizeof(nwkKey) );
??ZDSecMgrNwkKeyInit_7:
        ; Setup parameters for call to function osal_memset
        MOV     R4,#0x11
        MOV     R5,#0x0
        MOV     R1,#0x0
        MOV     A,#0xc
        LCALL   ?XSTACK_DISP101_8
        LCALL   `??osal_memset::?relay`; Banked call to: osal_memset
// 3377 
// 3378   status = osal_nv_item_init( ZCD_NV_NWK_ACTIVE_KEY_INFO, sizeof(nwkKey), &nwkKey);
// 3379 
// 3380 #if defined ( NV_RESTORE )
// 3381   // reset the values of NV items if NV_RESTORE is not enabled
// 3382   if ((status == SUCCESS) && (setDefault == TRUE))
        ; Setup parameters for call to function osal_nv_item_init
        MOV     A,#0xc
        LCALL   ?XSTACK_DISP100_8
        MOV     ?V2,R0
        MOV     ?V3,R1
        MOV     R0,#?V2
        LCALL   ?PUSH_XSTACK_I_TWO
          CFI CFA_XSP16 add(XSP16, 64)
        MOV     R4,#0x11
        MOV     R5,#0x0
        MOV     R2,#0x3a
        MOV     R3,#0x0
        LCALL   `??osal_nv_item_init::?relay`; Banked call to: osal_nv_item_init
        MOV     A,#0x2
        LCALL   ?DEALLOC_XSTACK8
          CFI CFA_XSP16 add(XSP16, 62)
        MOV     A,R1
        JNZ     ??ZDSecMgrNwkKeyInit_8
        MOV     A,#0x1
        XRL     A,?V0
        JNZ     ??ZDSecMgrNwkKeyInit_8
// 3383   {
// 3384     // clear NV data to default values
// 3385     osal_nv_write( ZCD_NV_NWK_ACTIVE_KEY_INFO, 0, sizeof(nwkKey), &nwkKey );
        ; Setup parameters for call to function osal_nv_write
        MOV     R0,#?V2
        LCALL   ?PUSH_XSTACK_I_TWO
          CFI CFA_XSP16 add(XSP16, 64)
        MOV     ?V2,#0x11
        MOV     ?V3,#0x0
        MOV     R0,#?V2
        LCALL   ?PUSH_XSTACK_I_TWO
          CFI CFA_XSP16 add(XSP16, 66)
        MOV     R4,#0x0
        MOV     R5,#0x0
        MOV     R2,#0x3a
        MOV     R3,#0x0
        LCALL   `??osal_nv_write::?relay`; Banked call to: osal_nv_write
        MOV     A,#0x4
        LCALL   ?DEALLOC_XSTACK8
          CFI CFA_XSP16 add(XSP16, 62)
// 3386   }
// 3387 #else
// 3388   // reset the values of NV items if NV_RESTORE is not enabled
// 3389   if (status == SUCCESS)
// 3390   {
// 3391     osal_nv_write( ZCD_NV_NWK_ACTIVE_KEY_INFO, 0, sizeof(nwkKey), &nwkKey );
// 3392   }
// 3393 #endif // defined (NV_RESTORE)
// 3394 
// 3395   status = osal_nv_item_init( ZCD_NV_NWK_ALTERN_KEY_INFO, sizeof(nwkKey), &nwkKey );
// 3396 
// 3397 #if defined ( NV_RESTORE )
// 3398   // reset the values of NV items if NV_RESTORE is not enabled
// 3399   if ((status == SUCCESS) && (setDefault == TRUE))
??ZDSecMgrNwkKeyInit_8:
        ; Setup parameters for call to function osal_nv_item_init
        MOV     A,#0xc
        LCALL   ?XSTACK_DISP100_8
        MOV     ?V2,R0
        MOV     ?V3,R1
        MOV     R0,#?V2
        LCALL   ?PUSH_XSTACK_I_TWO
          CFI CFA_XSP16 add(XSP16, 64)
        MOV     R4,#0x11
        MOV     R5,#0x0
        MOV     R2,#0x3b
        MOV     R3,#0x0
        LCALL   `??osal_nv_item_init::?relay`; Banked call to: osal_nv_item_init
        MOV     A,#0x2
        LCALL   ?DEALLOC_XSTACK8
          CFI CFA_XSP16 add(XSP16, 62)
        MOV     A,R1
        JNZ     ??ZDSecMgrNwkKeyInit_9
        MOV     A,#0x1
        XRL     A,?V0
        JNZ     ??ZDSecMgrNwkKeyInit_9
// 3400   {
// 3401     // clear NV data to default values
// 3402     osal_nv_write( ZCD_NV_NWK_ALTERN_KEY_INFO, 0, sizeof(nwkKey), &nwkKey );
        ; Setup parameters for call to function osal_nv_write
        MOV     R0,#?V2
        LCALL   ?PUSH_XSTACK_I_TWO
          CFI CFA_XSP16 add(XSP16, 64)
        MOV     ?V2,#0x11
        MOV     ?V3,#0x0
        MOV     R0,#?V2
        LCALL   ?PUSH_XSTACK_I_TWO
          CFI CFA_XSP16 add(XSP16, 66)
        MOV     R4,#0x0
        MOV     R5,#0x0
        MOV     R2,#0x3b
        MOV     R3,#0x0
        LCALL   `??osal_nv_write::?relay`; Banked call to: osal_nv_write
        MOV     A,#0x4
        LCALL   ?DEALLOC_XSTACK8
          CFI CFA_XSP16 add(XSP16, 62)
// 3403   }
// 3404 #else
// 3405   // reset the values of NV items if NV_RESTORE is not enabled
// 3406   if (status == SUCCESS)
// 3407   {
// 3408     osal_nv_write( ZCD_NV_NWK_ALTERN_KEY_INFO, 0, sizeof(nwkKey), &nwkKey );
// 3409   }
// 3410 #endif // defined (NV_RESTORE)
// 3411 
// 3412 }
??ZDSecMgrNwkKeyInit_9:
        MOV     A,#0x32
        LJMP    ?Subroutine3 & 0xFFFF
          CFI EndBlock cfiBlock471
// 3413 
// 3414 
// 3415 
// 3416 /*********************************************************************
// 3417  * @fn          ZDSecMgrReadKeyFromNv
// 3418  *
// 3419  * @brief       Looks for a specific key in NV based on Index value
// 3420  *
// 3421  * @param   keyNvId - Index of key to look in NV
// 3422  *                    valid values are:
// 3423  *                    ZCD_NV_NWK_ACTIVE_KEY_INFO
// 3424  *                    ZCD_NV_NWK_ALTERN_KEY_INFO
// 3425  *                    ZCD_NV_TCLK_TABLE_START + <offset_in_table>
// 3426  *                    ZCD_NV_APS_LINK_KEY_DATA_START + <offset_in_table>
// 3427  *                    ZCD_NV_PRECFGKEY
// 3428  *
// 3429  * @param  *keyinfo - Data is read into this buffer.
// 3430  *
// 3431  * @return  SUCCESS if NV data was copied to the keyinfo parameter .
// 3432  *          Otherwise, NV_OPER_FAILED for failure.
// 3433  */

        RSEG BANKED_CODE:CODE:NOROOT(0)
// 3434 ZStatus_t ZDSecMgrReadKeyFromNv(uint16 keyNvId, void *keyinfo)
ZDSecMgrReadKeyFromNv:
          CFI Block cfiBlock472 Using cfiCommon0
          CFI Function ZDSecMgrReadKeyFromNv
        CODE
// 3435 {
        FUNCALL ZDSecMgrReadKeyFromNv, osal_nv_read
        LOCFRAME ISTACK, 0, STACK
        LOCFRAME PSTACK, 0, STACK
        LOCFRAME XSTACK, 19, STACK
        LOCFRAME IOVERLAY, 0, STATIC
        LOCFRAME DOVERLAY, 0, STATIC
        ARGFRAME ISTACK, 0, STACK
        ARGFRAME PSTACK, 0, STACK
        ARGFRAME XSTACK, 19, STACK
        ARGFRAME IOVERLAY, 0, STATIC
        ARGFRAME DOVERLAY, 0, STATIC
        FUNCALL ZDSecMgrReadKeyFromNv, osal_memcpy
        LOCFRAME ISTACK, 0, STACK
        LOCFRAME PSTACK, 0, STACK
        LOCFRAME XSTACK, 18, STACK
        LOCFRAME IOVERLAY, 0, STATIC
        LOCFRAME DOVERLAY, 0, STATIC
        ARGFRAME ISTACK, 0, STACK
        ARGFRAME PSTACK, 0, STACK
        ARGFRAME XSTACK, 18, STACK
        ARGFRAME IOVERLAY, 0, STATIC
        ARGFRAME DOVERLAY, 0, STATIC
        FUNCALL ZDSecMgrReadKeyFromNv, osal_memcpy
        LOCFRAME ISTACK, 0, STACK
        LOCFRAME PSTACK, 0, STACK
        LOCFRAME XSTACK, 18, STACK
        LOCFRAME IOVERLAY, 0, STATIC
        LOCFRAME DOVERLAY, 0, STATIC
        ARGFRAME ISTACK, 0, STACK
        ARGFRAME PSTACK, 0, STACK
        ARGFRAME XSTACK, 18, STACK
        ARGFRAME IOVERLAY, 0, STATIC
        ARGFRAME DOVERLAY, 0, STATIC
        FUNCALL ZDSecMgrReadKeyFromNv, osal_nv_read
        LOCFRAME ISTACK, 0, STACK
        LOCFRAME PSTACK, 0, STACK
        LOCFRAME XSTACK, 19, STACK
        LOCFRAME IOVERLAY, 0, STATIC
        LOCFRAME DOVERLAY, 0, STATIC
        ARGFRAME ISTACK, 0, STACK
        ARGFRAME PSTACK, 0, STACK
        ARGFRAME XSTACK, 19, STACK
        ARGFRAME IOVERLAY, 0, STATIC
        ARGFRAME DOVERLAY, 0, STATIC
        FUNCALL ZDSecMgrReadKeyFromNv, osal_nv_read
        LOCFRAME ISTACK, 0, STACK
        LOCFRAME PSTACK, 0, STACK
        LOCFRAME XSTACK, 19, STACK
        LOCFRAME IOVERLAY, 0, STATIC
        LOCFRAME DOVERLAY, 0, STATIC
        ARGFRAME ISTACK, 0, STACK
        ARGFRAME PSTACK, 0, STACK
        ARGFRAME XSTACK, 19, STACK
        ARGFRAME IOVERLAY, 0, STATIC
        ARGFRAME DOVERLAY, 0, STATIC
        FUNCALL ZDSecMgrReadKeyFromNv, osal_nv_read
        LOCFRAME ISTACK, 0, STACK
        LOCFRAME PSTACK, 0, STACK
        LOCFRAME XSTACK, 19, STACK
        LOCFRAME IOVERLAY, 0, STATIC
        LOCFRAME DOVERLAY, 0, STATIC
        ARGFRAME ISTACK, 0, STACK
        ARGFRAME PSTACK, 0, STACK
        ARGFRAME XSTACK, 19, STACK
        ARGFRAME IOVERLAY, 0, STATIC
        ARGFRAME DOVERLAY, 0, STATIC
        REQUIRE ?V0
        REQUIRE ?V1
        REQUIRE ?V4
        REQUIRE ?V5
        REQUIRE ?V6
        MOV     A,#-0xf
        LCALL   ?BANKED_ENTER_XDATA
          CFI DPH0 load(1, XDATA, add(CFA_XSP16, literal(-1)))
          CFI DPL0 load(1, XDATA, add(CFA_XSP16, literal(-2)))
          CFI ?BRET_EXT load(1, XDATA, add(CFA_XSP16, literal(-3)))
          CFI ?RET_HIGH load(1, XDATA, add(CFA_XSP16, literal(-4)))
          CFI ?RET_LOW load(1, XDATA, add(CFA_XSP16, literal(-5)))
          CFI R7 load(1, XDATA, add(CFA_XSP16, literal(-6)))
          CFI V6 load(1, XDATA, add(CFA_XSP16, literal(-7)))
          CFI V5 load(1, XDATA, add(CFA_XSP16, literal(-8)))
          CFI V4 load(1, XDATA, add(CFA_XSP16, literal(-9)))
          CFI V3 load(1, XDATA, add(CFA_XSP16, literal(-10)))
          CFI V2 load(1, XDATA, add(CFA_XSP16, literal(-11)))
          CFI V1 load(1, XDATA, add(CFA_XSP16, literal(-12)))
          CFI V0 load(1, XDATA, add(CFA_XSP16, literal(-13)))
          CFI VB load(1, XDATA, add(CFA_XSP16, literal(-14)))
          CFI R6 load(1, XDATA, add(CFA_XSP16, literal(-15)))
          CFI CFA_SP SP+0
          CFI CFA_XSP16 add(XSP16, 15)
        ; Saved register size: 15
        ; Auto size: 0
        MOV     ?V0,R4
        MOV     ?V1,R5
// 3436   if ((keyNvId == ZCD_NV_NWK_ACTIVE_KEY_INFO) ||
// 3437       (keyNvId == ZCD_NV_NWK_ALTERN_KEY_INFO))
        MOV     A,#0x3a
        XRL     A,R2
        JNZ     ??ZDSecMgrReadKeyFromNv_0
        MOV     A,R3
??ZDSecMgrReadKeyFromNv_0:
        JZ      ??ZDSecMgrReadKeyFromNv_1
        MOV     A,#0x3b
        XRL     A,R2
        ORL     A,R3
        JNZ     ??ZDSecMgrReadKeyFromNv_2
// 3438   {
// 3439     // get NWK active or alternate key from NV
// 3440     return (osal_nv_read(keyNvId,
// 3441                          osal_offsetof(nwkKeyDesc, key),
// 3442                          SEC_KEY_LEN,
// 3443                          keyinfo));
??ZDSecMgrReadKeyFromNv_1:
        ; Setup parameters for call to function osal_nv_read
        MOV     R0,#?V0
        LCALL   ?PUSH_XSTACK_I_TWO
          CFI CFA_XSP16 add(XSP16, 17)
        MOV     ?V0,#0x10
        MOV     ?V1,#0x0
        MOV     R0,#?V0
        LCALL   ?PUSH_XSTACK_I_TWO
          CFI CFA_XSP16 add(XSP16, 19)
        MOV     R4,#0x1
        LJMP    ??ZDSecMgrReadKeyFromNv_3 & 0xFFFF
          CFI CFA_XSP16 add(XSP16, 15)
// 3444   }
// 3445   
// 3446   else if(keyNvId == ZCD_NV_TCLK_DEFAULT)
??ZDSecMgrReadKeyFromNv_2:
        MOV     A,#0x3
        XRL     A,R2
        JNZ     ??ZDSecMgrReadKeyFromNv_4
        MOV     A,#0x1
        XRL     A,R3
??ZDSecMgrReadKeyFromNv_4:
        JNZ     ??ZDSecMgrReadKeyFromNv_5
// 3447   {
// 3448     osal_memcpy(keyinfo,defaultTCLinkKey,SEC_KEY_LEN);
        ; Setup parameters for call to function osal_memcpy
        MOV     ?V4,#defaultTCLinkKey & 0xff
        MOV     ?V5,#(defaultTCLinkKey >> 8) & 0xff
        SJMP    ??ZDSecMgrReadKeyFromNv_6
// 3449     return ZSuccess;
// 3450   }
// 3451   
// 3452 #if (ZG_BUILD_JOINING_TYPE) 
// 3453   else if(keyNvId == ZCD_NV_DISTRIBUTED_KEY)
??ZDSecMgrReadKeyFromNv_5:
        MOV     A,#0x68
        XRL     A,R2
        ORL     A,R3
        JNZ     ??ZDSecMgrReadKeyFromNv_7
// 3454   {
// 3455     if(ZG_DEVICE_JOINING_TYPE)
        MOV     DPTR,#zgDeviceLogicalType
        MOVX    A,@DPTR
        XRL     A,#0x1
        JZ      ??ZDSecMgrReadKeyFromNv_8
        MOVX    A,@DPTR
        XRL     A,#0x2
        JNZ     ??ZDSecMgrReadKeyFromNv_9
// 3456     {
// 3457       osal_memcpy(keyinfo,distributedDefaultKey,SEC_KEY_LEN);
??ZDSecMgrReadKeyFromNv_8:
        ; Setup parameters for call to function osal_memcpy
        MOV     ?V4,#distributedDefaultKey & 0xff
        MOV     ?V5,#(distributedDefaultKey >> 8) & 0xff
??ZDSecMgrReadKeyFromNv_6:
        MOV     ?V6,#-0x80
        MOV     R0,#?V4
        LCALL   ?PUSH_XSTACK_I_THREE
          CFI CFA_XSP16 add(XSP16, 18)
        MOV     R4,#0x10
        MOV     R5,#0x0
        MOV     R2,?V0
        MOV     R3,?V1
        LCALL   `??osal_memcpy::?relay`; Banked call to: osal_memcpy
        MOV     A,#0x3
        LCALL   ?DEALLOC_XSTACK8
          CFI CFA_XSP16 add(XSP16, 15)
// 3458       return ZSuccess;
        MOV     R1,#0x0
        SJMP    ??ZDSecMgrReadKeyFromNv_10
// 3459     }
// 3460   }
// 3461 #endif
// 3462   
// 3463   else if((keyNvId == ZCD_NV_TCLK_JOIN_DEV) || (keyNvId == ZCD_NV_PRECFGKEY)) 
??ZDSecMgrReadKeyFromNv_7:
        MOV     A,#0x2
        XRL     A,R2
        JNZ     ??ZDSecMgrReadKeyFromNv_11
        MOV     A,#0x1
        XRL     A,R3
??ZDSecMgrReadKeyFromNv_11:
        JZ      ??ZDSecMgrReadKeyFromNv_12
        MOV     A,#0x62
        XRL     A,R2
        ORL     A,R3
        JZ      ??ZDSecMgrReadKeyFromNv_12
// 3464   {
// 3465     // Read entry keyNvId of the TC link key table from NV. keyNvId should be
// 3466     // ZCD_NV_TCLK_TABLE_START + <offset_in_table>
// 3467     return (osal_nv_read(keyNvId,
// 3468                          0,
// 3469                          SEC_KEY_LEN,
// 3470                          keyinfo));
        ; Setup parameters for call to function osal_nv_read
// 3471   }
// 3472     else if (keyNvId == ZCD_NV_PRECFGKEY)
// 3473   {
// 3474     // Read entry keyNvId of the Preconfig key from NV.
// 3475     return (osal_nv_read(keyNvId,
// 3476                          0,
// 3477                          SEC_KEY_LEN,
// 3478                          keyinfo));
// 3479   }
// 3480 
// 3481   else if((keyNvId >= ZCD_NV_TCLK_IC_TABLE_START) &&
// 3482            (keyNvId < (ZCD_NV_TCLK_IC_TABLE_START + gZDSECMGR_TC_DEVICE_IC_MAX)))
        MOV     A,R2
        ADD     A,#-0x4
        MOV     R0,A
        MOV     A,R3
        ADDC    A,#-0x2
        MOV     R1,A
        MOV     A,R0
        ORL     A,R1
        JZ      ??ZDSecMgrReadKeyFromNv_12
// 3483   {
// 3484     //Read the key derived from the IC
// 3485     return (osal_nv_read(keyNvId,
// 3486                          0,
// 3487                          SEC_KEY_LEN,
// 3488                          keyinfo));
        ; Setup parameters for call to function osal_nv_read
// 3489   
// 3490   }
// 3491   else if ((keyNvId >= ZCD_NV_APS_LINK_KEY_DATA_START) &&
// 3492            (keyNvId < (ZCD_NV_APS_LINK_KEY_DATA_START + ZDSECMGR_ENTRY_MAX)))
        MOV     A,R2
        ADD     A,#-0x1
        MOV     R0,A
        MOV     A,R3
        ADDC    A,#-0x3
        MOV     R1,A
        CLR     C
        MOV     A,R0
        LCALL   ??Subroutine59_0 & 0xFFFF
??CrossCallReturnLabel_91:
        JNC     ??ZDSecMgrReadKeyFromNv_9
// 3493   {
// 3494     // Read entry keyNvId of the APS link key table from NV. keyNvId should be
// 3495     // ZCD_NV_APS_LINK_KEY_DATA_START + <offset_in_table>
// 3496     return (osal_nv_read(keyNvId,
// 3497                          osal_offsetof(APSME_LinkKeyData_t, key),
// 3498                          SEC_KEY_LEN,
// 3499                          keyinfo));
        ; Setup parameters for call to function osal_nv_read
??ZDSecMgrReadKeyFromNv_12:
        MOV     R0,#?V0
        LCALL   ?PUSH_XSTACK_I_TWO
          CFI CFA_XSP16 add(XSP16, 17)
        MOV     ?V0,#0x10
        MOV     ?V1,#0x0
        MOV     R0,#?V0
        LCALL   ?PUSH_XSTACK_I_TWO
          CFI CFA_XSP16 add(XSP16, 19)
        MOV     R4,#0x0
??ZDSecMgrReadKeyFromNv_3:
        MOV     R5,#0x0
        LCALL   `??osal_nv_read::?relay`; Banked call to: osal_nv_read
        MOV     A,#0x4
        LCALL   ?DEALLOC_XSTACK8
          CFI CFA_XSP16 add(XSP16, 15)
        SJMP    ??ZDSecMgrReadKeyFromNv_10
// 3500   }
// 3501 
// 3502   return NV_OPER_FAILED;
??ZDSecMgrReadKeyFromNv_9:
        MOV     R1,#0xa
??ZDSecMgrReadKeyFromNv_10:
        LJMP    ??Subroutine73_0 & 0xFFFF
// 3503 }
          CFI EndBlock cfiBlock472
// 3504 
// 3505 /******************************************************************************
// 3506  * @fn          ZDSecMgrApsLinkKeyInit
// 3507  *
// 3508  * @brief       Initialize the NV table for Application link keys
// 3509  *
// 3510  * @param       setDefault - TRUE to set default values
// 3511  *
// 3512  * @return      none
// 3513  */

        RSEG BANKED_CODE:CODE:NOROOT(0)
// 3514 void ZDSecMgrApsLinkKeyInit(uint8 setDefault)
ZDSecMgrApsLinkKeyInit:
          CFI Block cfiBlock473 Using cfiCommon0
          CFI Function ZDSecMgrApsLinkKeyInit
        CODE
// 3515 {
        FUNCALL ZDSecMgrApsLinkKeyInit, osal_memset
        LOCFRAME ISTACK, 0, STACK
        LOCFRAME PSTACK, 0, STACK
        LOCFRAME XSTACK, 36, STACK
        LOCFRAME IOVERLAY, 0, STATIC
        LOCFRAME DOVERLAY, 0, STATIC
        ARGFRAME ISTACK, 0, STACK
        ARGFRAME PSTACK, 0, STACK
        ARGFRAME XSTACK, 36, STACK
        ARGFRAME IOVERLAY, 0, STATIC
        ARGFRAME DOVERLAY, 0, STATIC
        FUNCALL ZDSecMgrApsLinkKeyInit, osal_nv_item_init
        LOCFRAME ISTACK, 0, STACK
        LOCFRAME PSTACK, 0, STACK
        LOCFRAME XSTACK, 38, STACK
        LOCFRAME IOVERLAY, 0, STATIC
        LOCFRAME DOVERLAY, 0, STATIC
        ARGFRAME ISTACK, 0, STACK
        ARGFRAME PSTACK, 0, STACK
        ARGFRAME XSTACK, 38, STACK
        ARGFRAME IOVERLAY, 0, STATIC
        ARGFRAME DOVERLAY, 0, STATIC
        FUNCALL ZDSecMgrApsLinkKeyInit, osal_nv_write
        LOCFRAME ISTACK, 0, STACK
        LOCFRAME PSTACK, 0, STACK
        LOCFRAME XSTACK, 40, STACK
        LOCFRAME IOVERLAY, 0, STATIC
        LOCFRAME DOVERLAY, 0, STATIC
        ARGFRAME ISTACK, 0, STACK
        ARGFRAME PSTACK, 0, STACK
        ARGFRAME XSTACK, 40, STACK
        ARGFRAME IOVERLAY, 0, STATIC
        ARGFRAME DOVERLAY, 0, STATIC
        REQUIRE ?V0
        REQUIRE ?V1
        REQUIRE ?V2
        REQUIRE ?V3
        MOV     A,#-0xc
        LCALL   ?BANKED_ENTER_XDATA
          CFI DPH0 load(1, XDATA, add(CFA_XSP16, literal(-1)))
          CFI DPL0 load(1, XDATA, add(CFA_XSP16, literal(-2)))
          CFI ?BRET_EXT load(1, XDATA, add(CFA_XSP16, literal(-3)))
          CFI ?RET_HIGH load(1, XDATA, add(CFA_XSP16, literal(-4)))
          CFI ?RET_LOW load(1, XDATA, add(CFA_XSP16, literal(-5)))
          CFI R7 load(1, XDATA, add(CFA_XSP16, literal(-6)))
          CFI V3 load(1, XDATA, add(CFA_XSP16, literal(-7)))
          CFI V2 load(1, XDATA, add(CFA_XSP16, literal(-8)))
          CFI V1 load(1, XDATA, add(CFA_XSP16, literal(-9)))
          CFI V0 load(1, XDATA, add(CFA_XSP16, literal(-10)))
          CFI VB load(1, XDATA, add(CFA_XSP16, literal(-11)))
          CFI R6 load(1, XDATA, add(CFA_XSP16, literal(-12)))
          CFI CFA_SP SP+0
          CFI CFA_XSP16 add(XSP16, 12)
        ; Saved register size: 12
        ; Auto size: 24
        MOV     A,#-0x18
        LCALL   ?ALLOC_XSTACK8
          CFI CFA_XSP16 add(XSP16, 36)
        MOV     ?V1,R1
// 3516   APSME_LinkKeyData_t pApsLinkKey;
// 3517   uint8 i;
// 3518   uint8 status;
// 3519 
// 3520   // Initialize all NV items for APS link key, if not exist already.
// 3521   osal_memset( &pApsLinkKey, 0x00, sizeof(APSME_LinkKeyData_t) );
        ; Setup parameters for call to function osal_memset
        MOV     R4,#0x18
        MOV     R5,#0x0
        MOV     R1,#0x0
        MOV     R2,?XSP + 0
        MOV     R3,?XSP + 1
        LCALL   `??osal_memset::?relay`; Banked call to: osal_memset
// 3522 
// 3523   for( i = 0; i < ZDSECMGR_ENTRY_MAX; i++ )
        MOV     ?V0,#0x0
// 3524   {
// 3525     status = osal_nv_item_init( (ZCD_NV_APS_LINK_KEY_DATA_START + i),
// 3526                                sizeof(APSME_LinkKeyData_t), &pApsLinkKey );
// 3527 
// 3528 #if defined ( NV_RESTORE )
// 3529   // If the set default is requested, the APS Link key needs to be erased, regardless of the NV_RESTORE enabled
// 3530       if ((status == SUCCESS) && (setDefault == TRUE ))
??ZDSecMgrApsLinkKeyInit_0:
        MOV     A,?V0
        ADD     A,#0x1
        MOV     R6,A
        CLR     A
        ADDC    A,#0x2
        MOV     R7,A
        ; Setup parameters for call to function osal_nv_item_init
        MOV     R0,?XSP + 0
        MOV     R1,?XSP + 1
        MOV     ?V2,R0
        MOV     ?V3,R1
        MOV     R0,#?V2
        LCALL   ?PUSH_XSTACK_I_TWO
          CFI CFA_XSP16 add(XSP16, 38)
        MOV     R4,#0x18
        MOV     R5,#0x0
        MOV     A,R6
        MOV     R2,A
        MOV     A,R7
        MOV     R3,A
        LCALL   `??osal_nv_item_init::?relay`; Banked call to: osal_nv_item_init
        MOV     A,#0x2
        LCALL   ?DEALLOC_XSTACK8
          CFI CFA_XSP16 add(XSP16, 36)
        MOV     A,R1
        JNZ     ??ZDSecMgrApsLinkKeyInit_1
        MOV     A,#0x1
        XRL     A,?V1
        JNZ     ??ZDSecMgrApsLinkKeyInit_1
// 3531       {
// 3532         osal_nv_write( (ZCD_NV_APS_LINK_KEY_DATA_START + i), 0,
// 3533                       sizeof(APSME_LinkKeyData_t), &pApsLinkKey );
        ; Setup parameters for call to function osal_nv_write
        MOV     R0,#?V2
        LCALL   ?PUSH_XSTACK_I_TWO
          CFI CFA_XSP16 add(XSP16, 38)
        MOV     ?V2,#0x18
        MOV     ?V3,#0x0
        MOV     R0,#?V2
        LCALL   ?PUSH_XSTACK_I_TWO
          CFI CFA_XSP16 add(XSP16, 40)
        MOV     R4,#0x0
        MOV     R5,#0x0
        MOV     A,R6
        MOV     R2,A
        MOV     A,R7
        MOV     R3,A
        LCALL   `??osal_nv_write::?relay`; Banked call to: osal_nv_write
        MOV     A,#0x4
        LCALL   ?DEALLOC_XSTACK8
          CFI CFA_XSP16 add(XSP16, 36)
// 3534 
// 3535       }
// 3536 #else
// 3537     // reset the values of NV items if NV_RESTORE is not enabled
// 3538     if (status == SUCCESS)
// 3539     {
// 3540       osal_nv_write( (ZCD_NV_APS_LINK_KEY_DATA_START + i), 0,
// 3541                     sizeof(APSME_LinkKeyData_t), &pApsLinkKey );
// 3542 
// 3543     }
// 3544 #endif // defined (NV_RESTORE)
// 3545   }
??ZDSecMgrApsLinkKeyInit_1:
        INC     ?V0
        MOV     A,R6
        CLR     C
        SUBB    A,#0x3
        JC      ??ZDSecMgrApsLinkKeyInit_0
// 3546 }
        MOV     A,#0x18
        LJMP    ?Subroutine3 & 0xFFFF
          CFI EndBlock cfiBlock473
// 3547 
// 3548 
// 3549 /******************************************************************************
// 3550  * @fn          ZDSecMgrInitNVKeyTables
// 3551  *
// 3552  * @brief       Initialize the NV table for All keys: NWK, Master, TCLK and APS
// 3553  *
// 3554  * @param       setDefault - TRUE to set default values
// 3555  *
// 3556  * @return      none
// 3557  */

        RSEG BANKED_CODE:CODE:NOROOT(0)
// 3558 void ZDSecMgrInitNVKeyTables(uint8 setDefault)
ZDSecMgrInitNVKeyTables:
          CFI Block cfiBlock474 Using cfiCommon0
          CFI Function ZDSecMgrInitNVKeyTables
        CODE
// 3559 {
        FUNCALL ZDSecMgrInitNVKeyTables, ZDSecMgrNwkKeyInit
        LOCFRAME ISTACK, 0, STACK
        LOCFRAME PSTACK, 0, STACK
        LOCFRAME XSTACK, 9, STACK
        LOCFRAME IOVERLAY, 0, STATIC
        LOCFRAME DOVERLAY, 0, STATIC
        ARGFRAME ISTACK, 0, STACK
        ARGFRAME PSTACK, 0, STACK
        ARGFRAME XSTACK, 9, STACK
        ARGFRAME IOVERLAY, 0, STATIC
        ARGFRAME DOVERLAY, 0, STATIC
        FUNCALL ZDSecMgrInitNVKeyTables, ZDSecMgrApsLinkKeyInit
        LOCFRAME ISTACK, 0, STACK
        LOCFRAME PSTACK, 0, STACK
        LOCFRAME XSTACK, 9, STACK
        LOCFRAME IOVERLAY, 0, STATIC
        LOCFRAME DOVERLAY, 0, STATIC
        ARGFRAME ISTACK, 0, STACK
        ARGFRAME PSTACK, 0, STACK
        ARGFRAME XSTACK, 9, STACK
        ARGFRAME IOVERLAY, 0, STATIC
        ARGFRAME DOVERLAY, 0, STATIC
        FUNCALL ZDSecMgrInitNVKeyTables, APSME_TCLinkKeyInit
        LOCFRAME ISTACK, 0, STACK
        LOCFRAME PSTACK, 0, STACK
        LOCFRAME XSTACK, 9, STACK
        LOCFRAME IOVERLAY, 0, STATIC
        LOCFRAME DOVERLAY, 0, STATIC
        ARGFRAME ISTACK, 0, STACK
        ARGFRAME PSTACK, 0, STACK
        ARGFRAME XSTACK, 9, STACK
        ARGFRAME IOVERLAY, 0, STATIC
        ARGFRAME DOVERLAY, 0, STATIC
        MOV     A,#-0x9
        LCALL   ?BANKED_ENTER_XDATA
          CFI DPH0 load(1, XDATA, add(CFA_XSP16, literal(-1)))
          CFI DPL0 load(1, XDATA, add(CFA_XSP16, literal(-2)))
          CFI ?BRET_EXT load(1, XDATA, add(CFA_XSP16, literal(-3)))
          CFI ?RET_HIGH load(1, XDATA, add(CFA_XSP16, literal(-4)))
          CFI ?RET_LOW load(1, XDATA, add(CFA_XSP16, literal(-5)))
          CFI R7 load(1, XDATA, add(CFA_XSP16, literal(-6)))
          CFI V0 load(1, XDATA, add(CFA_XSP16, literal(-7)))
          CFI VB load(1, XDATA, add(CFA_XSP16, literal(-8)))
          CFI R6 load(1, XDATA, add(CFA_XSP16, literal(-9)))
          CFI CFA_SP SP+0
          CFI CFA_XSP16 add(XSP16, 9)
        ; Saved register size: 9
        ; Auto size: 0
        MOV     A,R1
        MOV     R6,A
// 3560   ZDSecMgrNwkKeyInit(setDefault);
        ; Setup parameters for call to function ZDSecMgrNwkKeyInit
        LCALL   `??ZDSecMgrNwkKeyInit::?relay`; Banked call to: ZDSecMgrNwkKeyInit
// 3561   ZDSecMgrApsLinkKeyInit(setDefault); 
        ; Setup parameters for call to function ZDSecMgrApsLinkKeyInit
        MOV     A,R6
        MOV     R1,A
        LCALL   `??ZDSecMgrApsLinkKeyInit::?relay`; Banked call to: ZDSecMgrApsLinkKeyInit
// 3562   APSME_TCLinkKeyInit(setDefault);
        ; Setup parameters for call to function APSME_TCLinkKeyInit
        MOV     A,R6
        MOV     R1,A
        LCALL   `??APSME_TCLinkKeyInit::?relay`; Banked call to: APSME_TCLinkKeyInit
// 3563   
// 3564 #if ZG_BUILD_COORDINATOR_TYPE
// 3565   if(ZG_DEVICE_COORDINATOR_TYPE)
// 3566   {
// 3567     ZDSecMgrGenerateSeed(setDefault);
// 3568     
// 3569   }
// 3570 #endif
// 3571 }
        LJMP    ??Subroutine71_0 & 0xFFFF
          CFI EndBlock cfiBlock474
// 3572 
// 3573 
// 3574 /******************************************************************************
// 3575  * @fn          ZDSecMgrSaveApsLinkKey
// 3576  *
// 3577  * @brief       Save APS Link Key to NV. It will loop through all the keys
// 3578  *              to see which one to save.
// 3579  *
// 3580  * @param       none
// 3581  *
// 3582  * @return      none
// 3583  */

        RSEG BANKED_CODE:CODE:NOROOT(0)
// 3584 void ZDSecMgrSaveApsLinkKey(void)
ZDSecMgrSaveApsLinkKey:
          CFI Block cfiBlock475 Using cfiCommon0
          CFI Function ZDSecMgrSaveApsLinkKey
        CODE
// 3585 {
        FUNCALL ZDSecMgrSaveApsLinkKey, osal_mem_alloc
        LOCFRAME ISTACK, 0, STACK
        LOCFRAME PSTACK, 0, STACK
        LOCFRAME XSTACK, 18, STACK
        LOCFRAME IOVERLAY, 0, STATIC
        LOCFRAME DOVERLAY, 0, STATIC
        ARGFRAME ISTACK, 0, STACK
        ARGFRAME PSTACK, 0, STACK
        ARGFRAME XSTACK, 18, STACK
        ARGFRAME IOVERLAY, 0, STATIC
        ARGFRAME DOVERLAY, 0, STATIC
        FUNCALL ZDSecMgrSaveApsLinkKey, osal_nv_read
        LOCFRAME ISTACK, 0, STACK
        LOCFRAME PSTACK, 0, STACK
        LOCFRAME XSTACK, 22, STACK
        LOCFRAME IOVERLAY, 0, STATIC
        LOCFRAME DOVERLAY, 0, STATIC
        ARGFRAME ISTACK, 0, STACK
        ARGFRAME PSTACK, 0, STACK
        ARGFRAME XSTACK, 22, STACK
        ARGFRAME IOVERLAY, 0, STATIC
        ARGFRAME DOVERLAY, 0, STATIC
        FUNCALL ZDSecMgrSaveApsLinkKey, osal_nv_write
        LOCFRAME ISTACK, 0, STACK
        LOCFRAME PSTACK, 0, STACK
        LOCFRAME XSTACK, 22, STACK
        LOCFRAME IOVERLAY, 0, STATIC
        LOCFRAME DOVERLAY, 0, STATIC
        ARGFRAME ISTACK, 0, STACK
        ARGFRAME PSTACK, 0, STACK
        ARGFRAME XSTACK, 22, STACK
        ARGFRAME IOVERLAY, 0, STATIC
        ARGFRAME DOVERLAY, 0, STATIC
        FUNCALL ZDSecMgrSaveApsLinkKey, osal_memset
        LOCFRAME ISTACK, 0, STACK
        LOCFRAME PSTACK, 0, STACK
        LOCFRAME XSTACK, 18, STACK
        LOCFRAME IOVERLAY, 0, STATIC
        LOCFRAME DOVERLAY, 0, STATIC
        ARGFRAME ISTACK, 0, STACK
        ARGFRAME PSTACK, 0, STACK
        ARGFRAME XSTACK, 18, STACK
        ARGFRAME IOVERLAY, 0, STATIC
        ARGFRAME DOVERLAY, 0, STATIC
        FUNCALL ZDSecMgrSaveApsLinkKey, osal_mem_free
        LOCFRAME ISTACK, 0, STACK
        LOCFRAME PSTACK, 0, STACK
        LOCFRAME XSTACK, 18, STACK
        LOCFRAME IOVERLAY, 0, STATIC
        LOCFRAME DOVERLAY, 0, STATIC
        ARGFRAME ISTACK, 0, STACK
        ARGFRAME PSTACK, 0, STACK
        ARGFRAME XSTACK, 18, STACK
        ARGFRAME IOVERLAY, 0, STATIC
        ARGFRAME DOVERLAY, 0, STATIC
        REQUIRE ?V0
        REQUIRE ?V1
        REQUIRE ?V2
        REQUIRE ?V3
        REQUIRE ?V4
        REQUIRE ?V5
        REQUIRE ?V6
        REQUIRE ?V7
        REQUIRE ?V8
        REQUIRE ?V9
        MOV     A,#-0x12
        LCALL   ?BANKED_ENTER_XDATA
          CFI DPH0 load(1, XDATA, add(CFA_XSP16, literal(-1)))
          CFI DPL0 load(1, XDATA, add(CFA_XSP16, literal(-2)))
          CFI ?BRET_EXT load(1, XDATA, add(CFA_XSP16, literal(-3)))
          CFI ?RET_HIGH load(1, XDATA, add(CFA_XSP16, literal(-4)))
          CFI ?RET_LOW load(1, XDATA, add(CFA_XSP16, literal(-5)))
          CFI R7 load(1, XDATA, add(CFA_XSP16, literal(-6)))
          CFI V9 load(1, XDATA, add(CFA_XSP16, literal(-7)))
          CFI V8 load(1, XDATA, add(CFA_XSP16, literal(-8)))
          CFI V7 load(1, XDATA, add(CFA_XSP16, literal(-9)))
          CFI V6 load(1, XDATA, add(CFA_XSP16, literal(-10)))
          CFI V5 load(1, XDATA, add(CFA_XSP16, literal(-11)))
          CFI V4 load(1, XDATA, add(CFA_XSP16, literal(-12)))
          CFI V3 load(1, XDATA, add(CFA_XSP16, literal(-13)))
          CFI V2 load(1, XDATA, add(CFA_XSP16, literal(-14)))
          CFI V1 load(1, XDATA, add(CFA_XSP16, literal(-15)))
          CFI V0 load(1, XDATA, add(CFA_XSP16, literal(-16)))
          CFI VB load(1, XDATA, add(CFA_XSP16, literal(-17)))
          CFI R6 load(1, XDATA, add(CFA_XSP16, literal(-18)))
          CFI CFA_SP SP+0
          CFI CFA_XSP16 add(XSP16, 18)
        ; Saved register size: 18
        ; Auto size: 0
// 3586   APSME_LinkKeyData_t *pKeyData = NULL;
// 3587   int i;
// 3588 
// 3589   pKeyData = (APSME_LinkKeyData_t *)osal_mem_alloc(sizeof(APSME_LinkKeyData_t));
        ; Setup parameters for call to function osal_mem_alloc
        MOV     R2,#0x18
        MOV     R3,#0x0
        LCALL   `??osal_mem_alloc::?relay`; Banked call to: osal_mem_alloc
        MOV     ?V6,R2
        MOV     ?V7,R3
// 3590 
// 3591   if (pKeyData != NULL)
        MOV     A,R2
        ORL     A,?V7
        JNZ     $+5
        LJMP    ??ZDSecMgrSaveApsLinkKey_0 & 0xFFFF
// 3592   {
// 3593     // checks all pending flags to know which one to save
// 3594     for (i = 0; i < ZDSECMGR_ENTRY_MAX; i++)
        MOV     ?V0,#0x0
        MOV     ?V1,#0x0
// 3595     {
// 3596       if (ApsLinkKeyFrmCntr[i].pendingFlag == TRUE)
??ZDSecMgrSaveApsLinkKey_1:
        MOV     A,?V0
        MOV     B,#0x9
        MUL     AB
        MOV     R0,A
        MOV     R2,B
        MOV     B,#0x9
        MOV     A,?V1
        MUL     AB
        ADD     A,R2
        MOV     R1,A
        MOV     A,#ApsLinkKeyFrmCntr & 0xff
        ADD     A,R0
        MOV     ?V2,A
        MOV     A,#(ApsLinkKeyFrmCntr >> 8) & 0xff
        LCALL   ?Subroutine45 & 0xFFFF
??CrossCallReturnLabel_61:
        JZ      $+5
        LJMP    ??ZDSecMgrSaveApsLinkKey_2 & 0xFFFF
        MOV     A,?V0
        ADD     A,#0x1
        MOV     R6,A
        MOV     A,?V1
        ADDC    A,#0x2
        MOV     R7,A
        ; Setup parameters for call to function osal_nv_read
        MOV     R0,#?V6
        LCALL   ?PUSH_XSTACK_I_TWO
          CFI CFA_XSP16 add(XSP16, 20)
        MOV     ?V8,#0x18
        MOV     ?V9,#0x0
        MOV     R0,#?V8
        LCALL   ?PUSH_XSTACK_I_TWO
          CFI CFA_XSP16 add(XSP16, 22)
        MOV     R4,#0x0
        MOV     R5,#0x0
        MOV     A,R6
        MOV     R2,A
        MOV     A,R7
        MOV     R3,A
// 3597       {
// 3598         // retrieve key from NV
// 3599         if (osal_nv_read(ZCD_NV_APS_LINK_KEY_DATA_START + i, 0,
// 3600                          sizeof(APSME_LinkKeyData_t), pKeyData) == SUCCESS)
        LCALL   `??osal_nv_read::?relay`; Banked call to: osal_nv_read
        MOV     A,#0x4
        LCALL   ?DEALLOC_XSTACK8
          CFI CFA_XSP16 add(XSP16, 18)
        MOV     A,R1
        JNZ     ??ZDSecMgrSaveApsLinkKey_2
// 3601         {
// 3602           pKeyData->txFrmCntr = ApsLinkKeyFrmCntr[i].txFrmCntr;
        MOV     DPL,?V2
        MOV     DPH,?V3
        LCALL   ?XLOAD_R0123
        MOV     A,?V6
        ADD     A,#0x10
        MOV     DPL,A
        CLR     A
        ADDC    A,?V7
        MOV     DPH,A
        LCALL   ?XSTORE_R0123
// 3603           pKeyData->rxFrmCntr = ApsLinkKeyFrmCntr[i].rxFrmCntr;
        MOV     DPL,?V2
        MOV     DPH,?V3
        INC     DPTR
        INC     DPTR
        INC     DPTR
        INC     DPTR
        LCALL   ?XLOAD_R0123
        MOV     A,?V6
        ADD     A,#0x14
        MOV     DPL,A
        CLR     A
        ADDC    A,?V7
        MOV     DPH,A
        LCALL   ?XSTORE_R0123
// 3604 
// 3605           // Write the APS link key back to the NV
// 3606           osal_nv_write(ZCD_NV_APS_LINK_KEY_DATA_START + i, 0,
// 3607                         sizeof(APSME_LinkKeyData_t), pKeyData);
        ; Setup parameters for call to function osal_nv_write
        MOV     R0,#?V6
        LCALL   ?PUSH_XSTACK_I_TWO
          CFI CFA_XSP16 add(XSP16, 20)
        MOV     ?V2,#0x18
        MOV     ?V3,#0x0
        MOV     R0,#?V2
        LCALL   ?PUSH_XSTACK_I_TWO
          CFI CFA_XSP16 add(XSP16, 22)
        MOV     R4,#0x0
        MOV     R5,#0x0
        MOV     A,R6
        MOV     R2,A
        MOV     A,R7
        MOV     R3,A
        LCALL   `??osal_nv_write::?relay`; Banked call to: osal_nv_write
        MOV     A,#0x4
        LCALL   ?DEALLOC_XSTACK8
          CFI CFA_XSP16 add(XSP16, 18)
// 3608 
// 3609           // clear the pending write flag
// 3610           ApsLinkKeyFrmCntr[i].pendingFlag = FALSE;
        MOV     DPL,?V4
        MOV     DPH,?V5
        CLR     A
        MOVX    @DPTR,A
// 3611         }
// 3612       }
// 3613     }
??ZDSecMgrSaveApsLinkKey_2:
        INC     ?V0
        MOV     A,?V0
        JNZ     ??ZDSecMgrSaveApsLinkKey_3
        INC     ?V1
??ZDSecMgrSaveApsLinkKey_3:
        CLR     C
        SUBB    A,#0x3
        MOV     A,?V1
        SUBB    A,#0x0
        MOV     C,0xD0 /* PSW */.2
        XRL     A,PSW
        RLC     A
        JNC     $+5
        LJMP    ??ZDSecMgrSaveApsLinkKey_1 & 0xFFFF
// 3614 
// 3615     // clear copy of key in RAM
// 3616     osal_memset( pKeyData, 0x00, sizeof(APSME_LinkKeyData_t) );
        ; Setup parameters for call to function osal_memset
        MOV     R4,#0x18
        MOV     R5,#0x0
        MOV     R1,#0x0
        MOV     R2,?V6
        MOV     R3,?V7
        LCALL   `??osal_memset::?relay`; Banked call to: osal_memset
// 3617 
// 3618     osal_mem_free(pKeyData);
        ; Setup parameters for call to function osal_mem_free
        MOV     R2,?V6
        MOV     R3,?V7
        LCALL   `??osal_mem_free::?relay`; Banked call to: osal_mem_free
// 3619   }
// 3620 }
??ZDSecMgrSaveApsLinkKey_0:
        LJMP    ??Subroutine77_0 & 0xFFFF
          CFI EndBlock cfiBlock475
// 3621 
// 3622 /******************************************************************************
// 3623  * @fn          ZDSecMgrSaveTCLinkKey
// 3624  *
// 3625  * @brief       Save TC Link Key to NV. It will loop through all the keys
// 3626  *              to see which one to save.
// 3627  *
// 3628  * @param       none
// 3629  *
// 3630  * @return      none
// 3631  */

        RSEG BANKED_CODE:CODE:NOROOT(0)
// 3632 void ZDSecMgrSaveTCLinkKey(void)
ZDSecMgrSaveTCLinkKey:
          CFI Block cfiBlock476 Using cfiCommon0
          CFI Function ZDSecMgrSaveTCLinkKey
        CODE
// 3633 {
        FUNCALL ZDSecMgrSaveTCLinkKey, osal_mem_alloc
        LOCFRAME ISTACK, 0, STACK
        LOCFRAME PSTACK, 0, STACK
        LOCFRAME XSTACK, 18, STACK
        LOCFRAME IOVERLAY, 0, STATIC
        LOCFRAME DOVERLAY, 0, STATIC
        ARGFRAME ISTACK, 0, STACK
        ARGFRAME PSTACK, 0, STACK
        ARGFRAME XSTACK, 18, STACK
        ARGFRAME IOVERLAY, 0, STATIC
        ARGFRAME DOVERLAY, 0, STATIC
        FUNCALL ZDSecMgrSaveTCLinkKey, osal_nv_read
        LOCFRAME ISTACK, 0, STACK
        LOCFRAME PSTACK, 0, STACK
        LOCFRAME XSTACK, 22, STACK
        LOCFRAME IOVERLAY, 0, STATIC
        LOCFRAME DOVERLAY, 0, STATIC
        ARGFRAME ISTACK, 0, STACK
        ARGFRAME PSTACK, 0, STACK
        ARGFRAME XSTACK, 22, STACK
        ARGFRAME IOVERLAY, 0, STATIC
        ARGFRAME DOVERLAY, 0, STATIC
        FUNCALL ZDSecMgrSaveTCLinkKey, osal_nv_write
        LOCFRAME ISTACK, 0, STACK
        LOCFRAME PSTACK, 0, STACK
        LOCFRAME XSTACK, 22, STACK
        LOCFRAME IOVERLAY, 0, STATIC
        LOCFRAME DOVERLAY, 0, STATIC
        ARGFRAME ISTACK, 0, STACK
        ARGFRAME PSTACK, 0, STACK
        ARGFRAME XSTACK, 22, STACK
        ARGFRAME IOVERLAY, 0, STATIC
        ARGFRAME DOVERLAY, 0, STATIC
        FUNCALL ZDSecMgrSaveTCLinkKey, osal_mem_free
        LOCFRAME ISTACK, 0, STACK
        LOCFRAME PSTACK, 0, STACK
        LOCFRAME XSTACK, 18, STACK
        LOCFRAME IOVERLAY, 0, STATIC
        LOCFRAME DOVERLAY, 0, STATIC
        ARGFRAME ISTACK, 0, STACK
        ARGFRAME PSTACK, 0, STACK
        ARGFRAME XSTACK, 18, STACK
        ARGFRAME IOVERLAY, 0, STATIC
        ARGFRAME DOVERLAY, 0, STATIC
        REQUIRE ?V0
        REQUIRE ?V1
        REQUIRE ?V2
        REQUIRE ?V3
        REQUIRE ?V4
        REQUIRE ?V5
        REQUIRE ?V6
        REQUIRE ?V7
        REQUIRE ?V8
        REQUIRE ?V9
        MOV     A,#-0x12
        LCALL   ?BANKED_ENTER_XDATA
          CFI DPH0 load(1, XDATA, add(CFA_XSP16, literal(-1)))
          CFI DPL0 load(1, XDATA, add(CFA_XSP16, literal(-2)))
          CFI ?BRET_EXT load(1, XDATA, add(CFA_XSP16, literal(-3)))
          CFI ?RET_HIGH load(1, XDATA, add(CFA_XSP16, literal(-4)))
          CFI ?RET_LOW load(1, XDATA, add(CFA_XSP16, literal(-5)))
          CFI R7 load(1, XDATA, add(CFA_XSP16, literal(-6)))
          CFI V9 load(1, XDATA, add(CFA_XSP16, literal(-7)))
          CFI V8 load(1, XDATA, add(CFA_XSP16, literal(-8)))
          CFI V7 load(1, XDATA, add(CFA_XSP16, literal(-9)))
          CFI V6 load(1, XDATA, add(CFA_XSP16, literal(-10)))
          CFI V5 load(1, XDATA, add(CFA_XSP16, literal(-11)))
          CFI V4 load(1, XDATA, add(CFA_XSP16, literal(-12)))
          CFI V3 load(1, XDATA, add(CFA_XSP16, literal(-13)))
          CFI V2 load(1, XDATA, add(CFA_XSP16, literal(-14)))
          CFI V1 load(1, XDATA, add(CFA_XSP16, literal(-15)))
          CFI V0 load(1, XDATA, add(CFA_XSP16, literal(-16)))
          CFI VB load(1, XDATA, add(CFA_XSP16, literal(-17)))
          CFI R6 load(1, XDATA, add(CFA_XSP16, literal(-18)))
          CFI CFA_SP SP+0
          CFI CFA_XSP16 add(XSP16, 18)
        ; Saved register size: 18
        ; Auto size: 0
// 3634   APSME_TCLKDevEntry_t *pKeyData = NULL;
// 3635   uint16 i;
// 3636 
// 3637   pKeyData = (APSME_TCLKDevEntry_t *)osal_mem_alloc(sizeof(APSME_TCLKDevEntry_t));
        ; Setup parameters for call to function osal_mem_alloc
        MOV     R2,#0x13
        MOV     R3,#0x0
        LCALL   `??osal_mem_alloc::?relay`; Banked call to: osal_mem_alloc
        MOV     ?V6,R2
        MOV     ?V7,R3
// 3638 
// 3639   if (pKeyData != NULL)
        MOV     A,R2
        ORL     A,?V7
        JNZ     $+5
        LJMP    ??ZDSecMgrSaveTCLinkKey_0 & 0xFFFF
// 3640   {
// 3641     for( i = 0; i < gZDSECMGR_TC_DEVICE_MAX; i++ )
        MOV     ?V0,#0x0
        MOV     ?V1,#0x0
// 3642     {
// 3643       if (TCLinkKeyFrmCntr[i].pendingFlag == TRUE)
??ZDSecMgrSaveTCLinkKey_1:
        MOV     A,?V0
        MOV     B,#0x9
        MUL     AB
        MOV     R0,A
        MOV     R2,B
        MOV     B,#0x9
        MOV     A,?V1
        MUL     AB
        ADD     A,R2
        MOV     R1,A
        MOV     A,#TCLinkKeyFrmCntr & 0xff
        ADD     A,R0
        MOV     ?V2,A
        MOV     A,#(TCLinkKeyFrmCntr >> 8) & 0xff
        LCALL   ?Subroutine45 & 0xFFFF
??CrossCallReturnLabel_62:
        JZ      $+5
        LJMP    ??ZDSecMgrSaveTCLinkKey_2 & 0xFFFF
// 3644       {
// 3645         if (osal_nv_read(ZCD_NV_TCLK_TABLE_START + i, 0,
// 3646                          sizeof(APSME_TCLKDevEntry_t), pKeyData) == SUCCESS)
        MOV     A,?V0
        ADD     A,#0x11
        MOV     R6,A
        MOV     A,?V1
        ADDC    A,#0x1
        MOV     R7,A
        ; Setup parameters for call to function osal_nv_read
        MOV     R0,#?V6
        LCALL   ?PUSH_XSTACK_I_TWO
          CFI CFA_XSP16 add(XSP16, 20)
        MOV     ?V8,#0x13
        MOV     ?V9,#0x0
        MOV     R0,#?V8
        LCALL   ?PUSH_XSTACK_I_TWO
          CFI CFA_XSP16 add(XSP16, 22)
        MOV     R4,#0x0
        MOV     R5,#0x0
        MOV     A,R6
        MOV     R2,A
        MOV     A,R7
        MOV     R3,A
        LCALL   `??osal_nv_read::?relay`; Banked call to: osal_nv_read
        MOV     A,#0x4
        LCALL   ?DEALLOC_XSTACK8
          CFI CFA_XSP16 add(XSP16, 18)
        MOV     A,R1
        JNZ     ??ZDSecMgrSaveTCLinkKey_2
// 3647         {
// 3648           pKeyData->txFrmCntr = TCLinkKeyFrmCntr[i].txFrmCntr;
        MOV     DPL,?V2
        MOV     DPH,?V3
        LCALL   ?XLOAD_R0123
        MOV     DPL,?V6
        MOV     DPH,?V7
        LCALL   ?XSTORE_R0123
// 3649           pKeyData->rxFrmCntr = TCLinkKeyFrmCntr[i].rxFrmCntr;
        MOV     DPL,?V2
        MOV     DPH,?V3
        INC     DPTR
        INC     DPTR
        INC     DPTR
        INC     DPTR
        LCALL   ?XLOAD_R0123
        MOV     DPL,?V6
        MOV     DPH,?V7
        INC     DPTR
        INC     DPTR
        INC     DPTR
        INC     DPTR
        LCALL   ?XSTORE_R0123
// 3650 
// 3651           // Write the TC link key back to the NV
// 3652           osal_nv_write(ZCD_NV_TCLK_TABLE_START + i, 0,
// 3653                         sizeof(APSME_TCLKDevEntry_t), pKeyData);
        ; Setup parameters for call to function osal_nv_write
        MOV     R0,#?V6
        LCALL   ?PUSH_XSTACK_I_TWO
          CFI CFA_XSP16 add(XSP16, 20)
        MOV     ?V2,#0x13
        MOV     ?V3,#0x0
        MOV     R0,#?V2
        LCALL   ?PUSH_XSTACK_I_TWO
          CFI CFA_XSP16 add(XSP16, 22)
        MOV     R4,#0x0
        MOV     R5,#0x0
        MOV     A,R6
        MOV     R2,A
        MOV     A,R7
        MOV     R3,A
        LCALL   `??osal_nv_write::?relay`; Banked call to: osal_nv_write
        MOV     A,#0x4
        LCALL   ?DEALLOC_XSTACK8
          CFI CFA_XSP16 add(XSP16, 18)
// 3654 
// 3655           // clear the pending write flag
// 3656           TCLinkKeyFrmCntr[i].pendingFlag = FALSE;
        MOV     DPL,?V4
        MOV     DPH,?V5
        CLR     A
        MOVX    @DPTR,A
// 3657         }
// 3658       }
// 3659     }
??ZDSecMgrSaveTCLinkKey_2:
        INC     ?V0
        MOV     A,?V0
        JNZ     ??ZDSecMgrSaveTCLinkKey_3
        INC     ?V1
??ZDSecMgrSaveTCLinkKey_3:
        CLR     C
        SUBB    A,#0x3
        MOV     A,?V1
        SUBB    A,#0x0
        JNC     $+5
        LJMP    ??ZDSecMgrSaveTCLinkKey_1 & 0xFFFF
// 3660 
// 3661     osal_mem_free(pKeyData);
        ; Setup parameters for call to function osal_mem_free
        MOV     R2,?V6
        MOV     R3,?V7
        LCALL   `??osal_mem_free::?relay`; Banked call to: osal_mem_free
// 3662   }
// 3663 }
??ZDSecMgrSaveTCLinkKey_0:
        LJMP    ??Subroutine77_0 & 0xFFFF
          CFI EndBlock cfiBlock476

        RSEG BANKED_CODE:CODE:NOROOT(0)
?Subroutine45:
          CFI Block cfiCond477 Using cfiCommon0
          CFI Function ZDSecMgrSaveApsLinkKey
          CFI Conditional ??CrossCallReturnLabel_61
          CFI R6 load(1, XDATA, add(CFA_XSP16, literal(-18)))
          CFI VB load(1, XDATA, add(CFA_XSP16, literal(-17)))
          CFI V0 load(1, XDATA, add(CFA_XSP16, literal(-16)))
          CFI V1 load(1, XDATA, add(CFA_XSP16, literal(-15)))
          CFI V2 load(1, XDATA, add(CFA_XSP16, literal(-14)))
          CFI V3 load(1, XDATA, add(CFA_XSP16, literal(-13)))
          CFI V4 load(1, XDATA, add(CFA_XSP16, literal(-12)))
          CFI V5 load(1, XDATA, add(CFA_XSP16, literal(-11)))
          CFI V6 load(1, XDATA, add(CFA_XSP16, literal(-10)))
          CFI V7 load(1, XDATA, add(CFA_XSP16, literal(-9)))
          CFI V8 load(1, XDATA, add(CFA_XSP16, literal(-8)))
          CFI V9 load(1, XDATA, add(CFA_XSP16, literal(-7)))
          CFI R7 load(1, XDATA, add(CFA_XSP16, literal(-6)))
          CFI ?RET_LOW load(1, XDATA, add(CFA_XSP16, literal(-5)))
          CFI ?RET_HIGH load(1, XDATA, add(CFA_XSP16, literal(-4)))
          CFI ?BRET_EXT load(1, XDATA, add(CFA_XSP16, literal(-3)))
          CFI DPL0 load(1, XDATA, add(CFA_XSP16, literal(-2)))
          CFI DPH0 load(1, XDATA, add(CFA_XSP16, literal(-1)))
          CFI CFA_SP SP+-2
          CFI CFA_XSP16 add(XSP16, 18)
          CFI Block cfiCond478 Using cfiCommon0
          CFI (cfiCond478) Function ZDSecMgrSaveTCLinkKey
          CFI (cfiCond478) Conditional ??CrossCallReturnLabel_62
          CFI (cfiCond478) R6 load(1, XDATA, add(CFA_XSP16, literal(-18)))
          CFI (cfiCond478) VB load(1, XDATA, add(CFA_XSP16, literal(-17)))
          CFI (cfiCond478) V0 load(1, XDATA, add(CFA_XSP16, literal(-16)))
          CFI (cfiCond478) V1 load(1, XDATA, add(CFA_XSP16, literal(-15)))
          CFI (cfiCond478) V2 load(1, XDATA, add(CFA_XSP16, literal(-14)))
          CFI (cfiCond478) V3 load(1, XDATA, add(CFA_XSP16, literal(-13)))
          CFI (cfiCond478) V4 load(1, XDATA, add(CFA_XSP16, literal(-12)))
          CFI (cfiCond478) V5 load(1, XDATA, add(CFA_XSP16, literal(-11)))
          CFI (cfiCond478) V6 load(1, XDATA, add(CFA_XSP16, literal(-10)))
          CFI (cfiCond478) V7 load(1, XDATA, add(CFA_XSP16, literal(-9)))
          CFI (cfiCond478) V8 load(1, XDATA, add(CFA_XSP16, literal(-8)))
          CFI (cfiCond478) V9 load(1, XDATA, add(CFA_XSP16, literal(-7)))
          CFI (cfiCond478) R7 load(1, XDATA, add(CFA_XSP16, literal(-6)))
          CFI (cfiCond478) ?RET_LOW load(1, XDATA, add(CFA_XSP16, literal(-5)))
          CFI (cfiCond478) ?RET_HIGH load(1, XDATA, add(CFA_XSP16, literal(-4)))
          CFI (cfiCond478) ?BRET_EXT load(1, XDATA, add(CFA_XSP16, literal(-3)))
          CFI (cfiCond478) DPL0 load(1, XDATA, add(CFA_XSP16, literal(-2)))
          CFI (cfiCond478) DPH0 load(1, XDATA, add(CFA_XSP16, literal(-1)))
          CFI (cfiCond478) CFA_SP SP+-2
          CFI (cfiCond478) CFA_XSP16 add(XSP16, 18)
          CFI Block cfiPicker479 Using cfiCommon1
          CFI (cfiPicker479) NoFunction
          CFI (cfiPicker479) Picker
        ADDC    A,R1
        MOV     ?V3,A
        MOV     A,?V2
        ADD     A,#0x8
        MOV     ?V4,A
        CLR     A
        ADDC    A,?V3
        MOV     ?V5,A
        MOV     DPL,?V4
        MOV     DPH,A
        MOVX    A,@DPTR
        XRL     A,#0x1
        RET
          CFI EndBlock cfiCond477
          CFI EndBlock cfiCond478
          CFI EndBlock cfiPicker479
// 3664 
// 3665 /******************************************************************************
// 3666  * @fn          ZDSecMgrUpdateTCAddress
// 3667  *
// 3668  * @brief       Update Trust Center address and save to NV.
// 3669  *
// 3670  * @param       extAddr - [in] extended address or NULL if no TC protected
// 3671  *
// 3672  * @return      none
// 3673  */

        RSEG BANKED_CODE:CODE:NOROOT(0)
// 3674 void ZDSecMgrUpdateTCAddress( uint8 *extAddr )
ZDSecMgrUpdateTCAddress:
          CFI Block cfiBlock480 Using cfiCommon0
          CFI Function ZDSecMgrUpdateTCAddress
        CODE
// 3675 {
        FUNCALL ZDSecMgrUpdateTCAddress, APSME_SetRequest
        LOCFRAME ISTACK, 0, STACK
        LOCFRAME PSTACK, 0, STACK
        LOCFRAME XSTACK, 18, STACK
        LOCFRAME IOVERLAY, 0, STATIC
        LOCFRAME DOVERLAY, 0, STATIC
        ARGFRAME ISTACK, 0, STACK
        ARGFRAME PSTACK, 0, STACK
        ARGFRAME XSTACK, 18, STACK
        ARGFRAME IOVERLAY, 0, STATIC
        ARGFRAME DOVERLAY, 0, STATIC
        FUNCALL ZDSecMgrUpdateTCAddress, sAddrExtCpy
        LOCFRAME ISTACK, 0, STACK
        LOCFRAME PSTACK, 0, STACK
        LOCFRAME XSTACK, 18, STACK
        LOCFRAME IOVERLAY, 0, STATIC
        LOCFRAME DOVERLAY, 0, STATIC
        ARGFRAME ISTACK, 0, STACK
        ARGFRAME PSTACK, 0, STACK
        ARGFRAME XSTACK, 18, STACK
        ARGFRAME IOVERLAY, 0, STATIC
        ARGFRAME DOVERLAY, 0, STATIC
        FUNCALL ZDSecMgrUpdateTCAddress, osal_nv_write
        LOCFRAME ISTACK, 0, STACK
        LOCFRAME PSTACK, 0, STACK
        LOCFRAME XSTACK, 22, STACK
        LOCFRAME IOVERLAY, 0, STATIC
        LOCFRAME DOVERLAY, 0, STATIC
        ARGFRAME ISTACK, 0, STACK
        ARGFRAME PSTACK, 0, STACK
        ARGFRAME XSTACK, 22, STACK
        ARGFRAME IOVERLAY, 0, STATIC
        ARGFRAME DOVERLAY, 0, STATIC
        REQUIRE ?V0
        REQUIRE ?V1
        MOV     A,#-0xa
        LCALL   ?BANKED_ENTER_XDATA
          CFI DPH0 load(1, XDATA, add(CFA_XSP16, literal(-1)))
          CFI DPL0 load(1, XDATA, add(CFA_XSP16, literal(-2)))
          CFI ?BRET_EXT load(1, XDATA, add(CFA_XSP16, literal(-3)))
          CFI ?RET_HIGH load(1, XDATA, add(CFA_XSP16, literal(-4)))
          CFI ?RET_LOW load(1, XDATA, add(CFA_XSP16, literal(-5)))
          CFI R7 load(1, XDATA, add(CFA_XSP16, literal(-6)))
          CFI V1 load(1, XDATA, add(CFA_XSP16, literal(-7)))
          CFI V0 load(1, XDATA, add(CFA_XSP16, literal(-8)))
          CFI VB load(1, XDATA, add(CFA_XSP16, literal(-9)))
          CFI R6 load(1, XDATA, add(CFA_XSP16, literal(-10)))
          CFI CFA_SP SP+0
          CFI CFA_XSP16 add(XSP16, 10)
        ; Saved register size: 10
        ; Auto size: 8
        MOV     A,#-0x8
        LCALL   ?ALLOC_XSTACK8
          CFI CFA_XSP16 add(XSP16, 18)
// 3676   uint8 noTCAddress[Z_EXTADDR_LEN] = { 0xFF, 0xFF, 0xFF, 0xFF, 0xFF, 0xFF, 0xFF, 0xFF };
        MOV     DPTR,#`?<Constant {255, 255, 255, 255, 255, 255, 255,`
        MOV     R4,?XSP + 0
        MOV     R5,?XSP + 1
        MOV     A,#0x8
        LCALL   ?MOVE_LONG8_XDATA_XDATA
// 3677   APSME_SetRequest( apsTrustCenterAddress, 0, ( extAddr != NULL) ? extAddr : noTCAddress );
        MOV     A,R2
        ORL     A,R3
        JZ      ??ZDSecMgrUpdateTCAddress_0
        MOV     A,R2
        MOV     R6,A
        MOV     A,R3
        MOV     R7,A
        SJMP    ??ZDSecMgrUpdateTCAddress_1
??ZDSecMgrUpdateTCAddress_0:
        MOV     R0,?XSP + 0
        MOV     R1,?XSP + 1
        MOV     ?V0,R0
        MOV     ?V1,R1
        MOV     R6,?V0
        MOV     R7,?V1
??ZDSecMgrUpdateTCAddress_1:
        ; Setup parameters for call to function APSME_SetRequest
        MOV     A,R6
        MOV     R4,A
        MOV     A,R7
        MOV     R5,A
        MOV     R2,#0x0
        MOV     R3,#0x0
        MOV     R1,#-0x55
        LCALL   `??APSME_SetRequest::?relay`; Banked call to: APSME_SetRequest
// 3678   osal_cpyExtAddr( zgApsTrustCenterAddr, ( extAddr != NULL) ? extAddr : noTCAddress );
        MOV     A,R6
        MOV     R4,A
        MOV     A,R7
        MOV     R5,A
        ; Setup parameters for call to function sAddrExtCpy
        MOV     R2,#zgApsTrustCenterAddr & 0xff
        MOV     R3,#(zgApsTrustCenterAddr >> 8) & 0xff
        LCALL   `??sAddrExtCpy::?relay`; Banked call to: sAddrExtCpy
// 3679   
// 3680 #if defined ( NV_RESTORE )
// 3681   osal_nv_write( ZCD_NV_TRUSTCENTER_ADDR, 0, Z_EXTADDR_LEN, zgApsTrustCenterAddr );
        ; Setup parameters for call to function osal_nv_write
        MOV     ?V0,#zgApsTrustCenterAddr & 0xff
        MOV     ?V1,#(zgApsTrustCenterAddr >> 8) & 0xff
        MOV     R0,#?V0
        LCALL   ?PUSH_XSTACK_I_TWO
          CFI CFA_XSP16 add(XSP16, 20)
        MOV     ?V0,#0x8
        MOV     ?V1,#0x0
        MOV     R0,#?V0
        LCALL   ?PUSH_XSTACK_I_TWO
          CFI CFA_XSP16 add(XSP16, 22)
        MOV     R4,#0x0
        MOV     R5,#0x0
        MOV     R2,#0x71
        MOV     R3,#0x0
        LCALL   `??osal_nv_write::?relay`; Banked call to: osal_nv_write
        MOV     A,#0x4
        LCALL   ?DEALLOC_XSTACK8
          CFI CFA_XSP16 add(XSP16, 18)
// 3682 #endif
// 3683 }
        MOV     A,#0x8
        LJMP    ?Subroutine4 & 0xFFFF
          CFI EndBlock cfiBlock480
// 3684 
// 3685 #if defined ( ZBA_FALLBACK_NWKKEY )
// 3686 /******************************************************************************
// 3687  * @fn          ZDSecMgrFallbackNwkKey
// 3688  *
// 3689  * @brief       Use the ZBA fallback network key.
// 3690  *
// 3691  * @param       none
// 3692  *
// 3693  * @return      none
// 3694  */
// 3695 void ZDSecMgrFallbackNwkKey( void )
// 3696 {
// 3697   if ( !_NIB.nwkKeyLoaded )
// 3698   {
// 3699     uint8 fallbackKey[SEC_KEY_LEN];
// 3700 
// 3701     ZDSecMgrReadKeyFromNv( ZCD_NV_PRECFGKEY, fallbackKey );
// 3702     SSP_UpdateNwkKey( fallbackKey, 0);
// 3703     SSP_SwitchNwkKey( 0 );
// 3704 
// 3705     // clear local copy of key
// 3706     osal_memset( fallbackKey, 0x00, SEC_KEY_LEN );
// 3707 
// 3708     // handle next step in authentication process
// 3709     ZDSecMgrAuthNwkKey();
// 3710   }
// 3711 }
// 3712 #endif // defined ( ZBA_FALLBACK_NWKKEY )
// 3713 
// 3714 #if defined ( NV_RESTORE )
// 3715 /******************************************************************************
// 3716  * @fn          ZDSecMgrClearNVKeyValues
// 3717  *
// 3718  * @brief       If NV_RESTORE is enabled and the status of the network needs
// 3719  *              default values this fuction clears ZCD_NV_NWKKEY,
// 3720  *              ZCD_NV_NWK_ACTIVE_KEY_INFO and ZCD_NV_NWK_ALTERN_KEY_INFO link
// 3721  *
// 3722  * @param       none
// 3723  *
// 3724  * @return      none
// 3725  */

        RSEG BANKED_CODE:CODE:NOROOT(0)
// 3726 void ZDSecMgrClearNVKeyValues(void)
ZDSecMgrClearNVKeyValues:
          CFI Block cfiBlock481 Using cfiCommon0
          CFI Function ZDSecMgrClearNVKeyValues
        CODE
// 3727 {
        FUNCALL ZDSecMgrClearNVKeyValues, osal_memset
        LOCFRAME ISTACK, 0, STACK
        LOCFRAME PSTACK, 0, STACK
        LOCFRAME XSTACK, 48, STACK
        LOCFRAME IOVERLAY, 0, STATIC
        LOCFRAME DOVERLAY, 0, STATIC
        ARGFRAME ISTACK, 0, STACK
        ARGFRAME PSTACK, 0, STACK
        ARGFRAME XSTACK, 48, STACK
        ARGFRAME IOVERLAY, 0, STATIC
        ARGFRAME DOVERLAY, 0, STATIC
        FUNCALL ZDSecMgrClearNVKeyValues, osal_nv_write
        LOCFRAME ISTACK, 0, STACK
        LOCFRAME PSTACK, 0, STACK
        LOCFRAME XSTACK, 52, STACK
        LOCFRAME IOVERLAY, 0, STATIC
        LOCFRAME DOVERLAY, 0, STATIC
        ARGFRAME ISTACK, 0, STACK
        ARGFRAME PSTACK, 0, STACK
        ARGFRAME XSTACK, 52, STACK
        ARGFRAME IOVERLAY, 0, STATIC
        ARGFRAME DOVERLAY, 0, STATIC
        FUNCALL ZDSecMgrClearNVKeyValues, osal_memset
        LOCFRAME ISTACK, 0, STACK
        LOCFRAME PSTACK, 0, STACK
        LOCFRAME XSTACK, 48, STACK
        LOCFRAME IOVERLAY, 0, STATIC
        LOCFRAME DOVERLAY, 0, STATIC
        ARGFRAME ISTACK, 0, STACK
        ARGFRAME PSTACK, 0, STACK
        ARGFRAME XSTACK, 48, STACK
        ARGFRAME IOVERLAY, 0, STATIC
        ARGFRAME DOVERLAY, 0, STATIC
        FUNCALL ZDSecMgrClearNVKeyValues, osal_nv_write
        LOCFRAME ISTACK, 0, STACK
        LOCFRAME PSTACK, 0, STACK
        LOCFRAME XSTACK, 52, STACK
        LOCFRAME IOVERLAY, 0, STATIC
        LOCFRAME DOVERLAY, 0, STATIC
        ARGFRAME ISTACK, 0, STACK
        ARGFRAME PSTACK, 0, STACK
        ARGFRAME XSTACK, 52, STACK
        ARGFRAME IOVERLAY, 0, STATIC
        ARGFRAME DOVERLAY, 0, STATIC
        FUNCALL ZDSecMgrClearNVKeyValues, osal_nv_write
        LOCFRAME ISTACK, 0, STACK
        LOCFRAME PSTACK, 0, STACK
        LOCFRAME XSTACK, 52, STACK
        LOCFRAME IOVERLAY, 0, STATIC
        LOCFRAME DOVERLAY, 0, STATIC
        ARGFRAME ISTACK, 0, STACK
        ARGFRAME PSTACK, 0, STACK
        ARGFRAME XSTACK, 52, STACK
        ARGFRAME IOVERLAY, 0, STATIC
        ARGFRAME DOVERLAY, 0, STATIC
        REQUIRE ?V0
        REQUIRE ?V1
        MOV     A,#-0xa
        LCALL   ?BANKED_ENTER_XDATA
          CFI DPH0 load(1, XDATA, add(CFA_XSP16, literal(-1)))
          CFI DPL0 load(1, XDATA, add(CFA_XSP16, literal(-2)))
          CFI ?BRET_EXT load(1, XDATA, add(CFA_XSP16, literal(-3)))
          CFI ?RET_HIGH load(1, XDATA, add(CFA_XSP16, literal(-4)))
          CFI ?RET_LOW load(1, XDATA, add(CFA_XSP16, literal(-5)))
          CFI R7 load(1, XDATA, add(CFA_XSP16, literal(-6)))
          CFI V1 load(1, XDATA, add(CFA_XSP16, literal(-7)))
          CFI V0 load(1, XDATA, add(CFA_XSP16, literal(-8)))
          CFI VB load(1, XDATA, add(CFA_XSP16, literal(-9)))
          CFI R6 load(1, XDATA, add(CFA_XSP16, literal(-10)))
          CFI CFA_SP SP+0
          CFI CFA_XSP16 add(XSP16, 10)
        ; Saved register size: 10
        ; Auto size: 38
        MOV     A,#-0x26
        LCALL   ?ALLOC_XSTACK8
          CFI CFA_XSP16 add(XSP16, 48)
// 3728   nwkActiveKeyItems keyItems;
// 3729   nwkKeyDesc nwkKey;
// 3730 
// 3731   osal_memset(&keyItems, 0x00, sizeof(nwkActiveKeyItems));
        ; Setup parameters for call to function osal_memset
        MOV     R4,#0x15
        MOV     R5,#0x0
        MOV     R1,#0x0
        MOV     A,#0x11
        LCALL   ?XSTACK_DISP101_8
        LCALL   `??osal_memset::?relay`; Banked call to: osal_memset
// 3732 
// 3733   osal_nv_write(ZCD_NV_NWKKEY, 0, sizeof(nwkActiveKeyItems), &keyItems);
        ; Setup parameters for call to function osal_nv_write
        MOV     A,#0x11
        LCALL   ?XSTACK_DISP100_8
        MOV     ?V0,R0
        MOV     ?V1,R1
        MOV     R0,#?V0
        LCALL   ?PUSH_XSTACK_I_TWO
          CFI CFA_XSP16 add(XSP16, 50)
        MOV     ?V0,#0x15
        MOV     ?V1,#0x0
        MOV     R0,#?V0
        LCALL   ?PUSH_XSTACK_I_TWO
          CFI CFA_XSP16 add(XSP16, 52)
        MOV     R4,#0x0
        MOV     R5,#0x0
        MOV     R2,#-0x7e
        MOV     R3,#0x0
        LCALL   `??osal_nv_write::?relay`; Banked call to: osal_nv_write
        MOV     A,#0x4
        LCALL   ?DEALLOC_XSTACK8
          CFI CFA_XSP16 add(XSP16, 48)
// 3734 
// 3735   // Initialize NV items for NWK Active and Alternate keys.
// 3736   osal_memset( &nwkKey, 0x00, sizeof(nwkKeyDesc) );
        ; Setup parameters for call to function osal_memset
        MOV     R4,#0x11
        MOV     R5,#0x0
        MOV     R1,#0x0
        MOV     R2,?XSP + 0
        MOV     R3,?XSP + 1
        LCALL   `??osal_memset::?relay`; Banked call to: osal_memset
// 3737 
// 3738   osal_nv_write(ZCD_NV_NWK_ACTIVE_KEY_INFO, 0, sizeof(nwkKeyDesc), &nwkKey);
        ; Setup parameters for call to function osal_nv_write
        MOV     R0,?XSP + 0
        MOV     R1,?XSP + 1
        MOV     ?V0,R0
        MOV     ?V1,R1
        MOV     R0,#?V0
        LCALL   ?PUSH_XSTACK_I_TWO
          CFI CFA_XSP16 add(XSP16, 50)
        MOV     ?V0,#0x11
        MOV     ?V1,#0x0
        MOV     R0,#?V0
        LCALL   ?PUSH_XSTACK_I_TWO
          CFI CFA_XSP16 add(XSP16, 52)
        MOV     R4,#0x0
        MOV     R5,#0x0
        MOV     R2,#0x3a
        MOV     R3,#0x0
        LCALL   `??osal_nv_write::?relay`; Banked call to: osal_nv_write
        MOV     A,#0x4
        LCALL   ?DEALLOC_XSTACK8
          CFI CFA_XSP16 add(XSP16, 48)
// 3739 
// 3740   osal_nv_write(ZCD_NV_NWK_ALTERN_KEY_INFO, 0, sizeof(nwkKeyDesc), &nwkKey);
        ; Setup parameters for call to function osal_nv_write
        MOV     R0,?XSP + 0
        MOV     R1,?XSP + 1
        MOV     ?V0,R0
        MOV     ?V1,R1
        MOV     R0,#?V0
        LCALL   ?PUSH_XSTACK_I_TWO
          CFI CFA_XSP16 add(XSP16, 50)
        MOV     ?V0,#0x11
        MOV     ?V1,#0x0
        MOV     R0,#?V0
        LCALL   ?PUSH_XSTACK_I_TWO
          CFI CFA_XSP16 add(XSP16, 52)
        MOV     R4,#0x0
        MOV     R5,#0x0
        MOV     R2,#0x3b
        MOV     R3,#0x0
        LCALL   `??osal_nv_write::?relay`; Banked call to: osal_nv_write
        MOV     A,#0x4
        LCALL   ?DEALLOC_XSTACK8
          CFI CFA_XSP16 add(XSP16, 48)
// 3741 }
        MOV     A,#0x26
        LJMP    ?Subroutine4 & 0xFFFF
          CFI EndBlock cfiBlock481

        RSEG XDATA_ID:CODE:NOROOT(0)
`?<Initializer for requestNewTrustCenterLinkKey`:
        DATA8
        DB 1

        RSEG XDATA_ID:CODE:NOROOT(0)
`?<Initializer for requestLinkKeyTimeout>`:
        DATA32
        DD 5000

        RSEG XDATA_ID:CODE:NOROOT(0)
`?<Initializer for ZDSecMgrAppKeyType>`:
        DATA8
        DB 3

        RSEG BANK_RELAYS:CODE:REORDER:NOROOT(0)
`??ZDSecMgrAddrStore::?relay`:
        CODE
        LCALL   ?BDISPATCH
        DATA24
        DC24    ZDSecMgrAddrStore

        RSEG BANK_RELAYS:CODE:REORDER:NOROOT(0)
`??ZDSecMgrExtAddrStore::?relay`:
        CODE
        LCALL   ?BDISPATCH
        DATA24
        DC24    ZDSecMgrExtAddrStore

        RSEG BANK_RELAYS:CODE:REORDER:NOROOT(0)
`??ZDSecMgrExtAddrLookup::?relay`:
        CODE
        LCALL   ?BDISPATCH
        DATA24
        DC24    ZDSecMgrExtAddrLookup

        RSEG BANK_RELAYS:CODE:REORDER:NOROOT(0)
`??ZDSecMgrAddrClear::?relay`:
        CODE
        LCALL   ?BDISPATCH
        DATA24
        DC24    ZDSecMgrAddrClear

        RSEG BANK_RELAYS:CODE:REORDER:NOROOT(0)
`??ZDSecMgrEntryInit::?relay`:
        CODE
        LCALL   ?BDISPATCH
        DATA24
        DC24    ZDSecMgrEntryInit

        RSEG BANK_RELAYS:CODE:REORDER:NOROOT(0)
`??ZDSecMgrEntryLookup::?relay`:
        CODE
        LCALL   ?BDISPATCH
        DATA24
        DC24    ZDSecMgrEntryLookup

        RSEG BANK_RELAYS:CODE:REORDER:NOROOT(0)
`??ZDSecMgrEntryLookupAMI::?relay`:
        CODE
        LCALL   ?BDISPATCH
        DATA24
        DC24    ZDSecMgrEntryLookupAMI

        RSEG BANK_RELAYS:CODE:REORDER:NOROOT(0)
`??ZDSecMgrEntryLookupExt::?relay`:
        CODE
        LCALL   ?BDISPATCH
        DATA24
        DC24    ZDSecMgrEntryLookupExt

        RSEG BANK_RELAYS:CODE:REORDER:NOROOT(0)
`??ZDSecMgrEntryLookupExtGetIndex::?relay`:
        CODE
        LCALL   ?BDISPATCH
        DATA24
        DC24    ZDSecMgrEntryLookupExtGetIndex

        RSEG BANK_RELAYS:CODE:REORDER:NOROOT(0)
`??ZDSecMgrEntryLookupAMIGetIndex::?relay`:
        CODE
        LCALL   ?BDISPATCH
        DATA24
        DC24    ZDSecMgrEntryLookupAMIGetIndex

        RSEG BANK_RELAYS:CODE:REORDER:NOROOT(0)
`??ZDSecMgrEntryFree::?relay`:
        CODE
        LCALL   ?BDISPATCH
        DATA24
        DC24    ZDSecMgrEntryFree

        RSEG BANK_RELAYS:CODE:REORDER:NOROOT(0)
`??ZDSecMgrEntryNew::?relay`:
        CODE
        LCALL   ?BDISPATCH
        DATA24
        DC24    ZDSecMgrEntryNew

        RSEG BANK_RELAYS:CODE:REORDER:NOROOT(0)
`??ZDSecMgrAppKeyGet::?relay`:
        CODE
        LCALL   ?BDISPATCH
        DATA24
        DC24    ZDSecMgrAppKeyGet

        RSEG BANK_RELAYS:CODE:REORDER:NOROOT(0)
`??ZDSecMgrAppKeyReq::?relay`:
        CODE
        LCALL   ?BDISPATCH
        DATA24
        DC24    ZDSecMgrAppKeyReq

        RSEG BANK_RELAYS:CODE:REORDER:NOROOT(0)
`??ZDSecMgrTclkReq::?relay`:
        CODE
        LCALL   ?BDISPATCH
        DATA24
        DC24    ZDSecMgrTclkReq

        RSEG BANK_RELAYS:CODE:REORDER:NOROOT(0)
`??ZDSecMgrAppConfKeyReq::?relay`:
        CODE
        LCALL   ?BDISPATCH
        DATA24
        DC24    ZDSecMgrAppConfKeyReq

        RSEG BANK_RELAYS:CODE:REORDER:NOROOT(0)
`??ZDSecMgrSendNwkKey::?relay`:
        CODE
        LCALL   ?BDISPATCH
        DATA24
        DC24    ZDSecMgrSendNwkKey

        RSEG BANK_RELAYS:CODE:REORDER:NOROOT(0)
`??ZDSecMgrDeviceRemoveByExtAddr::?relay`:
        CODE
        LCALL   ?BDISPATCH
        DATA24
        DC24    ZDSecMgrDeviceRemoveByExtAddr

        RSEG BANK_RELAYS:CODE:REORDER:NOROOT(0)
`??ZDSecMgrDeviceRemove::?relay`:
        CODE
        LCALL   ?BDISPATCH
        DATA24
        DC24    ZDSecMgrDeviceRemove

        RSEG BANK_RELAYS:CODE:REORDER:NOROOT(0)
`??ZDSecMgrDeviceValidateRM::?relay`:
        CODE
        LCALL   ?BDISPATCH
        DATA24
        DC24    ZDSecMgrDeviceValidateRM

        RSEG BANK_RELAYS:CODE:REORDER:NOROOT(0)
`??ZDSecMgrDeviceValidate::?relay`:
        CODE
        LCALL   ?BDISPATCH
        DATA24
        DC24    ZDSecMgrDeviceValidate

        RSEG BANK_RELAYS:CODE:REORDER:NOROOT(0)
`??ZDSecMgrDeviceJoin::?relay`:
        CODE
        LCALL   ?BDISPATCH
        DATA24
        DC24    ZDSecMgrDeviceJoin

        RSEG BANK_RELAYS:CODE:REORDER:NOROOT(0)
`??ZDSecMgrDeviceJoinDirect::?relay`:
        CODE
        LCALL   ?BDISPATCH
        DATA24
        DC24    ZDSecMgrDeviceJoinDirect

        RSEG BANK_RELAYS:CODE:REORDER:NOROOT(0)
`??ZDSecMgrDeviceJoinFwd::?relay`:
        CODE
        LCALL   ?BDISPATCH
        DATA24
        DC24    ZDSecMgrDeviceJoinFwd

        RSEG BANK_RELAYS:CODE:REORDER:NOROOT(0)
`??ZDSecMgrDeviceNew::?relay`:
        CODE
        LCALL   ?BDISPATCH
        DATA24
        DC24    ZDSecMgrDeviceNew

        RSEG BANK_RELAYS:CODE:REORDER:NOROOT(0)
`??ZDSecMgrAssocDeviceAuth::?relay`:
        CODE
        LCALL   ?BDISPATCH
        DATA24
        DC24    ZDSecMgrAssocDeviceAuth

        RSEG BANK_RELAYS:CODE:REORDER:NOROOT(0)
`??ZDSecMgrAuthNwkKey::?relay`:
        CODE
        LCALL   ?BDISPATCH
        DATA24
        DC24    ZDSecMgrAuthNwkKey

        RSEG BANK_RELAYS:CODE:REORDER:NOROOT(0)
`??ZDSecMgrInit::?relay`:
        CODE
        LCALL   ?BDISPATCH
        DATA24
        DC24    ZDSecMgrInit

        RSEG BANK_RELAYS:CODE:REORDER:NOROOT(0)
`??ZDSecMgrConfig::?relay`:
        CODE
        LCALL   ?BDISPATCH
        DATA24
        DC24    ZDSecMgrConfig

        RSEG BANK_RELAYS:CODE:REORDER:NOROOT(0)
`??ZDSecMgrPermitJoining::?relay`:
        CODE
        LCALL   ?BDISPATCH
        DATA24
        DC24    ZDSecMgrPermitJoining

        RSEG BANK_RELAYS:CODE:REORDER:NOROOT(0)
`??ZDSecMgrPermitJoiningTimeout::?relay`:
        CODE
        LCALL   ?BDISPATCH
        DATA24
        DC24    ZDSecMgrPermitJoiningTimeout

        RSEG BANK_RELAYS:CODE:REORDER:NOROOT(0)
`??ZDSecMgrNewDeviceEvent::?relay`:
        CODE
        LCALL   ?BDISPATCH
        DATA24
        DC24    ZDSecMgrNewDeviceEvent

        RSEG BANK_RELAYS:CODE:REORDER:NOROOT(0)
`??ZDSecMgrTCExtAddrCheck::?relay`:
        CODE
        LCALL   ?BDISPATCH
        DATA24
        DC24    ZDSecMgrTCExtAddrCheck

        RSEG BANK_RELAYS:CODE:REORDER:NOROOT(0)
`??ZDSecMgrTCDataLoad::?relay`:
        CODE
        LCALL   ?BDISPATCH
        DATA24
        DC24    ZDSecMgrTCDataLoad

        RSEG BANK_RELAYS:CODE:REORDER:NOROOT(0)
`??ZDSecMgrTransportKeyInd::?relay`:
        CODE
        LCALL   ?BDISPATCH
        DATA24
        DC24    ZDSecMgrTransportKeyInd

        RSEG BANK_RELAYS:CODE:REORDER:NOROOT(0)
`??ZDSecMgrUpdateDeviceInd::?relay`:
        CODE
        LCALL   ?BDISPATCH
        DATA24
        DC24    ZDSecMgrUpdateDeviceInd

        RSEG BANK_RELAYS:CODE:REORDER:NOROOT(0)
`??ZDSecMgrRemoveDeviceInd::?relay`:
        CODE
        LCALL   ?BDISPATCH
        DATA24
        DC24    ZDSecMgrRemoveDeviceInd

        RSEG BANK_RELAYS:CODE:REORDER:NOROOT(0)
`??ZDSecMgrRequestKeyInd::?relay`:
        CODE
        LCALL   ?BDISPATCH
        DATA24
        DC24    ZDSecMgrRequestKeyInd

        RSEG BANK_RELAYS:CODE:REORDER:NOROOT(0)
`??ZDSecMgrVerifyKeyInd::?relay`:
        CODE
        LCALL   ?BDISPATCH
        DATA24
        DC24    ZDSecMgrVerifyKeyInd

        RSEG BANK_RELAYS:CODE:REORDER:NOROOT(0)
`??ZDSecMgrSwitchKeyInd::?relay`:
        CODE
        LCALL   ?BDISPATCH
        DATA24
        DC24    ZDSecMgrSwitchKeyInd

        RSEG BANK_RELAYS:CODE:REORDER:NOROOT(0)
`??ZDSecMgrGenerateSeed::?relay`:
        CODE
        LCALL   ?BDISPATCH
        DATA24
        DC24    ZDSecMgrGenerateSeed

        RSEG BANK_RELAYS:CODE:REORDER:NOROOT(0)
`??ZDSecMgrGenerateKeyFromSeed::?relay`:
        CODE
        LCALL   ?BDISPATCH
        DATA24
        DC24    ZDSecMgrGenerateKeyFromSeed

        RSEG BANK_RELAYS:CODE:REORDER:NOROOT(0)
`??ZDSecMgrGenerateRndKey::?relay`:
        CODE
        LCALL   ?BDISPATCH
        DATA24
        DC24    ZDSecMgrGenerateRndKey

        RSEG BANK_RELAYS:CODE:REORDER:NOROOT(0)
`??ZDSecMgrRequestAppKey::?relay`:
        CODE
        LCALL   ?BDISPATCH
        DATA24
        DC24    ZDSecMgrRequestAppKey

        RSEG BANK_RELAYS:CODE:REORDER:NOROOT(0)
`??ZDSecMgrSetupPartner::?relay`:
        CODE
        LCALL   ?BDISPATCH
        DATA24
        DC24    ZDSecMgrSetupPartner

        RSEG BANK_RELAYS:CODE:REORDER:NOROOT(0)
`??APSME_LinkKeySet::?relay`:
        CODE
        LCALL   ?BDISPATCH
        DATA24
        DC24    APSME_LinkKeySet

        RSEG BANK_RELAYS:CODE:REORDER:NOROOT(0)
`??ZDSecMgrAuthenticationSet::?relay`:
        CODE
        LCALL   ?BDISPATCH
        DATA24
        DC24    ZDSecMgrAuthenticationSet

        RSEG BANK_RELAYS:CODE:REORDER:NOROOT(0)
`??ZDSecMgrAuthenticationCheck::?relay`:
        CODE
        LCALL   ?BDISPATCH
        DATA24
        DC24    ZDSecMgrAuthenticationCheck

        RSEG BANK_RELAYS:CODE:REORDER:NOROOT(0)
`??APSME_LinkKeyNVIdGet::?relay`:
        CODE
        LCALL   ?BDISPATCH
        DATA24
        DC24    APSME_LinkKeyNVIdGet

        RSEG BANK_RELAYS:CODE:REORDER:NOROOT(0)
`??APSME_IsLinkKeyValid::?relay`:
        CODE
        LCALL   ?BDISPATCH
        DATA24
        DC24    APSME_IsLinkKeyValid

        RSEG BANK_RELAYS:CODE:REORDER:NOROOT(0)
`??APSME_KeyFwdToChild::?relay`:
        CODE
        LCALL   ?BDISPATCH
        DATA24
        DC24    APSME_KeyFwdToChild

        RSEG BANK_RELAYS:CODE:REORDER:NOROOT(0)
`??ZDSecMgrAddLinkKey::?relay`:
        CODE
        LCALL   ?BDISPATCH
        DATA24
        DC24    ZDSecMgrAddLinkKey

        RSEG BANK_RELAYS:CODE:REORDER:NOROOT(0)
`??ZDSecMgrInitNV::?relay`:
        CODE
        LCALL   ?BDISPATCH
        DATA24
        DC24    ZDSecMgrInitNV

        RSEG BANK_RELAYS:CODE:REORDER:NOROOT(0)
`??ZDSecMgrWriteNV::?relay`:
        CODE
        LCALL   ?BDISPATCH
        DATA24
        DC24    ZDSecMgrWriteNV

        RSEG BANK_RELAYS:CODE:REORDER:NOROOT(0)
`??ZDSecMgrRestoreFromNV::?relay`:
        CODE
        LCALL   ?BDISPATCH
        DATA24
        DC24    ZDSecMgrRestoreFromNV

        RSEG BANK_RELAYS:CODE:REORDER:NOROOT(0)
`??ZDSecMgrSetDefaultNV::?relay`:
        CODE
        LCALL   ?BDISPATCH
        DATA24
        DC24    ZDSecMgrSetDefaultNV

        RSEG BANK_RELAYS:CODE:REORDER:NOROOT(0)
`??ZDSecMgrAPSRemove::?relay`:
        CODE
        LCALL   ?BDISPATCH
        DATA24
        DC24    ZDSecMgrAPSRemove

        RSEG BANK_RELAYS:CODE:REORDER:NOROOT(0)
`??APSME_TCLinkKeyInit::?relay`:
        CODE
        LCALL   ?BDISPATCH
        DATA24
        DC24    APSME_TCLinkKeyInit

        RSEG BANK_RELAYS:CODE:REORDER:NOROOT(0)
`??APSME_TCLinkKeySync::?relay`:
        CODE
        LCALL   ?BDISPATCH
        DATA24
        DC24    APSME_TCLinkKeySync

        RSEG BANK_RELAYS:CODE:REORDER:NOROOT(0)
`??APSME_TCLinkKeyLoad::?relay`:
        CODE
        LCALL   ?BDISPATCH
        DATA24
        DC24    APSME_TCLinkKeyLoad

        RSEG BANK_RELAYS:CODE:REORDER:NOROOT(0)
`??APSME_IsDefaultTCLK::?relay`:
        CODE
        LCALL   ?BDISPATCH
        DATA24
        DC24    APSME_IsDefaultTCLK

        RSEG BANK_RELAYS:CODE:REORDER:NOROOT(0)
`??ZDSecMgrNwkKeyInit::?relay`:
        CODE
        LCALL   ?BDISPATCH
        DATA24
        DC24    ZDSecMgrNwkKeyInit

        RSEG BANK_RELAYS:CODE:REORDER:NOROOT(0)
`??ZDSecMgrReadKeyFromNv::?relay`:
        CODE
        LCALL   ?BDISPATCH
        DATA24
        DC24    ZDSecMgrReadKeyFromNv

        RSEG BANK_RELAYS:CODE:REORDER:NOROOT(0)
`??ZDSecMgrApsLinkKeyInit::?relay`:
        CODE
        LCALL   ?BDISPATCH
        DATA24
        DC24    ZDSecMgrApsLinkKeyInit

        RSEG BANK_RELAYS:CODE:REORDER:NOROOT(0)
`??ZDSecMgrInitNVKeyTables::?relay`:
        CODE
        LCALL   ?BDISPATCH
        DATA24
        DC24    ZDSecMgrInitNVKeyTables

        RSEG BANK_RELAYS:CODE:REORDER:NOROOT(0)
`??ZDSecMgrSaveApsLinkKey::?relay`:
        CODE
        LCALL   ?BDISPATCH
        DATA24
        DC24    ZDSecMgrSaveApsLinkKey

        RSEG BANK_RELAYS:CODE:REORDER:NOROOT(0)
`??ZDSecMgrSaveTCLinkKey::?relay`:
        CODE
        LCALL   ?BDISPATCH
        DATA24
        DC24    ZDSecMgrSaveTCLinkKey

        RSEG BANK_RELAYS:CODE:REORDER:NOROOT(0)
`??ZDSecMgrUpdateTCAddress::?relay`:
        CODE
        LCALL   ?BDISPATCH
        DATA24
        DC24    ZDSecMgrUpdateTCAddress

        RSEG BANK_RELAYS:CODE:REORDER:NOROOT(0)
`??ZDSecMgrClearNVKeyValues::?relay`:
        CODE
        LCALL   ?BDISPATCH
        DATA24
        DC24    ZDSecMgrClearNVKeyValues

        RSEG XDATA_ROM_C:CONST:REORDER:NOROOT(0)
        DATA8
`?<Constant {255, 255, 255, 255, 255, 255, 255,`:
        DB 255
        DB 255
        DB 255
        DB 255
        DB 255
        DB 255
        DB 255
        DB 255

        RSEG XDATA_ROM_C:CONST:REORDER:NOROOT(0)
        DATA32
__Constant_3e9:
        DD 1001

        RSEG XDATA_ROM_C:CONST:REORDER:NOROOT(0)
        DATA32
__Constant_b:
        DD 11

        RSEG XDATA_ROM_C:CONST:REORDER:NOROOT(0)
        DATA32
__Constant_1:
        DD 1

        RSEG XDATA_ROM_C:CONST:REORDER:NOROOT(0)
        DATA32
__Constant_a:
        DD 10

        END
// 3742 #endif // defined ( NV_RESTORE )
// 3743 
// 3744 /******************************************************************************
// 3745 ******************************************************************************/
// 
// 10 377 bytes in segment BANKED_CODE
//    414 bytes in segment BANK_RELAYS
//      2 bytes in segment CODE_C
//      6 bytes in segment XDATA_I
//      6 bytes in segment XDATA_ID
//     24 bytes in segment XDATA_ROM_C
//     86 bytes in segment XDATA_Z
// 
// 10 799 bytes of CODE  memory
//      8 bytes of CONST memory (+ 16 bytes shared)
//     92 bytes of XDATA memory
//
//Errors: none
//Warnings: none
