///////////////////////////////////////////////////////////////////////////////
//
// IAR C/C++ Compiler V9.30.1.3056 for 8051               26/Oct/2017  14:48:33
// Copyright 2004-2015 IAR Systems AB.
// Standalone license - IAR Embedded Workbench for 8051
//
//    Core               =  plain
//    Code model         =  banked
//    Data model         =  large
//    Calling convention =  xdata reentrant
//    Constant location  =  data_rom
//    Dptr setup         =  1,16
//                          
//    Source file        =  
//        C:\Texas Instruments\Z-Stack
//        3.0.0\Components\stack\zcl\zcl_green_power.c
//    Command line       =  
//        -f "C:\Texas Instruments\Z-Stack
//        3.0.0\Projects\zstack\HomeAutomation\SampleLight\CC2530DB\..\..\..\Tools\CC2530DB\f8wEndev.cfg"
//        (-DCPU32MHZ -DROOT=__near_func -DMAC_CFG_TX_DATA_MAX=3
//        -DMAC_CFG_TX_MAX=6 -DMAC_CFG_RX_MAX=3) -f "C:\Texas
//        Instruments\Z-Stack
//        3.0.0\Projects\zstack\HomeAutomation\SampleLight\CC2530DB\..\..\..\Tools\CC2530DB\f8wConfig.cfg"
//        (-DZIGBEEPRO -DSECURE=1 -DZG_SECURE_DYNAMIC=0 -DREFLECTOR
//        -DDEFAULT_CHANLIST=0x00000800 -DZDAPP_CONFIG_PAN_ID=0xFFFF
//        -DNWK_START_DELAY=100 -DEXTENDED_JOINING_RANDOM_MASK=0x007F
//        -DBEACON_REQUEST_DELAY=100 -DBEACON_REQ_DELAY_MASK=0x00FF
//        -DLINK_STATUS_JITTER_MASK=0x007F -DROUTE_EXPIRY_TIME=30
//        -DAPSC_ACK_WAIT_DURATION_POLLED=3000 -DNWK_INDIRECT_MSG_TIMEOUT=7
//        -DMAX_RREQ_ENTRIES=8 -DAPSC_MAX_FRAME_RETRIES=3
//        -DNWK_MAX_DATA_RETRIES=2 -DMAX_POLL_FAILURE_RETRIES=2 -DMAX_BCAST=9
//        -DAPS_MAX_GROUPS=16 -DMAX_RTG_ENTRIES=40 -DNWK_MAX_BINDING_ENTRIES=4
//        -DMAX_BINDING_CLUSTER_IDS=4 -DDEFAULT_KEY={0}
//        -DMAC_MAX_FRAME_SIZE=116 -DZDNWKMGR_MIN_TRANSMISSIONS=20
//        "-DCONST=const __code" -DGENERIC=__generic -DRFD_RCVC_ALWAYS_ON=FALSE
//        -DPOLL_RATE=1000 -DQUEUED_POLL_RATE=100 -DRESPONSE_POLL_RATE=100
//        -DREJOIN_POLL_RATE=440 -DREJOIN_BACKOFF=900000 -DREJOIN_SCAN=900000
//        -DENABLE_LED4_DISABLE_S1) -f "C:\Texas Instruments\Z-Stack
//        3.0.0\Projects\zstack\HomeAutomation\SampleLight\CC2530DB\..\..\..\Tools\CC2530DB\f8wZCL.cfg"
//        "C:\Texas Instruments\Z-Stack
//        3.0.0\Components\stack\zcl\zcl_green_power.c" -D BDB_REPORTING -D
//        SECURE=1 -D TC_LINKKEY_JOIN -D NV_INIT -D NV_RESTORE -D xPOWER_SAVING
//        -D NWK_AUTO_POLL -D xZTOOL_P1 -D xMT_TASK -D xMT_APP_FUNC -D
//        xMT_SYS_FUNC -D xMT_ZDO_FUNC -D xMT_ZDO_MGMT -D xMT_APP_CNF_FUNC -D
//        LCD_SUPPORTED=DEBUG -D MULTICAST_ENABLED=FALSE -D ZCL_READ -D
//        ZCL_WRITE -D ZCL_BASIC -D ZCL_IDENTIFY -D ZCL_ON_OFF -D ZCL_SCENES -D
//        ZCL_GROUPS -D xZCL_LEVEL_CTRL -lC "C:\Texas Instruments\Z-Stack
//        3.0.0\Projects\zstack\HomeAutomation\SampleLight\CC2530DB\EndDeviceEB\List"
//        -lA "C:\Texas Instruments\Z-Stack
//        3.0.0\Projects\zstack\HomeAutomation\SampleLight\CC2530DB\EndDeviceEB\List"
//        --diag_suppress Pe001,Pa010 -o "C:\Texas Instruments\Z-Stack
//        3.0.0\Projects\zstack\HomeAutomation\SampleLight\CC2530DB\EndDeviceEB\Obj"
//        -e --debug --core=plain --dptr=16,1 --data_model=large
//        --code_model=banked --calling_convention=xdata_reentrant
//        --place_constants=data_rom --nr_virtual_regs 16 -I "C:\Texas
//        Instruments\Z-Stack
//        3.0.0\Projects\zstack\HomeAutomation\SampleLight\CC2530DB\" -I
//        "C:\Texas Instruments\Z-Stack
//        3.0.0\Projects\zstack\HomeAutomation\SampleLight\CC2530DB\..\Source\"
//        -I "C:\Texas Instruments\Z-Stack
//        3.0.0\Projects\zstack\HomeAutomation\SampleLight\CC2530DB\..\..\Source\"
//        -I "C:\Texas Instruments\Z-Stack
//        3.0.0\Projects\zstack\HomeAutomation\SampleLight\CC2530DB\..\..\..\ZMain\TI2530DB\"
//        -I "C:\Texas Instruments\Z-Stack
//        3.0.0\Projects\zstack\HomeAutomation\SampleLight\CC2530DB\..\..\..\..\..\Components\hal\include\"
//        -I "C:\Texas Instruments\Z-Stack
//        3.0.0\Projects\zstack\HomeAutomation\SampleLight\CC2530DB\..\..\..\..\..\Components\hal\target\CC2530EB\"
//        -I "C:\Texas Instruments\Z-Stack
//        3.0.0\Projects\zstack\HomeAutomation\SampleLight\CC2530DB\..\..\..\..\..\Components\mac\include\"
//        -I "C:\Texas Instruments\Z-Stack
//        3.0.0\Projects\zstack\HomeAutomation\SampleLight\CC2530DB\..\..\..\..\..\Components\mac\high_level\"
//        -I "C:\Texas Instruments\Z-Stack
//        3.0.0\Projects\zstack\HomeAutomation\SampleLight\CC2530DB\..\..\..\..\..\Components\mac\low_level\srf04\"
//        -I "C:\Texas Instruments\Z-Stack
//        3.0.0\Projects\zstack\HomeAutomation\SampleLight\CC2530DB\..\..\..\..\..\Components\mac\low_level\srf04\single_chip\"
//        -I "C:\Texas Instruments\Z-Stack
//        3.0.0\Projects\zstack\HomeAutomation\SampleLight\CC2530DB\..\..\..\..\..\Components\mt\"
//        -I "C:\Texas Instruments\Z-Stack
//        3.0.0\Projects\zstack\HomeAutomation\SampleLight\CC2530DB\..\..\..\..\..\Components\osal\include\"
//        -I "C:\Texas Instruments\Z-Stack
//        3.0.0\Projects\zstack\HomeAutomation\SampleLight\CC2530DB\..\..\..\..\..\Components\services\saddr\"
//        -I "C:\Texas Instruments\Z-Stack
//        3.0.0\Projects\zstack\HomeAutomation\SampleLight\CC2530DB\..\..\..\..\..\Components\services\sdata\"
//        -I "C:\Texas Instruments\Z-Stack
//        3.0.0\Projects\zstack\HomeAutomation\SampleLight\CC2530DB\..\..\..\..\..\Components\stack\af\"
//        -I "C:\Texas Instruments\Z-Stack
//        3.0.0\Projects\zstack\HomeAutomation\SampleLight\CC2530DB\..\..\..\..\..\Components\stack\bdb\"
//        -I "C:\Texas Instruments\Z-Stack
//        3.0.0\Projects\zstack\HomeAutomation\SampleLight\CC2530DB\..\..\..\..\..\Components\stack\gp\"
//        -I "C:\Texas Instruments\Z-Stack
//        3.0.0\Projects\zstack\HomeAutomation\SampleLight\CC2530DB\..\..\..\..\..\Components\stack\nwk\"
//        -I "C:\Texas Instruments\Z-Stack
//        3.0.0\Projects\zstack\HomeAutomation\SampleLight\CC2530DB\..\..\..\..\..\Components\stack\sapi\"
//        -I "C:\Texas Instruments\Z-Stack
//        3.0.0\Projects\zstack\HomeAutomation\SampleLight\CC2530DB\..\..\..\..\..\Components\stack\sec\"
//        -I "C:\Texas Instruments\Z-Stack
//        3.0.0\Projects\zstack\HomeAutomation\SampleLight\CC2530DB\..\..\..\..\..\Components\stack\sys\"
//        -I "C:\Texas Instruments\Z-Stack
//        3.0.0\Projects\zstack\HomeAutomation\SampleLight\CC2530DB\..\..\..\..\..\Components\stack\zcl\"
//        -I "C:\Texas Instruments\Z-Stack
//        3.0.0\Projects\zstack\HomeAutomation\SampleLight\CC2530DB\..\..\..\..\..\Components\stack\zdo\"
//        -I "C:\Texas Instruments\Z-Stack
//        3.0.0\Projects\zstack\HomeAutomation\SampleLight\CC2530DB\..\..\..\..\..\Components\zmac\"
//        -I "C:\Texas Instruments\Z-Stack
//        3.0.0\Projects\zstack\HomeAutomation\SampleLight\CC2530DB\..\..\..\..\..\Components\zmac\f8w\"
//        -Ohz --require_prototypes
//    List file          =  
//        C:\Texas Instruments\Z-Stack
//        3.0.0\Projects\zstack\HomeAutomation\SampleLight\CC2530DB\EndDeviceEB\List\zcl_green_power.s51
//
///////////////////////////////////////////////////////////////////////////////

        NAME zcl_green_power

        RTMODEL "__SystemLibrary", "CLib"
        RTMODEL "__calling_convention", "xdata_reentrant"
        RTMODEL "__code_model", "banked"
        RTMODEL "__core", "plain"
        RTMODEL "__data_model", "large"
        RTMODEL "__dptr_size", "16"
        RTMODEL "__extended_stack", "disabled"
        RTMODEL "__location_for_constants", "data"
        RTMODEL "__number_of_dptrs", "1"
        RTMODEL "__rt_version", "1"

        RSEG DOVERLAY:DATA:NOROOT(0)
        RSEG IOVERLAY:IDATA:NOROOT(0)
        RSEG ISTACK:IDATA:NOROOT(0)
        RSEG PSTACK:XDATA:NOROOT(0)
        RSEG XSTACK:XDATA:NOROOT(0)

        EXTERN ?V0
        EXTERN ?V2
        EXTERN ?V3
        EXTERN ?V1
        EXTERN ?V4
        EXTERN ?V5
        EXTERN ?V6
        EXTERN ?V7
        EXTERN ?V8
        EXTERN ?V9
        EXTERN ?V10
        EXTERN ?V11
        EXTERN ?V12
        EXTERN ?V13
        EXTERN ?V14
        EXTERN ?ALLOC_XSTACK8
        EXTERN ?BANKED_ENTER_XDATA
        EXTERN ?BANKED_LEAVE_XDATA
        EXTERN ?BDISPATCH
        EXTERN ?BRET
        EXTERN ?CALL_IND
        EXTERN ?DEALLOC_XSTACK8
        EXTERN ?MOVE_LONG8_XDATA_XDATA
        EXTERN ?PUSH_XSTACK8_X_FOUR
        EXTERN ?PUSH_XSTACK_I_ONE
        EXTERN ?PUSH_XSTACK_I_THREE
        EXTERN ?PUSH_XSTACK_I_TWO
        EXTERN ?XSP
        EXTERN ?XSTACK_DISP0_8
        EXTERN ?XSTACK_DISP100_8
        EXTERN ?XSTACK_DISP101_8
        EXTERN ?XSTACK_DISP102_8
        EXTERN __INIT_XDATA_Z

        PUBLIC `??gp_AddCmdPayloadMsgNode::?relay`
        FUNCTION `??gp_AddCmdPayloadMsgNode::?relay`,0203H
        PUBLIC `??gp_AddNotificationMsgNode::?relay`
        FUNCTION `??gp_AddNotificationMsgNode::?relay`,0203H
        PUBLIC `??gp_CmdPayloadMsgClean::?relay`
        FUNCTION `??gp_CmdPayloadMsgClean::?relay`,0203H
        PUBLIC `??gp_CreateCmdPayloadMsgList::?relay`
        FUNCTION `??gp_CreateCmdPayloadMsgList::?relay`,0203H
        PUBLIC `??gp_CreateNotificationMsgList::?relay`
        FUNCTION `??gp_CreateNotificationMsgList::?relay`,0203H
        PUBLIC `??gp_GetHeadCmdPayloadMsg::?relay`
        FUNCTION `??gp_GetHeadCmdPayloadMsg::?relay`,0203H
        PUBLIC `??gp_GetHeadNotificationMsg::?relay`
        FUNCTION `??gp_GetHeadNotificationMsg::?relay`,0203H
        PUBLIC `??gp_GetPHeadCmdPayload::?relay`
        FUNCTION `??gp_GetPHeadCmdPayload::?relay`,0203H
        PUBLIC `??gp_GetPHeadNotification::?relay`
        FUNCTION `??gp_GetPHeadNotification::?relay`,0203H
        PUBLIC `??gp_NotificationMsgClean::?relay`
        FUNCTION `??gp_NotificationMsgClean::?relay`,0203H
        FUNCTION `??gp_addPairedSinksToMsgQueue::?relay`,0203H
        FUNCTION `??zclGp_HdlIncoming::?relay`,0203H
        FUNCTION `??zclGp_ProcessInGreenPowerClient::?relay`,0203H
        PUBLIC `??zclGp_RegisterCmdCallbacks::?relay`
        FUNCTION `??zclGp_RegisterCmdCallbacks::?relay`,0203H
        PUBLIC `??zclGp_SendGpCommissioningNotificationCommand:`
        FUNCTION `??zclGp_SendGpCommissioningNotificationCommand:`,0203H
        PUBLIC `??zclGp_SendGpNotificationCommand::?relay`
        FUNCTION `??zclGp_SendGpNotificationCommand::?relay`,0203H
        PUBLIC `??zclGp_SendGpProxyTableResponse::?relay`
        FUNCTION `??zclGp_SendGpProxyTableResponse::?relay`,0203H
        PUBWEAK __Constant_32
        PUBLIC gp_AddCmdPayloadMsgNode
        FUNCTION gp_AddCmdPayloadMsgNode,0a1203H
        ARGFRAME XSTACK, 23, STACK
        ARGFRAME IOVERLAY, 0, STATIC
        ARGFRAME DOVERLAY, 0, STATIC
        LOCFRAME ISTACK, 1, STACK
        LOCFRAME XSTACK, 14, STACK
        PUBLIC gp_AddNotificationMsgNode
        FUNCTION gp_AddNotificationMsgNode,0a1203H
        ARGFRAME XSTACK, 108, STACK
        ARGFRAME IOVERLAY, 0, STATIC
        ARGFRAME DOVERLAY, 0, STATIC
        LOCFRAME XSTACK, 12, STACK
        PUBLIC gp_CmdPayloadMsgClean
        FUNCTION gp_CmdPayloadMsgClean,021203H
        ARGFRAME XSTACK, 12, STACK
        ARGFRAME IOVERLAY, 0, STATIC
        ARGFRAME DOVERLAY, 0, STATIC
        LOCFRAME XSTACK, 9, STACK
        PUBLIC gp_CreateCmdPayloadMsgList
        FUNCTION gp_CreateCmdPayloadMsgList,0a1203H
        ARGFRAME XSTACK, 14, STACK
        ARGFRAME IOVERLAY, 0, STATIC
        ARGFRAME DOVERLAY, 0, STATIC
        LOCFRAME XSTACK, 10, STACK
        PUBLIC gp_CreateNotificationMsgList
        FUNCTION gp_CreateNotificationMsgList,0a1203H
        ARGFRAME XSTACK, 12, STACK
        ARGFRAME IOVERLAY, 0, STATIC
        ARGFRAME DOVERLAY, 0, STATIC
        LOCFRAME XSTACK, 10, STACK
        PUBLIC gp_GetHeadCmdPayloadMsg
        FUNCTION gp_GetHeadCmdPayloadMsg,0203H
        ARGFRAME XSTACK, 0, STACK
        LOCFRAME ISTACK, 2, STACK
        PUBLIC gp_GetHeadNotificationMsg
        FUNCTION gp_GetHeadNotificationMsg,0203H
        ARGFRAME XSTACK, 0, STACK
        LOCFRAME ISTACK, 2, STACK
        PUBLIC gp_GetPHeadCmdPayload
        FUNCTION gp_GetPHeadCmdPayload,0203H
        ARGFRAME XSTACK, 0, STACK
        PUBLIC gp_GetPHeadNotification
        FUNCTION gp_GetPHeadNotification,0203H
        ARGFRAME XSTACK, 0, STACK
        PUBLIC gp_NotificationMsgClean
        FUNCTION gp_NotificationMsgClean,0a1203H
        ARGFRAME XSTACK, 0, STACK
        LOCFRAME XSTACK, 12, STACK
        FUNCTION gp_addPairedSinksToMsgQueue,0a1203H
        ARGFRAME XSTACK, 23, STACK
        ARGFRAME IOVERLAY, 0, STATIC
        ARGFRAME DOVERLAY, 0, STATIC
        LOCFRAME XSTACK, 111, STACK
        FUNCTION zclGp_HdlIncoming,021603H
        ARGFRAME XSTACK, 0, STACK
        LOCFRAME XSTACK, 9, STACK
        FUNCTION zclGp_ProcessInGreenPowerClient,0a1203H
        ARGFRAME XSTACK, 9, STACK
        ARGFRAME IOVERLAY, 0, STATIC
        ARGFRAME DOVERLAY, 0, STATIC
        LOCFRAME XSTACK, 42, STACK
        PUBLIC zclGp_RegisterCmdCallbacks
        FUNCTION zclGp_RegisterCmdCallbacks,0a1203H
        ARGFRAME XSTACK, 0, STACK
        LOCFRAME ISTACK, 1, STACK
        LOCFRAME XSTACK, 14, STACK
        PUBLIC zclGp_SendGpCommissioningNotificationCommand
        FUNCTION zclGp_SendGpCommissioningNotificationCommand,0a1203H
        ARGFRAME XSTACK, 0, STACK
        LOCFRAME ISTACK, 1, STACK
        LOCFRAME XSTACK, 43, STACK
        PUBLIC zclGp_SendGpNotificationCommand
        FUNCTION zclGp_SendGpNotificationCommand,0a1203H
        ARGFRAME XSTACK, 0, STACK
        LOCFRAME ISTACK, 1, STACK
        LOCFRAME XSTACK, 27, STACK
        PUBLIC zclGp_SendGpProxyTableResponse
        FUNCTION zclGp_SendGpProxyTableResponse,0a1203H
        ARGFRAME XSTACK, 0, STACK
        LOCFRAME ISTACK, 1, STACK
        LOCFRAME XSTACK, 35, STACK
        
          CFI Names cfiNames0
          CFI StackFrame CFA_SP SP IDATA
          CFI StackFrame CFA_PSP16 PSP16 XDATA
          CFI StackFrame CFA_XSP16 XSP16 XDATA
          CFI StaticOverlayFrame CFA_IOVERLAY IOVERLAY
          CFI StaticOverlayFrame CFA_DOVERLAY DOVERLAY
          CFI Resource `PSW.CY`:1, `B.BR0`:1, `B.BR1`:1, `B.BR2`:1, `B.BR3`:1
          CFI Resource `B.BR4`:1, `B.BR5`:1, `B.BR6`:1, `B.BR7`:1, `VB.BR8`:1
          CFI Resource `VB.BR9`:1, `VB.BR10`:1, `VB.BR11`:1, `VB.BR12`:1
          CFI Resource `VB.BR13`:1, `VB.BR14`:1, `VB.BR15`:1, VB:8, B:8, A:8
          CFI Resource PSW:8, DPL0:8, DPH0:8, R0:8, R1:8, R2:8, R3:8, R4:8, R5:8
          CFI Resource R6:8, R7:8, V0:8, V1:8, V2:8, V3:8, V4:8, V5:8, V6:8, V7:8
          CFI Resource V8:8, V9:8, V10:8, V11:8, V12:8, V13:8, V14:8, V15:8, SP:8
          CFI Resource PSPH:8, PSPL:8, PSP16:16, XSPH:8, XSPL:8, XSP16:16
          CFI VirtualResource ?RET:24
          CFI Resource ?BRET_EXT:8
          CFI VirtualResource ?RET_HIGH:8, ?RET_LOW:8
          CFI ResourceParts PSP16 PSPH, PSPL
          CFI ResourceParts XSP16 XSPH, XSPL
          CFI ResourceParts ?RET ?BRET_EXT, ?RET_HIGH, ?RET_LOW
          CFI EndNames cfiNames0
        
          CFI Common cfiCommon0 Using cfiNames0
          CFI CodeAlign 1
          CFI DataAlign -1
          CFI ReturnAddress ?RET CODE
          CFI CFA_DOVERLAY Used
          CFI CFA_IOVERLAY Used
          CFI CFA_SP SP+-3
          CFI CFA_PSP16 PSP16+0
          CFI CFA_XSP16 XSP16+0
          CFI `PSW.CY` SameValue
          CFI `B.BR0` SameValue
          CFI `B.BR1` SameValue
          CFI `B.BR2` SameValue
          CFI `B.BR3` SameValue
          CFI `B.BR4` SameValue
          CFI `B.BR5` SameValue
          CFI `B.BR6` SameValue
          CFI `B.BR7` SameValue
          CFI `VB.BR8` SameValue
          CFI `VB.BR9` SameValue
          CFI `VB.BR10` SameValue
          CFI `VB.BR11` SameValue
          CFI `VB.BR12` SameValue
          CFI `VB.BR13` SameValue
          CFI `VB.BR14` SameValue
          CFI `VB.BR15` SameValue
          CFI VB SameValue
          CFI B Undefined
          CFI A Undefined
          CFI PSW SameValue
          CFI DPL0 SameValue
          CFI DPH0 SameValue
          CFI R0 Undefined
          CFI R1 Undefined
          CFI R2 Undefined
          CFI R3 Undefined
          CFI R4 Undefined
          CFI R5 Undefined
          CFI R6 SameValue
          CFI R7 SameValue
          CFI V0 SameValue
          CFI V1 SameValue
          CFI V2 SameValue
          CFI V3 SameValue
          CFI V4 SameValue
          CFI V5 SameValue
          CFI V6 SameValue
          CFI V7 SameValue
          CFI V8 SameValue
          CFI V9 SameValue
          CFI V10 SameValue
          CFI V11 SameValue
          CFI V12 SameValue
          CFI V13 SameValue
          CFI V14 SameValue
          CFI V15 SameValue
          CFI PSPH Undefined
          CFI PSPL Undefined
          CFI XSPH Undefined
          CFI XSPL Undefined
          CFI ?RET Concat
          CFI ?BRET_EXT Frame(CFA_SP, 3)
          CFI ?RET_HIGH Frame(CFA_SP, 2)
          CFI ?RET_LOW Frame(CFA_SP, 1)
          CFI EndCommon cfiCommon0
        
        
          CFI Common cfiCommon1 Using cfiNames0
          CFI CodeAlign 1
          CFI DataAlign -1
          CFI ReturnAddress ?RET CODE
          CFI CFA_DOVERLAY Used
          CFI CFA_IOVERLAY Used
          CFI CFA_SP SP+-2
          CFI CFA_PSP16 PSP16+0
          CFI CFA_XSP16 XSP16+0
          CFI `PSW.CY` SameValue
          CFI `B.BR0` SameValue
          CFI `B.BR1` SameValue
          CFI `B.BR2` SameValue
          CFI `B.BR3` SameValue
          CFI `B.BR4` SameValue
          CFI `B.BR5` SameValue
          CFI `B.BR6` SameValue
          CFI `B.BR7` SameValue
          CFI `VB.BR8` SameValue
          CFI `VB.BR9` SameValue
          CFI `VB.BR10` SameValue
          CFI `VB.BR11` SameValue
          CFI `VB.BR12` SameValue
          CFI `VB.BR13` SameValue
          CFI `VB.BR14` SameValue
          CFI `VB.BR15` SameValue
          CFI VB SameValue
          CFI B SameValue
          CFI A SameValue
          CFI PSW SameValue
          CFI DPL0 SameValue
          CFI DPH0 SameValue
          CFI R0 SameValue
          CFI R1 SameValue
          CFI R2 SameValue
          CFI R3 SameValue
          CFI R4 SameValue
          CFI R5 SameValue
          CFI R6 SameValue
          CFI R7 SameValue
          CFI V0 SameValue
          CFI V1 SameValue
          CFI V2 SameValue
          CFI V3 SameValue
          CFI V4 SameValue
          CFI V5 SameValue
          CFI V6 SameValue
          CFI V7 SameValue
          CFI V8 SameValue
          CFI V9 SameValue
          CFI V10 SameValue
          CFI V11 SameValue
          CFI V12 SameValue
          CFI V13 SameValue
          CFI V14 SameValue
          CFI V15 SameValue
          CFI PSPH Undefined
          CFI PSPL Undefined
          CFI XSPH Undefined
          CFI XSPL Undefined
          CFI ?RET Concat
          CFI ?BRET_EXT SameValue
          CFI ?RET_HIGH Frame(CFA_SP, 2)
          CFI ?RET_LOW Frame(CFA_SP, 1)
          CFI EndCommon cfiCommon1
        
bdb_getZCLFrameCounter SYMBOL "bdb_getZCLFrameCounter"
`??bdb_getZCLFrameCounter::?relay` SYMBOL "?relay", bdb_getZCLFrameCounter
gp_getProxyTableByIndex SYMBOL "gp_getProxyTableByIndex"
`??gp_getProxyTableByIndex::?relay` SYMBOL "?relay", gp_getProxyTableByIndex
osal_build_uint16   SYMBOL "osal_build_uint16"
`??osal_build_uint16::?relay` SYMBOL "?relay", osal_build_uint16
osal_mem_alloc      SYMBOL "osal_mem_alloc"
`??osal_mem_alloc::?relay` SYMBOL "?relay", osal_mem_alloc
osal_mem_free       SYMBOL "osal_mem_free"
`??osal_mem_free::?relay` SYMBOL "?relay", osal_mem_free
osal_memcmp         SYMBOL "osal_memcmp"
`??osal_memcmp::?relay` SYMBOL "?relay", osal_memcmp
osal_memcpy         SYMBOL "osal_memcpy"
`??osal_memcpy::?relay` SYMBOL "?relay", osal_memcpy
osal_start_timerEx  SYMBOL "osal_start_timerEx"
`??osal_start_timerEx::?relay` SYMBOL "?relay", osal_start_timerEx
zcl_SendCommand     SYMBOL "zcl_SendCommand"
`??zcl_SendCommand::?relay` SYMBOL "?relay", zcl_SendCommand
zcl_registerPlugin  SYMBOL "zcl_registerPlugin"
`??zcl_registerPlugin::?relay` SYMBOL "?relay", zcl_registerPlugin
gp_AddCmdPayloadMsgNode SYMBOL "gp_AddCmdPayloadMsgNode"
`??gp_AddCmdPayloadMsgNode::?relay` SYMBOL "?relay", gp_AddCmdPayloadMsgNode
gp_AddNotificationMsgNode SYMBOL "gp_AddNotificationMsgNode"
`??gp_AddNotificationMsgNode::?relay` SYMBOL "?relay", gp_AddNotificationMsgNode
gp_CmdPayloadMsgClean SYMBOL "gp_CmdPayloadMsgClean"
`??gp_CmdPayloadMsgClean::?relay` SYMBOL "?relay", gp_CmdPayloadMsgClean
gp_CreateCmdPayloadMsgList SYMBOL "gp_CreateCmdPayloadMsgList"
`??gp_CreateCmdPayloadMsgList::?relay` SYMBOL "?relay", gp_CreateCmdPayloadMsgList
gp_CreateNotificationMsgList SYMBOL "gp_CreateNotificationMsgList"
`??gp_CreateNotificationMsgList::?relay` SYMBOL "?relay", gp_CreateNotificationMsgList
gp_GetHeadCmdPayloadMsg SYMBOL "gp_GetHeadCmdPayloadMsg"
`??gp_GetHeadCmdPayloadMsg::?relay` SYMBOL "?relay", gp_GetHeadCmdPayloadMsg
gp_GetHeadNotificationMsg SYMBOL "gp_GetHeadNotificationMsg"
`??gp_GetHeadNotificationMsg::?relay` SYMBOL "?relay", gp_GetHeadNotificationMsg
gp_GetPHeadCmdPayload SYMBOL "gp_GetPHeadCmdPayload"
`??gp_GetPHeadCmdPayload::?relay` SYMBOL "?relay", gp_GetPHeadCmdPayload
gp_GetPHeadNotification SYMBOL "gp_GetPHeadNotification"
`??gp_GetPHeadNotification::?relay` SYMBOL "?relay", gp_GetPHeadNotification
gp_NotificationMsgClean SYMBOL "gp_NotificationMsgClean"
`??gp_NotificationMsgClean::?relay` SYMBOL "?relay", gp_NotificationMsgClean
zclGp_RegisterCmdCallbacks SYMBOL "zclGp_RegisterCmdCallbacks"
`??zclGp_RegisterCmdCallbacks::?relay` SYMBOL "?relay", zclGp_RegisterCmdCallbacks
zclGp_SendGpCommissioningNotificationCommand SYMBOL "zclGp_SendGpCommissioningNotificationCommand"
`??zclGp_SendGpCommissioningNotificationCommand:` SYMBOL "?relay", zclGp_SendGpCommissioningNotificationCommand
zclGp_SendGpNotificationCommand SYMBOL "zclGp_SendGpNotificationCommand"
`??zclGp_SendGpNotificationCommand::?relay` SYMBOL "?relay", zclGp_SendGpNotificationCommand
zclGp_SendGpProxyTableResponse SYMBOL "zclGp_SendGpProxyTableResponse"
`??zclGp_SendGpProxyTableResponse::?relay` SYMBOL "?relay", zclGp_SendGpProxyTableResponse

        EXTERN `??bdb_getZCLFrameCounter::?relay`
        FUNCTION `??bdb_getZCLFrameCounter::?relay`,00H
        EXTERN `??gp_getProxyTableByIndex::?relay`
        FUNCTION `??gp_getProxyTableByIndex::?relay`,00H
        EXTERN `??osal_build_uint16::?relay`
        FUNCTION `??osal_build_uint16::?relay`,00H
        EXTERN `??osal_mem_alloc::?relay`
        FUNCTION `??osal_mem_alloc::?relay`,00H
        EXTERN `??osal_mem_free::?relay`
        FUNCTION `??osal_mem_free::?relay`,00H
        EXTERN `??osal_memcmp::?relay`
        FUNCTION `??osal_memcmp::?relay`,00H
        EXTERN `??osal_memcpy::?relay`
        FUNCTION `??osal_memcpy::?relay`,00H
        EXTERN `??osal_start_timerEx::?relay`
        FUNCTION `??osal_start_timerEx::?relay`,00H
        EXTERN `??zcl_SendCommand::?relay`
        FUNCTION `??zcl_SendCommand::?relay`,00H
        EXTERN `??zcl_registerPlugin::?relay`
        FUNCTION `??zcl_registerPlugin::?relay`,00H
        EXTERN _NIB
        EXTERN bdb_getZCLFrameCounter
        FUNCTION bdb_getZCLFrameCounter,0202H
        ARGFRAME ISTACK, 0, STACK
        ARGFRAME PSTACK, 0, STACK
        ARGFRAME XSTACK, 32, STACK
        ARGFRAME IOVERLAY, 0, STATIC
        ARGFRAME DOVERLAY, 0, STATIC
        EXTERN gp_commissionerAddress
        EXTERN gp_getProxyTableByIndex
        FUNCTION gp_getProxyTableByIndex,0202H
        ARGFRAME ISTACK, 0, STACK
        ARGFRAME PSTACK, 0, STACK
        ARGFRAME XSTACK, 108, STACK
        ARGFRAME IOVERLAY, 0, STATIC
        ARGFRAME DOVERLAY, 0, STATIC
        EXTERN osal_build_uint16
        FUNCTION osal_build_uint16,0202H
        ARGFRAME ISTACK, 0, STACK
        ARGFRAME PSTACK, 0, STACK
        ARGFRAME XSTACK, 39, STACK
        ARGFRAME IOVERLAY, 0, STATIC
        ARGFRAME DOVERLAY, 0, STATIC
        EXTERN osal_mem_alloc
        FUNCTION osal_mem_alloc,0202H
        ARGFRAME ISTACK, 0, STACK
        ARGFRAME PSTACK, 0, STACK
        ARGFRAME XSTACK, 39, STACK
        ARGFRAME IOVERLAY, 0, STATIC
        ARGFRAME DOVERLAY, 0, STATIC
        EXTERN osal_mem_free
        FUNCTION osal_mem_free,0202H
        ARGFRAME ISTACK, 0, STACK
        ARGFRAME PSTACK, 0, STACK
        ARGFRAME XSTACK, 32, STACK
        ARGFRAME IOVERLAY, 0, STATIC
        ARGFRAME DOVERLAY, 0, STATIC
        EXTERN osal_memcmp
        FUNCTION osal_memcmp,0202H
        ARGFRAME ISTACK, 0, STACK
        ARGFRAME PSTACK, 0, STACK
        ARGFRAME XSTACK, 111, STACK
        ARGFRAME IOVERLAY, 0, STATIC
        ARGFRAME DOVERLAY, 0, STATIC
        EXTERN osal_memcpy
        FUNCTION osal_memcpy,0202H
        ARGFRAME ISTACK, 0, STACK
        ARGFRAME PSTACK, 0, STACK
        ARGFRAME XSTACK, 111, STACK
        ARGFRAME IOVERLAY, 0, STATIC
        ARGFRAME DOVERLAY, 0, STATIC
        EXTERN osal_start_timerEx
        FUNCTION osal_start_timerEx,0202H
        ARGFRAME ISTACK, 0, STACK
        ARGFRAME PSTACK, 0, STACK
        ARGFRAME XSTACK, 27, STACK
        ARGFRAME IOVERLAY, 0, STATIC
        ARGFRAME DOVERLAY, 0, STATIC
        EXTERN zcl_InSeqNum
        EXTERN zcl_SendCommand
        FUNCTION zcl_SendCommand,0202H
        ARGFRAME ISTACK, 0, STACK
        ARGFRAME PSTACK, 0, STACK
        ARGFRAME XSTACK, 43, STACK
        ARGFRAME IOVERLAY, 0, STATIC
        ARGFRAME DOVERLAY, 0, STATIC
        EXTERN zcl_TaskID
        EXTERN zcl_registerPlugin
        FUNCTION zcl_registerPlugin,0202H
        ARGFRAME ISTACK, 0, STACK
        ARGFRAME PSTACK, 0, STACK
        ARGFRAME XSTACK, 14, STACK
        ARGFRAME IOVERLAY, 0, STATIC
        ARGFRAME DOVERLAY, 0, STATIC

// C:\Texas Instruments\Z-Stack 3.0.0\Components\stack\zcl\zcl_green_power.c
//    1 /**************************************************************************************************
//    2   Filename:       zcl_green_power.c
//    3   Revised:        $Date: 2015-09-10 09:36:48 -0700 (Thu, 10 Sep 2015) $
//    4   Revision:       $Revision: 44493 $
//    5 
//    6   Description:    Zigbee Cluster Library - General.  This application receives all
//    7                   ZCL messages and initially parses them before passing to application.
//    8 
//    9 
//   10   Copyright 2006-2015 Texas Instruments Incorporated. All rights reserved.
//   11 
//   12   IMPORTANT: Your use of this Software is limited to those specific rights
//   13   granted under the terms of a software license agreement between the user
//   14   who downloaded the software, his/her employer (which must be your employer)
//   15   and Texas Instruments Incorporated (the "License"). You may not use this
//   16   Software unless you agree to abide by the terms of the License. The License
//   17   limits your use, and you acknowledge, that the Software may not be modified,
//   18   copied or distributed unless embedded on a Texas Instruments microcontroller
//   19   or used solely and exclusively in conjunction with a Texas Instruments radio
//   20   frequency transceiver, which is integrated into your product. Other than for
//   21   the foregoing purpose, you may not use, reproduce, copy, prepare derivative
//   22   works of, modify, distribute, perform, display or sell this Software and/or
//   23   its documentation for any purpose.
//   24 
//   25   YOU FURTHER ACKNOWLEDGE AND AGREE THAT THE SOFTWARE AND DOCUMENTATION ARE
//   26   PROVIDED "AS IS" WITHOUT WARRANTY OF ANY KIND, EITHER EXPRESS OR IMPLIED,
//   27   INCLUDING WITHOUT LIMITATION, ANY WARRANTY OF MERCHANTABILITY, TITLE,
//   28   NON-INFRINGEMENT AND FITNESS FOR A PARTICULAR PURPOSE. IN NO EVENT SHALL
//   29   TEXAS INSTRUMENTS OR ITS LICENSORS BE LIABLE OR OBLIGATED UNDER CONTRACT,
//   30   NEGLIGENCE, STRICT LIABILITY, CONTRIBUTION, BREACH OF WARRANTY, OR OTHER
//   31   LEGAL EQUITABLE THEORY ANY DIRECT OR INDIRECT DAMAGES OR EXPENSES
//   32   INCLUDING BUT NOT LIMITED TO ANY INCIDENTAL, SPECIAL, INDIRECT, PUNITIVE
//   33   OR CONSEQUENTIAL DAMAGES, LOST PROFITS OR LOST DATA, COST OF PROCUREMENT
//   34   OF SUBSTITUTE GOODS, TECHNOLOGY, SERVICES, OR ANY CLAIMS BY THIRD PARTIES
//   35   (INCLUDING BUT NOT LIMITED TO ANY DEFENSE THEREOF), OR OTHER SIMILAR COSTS.
//   36 
//   37   Should you have any questions regarding your right to use this Software,
//   38   contact Texas Instruments Incorporated at www.TI.com.
//   39 **************************************************************************************************/
//   40 
//   41 
//   42 
//   43 /*********************************************************************
//   44  * INCLUDES
//   45  */
//   46 
//   47 #include "ZGlobals.h"
//   48 //GP_UPDATE  
//   49 
//   50 #include "ZComDef.h"
//   51 #include "zcl.h"
//   52 #include "zcl_green_power.h"
//   53 #include "stub_aps.h"
//   54 #include "gp_common.h"
//   55 #include "bdb_interface.h"
//   56    
//   57 
//   58 /*********************************************************************
//   59  * MACROS
//   60  */
//   61 
//   62 /*********************************************************************
//   63  * CONSTANTS
//   64  */
//   65 
//   66 /*********************************************************************
//   67  * TYPEDEFS
//   68  */
//   69 
//   70 typedef struct zclGpCBRec
//   71 {
//   72   struct zclGpCBRec        *next;
//   73   uint8                     endpoint; // Used to link it into the endpoint descriptor
//   74   zclGp_AppCallbacks_t     *CBs;      // Pointer to Callback function
//   75 } zclGpCBRec_t;
//   76 
//   77 
//   78 /*********************************************************************
//   79  * GLOBAL VARIABLES
//   80  */
//   81 
//   82 /*********************************************************************
//   83  * GLOBAL FUNCTIONS
//   84  */
//   85 
//   86 /*********************************************************************
//   87  * LOCAL VARIABLES
//   88  */

        RSEG XDATA_Z:XDATA:NOROOT(0)
        DATA16
//   89 static zclGpCBRec_t *zclGpCBs = (zclGpCBRec_t *)NULL;
zclGpCBs:
        DS 2
        REQUIRE __INIT_XDATA_Z

        RSEG XDATA_Z:XDATA:NOROOT(0)
        DATA8
//   90 static uint8 zclGpPluginRegisted = FALSE;
zclGpPluginRegisted:
        DS 1
        REQUIRE __INIT_XDATA_Z

        RSEG XDATA_Z:XDATA:NOROOT(0)
        DATA16
//   91 static gpNotificationMsg_t *pNotificationMsgHead = NULL;
pNotificationMsgHead:
        DS 2
        REQUIRE __INIT_XDATA_Z

        RSEG XDATA_Z:XDATA:NOROOT(0)
        DATA16
//   92 static gpCmdPayloadMsg_t *pCmdPayloadMsgHead = NULL;
pCmdPayloadMsgHead:
        DS 2
        REQUIRE __INIT_XDATA_Z
//   93 
//   94 //static zclGenSceneItem_t *zclGenSceneTable = (zclGenSceneItem_t *)NULL;
//   95 
//   96 
//   97 /*********************************************************************
//   98  * LOCAL FUNCTIONS
//   99  */
//  100 static ZStatus_t zclGp_HdlIncoming( zclIncoming_t *pInMsg );
//  101 static ZStatus_t zclGp_HdlInSpecificCommands( zclIncoming_t *pInMsg );
//  102 static zclGp_AppCallbacks_t *zclGp_FindCallbacks( uint8 endpoint );
//  103 static uint8 gp_addPairedSinksToMsgQueue( uint8 appId, uint8 *pId, gpCmdPayloadMsg_t* pMsg );
//  104 
//  105 static ZStatus_t zclGp_ProcessInGreenPowerClient( zclIncoming_t *pInMsg, zclGp_AppCallbacks_t *pCBs );
//  106 
//  107 
//  108 /*********************************************************************
//  109  * @fn      zclGp_RegisterCmdCallbacks
//  110  *
//  111  * @brief   Register an applications command callbacks
//  112  *
//  113  * @param   endpoint - application's endpoint
//  114  * @param   callbacks - pointer to the callback record.
//  115  *
//  116  * @return  ZMemError if not able to allocate
//  117  */

        RSEG BANKED_CODE:CODE:NOROOT(0)
//  118 ZStatus_t zclGp_RegisterCmdCallbacks( uint8 endpoint, zclGp_AppCallbacks_t *callbacks )
zclGp_RegisterCmdCallbacks:
          CFI Block cfiBlock0 Using cfiCommon0
          CFI Function zclGp_RegisterCmdCallbacks
        CODE
//  119 {
        FUNCALL zclGp_RegisterCmdCallbacks, zcl_registerPlugin
        LOCFRAME ISTACK, 0, STACK
        LOCFRAME PSTACK, 0, STACK
        LOCFRAME XSTACK, 14, STACK
        LOCFRAME IOVERLAY, 0, STATIC
        LOCFRAME DOVERLAY, 0, STATIC
        ARGFRAME ISTACK, 0, STACK
        ARGFRAME PSTACK, 0, STACK
        ARGFRAME XSTACK, 14, STACK
        ARGFRAME IOVERLAY, 0, STATIC
        ARGFRAME DOVERLAY, 0, STATIC
        FUNCALL zclGp_RegisterCmdCallbacks, osal_mem_alloc
        LOCFRAME ISTACK, 0, STACK
        LOCFRAME PSTACK, 0, STACK
        LOCFRAME XSTACK, 12, STACK
        LOCFRAME IOVERLAY, 0, STATIC
        LOCFRAME DOVERLAY, 0, STATIC
        ARGFRAME ISTACK, 0, STACK
        ARGFRAME PSTACK, 0, STACK
        ARGFRAME XSTACK, 12, STACK
        ARGFRAME IOVERLAY, 0, STATIC
        ARGFRAME DOVERLAY, 0, STATIC
        REQUIRE ?V0
        REQUIRE ?V2
        REQUIRE ?V3
        MOV     A,#-0xc
        LCALL   ?BANKED_ENTER_XDATA
          CFI DPH0 load(1, XDATA, add(CFA_XSP16, literal(-1)))
          CFI DPL0 load(1, XDATA, add(CFA_XSP16, literal(-2)))
          CFI ?BRET_EXT load(1, XDATA, add(CFA_XSP16, literal(-3)))
          CFI ?RET_HIGH load(1, XDATA, add(CFA_XSP16, literal(-4)))
          CFI ?RET_LOW load(1, XDATA, add(CFA_XSP16, literal(-5)))
          CFI R7 load(1, XDATA, add(CFA_XSP16, literal(-6)))
          CFI V3 load(1, XDATA, add(CFA_XSP16, literal(-7)))
          CFI V2 load(1, XDATA, add(CFA_XSP16, literal(-8)))
          CFI V1 load(1, XDATA, add(CFA_XSP16, literal(-9)))
          CFI V0 load(1, XDATA, add(CFA_XSP16, literal(-10)))
          CFI VB load(1, XDATA, add(CFA_XSP16, literal(-11)))
          CFI R6 load(1, XDATA, add(CFA_XSP16, literal(-12)))
          CFI CFA_SP SP+0
          CFI CFA_XSP16 add(XSP16, 12)
        ; Saved register size: 12
        ; Auto size: 0
        MOV     ?V0,R1
        MOV     A,R2
        MOV     R6,A
        MOV     A,R3
        MOV     R7,A
//  120   zclGpCBRec_t *pNewItem;
//  121   zclGpCBRec_t *pLoop;
//  122 
//  123   // Register as a ZCL Plugin
//  124   if ( zclGpPluginRegisted == FALSE )
        MOV     DPTR,#zclGpPluginRegisted
        MOVX    A,@DPTR
        JNZ     ??zclGp_RegisterCmdCallbacks_0
//  125   {
//  126     zcl_registerPlugin( ZCL_CLUSTER_ID_GREEN_POWER,
//  127                         ZCL_CLUSTER_ID_GREEN_POWER,
//  128                         zclGp_HdlIncoming );
        ; Setup parameters for call to function zcl_registerPlugin
        MOV     ?V2,#`??zclGp_HdlIncoming::?relay` & 0xff
        MOV     ?V3,#(`??zclGp_HdlIncoming::?relay` >> 8) & 0xff
        MOV     R0,#?V2
        LCALL   ?PUSH_XSTACK_I_TWO
          CFI CFA_XSP16 add(XSP16, 14)
        MOV     R4,#0x21
        MOV     R5,#0x0
        MOV     R2,#0x21
        MOV     R3,#0x0
        LCALL   `??zcl_registerPlugin::?relay`; Banked call to: zcl_registerPlugin
        MOV     A,#0x2
        LCALL   ?DEALLOC_XSTACK8
          CFI CFA_XSP16 add(XSP16, 12)
//  129 
//  130     zclGpPluginRegisted = TRUE;
        MOV     DPTR,#zclGpPluginRegisted
        MOV     A,#0x1
        MOVX    @DPTR,A
//  131   }
//  132 
//  133   // Fill in the new profile list
//  134   pNewItem = zcl_mem_alloc( sizeof( zclGpCBRec_t ) );
??zclGp_RegisterCmdCallbacks_0:
        ; Setup parameters for call to function osal_mem_alloc
        MOV     R2,#0x5
        MOV     R3,#0x0
        LCALL   `??osal_mem_alloc::?relay`; Banked call to: osal_mem_alloc
        MOV     ?V2,R2
        MOV     ?V3,R3
        MOV     R0,?V2
        MOV     R1,?V3
//  135   if ( pNewItem == NULL )
        MOV     A,R0
        ORL     A,R1
        JNZ     ??zclGp_RegisterCmdCallbacks_1
//  136     return (ZMemError);
        MOV     R1,#0x10
        SJMP    ??zclGp_RegisterCmdCallbacks_2
//  137 
//  138   pNewItem->next = (zclGpCBRec_t *)NULL;
??zclGp_RegisterCmdCallbacks_1:
        MOV     DPL,R0
        MOV     DPH,R1
        CLR     A
        MOVX    @DPTR,A
        INC     DPTR
        MOVX    @DPTR,A
//  139   pNewItem->endpoint = endpoint;
        MOV     DPL,R0
        MOV     DPH,R1
        INC     DPTR
        INC     DPTR
        MOV     A,?V0
        MOVX    @DPTR,A
//  140   pNewItem->CBs = callbacks;
        MOV     DPL,R0
        MOV     DPH,R1
        INC     DPTR
        INC     DPTR
        INC     DPTR
        MOV     A,R6
        MOVX    @DPTR,A
        INC     DPTR
        MOV     A,R7
        MOVX    @DPTR,A
//  141 
//  142   // Find spot in list
//  143   if (  zclGpCBs == NULL )
        MOV     DPTR,#zclGpCBs
        LCALL   ??Subroutine36_0 & 0xFFFF
??CrossCallReturnLabel_63:
        MOV     DPTR,#zclGpCBs
        JZ      ??zclGp_RegisterCmdCallbacks_3
//  144   {
//  145     zclGpCBs = pNewItem;
//  146   }
//  147   else
//  148   {
//  149     // Look for end of list
//  150     pLoop = zclGpCBs;
        MOVX    A,@DPTR
        MOV     R4,A
        INC     DPTR
        MOVX    A,@DPTR
        SJMP    ??zclGp_RegisterCmdCallbacks_4
//  151     while ( pLoop->next != NULL )
//  152       pLoop = pLoop->next;
??zclGp_RegisterCmdCallbacks_5:
        MOV     A,R2
        MOV     R4,A
        MOV     A,R3
??zclGp_RegisterCmdCallbacks_4:
        MOV     R5,A
        MOV     DPL,R4
        MOV     DPH,R5
        LCALL   ??Subroutine36_0 & 0xFFFF
??CrossCallReturnLabel_64:
        JNZ     ??zclGp_RegisterCmdCallbacks_5
//  153 
//  154     // Put new item at end of list
//  155     pLoop->next = pNewItem;
        MOV     DPL,R4
        MOV     DPH,R5
//  156   }
??zclGp_RegisterCmdCallbacks_3:
        LCALL   ??Subroutine35_0 & 0xFFFF
//  157 
//  158   return ( ZSuccess );
??CrossCallReturnLabel_51:
        MOV     R1,#0x0
??zclGp_RegisterCmdCallbacks_2:
          CFI EndBlock cfiBlock0
        REQUIRE ?Subroutine0
        ; // Fall through to label ?Subroutine0
//  159 }

        RSEG BANKED_CODE:CODE:NOROOT(0)
?Subroutine0:
          CFI Block cfiBlock1 Using cfiCommon0
          CFI NoFunction
          CFI CFA_SP SP+0
          CFI CFA_XSP16 add(XSP16, 12)
          CFI VB load(1, XDATA, add(CFA_XSP16, literal(-11)))
          CFI DPL0 load(1, XDATA, add(CFA_XSP16, literal(-2)))
          CFI DPH0 load(1, XDATA, add(CFA_XSP16, literal(-1)))
          CFI R6 load(1, XDATA, add(CFA_XSP16, literal(-12)))
          CFI R7 load(1, XDATA, add(CFA_XSP16, literal(-6)))
          CFI V0 load(1, XDATA, add(CFA_XSP16, literal(-10)))
          CFI V1 load(1, XDATA, add(CFA_XSP16, literal(-9)))
          CFI V2 load(1, XDATA, add(CFA_XSP16, literal(-8)))
          CFI V3 load(1, XDATA, add(CFA_XSP16, literal(-7)))
          CFI ?BRET_EXT load(1, XDATA, add(CFA_XSP16, literal(-3)))
          CFI ?RET_HIGH load(1, XDATA, add(CFA_XSP16, literal(-4)))
          CFI ?RET_LOW load(1, XDATA, add(CFA_XSP16, literal(-5)))
        MOV     R7,#0x4
        LJMP    ?BANKED_LEAVE_XDATA
          CFI EndBlock cfiBlock1
//  160 
//  161 /*********************************************************************
//  162  * @fn      zclGp_FindCallbacks
//  163  *
//  164  * @brief   Find the callbacks for an endpoint
//  165  *
//  166  * @param   endpoint - endpoint to find the application callbacks for
//  167  *
//  168  * @return  pointer to the callbacks
//  169  */
//  170 static zclGp_AppCallbacks_t *zclGp_FindCallbacks( uint8 endpoint )
//  171 {
//  172   zclGpCBRec_t *pCBs;
//  173 
//  174   pCBs = zclGpCBs;
//  175   while ( pCBs )
//  176   {
//  177     if ( pCBs->endpoint == endpoint )
//  178       return ( pCBs->CBs );
//  179     pCBs = pCBs->next;
//  180   }
//  181   return ( (zclGp_AppCallbacks_t *)NULL );
//  182 }
//  183 
//  184 /*********************************************************************
//  185  * @fn      zclGp_HdlIncoming
//  186  *
//  187  * @brief   Callback from ZCL to process incoming Commands specific
//  188  *          to this cluster library or Profile commands for attributes
//  189  *          that aren't in the attribute list
//  190  *
//  191  *
//  192  * @param   pInMsg - pointer to the incoming message
//  193  *
//  194  * @return  ZStatus_t
//  195  */

        RSEG BANKED_CODE:CODE:NOROOT(0)
//  196 static ZStatus_t zclGp_HdlIncoming( zclIncoming_t *pInMsg )
zclGp_HdlIncoming:
          CFI Block cfiBlock2 Using cfiCommon0
          CFI Function zclGp_HdlIncoming
        CODE
//  197 {
        FUNCALL zclGp_HdlIncoming, zclGp_ProcessInGreenPowerClient
        LOCFRAME ISTACK, 0, STACK
        LOCFRAME PSTACK, 0, STACK
        LOCFRAME XSTACK, 9, STACK
        LOCFRAME IOVERLAY, 0, STATIC
        LOCFRAME DOVERLAY, 0, STATIC
        ARGFRAME ISTACK, 0, STACK
        ARGFRAME PSTACK, 0, STACK
        ARGFRAME XSTACK, 9, STACK
        ARGFRAME IOVERLAY, 0, STATIC
        ARGFRAME DOVERLAY, 0, STATIC
        MOV     A,#-0x9
        LCALL   ?BANKED_ENTER_XDATA
          CFI DPH0 load(1, XDATA, add(CFA_XSP16, literal(-1)))
          CFI DPL0 load(1, XDATA, add(CFA_XSP16, literal(-2)))
          CFI ?BRET_EXT load(1, XDATA, add(CFA_XSP16, literal(-3)))
          CFI ?RET_HIGH load(1, XDATA, add(CFA_XSP16, literal(-4)))
          CFI ?RET_LOW load(1, XDATA, add(CFA_XSP16, literal(-5)))
          CFI R7 load(1, XDATA, add(CFA_XSP16, literal(-6)))
          CFI V0 load(1, XDATA, add(CFA_XSP16, literal(-7)))
          CFI VB load(1, XDATA, add(CFA_XSP16, literal(-8)))
          CFI R6 load(1, XDATA, add(CFA_XSP16, literal(-9)))
          CFI CFA_SP SP+0
          CFI CFA_XSP16 add(XSP16, 9)
        ; Saved register size: 9
        ; Auto size: 0
//  198   ZStatus_t stat = ZSuccess;
//  199 
//  200 #if defined ( INTER_PAN )
//  201   if ( StubAPS_InterPan( pInMsg->msg->srcAddr.panId, pInMsg->msg->srcAddr.endPoint ) )
//  202     return ( stat ); // Cluster not supported thru Inter-PAN
//  203 #endif
//  204   if ( zcl_ClusterCmd( pInMsg->hdr.fc.type ) )
        MOV     DPL,R2
        MOV     DPH,R3
        INC     DPTR
        INC     DPTR
        MOVX    A,@DPTR
        MOV     R0,A
        ANL     A,#0x3
        XRL     A,#0x1
        JNZ     ??zclGp_HdlIncoming_0
//  205   {
//  206     // Is this a manufacturer specific command?
//  207     if ( pInMsg->hdr.fc.manuSpecific == 0 )
        MOV     A,R0
        ANL     A,#0x4
        JNZ     ??zclGp_HdlIncoming_0
//  208     {
//  209       stat = zclGp_HdlInSpecificCommands( pInMsg );
        MOV     DPL,R2
        MOV     DPH,R3
        LCALL   ??Subroutine40_0 & 0xFFFF
//  210     }
//  211     else
//  212     {
//  213       // We don't support any manufacturer specific command.
//  214       stat = ZFailure;
//  215     }
//  216   }
??CrossCallReturnLabel_84:
        MOV     A,R0
        MOV     R6,A
        MOV     A,R1
        MOV     R7,A
        MOV     A,R6
        ADD     A,#0x14
        MOV     DPL,A
        CLR     A
        ADDC    A,R7
        MOV     DPH,A
        MOVX    A,@DPTR
        MOV     R4,A
        MOV     DPTR,#zclGpCBs
??zclGp_HdlIncoming_1:
        LCALL   ??Subroutine39_0 & 0xFFFF
??CrossCallReturnLabel_73:
        JZ      ??zclGp_HdlIncoming_0
        MOV     DPL,R0
        MOV     DPH,R1
        INC     DPTR
        INC     DPTR
        MOVX    A,@DPTR
        XRL     A,R4
        MOV     DPL,R0
        MOV     DPH,R1
        JNZ     ??zclGp_HdlIncoming_1
        INC     DPTR
        INC     DPTR
        INC     DPTR
        MOVX    A,@DPTR
        MOV     R4,A
        INC     DPTR
        MOVX    A,@DPTR
        MOV     R5,A
        MOV     A,R4
        ORL     A,R5
        JNZ     ??zclGp_HdlIncoming_2
??zclGp_HdlIncoming_0:
        MOV     R1,#0x1
        SJMP    ??zclGp_HdlIncoming_3
??zclGp_HdlIncoming_2:
        MOV     DPL,R6
        MOV     DPH,R7
        INC     DPTR
        INC     DPTR
        INC     DPTR
        INC     DPTR
        MOVX    A,@DPTR
        XRL     A,#0x21
        JNZ     ??zclGp_HdlIncoming_4
        INC     DPTR
        MOVX    A,@DPTR
??zclGp_HdlIncoming_4:
        JNZ     ??zclGp_HdlIncoming_5
        ; Setup parameters for call to function zclGp_ProcessInGreenPowerClient
        LCALL   `??zclGp_ProcessInGreenPowerClient::?relay`; Banked call to: zclGp_ProcessInGreenPowerClient
        MOV     A,R1
        SJMP    ??zclGp_HdlIncoming_6
??zclGp_HdlIncoming_5:
        MOV     A,#0x1
??zclGp_HdlIncoming_6:
        MOV     R1,A
//  217   else
//  218   {
//  219     // Handle all the normal (Read, Write...) commands -- should never get here
//  220     stat = ZFailure;
//  221   }
//  222   return ( stat );
??zclGp_HdlIncoming_3:
          CFI EndBlock cfiBlock2
        REQUIRE ?Subroutine1
        ; // Fall through to label ?Subroutine1
//  223 }

        RSEG BANKED_CODE:CODE:NOROOT(0)
?Subroutine1:
          CFI Block cfiBlock3 Using cfiCommon0
          CFI NoFunction
          CFI CFA_SP SP+0
          CFI CFA_XSP16 add(XSP16, 9)
          CFI VB load(1, XDATA, add(CFA_XSP16, literal(-8)))
          CFI DPL0 load(1, XDATA, add(CFA_XSP16, literal(-2)))
          CFI DPH0 load(1, XDATA, add(CFA_XSP16, literal(-1)))
          CFI R6 load(1, XDATA, add(CFA_XSP16, literal(-9)))
          CFI R7 load(1, XDATA, add(CFA_XSP16, literal(-6)))
          CFI V0 load(1, XDATA, add(CFA_XSP16, literal(-7)))
          CFI ?BRET_EXT load(1, XDATA, add(CFA_XSP16, literal(-3)))
          CFI ?RET_HIGH load(1, XDATA, add(CFA_XSP16, literal(-4)))
          CFI ?RET_LOW load(1, XDATA, add(CFA_XSP16, literal(-5)))
        MOV     R7,#0x1
        LJMP    ?BANKED_LEAVE_XDATA
          CFI EndBlock cfiBlock3
//  224 
//  225 /*********************************************************************
//  226  * @fn      zclGp_HdlInSpecificCommands
//  227  *
//  228  * @brief   Callback from ZCL to process incoming Commands specific
//  229  *          to this cluster library
//  230 
//  231  * @param   pInMsg - pointer to the incoming message
//  232  *
//  233  * @return  ZStatus_t
//  234  */
//  235 static ZStatus_t zclGp_HdlInSpecificCommands( zclIncoming_t *pInMsg )
//  236 {
//  237   ZStatus_t stat;
//  238   zclGp_AppCallbacks_t *pCBs;
//  239 
//  240   // make sure endpoint exists
//  241   pCBs = zclGp_FindCallbacks( pInMsg->msg->endPoint );
//  242   if ( pCBs == NULL )
//  243     return ( ZFailure );
//  244 
//  245   switch ( pInMsg->msg->clusterId )
//  246   {
//  247     case ZCL_CLUSTER_ID_GREEN_POWER:
//  248       stat = zclGp_ProcessInGreenPowerClient( pInMsg, pCBs );
//  249       break;
//  250 
//  251     default:
//  252       stat = ZFailure;
//  253       break;
//  254   }
//  255 
//  256   return ( stat );
//  257 }
//  258 
//  259 /*********************************************************************
//  260  * @fn      zclGp_ProcessInGreenPowerClient
//  261  *
//  262  * @brief   Process in the received client commans.
//  263  *
//  264  * @param   pInMsg - pointer to the incoming message
//  265  *
//  266  * @return  ZStatus_t
//  267  */

        RSEG BANKED_CODE:CODE:NOROOT(0)
//  268 static ZStatus_t zclGp_ProcessInGreenPowerClient( zclIncoming_t *pInMsg,
zclGp_ProcessInGreenPowerClient:
          CFI Block cfiBlock4 Using cfiCommon0
          CFI Function zclGp_ProcessInGreenPowerClient
        CODE
//  269                                           zclGp_AppCallbacks_t *pCBs )
//  270 {
        FUNCALL zclGp_ProcessInGreenPowerClient, osal_memcpy
        LOCFRAME ISTACK, 0, STACK
        LOCFRAME PSTACK, 0, STACK
        LOCFRAME XSTACK, 42, STACK
        LOCFRAME IOVERLAY, 0, STATIC
        LOCFRAME DOVERLAY, 0, STATIC
        ARGFRAME ISTACK, 0, STACK
        ARGFRAME PSTACK, 0, STACK
        ARGFRAME XSTACK, 42, STACK
        ARGFRAME IOVERLAY, 0, STATIC
        ARGFRAME DOVERLAY, 0, STATIC
        FUNCALL zclGp_ProcessInGreenPowerClient, osal_memcpy
        LOCFRAME ISTACK, 0, STACK
        LOCFRAME PSTACK, 0, STACK
        LOCFRAME XSTACK, 42, STACK
        LOCFRAME IOVERLAY, 0, STATIC
        LOCFRAME DOVERLAY, 0, STATIC
        ARGFRAME ISTACK, 0, STACK
        ARGFRAME PSTACK, 0, STACK
        ARGFRAME XSTACK, 42, STACK
        ARGFRAME IOVERLAY, 0, STATIC
        ARGFRAME DOVERLAY, 0, STATIC
        FUNCALL zclGp_ProcessInGreenPowerClient, osal_memcpy
        LOCFRAME ISTACK, 0, STACK
        LOCFRAME PSTACK, 0, STACK
        LOCFRAME XSTACK, 42, STACK
        LOCFRAME IOVERLAY, 0, STATIC
        LOCFRAME DOVERLAY, 0, STATIC
        ARGFRAME ISTACK, 0, STACK
        ARGFRAME PSTACK, 0, STACK
        ARGFRAME XSTACK, 42, STACK
        ARGFRAME IOVERLAY, 0, STATIC
        ARGFRAME DOVERLAY, 0, STATIC
        FUNCALL zclGp_ProcessInGreenPowerClient, osal_mem_alloc
        LOCFRAME ISTACK, 0, STACK
        LOCFRAME PSTACK, 0, STACK
        LOCFRAME XSTACK, 39, STACK
        LOCFRAME IOVERLAY, 0, STATIC
        LOCFRAME DOVERLAY, 0, STATIC
        ARGFRAME ISTACK, 0, STACK
        ARGFRAME PSTACK, 0, STACK
        ARGFRAME XSTACK, 39, STACK
        ARGFRAME IOVERLAY, 0, STATIC
        ARGFRAME DOVERLAY, 0, STATIC
        FUNCALL zclGp_ProcessInGreenPowerClient, osal_memcpy
        LOCFRAME ISTACK, 0, STACK
        LOCFRAME PSTACK, 0, STACK
        LOCFRAME XSTACK, 42, STACK
        LOCFRAME IOVERLAY, 0, STATIC
        LOCFRAME DOVERLAY, 0, STATIC
        ARGFRAME ISTACK, 0, STACK
        ARGFRAME PSTACK, 0, STACK
        ARGFRAME XSTACK, 42, STACK
        ARGFRAME IOVERLAY, 0, STATIC
        ARGFRAME DOVERLAY, 0, STATIC
        FUNCALL zclGp_ProcessInGreenPowerClient, osal_memcpy
        LOCFRAME ISTACK, 0, STACK
        LOCFRAME PSTACK, 0, STACK
        LOCFRAME XSTACK, 42, STACK
        LOCFRAME IOVERLAY, 0, STATIC
        LOCFRAME DOVERLAY, 0, STATIC
        ARGFRAME ISTACK, 0, STACK
        ARGFRAME PSTACK, 0, STACK
        ARGFRAME XSTACK, 42, STACK
        ARGFRAME IOVERLAY, 0, STATIC
        ARGFRAME DOVERLAY, 0, STATIC
        FUNCALL zclGp_ProcessInGreenPowerClient, osal_build_uint16
        LOCFRAME ISTACK, 0, STACK
        LOCFRAME PSTACK, 0, STACK
        LOCFRAME XSTACK, 39, STACK
        LOCFRAME IOVERLAY, 0, STATIC
        LOCFRAME DOVERLAY, 0, STATIC
        ARGFRAME ISTACK, 0, STACK
        ARGFRAME PSTACK, 0, STACK
        ARGFRAME XSTACK, 39, STACK
        ARGFRAME IOVERLAY, 0, STATIC
        ARGFRAME DOVERLAY, 0, STATIC
        FUNCALL zclGp_ProcessInGreenPowerClient, osal_memcpy
        LOCFRAME ISTACK, 0, STACK
        LOCFRAME PSTACK, 0, STACK
        LOCFRAME XSTACK, 42, STACK
        LOCFRAME IOVERLAY, 0, STATIC
        LOCFRAME DOVERLAY, 0, STATIC
        ARGFRAME ISTACK, 0, STACK
        ARGFRAME PSTACK, 0, STACK
        ARGFRAME XSTACK, 42, STACK
        ARGFRAME IOVERLAY, 0, STATIC
        ARGFRAME DOVERLAY, 0, STATIC
        FUNCALL zclGp_ProcessInGreenPowerClient, osal_mem_alloc
        LOCFRAME ISTACK, 0, STACK
        LOCFRAME PSTACK, 0, STACK
        LOCFRAME XSTACK, 39, STACK
        LOCFRAME IOVERLAY, 0, STATIC
        LOCFRAME DOVERLAY, 0, STATIC
        ARGFRAME ISTACK, 0, STACK
        ARGFRAME PSTACK, 0, STACK
        ARGFRAME XSTACK, 39, STACK
        ARGFRAME IOVERLAY, 0, STATIC
        ARGFRAME DOVERLAY, 0, STATIC
        FUNCALL zclGp_ProcessInGreenPowerClient, osal_memcpy
        LOCFRAME ISTACK, 0, STACK
        LOCFRAME PSTACK, 0, STACK
        LOCFRAME XSTACK, 42, STACK
        LOCFRAME IOVERLAY, 0, STATIC
        LOCFRAME DOVERLAY, 0, STATIC
        ARGFRAME ISTACK, 0, STACK
        ARGFRAME PSTACK, 0, STACK
        ARGFRAME XSTACK, 42, STACK
        ARGFRAME IOVERLAY, 0, STATIC
        ARGFRAME DOVERLAY, 0, STATIC
        REQUIRE ?V0
        REQUIRE ?V1
        REQUIRE ?V2
        REQUIRE ?V3
        REQUIRE ?V4
        REQUIRE ?V5
        REQUIRE ?V6
        REQUIRE ?V7
        REQUIRE ?V8
        REQUIRE ?V9
        REQUIRE ?V10
        MOV     A,#-0x13
        LCALL   ?BANKED_ENTER_XDATA
          CFI DPH0 load(1, XDATA, add(CFA_XSP16, literal(-1)))
          CFI DPL0 load(1, XDATA, add(CFA_XSP16, literal(-2)))
          CFI ?BRET_EXT load(1, XDATA, add(CFA_XSP16, literal(-3)))
          CFI ?RET_HIGH load(1, XDATA, add(CFA_XSP16, literal(-4)))
          CFI ?RET_LOW load(1, XDATA, add(CFA_XSP16, literal(-5)))
          CFI R7 load(1, XDATA, add(CFA_XSP16, literal(-6)))
          CFI V10 load(1, XDATA, add(CFA_XSP16, literal(-7)))
          CFI V9 load(1, XDATA, add(CFA_XSP16, literal(-8)))
          CFI V8 load(1, XDATA, add(CFA_XSP16, literal(-9)))
          CFI V7 load(1, XDATA, add(CFA_XSP16, literal(-10)))
          CFI V6 load(1, XDATA, add(CFA_XSP16, literal(-11)))
          CFI V5 load(1, XDATA, add(CFA_XSP16, literal(-12)))
          CFI V4 load(1, XDATA, add(CFA_XSP16, literal(-13)))
          CFI V3 load(1, XDATA, add(CFA_XSP16, literal(-14)))
          CFI V2 load(1, XDATA, add(CFA_XSP16, literal(-15)))
          CFI V1 load(1, XDATA, add(CFA_XSP16, literal(-16)))
          CFI V0 load(1, XDATA, add(CFA_XSP16, literal(-17)))
          CFI VB load(1, XDATA, add(CFA_XSP16, literal(-18)))
          CFI R6 load(1, XDATA, add(CFA_XSP16, literal(-19)))
          CFI CFA_SP SP+0
          CFI CFA_XSP16 add(XSP16, 19)
        ; Saved register size: 19
        ; Auto size: 20
        MOV     A,#-0x14
        LCALL   ?ALLOC_XSTACK8
          CFI CFA_XSP16 add(XSP16, 39)
        MOV     A,R2
        MOV     R6,A
        MOV     A,R3
        MOV     R7,A
        MOV     ?V2,R4
        MOV     ?V3,R5
//  271   if ( zcl_ClientCmd( pInMsg->hdr.fc.direction ) )
        MOV     DPL,R6
        MOV     DPH,R7
        INC     DPTR
        INC     DPTR
        MOVX    A,@DPTR
        ANL     A,#0x8
        JNZ     $+5
        LJMP    ??zclGp_ProcessInGreenPowerClient_0 & 0xFFFF
//  272   {
//  273     switch ( pInMsg->hdr.commandID )
        MOV     A,R6
        ADD     A,#0xa
        MOV     ?V8,A
        CLR     A
        ADDC    A,R7
        MOV     ?V9,A
        MOV     A,R6
        ADD     A,#0x8
        MOV     ?V0,A
        CLR     A
        ADDC    A,R7
        MOV     ?V1,A
        MOV     DPL,R6
        MOV     DPH,R7
        INC     DPTR
        INC     DPTR
        INC     DPTR
        INC     DPTR
        INC     DPTR
        INC     DPTR
        INC     DPTR
        MOVX    A,@DPTR
        DEC     A
        JZ      ??zclGp_ProcessInGreenPowerClient_1
        DEC     A
        JNZ     $+5
        LJMP    ??zclGp_ProcessInGreenPowerClient_2 & 0xFFFF
        ADD     A,#-0x4
        JNZ     $+5
        LJMP    ??zclGp_ProcessInGreenPowerClient_3 & 0xFFFF
        ADD     A,#-0x5
        JZ      ??zclGp_ProcessInGreenPowerClient_4
        LJMP    ??zclGp_ProcessInGreenPowerClient_0 & 0xFFFF
//  274     {
//  275       case COMMAND_GP_PAIRING:
//  276         if ( pCBs->pfnGpPairingCmd )
??zclGp_ProcessInGreenPowerClient_1:
        MOV     DPL,R4
        MOV     DPH,R5
        LCALL   ??Subroutine39_0 & 0xFFFF
??CrossCallReturnLabel_74:
        JNZ     $+5
        LJMP    ??zclGp_ProcessInGreenPowerClient_0 & 0xFFFF
//  277         {
//  278           zclGpPairing_t cmd;
//  279           
//  280           zcl_InSeqNum = pInMsg->hdr.transSeqNum;
        LCALL   ?Subroutine10 & 0xFFFF
//  281           
//  282           cmd.srcAddr = &(pInMsg->msg->srcAddr);
??CrossCallReturnLabel_2:
        MOV     A,#0xd
        LCALL   ?XSTACK_DISP0_8
        LCALL   ?Subroutine8 & 0xFFFF
//  283           osal_memcpy( cmd.options, (void*)pInMsg->pData, sizeof(cmd.options) );
??CrossCallReturnLabel_40:
        LCALL   ?PUSH_XSTACK_I_THREE
          CFI CFA_XSP16 add(XSP16, 42)
        MOV     R4,#0x3
        MOV     R5,#0x0
        MOV     A,#0x12
        LCALL   ?XSTACK_DISP0_8
        MOV     R2,DPL
        MOV     R3,DPH
        LCALL   `??osal_memcpy::?relay`; Banked call to: osal_memcpy
        MOV     A,#0x3
        LCALL   ?DEALLOC_XSTACK8
          CFI CFA_XSP16 add(XSP16, 39)
//  284           pInMsg->pData += sizeof(cmd.options);  // Move data pointer after options field
        MOV     DPL,?V0
        MOV     DPH,?V1
        MOVX    A,@DPTR
        ADD     A,#0x3
        LCALL   ??Subroutine32_0 & 0xFFFF
//  285                     
//  286           if ( cmd.pData == NULL )
??CrossCallReturnLabel_44:
        MOV     A,#0x12
        LCALL   ?XSTACK_DISP0_8
        LCALL   ??Subroutine36_0 & 0xFFFF
??CrossCallReturnLabel_65:
        JNZ     ??zclGp_ProcessInGreenPowerClient_5
//  287           {
//  288             return ZFailure;
        MOV     R1,#0x1
        LJMP    ??zclGp_ProcessInGreenPowerClient_6 & 0xFFFF
//  289           }
//  290           
//  291           cmd.pData = pInMsg->pData;
??zclGp_ProcessInGreenPowerClient_5:
        MOV     A,#0x12
        LCALL   ?XSTACK_DISP0_8
        LCALL   ??Subroutine35_0 & 0xFFFF
//  292           pCBs->pfnGpPairingCmd( &cmd );
??CrossCallReturnLabel_52:
        ; Setup parameters for indirect call
        MOV     A,#0xd
        LJMP    ??zclGp_ProcessInGreenPowerClient_7 & 0xFFFF
//  293 
//  294         }
//  295         break;
//  296         
//  297       case COMMAND_GP_PROXY_TABLE_REQUEST:
//  298         if ( pCBs->pfnGpProxyTableReqCmd )
??zclGp_ProcessInGreenPowerClient_4:
        MOV     A,R4
        ADD     A,#0x2
        MOV     ?V2,A
        JNC     ??zclGp_ProcessInGreenPowerClient_8
        INC     ?V3
??zclGp_ProcessInGreenPowerClient_8:
        MOV     DPL,A
        MOV     DPH,?V3
        LCALL   ??Subroutine39_0 & 0xFFFF
??CrossCallReturnLabel_75:
        JNZ     $+5
        LJMP    ??zclGp_ProcessInGreenPowerClient_0 & 0xFFFF
//  299         {
//  300           zclGpProxyTableRequest_t cmd;
//  301           
//  302           zcl_InSeqNum = pInMsg->hdr.transSeqNum;
        LCALL   ?Subroutine10 & 0xFFFF
//  303           
//  304           cmd.srcAddr = &(pInMsg->msg->srcAddr);
??CrossCallReturnLabel_3:
        MOV     DPL,?XSP + 0
        MOV     DPH,?XSP + 1
        LCALL   ?Subroutine8 & 0xFFFF
//  305           osal_memcpy( &cmd.options, (void*)pInMsg->pData, sizeof(cmd.options) );
??CrossCallReturnLabel_41:
        LCALL   ?PUSH_XSTACK_I_THREE
          CFI CFA_XSP16 add(XSP16, 42)
        MOV     R4,#0x1
        MOV     R5,#0x0
        MOV     A,#0x5
        LCALL   ?XSTACK_DISP0_8
        MOV     R2,DPL
        MOV     R3,DPH
        LCALL   `??osal_memcpy::?relay`; Banked call to: osal_memcpy
        MOV     A,#0x3
        LCALL   ?DEALLOC_XSTACK8
          CFI CFA_XSP16 add(XSP16, 39)
//  306           pInMsg->pData += sizeof(cmd.options);  // Move data pointer after options field
        LCALL   ?Subroutine6 & 0xFFFF
//  307           
//  308           
//  309           cmd.pData = (void*)pInMsg->pData;
??CrossCallReturnLabel_45:
        MOV     A,#0x3
        LCALL   ?XSTACK_DISP0_8
        LJMP    ??CrossCallReturnLabel_8 & 0xFFFF
        ; Setup parameters for indirect call
//  310           pCBs->pfnGpProxyTableReqCmd( &cmd );
//  311 
//  312         }
//  313         break;
//  314       case COMMAND_GP_PROXY_COMMISSIONING_MODE:
//  315         if(pCBs->pfnGpProxyCommissioningModeCmd)
??zclGp_ProcessInGreenPowerClient_2:
        MOV     A,R4
        ADD     A,#0x4
        MOV     ?V2,A
        JNC     ??zclGp_ProcessInGreenPowerClient_9
        INC     ?V3
??zclGp_ProcessInGreenPowerClient_9:
        MOV     DPL,A
        MOV     DPH,?V3
        LCALL   ??Subroutine39_0 & 0xFFFF
??CrossCallReturnLabel_76:
        JNZ     $+5
        LJMP    ??zclGp_ProcessInGreenPowerClient_0 & 0xFFFF
//  316         {
//  317           zclGpProxyCommissioningMode_t cmd;
//  318 
//  319           osal_memcpy( &cmd.options, (void*)pInMsg->pData, sizeof(cmd.options) );
        ; Setup parameters for call to function osal_memcpy
        LCALL   ??Subroutine31_0 & 0xFFFF
??CrossCallReturnLabel_42:
        LCALL   ?PUSH_XSTACK_I_THREE
          CFI CFA_XSP16 add(XSP16, 42)
        MOV     R4,#0x1
        MOV     R5,#0x0
        MOV     A,#0x5
        LCALL   ?XSTACK_DISP0_8
        MOV     R2,DPL
        MOV     R3,DPH
        LCALL   `??osal_memcpy::?relay`; Banked call to: osal_memcpy
        MOV     A,#0x3
        LCALL   ?DEALLOC_XSTACK8
          CFI CFA_XSP16 add(XSP16, 39)
//  320           pInMsg->pData += sizeof(cmd.options);  // Move data pointer after options field
        LCALL   ?Subroutine6 & 0xFFFF
//  321 
//  322           // alloc for data after options field
//  323           uint8 responseLen = pInMsg->pDataLen - sizeof(cmd.options); 
??CrossCallReturnLabel_46:
        MOV     DPL,?V8
        MOV     DPH,?V9
        MOVX    A,@DPTR
        DEC     A
        MOV     ?V4,A
//  324          
//  325           cmd.pData = osal_mem_alloc( responseLen );
        MOV     ?V5,#0x0
        ; Setup parameters for call to function osal_mem_alloc
        MOV     R2,A
        MOV     R3,?V5
        LCALL   `??osal_mem_alloc::?relay`; Banked call to: osal_mem_alloc
        MOV     A,#0x3
        LCALL   ?XSTACK_DISP0_8
        LCALL   ?Subroutine19 & 0xFFFF
//  326           osal_memcpy(cmd.pData, (void*)pInMsg->pData, responseLen );
??CrossCallReturnLabel_14:
        MOV     ?V8,?V0
        MOV     ?V9,A
        MOV     ?V10,#0x0
        MOV     R0,#?V8
        LCALL   ?PUSH_XSTACK_I_THREE
          CFI CFA_XSP16 add(XSP16, 42)
        MOV     R4,?V4
        MOV     R5,?V5
        LCALL   `??osal_memcpy::?relay`; Banked call to: osal_memcpy
        MOV     A,#0x3
        LCALL   ?DEALLOC_XSTACK8
          CFI CFA_XSP16 add(XSP16, 39)
//  327 
//  328           if(pInMsg->msg->srcAddr.addrMode == afAddr16Bit)
        MOV     DPL,R6
        MOV     DPH,R7
        LCALL   ??Subroutine40_0 & 0xFFFF
??CrossCallReturnLabel_85:
        LCALL   ?Subroutine21 & 0xFFFF
??CrossCallReturnLabel_16:
        MOVX    A,@DPTR
        XRL     A,#0x2
        JNZ     ??CrossCallReturnLabel_53
//  329           {
//  330             cmd.srcAddr = pInMsg->msg->srcAddr.addr.shortAddr;
        MOV     DPL,R0
        MOV     DPH,R1
        INC     DPTR
        INC     DPTR
        INC     DPTR
        INC     DPTR
        INC     DPTR
        INC     DPTR
        LCALL   ?Subroutine14 & 0xFFFF
//  331           }
??CrossCallReturnLabel_8:
        LCALL   ??Subroutine35_0 & 0xFFFF
//  332           
//  333           pCBs->pfnGpProxyCommissioningModeCmd( &cmd );
??CrossCallReturnLabel_53:
        ; Setup parameters for indirect call
        MOV     R2,?XSP + 0
        MOV     R3,?XSP + 1
        LJMP    ??zclGp_ProcessInGreenPowerClient_10 & 0xFFFF
//  334         }
//  335         break;
//  336         case COMMAND_GP_RESPONSE:
//  337           
//  338           if(pCBs->pfnGpResponseCommand)
??zclGp_ProcessInGreenPowerClient_3:
        MOV     A,R4
        ADD     A,#0x6
        MOV     ?V2,A
        JNC     ??zclGp_ProcessInGreenPowerClient_11
        INC     ?V3
??zclGp_ProcessInGreenPowerClient_11:
        MOV     DPL,A
        MOV     DPH,?V3
        LCALL   ??Subroutine39_0 & 0xFFFF
??CrossCallReturnLabel_77:
        JNZ     $+5
        LJMP    ??zclGp_ProcessInGreenPowerClient_0 & 0xFFFF
//  339           {
//  340             zclGpResponse_t cmd;
//  341             
//  342             uint8 responseLen;
//  343 
//  344             osal_memcpy( &cmd.options, (void*)pInMsg->pData, sizeof(cmd.options) );
        ; Setup parameters for call to function osal_memcpy
        LCALL   ??Subroutine31_0 & 0xFFFF
??CrossCallReturnLabel_43:
        LCALL   ?PUSH_XSTACK_I_THREE
          CFI CFA_XSP16 add(XSP16, 42)
        MOV     R4,#0x1
        MOV     R5,#0x0
        MOV     A,#0xa
        LCALL   ?XSTACK_DISP0_8
        MOV     R2,DPL
        MOV     R3,DPH
        LCALL   `??osal_memcpy::?relay`; Banked call to: osal_memcpy
        MOV     A,#0x3
        LCALL   ?DEALLOC_XSTACK8
          CFI CFA_XSP16 add(XSP16, 39)
//  345             pInMsg->pData += sizeof(cmd.options);  // Move data pointer after options field
        MOV     DPL,?V0
        MOV     DPH,?V1
        MOVX    A,@DPTR
        ADD     A,#0x1
        MOV     R2,A
        INC     DPTR
        MOVX    A,@DPTR
        ADDC    A,#0x0
        MOV     R3,A
        MOV     DPL,?V0
        MOV     DPH,?V1
        MOV     A,R2
        MOVX    @DPTR,A
        INC     DPTR
        MOV     A,R3
        MOVX    @DPTR,A
//  346             
//  347             cmd.tempMasterShortAddr = osal_build_uint16(pInMsg->pData);
        ; Setup parameters for call to function osal_build_uint16
        LCALL   `??osal_build_uint16::?relay`; Banked call to: osal_build_uint16
        MOV     A,#0x8
        LCALL   ?XSTACK_DISP0_8
        LCALL   ?Subroutine27 & 0xFFFF
//  348             pInMsg->pData += sizeof(cmd.tempMasterShortAddr);  // Move data pointer after tempMaster field
??CrossCallReturnLabel_31:
        ADD     A,#0x2
        MOV     ?V4,A
        INC     DPTR
        MOVX    A,@DPTR
        ADDC    A,#0x0
        MOV     ?V5,A
        MOV     DPL,?V0
        MOV     DPH,?V1
        MOV     A,?V4
        MOVX    @DPTR,A
        INC     DPTR
        MOV     A,?V5
        MOVX    @DPTR,A
//  349             
//  350             osal_memcpy( &cmd.tempMasterTxChannel, (void*)pInMsg->pData, sizeof(cmd.tempMasterTxChannel) );
        ; Setup parameters for call to function osal_memcpy
        MOV     R0,#?V4
        LCALL   ?PUSH_XSTACK_I_THREE
          CFI CFA_XSP16 add(XSP16, 42)
        MOV     R4,#0x1
        MOV     R5,#0x0
        MOV     A,#0xd
        LCALL   ?XSTACK_DISP0_8
        MOV     R2,DPL
        MOV     R3,DPH
        LCALL   `??osal_memcpy::?relay`; Banked call to: osal_memcpy
        MOV     A,#0x3
        LCALL   ?DEALLOC_XSTACK8
          CFI CFA_XSP16 add(XSP16, 39)
//  351             pInMsg->pData += sizeof(cmd.tempMasterTxChannel);  // Move data pointer after options field
        LCALL   ?Subroutine6 & 0xFFFF
//  352             
//  353             cmd.dstAddr = pInMsg->msg->macDestAddr;  
??CrossCallReturnLabel_47:
        MOV     DPL,R6
        MOV     DPH,R7
        LCALL   ?Subroutine30 & 0xFFFF
??CrossCallReturnLabel_89:
        XCH     A,R0
        ADD     A,#0x12
        MOV     DPL,A
        CLR     A
        ADDC    A,R0
        MOV     DPH,A
        LCALL   ??Subroutine40_0 & 0xFFFF
??CrossCallReturnLabel_86:
        MOV     A,#0x5
        LCALL   ?XSTACK_DISP0_8
        LCALL   ??Subroutine35_0 & 0xFFFF
//  354                   
//  355             responseLen = pInMsg->pDataLen - sizeof(cmd.tempMasterTxChannel) 
//  356                                    - sizeof(cmd.tempMasterShortAddr) 
//  357                                    - sizeof(cmd.options);
??CrossCallReturnLabel_54:
        MOV     DPL,?V8
        MOV     DPH,?V9
        MOVX    A,@DPTR
        ADD     A,#-0x4
        MOV     R6,A
//  358             cmd.pData = osal_mem_alloc( responseLen );
        ; Setup parameters for call to function osal_mem_alloc
        MOV     R2,A
        MOV     R3,#0x0
        LCALL   `??osal_mem_alloc::?relay`; Banked call to: osal_mem_alloc
        MOV     A,#0xb
        LCALL   ?XSTACK_DISP0_8
        LCALL   ?Subroutine19 & 0xFFFF
//  359             
//  360             osal_memcpy(cmd.pData, (void*)pInMsg->pData, responseLen );
??CrossCallReturnLabel_15:
        MOV     ?V4,?V0
        MOV     ?V5,A
        MOV     R0,#?V4
        LCALL   ?PUSH_XSTACK_I_THREE
          CFI CFA_XSP16 add(XSP16, 42)
        MOV     A,R6
        MOV     R4,A
        MOV     R5,#0x0
        LCALL   `??osal_memcpy::?relay`; Banked call to: osal_memcpy
        MOV     A,#0x3
        LCALL   ?DEALLOC_XSTACK8
          CFI CFA_XSP16 add(XSP16, 39)
//  361 
//  362             pCBs->pfnGpResponseCommand( &cmd ); 
        ; Setup parameters for indirect call
        MOV     A,#0x5
??zclGp_ProcessInGreenPowerClient_7:
        LCALL   ?XSTACK_DISP101_8
??zclGp_ProcessInGreenPowerClient_10:
        MOV     DPL,?V2
        MOV     DPH,?V3
//  363           }
//  364         break;
//  365     }
//  366     // Process here
//  367   }
        LCALL   ?Subroutine26 & 0xFFFF
??CrossCallReturnLabel_29:
        LCALL   ?CALL_IND
//  368   // no Client command
//  369 
//  370   return ( ZSuccess );
??zclGp_ProcessInGreenPowerClient_0:
        MOV     R1,#0x0
??zclGp_ProcessInGreenPowerClient_6:
        MOV     A,#0x14
        LCALL   ?DEALLOC_XSTACK8
          CFI CFA_XSP16 add(XSP16, 19)
        MOV     R7,#0xb
        LJMP    ?BANKED_LEAVE_XDATA
//  371 }
          CFI EndBlock cfiBlock4

        RSEG BANKED_CODE:CODE:NOROOT(0)
?Subroutine19:
          CFI Block cfiCond5 Using cfiCommon0
          CFI Function zclGp_ProcessInGreenPowerClient
          CFI Conditional ??CrossCallReturnLabel_14
          CFI R6 load(1, XDATA, add(CFA_XSP16, literal(-19)))
          CFI VB load(1, XDATA, add(CFA_XSP16, literal(-18)))
          CFI V0 load(1, XDATA, add(CFA_XSP16, literal(-17)))
          CFI V1 load(1, XDATA, add(CFA_XSP16, literal(-16)))
          CFI V2 load(1, XDATA, add(CFA_XSP16, literal(-15)))
          CFI V3 load(1, XDATA, add(CFA_XSP16, literal(-14)))
          CFI V4 load(1, XDATA, add(CFA_XSP16, literal(-13)))
          CFI V5 load(1, XDATA, add(CFA_XSP16, literal(-12)))
          CFI V6 load(1, XDATA, add(CFA_XSP16, literal(-11)))
          CFI V7 load(1, XDATA, add(CFA_XSP16, literal(-10)))
          CFI V8 load(1, XDATA, add(CFA_XSP16, literal(-9)))
          CFI V9 load(1, XDATA, add(CFA_XSP16, literal(-8)))
          CFI V10 load(1, XDATA, add(CFA_XSP16, literal(-7)))
          CFI R7 load(1, XDATA, add(CFA_XSP16, literal(-6)))
          CFI ?RET_LOW load(1, XDATA, add(CFA_XSP16, literal(-5)))
          CFI ?RET_HIGH load(1, XDATA, add(CFA_XSP16, literal(-4)))
          CFI ?BRET_EXT load(1, XDATA, add(CFA_XSP16, literal(-3)))
          CFI DPL0 load(1, XDATA, add(CFA_XSP16, literal(-2)))
          CFI DPH0 load(1, XDATA, add(CFA_XSP16, literal(-1)))
          CFI CFA_SP SP+-2
          CFI CFA_XSP16 add(XSP16, 39)
          CFI Block cfiCond6 Using cfiCommon0
          CFI (cfiCond6) Function zclGp_ProcessInGreenPowerClient
          CFI (cfiCond6) Conditional ??CrossCallReturnLabel_15
          CFI (cfiCond6) R6 load(1, XDATA, add(CFA_XSP16, literal(-19)))
          CFI (cfiCond6) VB load(1, XDATA, add(CFA_XSP16, literal(-18)))
          CFI (cfiCond6) V0 load(1, XDATA, add(CFA_XSP16, literal(-17)))
          CFI (cfiCond6) V1 load(1, XDATA, add(CFA_XSP16, literal(-16)))
          CFI (cfiCond6) V2 load(1, XDATA, add(CFA_XSP16, literal(-15)))
          CFI (cfiCond6) V3 load(1, XDATA, add(CFA_XSP16, literal(-14)))
          CFI (cfiCond6) V4 load(1, XDATA, add(CFA_XSP16, literal(-13)))
          CFI (cfiCond6) V5 load(1, XDATA, add(CFA_XSP16, literal(-12)))
          CFI (cfiCond6) V6 load(1, XDATA, add(CFA_XSP16, literal(-11)))
          CFI (cfiCond6) V7 load(1, XDATA, add(CFA_XSP16, literal(-10)))
          CFI (cfiCond6) V8 load(1, XDATA, add(CFA_XSP16, literal(-9)))
          CFI (cfiCond6) V9 load(1, XDATA, add(CFA_XSP16, literal(-8)))
          CFI (cfiCond6) V10 load(1, XDATA, add(CFA_XSP16, literal(-7)))
          CFI (cfiCond6) R7 load(1, XDATA, add(CFA_XSP16, literal(-6)))
          CFI (cfiCond6) ?RET_LOW load(1, XDATA, add(CFA_XSP16, literal(-5)))
          CFI (cfiCond6) ?RET_HIGH load(1, XDATA, add(CFA_XSP16, literal(-4)))
          CFI (cfiCond6) ?BRET_EXT load(1, XDATA, add(CFA_XSP16, literal(-3)))
          CFI (cfiCond6) DPL0 load(1, XDATA, add(CFA_XSP16, literal(-2)))
          CFI (cfiCond6) DPH0 load(1, XDATA, add(CFA_XSP16, literal(-1)))
          CFI (cfiCond6) CFA_SP SP+-2
          CFI (cfiCond6) CFA_XSP16 add(XSP16, 39)
          CFI Block cfiPicker7 Using cfiCommon1
          CFI (cfiPicker7) NoFunction
          CFI (cfiPicker7) Picker
        LCALL   ?Subroutine27 & 0xFFFF
??CrossCallReturnLabel_32:
        MOV     ?V0,A
        INC     DPTR
        MOVX    A,@DPTR
        RET
          CFI EndBlock cfiCond5
          CFI EndBlock cfiCond6
          CFI EndBlock cfiPicker7

        RSEG BANKED_CODE:CODE:NOROOT(0)
?Subroutine27:
          CFI Block cfiCond8 Using cfiCommon0
          CFI Function zclGp_ProcessInGreenPowerClient
          CFI Conditional ??CrossCallReturnLabel_31
          CFI R6 load(1, XDATA, add(CFA_XSP16, literal(-19)))
          CFI VB load(1, XDATA, add(CFA_XSP16, literal(-18)))
          CFI V0 load(1, XDATA, add(CFA_XSP16, literal(-17)))
          CFI V1 load(1, XDATA, add(CFA_XSP16, literal(-16)))
          CFI V2 load(1, XDATA, add(CFA_XSP16, literal(-15)))
          CFI V3 load(1, XDATA, add(CFA_XSP16, literal(-14)))
          CFI V4 load(1, XDATA, add(CFA_XSP16, literal(-13)))
          CFI V5 load(1, XDATA, add(CFA_XSP16, literal(-12)))
          CFI V6 load(1, XDATA, add(CFA_XSP16, literal(-11)))
          CFI V7 load(1, XDATA, add(CFA_XSP16, literal(-10)))
          CFI V8 load(1, XDATA, add(CFA_XSP16, literal(-9)))
          CFI V9 load(1, XDATA, add(CFA_XSP16, literal(-8)))
          CFI V10 load(1, XDATA, add(CFA_XSP16, literal(-7)))
          CFI R7 load(1, XDATA, add(CFA_XSP16, literal(-6)))
          CFI ?RET_LOW load(1, XDATA, add(CFA_XSP16, literal(-5)))
          CFI ?RET_HIGH load(1, XDATA, add(CFA_XSP16, literal(-4)))
          CFI ?BRET_EXT load(1, XDATA, add(CFA_XSP16, literal(-3)))
          CFI DPL0 load(1, XDATA, add(CFA_XSP16, literal(-2)))
          CFI DPH0 load(1, XDATA, add(CFA_XSP16, literal(-1)))
          CFI CFA_SP SP+-2
          CFI CFA_XSP16 add(XSP16, 39)
          CFI Block cfiCond9 Using cfiCommon0
          CFI (cfiCond9) Function zclGp_ProcessInGreenPowerClient
          CFI (cfiCond9) Conditional ??CrossCallReturnLabel_32, ??CrossCallReturnLabel_14
          CFI (cfiCond9) R6 load(1, XDATA, add(CFA_XSP16, literal(-19)))
          CFI (cfiCond9) VB load(1, XDATA, add(CFA_XSP16, literal(-18)))
          CFI (cfiCond9) V0 load(1, XDATA, add(CFA_XSP16, literal(-17)))
          CFI (cfiCond9) V1 load(1, XDATA, add(CFA_XSP16, literal(-16)))
          CFI (cfiCond9) V2 load(1, XDATA, add(CFA_XSP16, literal(-15)))
          CFI (cfiCond9) V3 load(1, XDATA, add(CFA_XSP16, literal(-14)))
          CFI (cfiCond9) V4 load(1, XDATA, add(CFA_XSP16, literal(-13)))
          CFI (cfiCond9) V5 load(1, XDATA, add(CFA_XSP16, literal(-12)))
          CFI (cfiCond9) V6 load(1, XDATA, add(CFA_XSP16, literal(-11)))
          CFI (cfiCond9) V7 load(1, XDATA, add(CFA_XSP16, literal(-10)))
          CFI (cfiCond9) V8 load(1, XDATA, add(CFA_XSP16, literal(-9)))
          CFI (cfiCond9) V9 load(1, XDATA, add(CFA_XSP16, literal(-8)))
          CFI (cfiCond9) V10 load(1, XDATA, add(CFA_XSP16, literal(-7)))
          CFI (cfiCond9) R7 load(1, XDATA, add(CFA_XSP16, literal(-6)))
          CFI (cfiCond9) ?RET_LOW load(1, XDATA, add(CFA_XSP16, literal(-5)))
          CFI (cfiCond9) ?RET_HIGH load(1, XDATA, add(CFA_XSP16, literal(-4)))
          CFI (cfiCond9) ?BRET_EXT load(1, XDATA, add(CFA_XSP16, literal(-3)))
          CFI (cfiCond9) DPL0 load(1, XDATA, add(CFA_XSP16, literal(-2)))
          CFI (cfiCond9) DPH0 load(1, XDATA, add(CFA_XSP16, literal(-1)))
          CFI (cfiCond9) CFA_SP SP+-4
          CFI (cfiCond9) CFA_XSP16 add(XSP16, 39)
          CFI Block cfiCond10 Using cfiCommon0
          CFI (cfiCond10) Function zclGp_ProcessInGreenPowerClient
          CFI (cfiCond10) Conditional ??CrossCallReturnLabel_32, ??CrossCallReturnLabel_15
          CFI (cfiCond10) R6 load(1, XDATA, add(CFA_XSP16, literal(-19)))
          CFI (cfiCond10) VB load(1, XDATA, add(CFA_XSP16, literal(-18)))
          CFI (cfiCond10) V0 load(1, XDATA, add(CFA_XSP16, literal(-17)))
          CFI (cfiCond10) V1 load(1, XDATA, add(CFA_XSP16, literal(-16)))
          CFI (cfiCond10) V2 load(1, XDATA, add(CFA_XSP16, literal(-15)))
          CFI (cfiCond10) V3 load(1, XDATA, add(CFA_XSP16, literal(-14)))
          CFI (cfiCond10) V4 load(1, XDATA, add(CFA_XSP16, literal(-13)))
          CFI (cfiCond10) V5 load(1, XDATA, add(CFA_XSP16, literal(-12)))
          CFI (cfiCond10) V6 load(1, XDATA, add(CFA_XSP16, literal(-11)))
          CFI (cfiCond10) V7 load(1, XDATA, add(CFA_XSP16, literal(-10)))
          CFI (cfiCond10) V8 load(1, XDATA, add(CFA_XSP16, literal(-9)))
          CFI (cfiCond10) V9 load(1, XDATA, add(CFA_XSP16, literal(-8)))
          CFI (cfiCond10) V10 load(1, XDATA, add(CFA_XSP16, literal(-7)))
          CFI (cfiCond10) R7 load(1, XDATA, add(CFA_XSP16, literal(-6)))
          CFI (cfiCond10) ?RET_LOW load(1, XDATA, add(CFA_XSP16, literal(-5)))
          CFI (cfiCond10) ?RET_HIGH load(1, XDATA, add(CFA_XSP16, literal(-4)))
          CFI (cfiCond10) ?BRET_EXT load(1, XDATA, add(CFA_XSP16, literal(-3)))
          CFI (cfiCond10) DPL0 load(1, XDATA, add(CFA_XSP16, literal(-2)))
          CFI (cfiCond10) DPH0 load(1, XDATA, add(CFA_XSP16, literal(-1)))
          CFI (cfiCond10) CFA_SP SP+-4
          CFI (cfiCond10) CFA_XSP16 add(XSP16, 39)
          CFI Block cfiPicker11 Using cfiCommon1
          CFI (cfiPicker11) NoFunction
          CFI (cfiPicker11) Picker
        MOV     A,R2
        MOVX    @DPTR,A
        INC     DPTR
        MOV     A,R3
        MOVX    @DPTR,A
        ; Setup parameters for call to function osal_memcpy
        ; Setup parameters for call to function osal_memcpy
        MOV     DPL,?V0
        MOV     DPH,?V1
        MOVX    A,@DPTR
        RET
          CFI EndBlock cfiCond8
          CFI EndBlock cfiCond9
          CFI EndBlock cfiCond10
          CFI EndBlock cfiPicker11

        RSEG BANKED_CODE:CODE:NOROOT(0)
?Subroutine10:
          CFI Block cfiCond12 Using cfiCommon0
          CFI Function zclGp_ProcessInGreenPowerClient
          CFI Conditional ??CrossCallReturnLabel_2
          CFI R6 load(1, XDATA, add(CFA_XSP16, literal(-19)))
          CFI VB load(1, XDATA, add(CFA_XSP16, literal(-18)))
          CFI V0 load(1, XDATA, add(CFA_XSP16, literal(-17)))
          CFI V1 load(1, XDATA, add(CFA_XSP16, literal(-16)))
          CFI V2 load(1, XDATA, add(CFA_XSP16, literal(-15)))
          CFI V3 load(1, XDATA, add(CFA_XSP16, literal(-14)))
          CFI V4 load(1, XDATA, add(CFA_XSP16, literal(-13)))
          CFI V5 load(1, XDATA, add(CFA_XSP16, literal(-12)))
          CFI V6 load(1, XDATA, add(CFA_XSP16, literal(-11)))
          CFI V7 load(1, XDATA, add(CFA_XSP16, literal(-10)))
          CFI V8 load(1, XDATA, add(CFA_XSP16, literal(-9)))
          CFI V9 load(1, XDATA, add(CFA_XSP16, literal(-8)))
          CFI V10 load(1, XDATA, add(CFA_XSP16, literal(-7)))
          CFI R7 load(1, XDATA, add(CFA_XSP16, literal(-6)))
          CFI ?RET_LOW load(1, XDATA, add(CFA_XSP16, literal(-5)))
          CFI ?RET_HIGH load(1, XDATA, add(CFA_XSP16, literal(-4)))
          CFI ?BRET_EXT load(1, XDATA, add(CFA_XSP16, literal(-3)))
          CFI DPL0 load(1, XDATA, add(CFA_XSP16, literal(-2)))
          CFI DPH0 load(1, XDATA, add(CFA_XSP16, literal(-1)))
          CFI CFA_SP SP+-2
          CFI CFA_XSP16 add(XSP16, 39)
          CFI Block cfiCond13 Using cfiCommon0
          CFI (cfiCond13) Function zclGp_ProcessInGreenPowerClient
          CFI (cfiCond13) Conditional ??CrossCallReturnLabel_3
          CFI (cfiCond13) R6 load(1, XDATA, add(CFA_XSP16, literal(-19)))
          CFI (cfiCond13) VB load(1, XDATA, add(CFA_XSP16, literal(-18)))
          CFI (cfiCond13) V0 load(1, XDATA, add(CFA_XSP16, literal(-17)))
          CFI (cfiCond13) V1 load(1, XDATA, add(CFA_XSP16, literal(-16)))
          CFI (cfiCond13) V2 load(1, XDATA, add(CFA_XSP16, literal(-15)))
          CFI (cfiCond13) V3 load(1, XDATA, add(CFA_XSP16, literal(-14)))
          CFI (cfiCond13) V4 load(1, XDATA, add(CFA_XSP16, literal(-13)))
          CFI (cfiCond13) V5 load(1, XDATA, add(CFA_XSP16, literal(-12)))
          CFI (cfiCond13) V6 load(1, XDATA, add(CFA_XSP16, literal(-11)))
          CFI (cfiCond13) V7 load(1, XDATA, add(CFA_XSP16, literal(-10)))
          CFI (cfiCond13) V8 load(1, XDATA, add(CFA_XSP16, literal(-9)))
          CFI (cfiCond13) V9 load(1, XDATA, add(CFA_XSP16, literal(-8)))
          CFI (cfiCond13) V10 load(1, XDATA, add(CFA_XSP16, literal(-7)))
          CFI (cfiCond13) R7 load(1, XDATA, add(CFA_XSP16, literal(-6)))
          CFI (cfiCond13) ?RET_LOW load(1, XDATA, add(CFA_XSP16, literal(-5)))
          CFI (cfiCond13) ?RET_HIGH load(1, XDATA, add(CFA_XSP16, literal(-4)))
          CFI (cfiCond13) ?BRET_EXT load(1, XDATA, add(CFA_XSP16, literal(-3)))
          CFI (cfiCond13) DPL0 load(1, XDATA, add(CFA_XSP16, literal(-2)))
          CFI (cfiCond13) DPH0 load(1, XDATA, add(CFA_XSP16, literal(-1)))
          CFI (cfiCond13) CFA_SP SP+-2
          CFI (cfiCond13) CFA_XSP16 add(XSP16, 39)
          CFI Block cfiPicker14 Using cfiCommon1
          CFI (cfiPicker14) NoFunction
          CFI (cfiPicker14) Picker
        MOV     DPL,R6
        MOV     DPH,R7
        INC     DPTR
        INC     DPTR
        INC     DPTR
        INC     DPTR
        INC     DPTR
        INC     DPTR
        MOVX    A,@DPTR
        MOV     DPTR,#zcl_InSeqNum
        LCALL   ?Subroutine28 & 0xFFFF
??CrossCallReturnLabel_33:
        MOVX    A,@DPTR
        ADD     A,#0x6
        MOV     R0,A
        INC     DPTR
        MOVX    A,@DPTR
        ADDC    A,#0x0
        MOV     R1,A
        RET
          CFI EndBlock cfiCond12
          CFI EndBlock cfiCond13
          CFI EndBlock cfiPicker14

        RSEG BANKED_CODE:CODE:NOROOT(0)
?Subroutine8:
          CFI Block cfiCond15 Using cfiCommon0
          CFI Function zclGp_ProcessInGreenPowerClient
          CFI Conditional ??CrossCallReturnLabel_40
          CFI R6 load(1, XDATA, add(CFA_XSP16, literal(-19)))
          CFI VB load(1, XDATA, add(CFA_XSP16, literal(-18)))
          CFI V0 load(1, XDATA, add(CFA_XSP16, literal(-17)))
          CFI V1 load(1, XDATA, add(CFA_XSP16, literal(-16)))
          CFI V2 load(1, XDATA, add(CFA_XSP16, literal(-15)))
          CFI V3 load(1, XDATA, add(CFA_XSP16, literal(-14)))
          CFI V4 load(1, XDATA, add(CFA_XSP16, literal(-13)))
          CFI V5 load(1, XDATA, add(CFA_XSP16, literal(-12)))
          CFI V6 load(1, XDATA, add(CFA_XSP16, literal(-11)))
          CFI V7 load(1, XDATA, add(CFA_XSP16, literal(-10)))
          CFI V8 load(1, XDATA, add(CFA_XSP16, literal(-9)))
          CFI V9 load(1, XDATA, add(CFA_XSP16, literal(-8)))
          CFI V10 load(1, XDATA, add(CFA_XSP16, literal(-7)))
          CFI R7 load(1, XDATA, add(CFA_XSP16, literal(-6)))
          CFI ?RET_LOW load(1, XDATA, add(CFA_XSP16, literal(-5)))
          CFI ?RET_HIGH load(1, XDATA, add(CFA_XSP16, literal(-4)))
          CFI ?BRET_EXT load(1, XDATA, add(CFA_XSP16, literal(-3)))
          CFI DPL0 load(1, XDATA, add(CFA_XSP16, literal(-2)))
          CFI DPH0 load(1, XDATA, add(CFA_XSP16, literal(-1)))
          CFI CFA_SP SP+-2
          CFI CFA_XSP16 add(XSP16, 39)
          CFI Block cfiCond16 Using cfiCommon0
          CFI (cfiCond16) Function zclGp_ProcessInGreenPowerClient
          CFI (cfiCond16) Conditional ??CrossCallReturnLabel_41
          CFI (cfiCond16) R6 load(1, XDATA, add(CFA_XSP16, literal(-19)))
          CFI (cfiCond16) VB load(1, XDATA, add(CFA_XSP16, literal(-18)))
          CFI (cfiCond16) V0 load(1, XDATA, add(CFA_XSP16, literal(-17)))
          CFI (cfiCond16) V1 load(1, XDATA, add(CFA_XSP16, literal(-16)))
          CFI (cfiCond16) V2 load(1, XDATA, add(CFA_XSP16, literal(-15)))
          CFI (cfiCond16) V3 load(1, XDATA, add(CFA_XSP16, literal(-14)))
          CFI (cfiCond16) V4 load(1, XDATA, add(CFA_XSP16, literal(-13)))
          CFI (cfiCond16) V5 load(1, XDATA, add(CFA_XSP16, literal(-12)))
          CFI (cfiCond16) V6 load(1, XDATA, add(CFA_XSP16, literal(-11)))
          CFI (cfiCond16) V7 load(1, XDATA, add(CFA_XSP16, literal(-10)))
          CFI (cfiCond16) V8 load(1, XDATA, add(CFA_XSP16, literal(-9)))
          CFI (cfiCond16) V9 load(1, XDATA, add(CFA_XSP16, literal(-8)))
          CFI (cfiCond16) V10 load(1, XDATA, add(CFA_XSP16, literal(-7)))
          CFI (cfiCond16) R7 load(1, XDATA, add(CFA_XSP16, literal(-6)))
          CFI (cfiCond16) ?RET_LOW load(1, XDATA, add(CFA_XSP16, literal(-5)))
          CFI (cfiCond16) ?RET_HIGH load(1, XDATA, add(CFA_XSP16, literal(-4)))
          CFI (cfiCond16) ?BRET_EXT load(1, XDATA, add(CFA_XSP16, literal(-3)))
          CFI (cfiCond16) DPL0 load(1, XDATA, add(CFA_XSP16, literal(-2)))
          CFI (cfiCond16) DPH0 load(1, XDATA, add(CFA_XSP16, literal(-1)))
          CFI (cfiCond16) CFA_SP SP+-2
          CFI (cfiCond16) CFA_XSP16 add(XSP16, 39)
          CFI Block cfiPicker17 Using cfiCommon1
          CFI (cfiPicker17) NoFunction
          CFI (cfiPicker17) Picker
        MOV     A,R0
        MOVX    @DPTR,A
        INC     DPTR
        MOV     A,R1
        MOVX    @DPTR,A
          CFI EndBlock cfiCond15
          CFI EndBlock cfiCond16
          CFI EndBlock cfiPicker17
        ; Setup parameters for call to function osal_memcpy
        ; Setup parameters for call to function osal_memcpy
        REQUIRE ??Subroutine31_0
        ; // Fall through to label ??Subroutine31_0

        RSEG BANKED_CODE:CODE:NOROOT(0)
??Subroutine31_0:
          CFI Block cfiCond18 Using cfiCommon0
          CFI Function zclGp_ProcessInGreenPowerClient
          CFI Conditional ??CrossCallReturnLabel_42
          CFI R6 load(1, XDATA, add(CFA_XSP16, literal(-19)))
          CFI VB load(1, XDATA, add(CFA_XSP16, literal(-18)))
          CFI V0 load(1, XDATA, add(CFA_XSP16, literal(-17)))
          CFI V1 load(1, XDATA, add(CFA_XSP16, literal(-16)))
          CFI V2 load(1, XDATA, add(CFA_XSP16, literal(-15)))
          CFI V3 load(1, XDATA, add(CFA_XSP16, literal(-14)))
          CFI V4 load(1, XDATA, add(CFA_XSP16, literal(-13)))
          CFI V5 load(1, XDATA, add(CFA_XSP16, literal(-12)))
          CFI V6 load(1, XDATA, add(CFA_XSP16, literal(-11)))
          CFI V7 load(1, XDATA, add(CFA_XSP16, literal(-10)))
          CFI V8 load(1, XDATA, add(CFA_XSP16, literal(-9)))
          CFI V9 load(1, XDATA, add(CFA_XSP16, literal(-8)))
          CFI V10 load(1, XDATA, add(CFA_XSP16, literal(-7)))
          CFI R7 load(1, XDATA, add(CFA_XSP16, literal(-6)))
          CFI ?RET_LOW load(1, XDATA, add(CFA_XSP16, literal(-5)))
          CFI ?RET_HIGH load(1, XDATA, add(CFA_XSP16, literal(-4)))
          CFI ?BRET_EXT load(1, XDATA, add(CFA_XSP16, literal(-3)))
          CFI DPL0 load(1, XDATA, add(CFA_XSP16, literal(-2)))
          CFI DPH0 load(1, XDATA, add(CFA_XSP16, literal(-1)))
          CFI CFA_SP SP+-2
          CFI CFA_XSP16 add(XSP16, 39)
          CFI Block cfiCond19 Using cfiCommon0
          CFI (cfiCond19) Function zclGp_ProcessInGreenPowerClient
          CFI (cfiCond19) Conditional ??CrossCallReturnLabel_43
          CFI (cfiCond19) R6 load(1, XDATA, add(CFA_XSP16, literal(-19)))
          CFI (cfiCond19) VB load(1, XDATA, add(CFA_XSP16, literal(-18)))
          CFI (cfiCond19) V0 load(1, XDATA, add(CFA_XSP16, literal(-17)))
          CFI (cfiCond19) V1 load(1, XDATA, add(CFA_XSP16, literal(-16)))
          CFI (cfiCond19) V2 load(1, XDATA, add(CFA_XSP16, literal(-15)))
          CFI (cfiCond19) V3 load(1, XDATA, add(CFA_XSP16, literal(-14)))
          CFI (cfiCond19) V4 load(1, XDATA, add(CFA_XSP16, literal(-13)))
          CFI (cfiCond19) V5 load(1, XDATA, add(CFA_XSP16, literal(-12)))
          CFI (cfiCond19) V6 load(1, XDATA, add(CFA_XSP16, literal(-11)))
          CFI (cfiCond19) V7 load(1, XDATA, add(CFA_XSP16, literal(-10)))
          CFI (cfiCond19) V8 load(1, XDATA, add(CFA_XSP16, literal(-9)))
          CFI (cfiCond19) V9 load(1, XDATA, add(CFA_XSP16, literal(-8)))
          CFI (cfiCond19) V10 load(1, XDATA, add(CFA_XSP16, literal(-7)))
          CFI (cfiCond19) R7 load(1, XDATA, add(CFA_XSP16, literal(-6)))
          CFI (cfiCond19) ?RET_LOW load(1, XDATA, add(CFA_XSP16, literal(-5)))
          CFI (cfiCond19) ?RET_HIGH load(1, XDATA, add(CFA_XSP16, literal(-4)))
          CFI (cfiCond19) ?BRET_EXT load(1, XDATA, add(CFA_XSP16, literal(-3)))
          CFI (cfiCond19) DPL0 load(1, XDATA, add(CFA_XSP16, literal(-2)))
          CFI (cfiCond19) DPH0 load(1, XDATA, add(CFA_XSP16, literal(-1)))
          CFI (cfiCond19) CFA_SP SP+-2
          CFI (cfiCond19) CFA_XSP16 add(XSP16, 39)
          CFI Block cfiCond20 Using cfiCommon0
          CFI (cfiCond20) Function zclGp_ProcessInGreenPowerClient
          CFI (cfiCond20) Conditional ??CrossCallReturnLabel_40
          CFI (cfiCond20) R6 load(1, XDATA, add(CFA_XSP16, literal(-19)))
          CFI (cfiCond20) VB load(1, XDATA, add(CFA_XSP16, literal(-18)))
          CFI (cfiCond20) V0 load(1, XDATA, add(CFA_XSP16, literal(-17)))
          CFI (cfiCond20) V1 load(1, XDATA, add(CFA_XSP16, literal(-16)))
          CFI (cfiCond20) V2 load(1, XDATA, add(CFA_XSP16, literal(-15)))
          CFI (cfiCond20) V3 load(1, XDATA, add(CFA_XSP16, literal(-14)))
          CFI (cfiCond20) V4 load(1, XDATA, add(CFA_XSP16, literal(-13)))
          CFI (cfiCond20) V5 load(1, XDATA, add(CFA_XSP16, literal(-12)))
          CFI (cfiCond20) V6 load(1, XDATA, add(CFA_XSP16, literal(-11)))
          CFI (cfiCond20) V7 load(1, XDATA, add(CFA_XSP16, literal(-10)))
          CFI (cfiCond20) V8 load(1, XDATA, add(CFA_XSP16, literal(-9)))
          CFI (cfiCond20) V9 load(1, XDATA, add(CFA_XSP16, literal(-8)))
          CFI (cfiCond20) V10 load(1, XDATA, add(CFA_XSP16, literal(-7)))
          CFI (cfiCond20) R7 load(1, XDATA, add(CFA_XSP16, literal(-6)))
          CFI (cfiCond20) ?RET_LOW load(1, XDATA, add(CFA_XSP16, literal(-5)))
          CFI (cfiCond20) ?RET_HIGH load(1, XDATA, add(CFA_XSP16, literal(-4)))
          CFI (cfiCond20) ?BRET_EXT load(1, XDATA, add(CFA_XSP16, literal(-3)))
          CFI (cfiCond20) DPL0 load(1, XDATA, add(CFA_XSP16, literal(-2)))
          CFI (cfiCond20) DPH0 load(1, XDATA, add(CFA_XSP16, literal(-1)))
          CFI (cfiCond20) CFA_SP SP+-2
          CFI (cfiCond20) CFA_XSP16 add(XSP16, 39)
          CFI Block cfiCond21 Using cfiCommon0
          CFI (cfiCond21) Function zclGp_ProcessInGreenPowerClient
          CFI (cfiCond21) Conditional ??CrossCallReturnLabel_41
          CFI (cfiCond21) R6 load(1, XDATA, add(CFA_XSP16, literal(-19)))
          CFI (cfiCond21) VB load(1, XDATA, add(CFA_XSP16, literal(-18)))
          CFI (cfiCond21) V0 load(1, XDATA, add(CFA_XSP16, literal(-17)))
          CFI (cfiCond21) V1 load(1, XDATA, add(CFA_XSP16, literal(-16)))
          CFI (cfiCond21) V2 load(1, XDATA, add(CFA_XSP16, literal(-15)))
          CFI (cfiCond21) V3 load(1, XDATA, add(CFA_XSP16, literal(-14)))
          CFI (cfiCond21) V4 load(1, XDATA, add(CFA_XSP16, literal(-13)))
          CFI (cfiCond21) V5 load(1, XDATA, add(CFA_XSP16, literal(-12)))
          CFI (cfiCond21) V6 load(1, XDATA, add(CFA_XSP16, literal(-11)))
          CFI (cfiCond21) V7 load(1, XDATA, add(CFA_XSP16, literal(-10)))
          CFI (cfiCond21) V8 load(1, XDATA, add(CFA_XSP16, literal(-9)))
          CFI (cfiCond21) V9 load(1, XDATA, add(CFA_XSP16, literal(-8)))
          CFI (cfiCond21) V10 load(1, XDATA, add(CFA_XSP16, literal(-7)))
          CFI (cfiCond21) R7 load(1, XDATA, add(CFA_XSP16, literal(-6)))
          CFI (cfiCond21) ?RET_LOW load(1, XDATA, add(CFA_XSP16, literal(-5)))
          CFI (cfiCond21) ?RET_HIGH load(1, XDATA, add(CFA_XSP16, literal(-4)))
          CFI (cfiCond21) ?BRET_EXT load(1, XDATA, add(CFA_XSP16, literal(-3)))
          CFI (cfiCond21) DPL0 load(1, XDATA, add(CFA_XSP16, literal(-2)))
          CFI (cfiCond21) DPH0 load(1, XDATA, add(CFA_XSP16, literal(-1)))
          CFI (cfiCond21) CFA_SP SP+-2
          CFI (cfiCond21) CFA_XSP16 add(XSP16, 39)
          CFI Block cfiPicker22 Using cfiCommon1
          CFI (cfiPicker22) NoFunction
          CFI (cfiPicker22) Picker
        MOV     DPL,?V0
        MOV     DPH,?V1
        MOVX    A,@DPTR
        MOV     ?V4,A
        INC     DPTR
        MOVX    A,@DPTR
        MOV     ?V5,A
        MOV     ?V6,#0x0
        MOV     R0,#?V4
        RET
          CFI EndBlock cfiCond18
          CFI EndBlock cfiCond19
          CFI EndBlock cfiCond20
          CFI EndBlock cfiCond21
          CFI EndBlock cfiPicker22

        RSEG BANKED_CODE:CODE:NOROOT(0)
?Subroutine6:
          CFI Block cfiCond23 Using cfiCommon0
          CFI Function zclGp_ProcessInGreenPowerClient
          CFI Conditional ??CrossCallReturnLabel_45
          CFI R6 load(1, XDATA, add(CFA_XSP16, literal(-19)))
          CFI VB load(1, XDATA, add(CFA_XSP16, literal(-18)))
          CFI V0 load(1, XDATA, add(CFA_XSP16, literal(-17)))
          CFI V1 load(1, XDATA, add(CFA_XSP16, literal(-16)))
          CFI V2 load(1, XDATA, add(CFA_XSP16, literal(-15)))
          CFI V3 load(1, XDATA, add(CFA_XSP16, literal(-14)))
          CFI V4 load(1, XDATA, add(CFA_XSP16, literal(-13)))
          CFI V5 load(1, XDATA, add(CFA_XSP16, literal(-12)))
          CFI V6 load(1, XDATA, add(CFA_XSP16, literal(-11)))
          CFI V7 load(1, XDATA, add(CFA_XSP16, literal(-10)))
          CFI V8 load(1, XDATA, add(CFA_XSP16, literal(-9)))
          CFI V9 load(1, XDATA, add(CFA_XSP16, literal(-8)))
          CFI V10 load(1, XDATA, add(CFA_XSP16, literal(-7)))
          CFI R7 load(1, XDATA, add(CFA_XSP16, literal(-6)))
          CFI ?RET_LOW load(1, XDATA, add(CFA_XSP16, literal(-5)))
          CFI ?RET_HIGH load(1, XDATA, add(CFA_XSP16, literal(-4)))
          CFI ?BRET_EXT load(1, XDATA, add(CFA_XSP16, literal(-3)))
          CFI DPL0 load(1, XDATA, add(CFA_XSP16, literal(-2)))
          CFI DPH0 load(1, XDATA, add(CFA_XSP16, literal(-1)))
          CFI CFA_SP SP+-2
          CFI CFA_XSP16 add(XSP16, 39)
          CFI Block cfiCond24 Using cfiCommon0
          CFI (cfiCond24) Function zclGp_ProcessInGreenPowerClient
          CFI (cfiCond24) Conditional ??CrossCallReturnLabel_46
          CFI (cfiCond24) R6 load(1, XDATA, add(CFA_XSP16, literal(-19)))
          CFI (cfiCond24) VB load(1, XDATA, add(CFA_XSP16, literal(-18)))
          CFI (cfiCond24) V0 load(1, XDATA, add(CFA_XSP16, literal(-17)))
          CFI (cfiCond24) V1 load(1, XDATA, add(CFA_XSP16, literal(-16)))
          CFI (cfiCond24) V2 load(1, XDATA, add(CFA_XSP16, literal(-15)))
          CFI (cfiCond24) V3 load(1, XDATA, add(CFA_XSP16, literal(-14)))
          CFI (cfiCond24) V4 load(1, XDATA, add(CFA_XSP16, literal(-13)))
          CFI (cfiCond24) V5 load(1, XDATA, add(CFA_XSP16, literal(-12)))
          CFI (cfiCond24) V6 load(1, XDATA, add(CFA_XSP16, literal(-11)))
          CFI (cfiCond24) V7 load(1, XDATA, add(CFA_XSP16, literal(-10)))
          CFI (cfiCond24) V8 load(1, XDATA, add(CFA_XSP16, literal(-9)))
          CFI (cfiCond24) V9 load(1, XDATA, add(CFA_XSP16, literal(-8)))
          CFI (cfiCond24) V10 load(1, XDATA, add(CFA_XSP16, literal(-7)))
          CFI (cfiCond24) R7 load(1, XDATA, add(CFA_XSP16, literal(-6)))
          CFI (cfiCond24) ?RET_LOW load(1, XDATA, add(CFA_XSP16, literal(-5)))
          CFI (cfiCond24) ?RET_HIGH load(1, XDATA, add(CFA_XSP16, literal(-4)))
          CFI (cfiCond24) ?BRET_EXT load(1, XDATA, add(CFA_XSP16, literal(-3)))
          CFI (cfiCond24) DPL0 load(1, XDATA, add(CFA_XSP16, literal(-2)))
          CFI (cfiCond24) DPH0 load(1, XDATA, add(CFA_XSP16, literal(-1)))
          CFI (cfiCond24) CFA_SP SP+-2
          CFI (cfiCond24) CFA_XSP16 add(XSP16, 39)
          CFI Block cfiCond25 Using cfiCommon0
          CFI (cfiCond25) Function zclGp_ProcessInGreenPowerClient
          CFI (cfiCond25) Conditional ??CrossCallReturnLabel_47
          CFI (cfiCond25) R6 load(1, XDATA, add(CFA_XSP16, literal(-19)))
          CFI (cfiCond25) VB load(1, XDATA, add(CFA_XSP16, literal(-18)))
          CFI (cfiCond25) V0 load(1, XDATA, add(CFA_XSP16, literal(-17)))
          CFI (cfiCond25) V1 load(1, XDATA, add(CFA_XSP16, literal(-16)))
          CFI (cfiCond25) V2 load(1, XDATA, add(CFA_XSP16, literal(-15)))
          CFI (cfiCond25) V3 load(1, XDATA, add(CFA_XSP16, literal(-14)))
          CFI (cfiCond25) V4 load(1, XDATA, add(CFA_XSP16, literal(-13)))
          CFI (cfiCond25) V5 load(1, XDATA, add(CFA_XSP16, literal(-12)))
          CFI (cfiCond25) V6 load(1, XDATA, add(CFA_XSP16, literal(-11)))
          CFI (cfiCond25) V7 load(1, XDATA, add(CFA_XSP16, literal(-10)))
          CFI (cfiCond25) V8 load(1, XDATA, add(CFA_XSP16, literal(-9)))
          CFI (cfiCond25) V9 load(1, XDATA, add(CFA_XSP16, literal(-8)))
          CFI (cfiCond25) V10 load(1, XDATA, add(CFA_XSP16, literal(-7)))
          CFI (cfiCond25) R7 load(1, XDATA, add(CFA_XSP16, literal(-6)))
          CFI (cfiCond25) ?RET_LOW load(1, XDATA, add(CFA_XSP16, literal(-5)))
          CFI (cfiCond25) ?RET_HIGH load(1, XDATA, add(CFA_XSP16, literal(-4)))
          CFI (cfiCond25) ?BRET_EXT load(1, XDATA, add(CFA_XSP16, literal(-3)))
          CFI (cfiCond25) DPL0 load(1, XDATA, add(CFA_XSP16, literal(-2)))
          CFI (cfiCond25) DPH0 load(1, XDATA, add(CFA_XSP16, literal(-1)))
          CFI (cfiCond25) CFA_SP SP+-2
          CFI (cfiCond25) CFA_XSP16 add(XSP16, 39)
          CFI Block cfiPicker26 Using cfiCommon1
          CFI (cfiPicker26) NoFunction
          CFI (cfiPicker26) Picker
        MOV     DPL,?V0
        MOV     DPH,?V1
        MOVX    A,@DPTR
        ADD     A,#0x1
          CFI EndBlock cfiCond23
          CFI EndBlock cfiCond24
          CFI EndBlock cfiCond25
          CFI EndBlock cfiPicker26
        REQUIRE ??Subroutine32_0
        ; // Fall through to label ??Subroutine32_0

        RSEG BANKED_CODE:CODE:NOROOT(0)
??Subroutine32_0:
          CFI Block cfiCond27 Using cfiCommon0
          CFI Function zclGp_ProcessInGreenPowerClient
          CFI Conditional ??CrossCallReturnLabel_44
          CFI R6 load(1, XDATA, add(CFA_XSP16, literal(-19)))
          CFI VB load(1, XDATA, add(CFA_XSP16, literal(-18)))
          CFI V0 load(1, XDATA, add(CFA_XSP16, literal(-17)))
          CFI V1 load(1, XDATA, add(CFA_XSP16, literal(-16)))
          CFI V2 load(1, XDATA, add(CFA_XSP16, literal(-15)))
          CFI V3 load(1, XDATA, add(CFA_XSP16, literal(-14)))
          CFI V4 load(1, XDATA, add(CFA_XSP16, literal(-13)))
          CFI V5 load(1, XDATA, add(CFA_XSP16, literal(-12)))
          CFI V6 load(1, XDATA, add(CFA_XSP16, literal(-11)))
          CFI V7 load(1, XDATA, add(CFA_XSP16, literal(-10)))
          CFI V8 load(1, XDATA, add(CFA_XSP16, literal(-9)))
          CFI V9 load(1, XDATA, add(CFA_XSP16, literal(-8)))
          CFI V10 load(1, XDATA, add(CFA_XSP16, literal(-7)))
          CFI R7 load(1, XDATA, add(CFA_XSP16, literal(-6)))
          CFI ?RET_LOW load(1, XDATA, add(CFA_XSP16, literal(-5)))
          CFI ?RET_HIGH load(1, XDATA, add(CFA_XSP16, literal(-4)))
          CFI ?BRET_EXT load(1, XDATA, add(CFA_XSP16, literal(-3)))
          CFI DPL0 load(1, XDATA, add(CFA_XSP16, literal(-2)))
          CFI DPH0 load(1, XDATA, add(CFA_XSP16, literal(-1)))
          CFI CFA_SP SP+-2
          CFI CFA_XSP16 add(XSP16, 39)
          CFI Block cfiCond28 Using cfiCommon0
          CFI (cfiCond28) Function zclGp_ProcessInGreenPowerClient
          CFI (cfiCond28) Conditional ??CrossCallReturnLabel_45
          CFI (cfiCond28) R6 load(1, XDATA, add(CFA_XSP16, literal(-19)))
          CFI (cfiCond28) VB load(1, XDATA, add(CFA_XSP16, literal(-18)))
          CFI (cfiCond28) V0 load(1, XDATA, add(CFA_XSP16, literal(-17)))
          CFI (cfiCond28) V1 load(1, XDATA, add(CFA_XSP16, literal(-16)))
          CFI (cfiCond28) V2 load(1, XDATA, add(CFA_XSP16, literal(-15)))
          CFI (cfiCond28) V3 load(1, XDATA, add(CFA_XSP16, literal(-14)))
          CFI (cfiCond28) V4 load(1, XDATA, add(CFA_XSP16, literal(-13)))
          CFI (cfiCond28) V5 load(1, XDATA, add(CFA_XSP16, literal(-12)))
          CFI (cfiCond28) V6 load(1, XDATA, add(CFA_XSP16, literal(-11)))
          CFI (cfiCond28) V7 load(1, XDATA, add(CFA_XSP16, literal(-10)))
          CFI (cfiCond28) V8 load(1, XDATA, add(CFA_XSP16, literal(-9)))
          CFI (cfiCond28) V9 load(1, XDATA, add(CFA_XSP16, literal(-8)))
          CFI (cfiCond28) V10 load(1, XDATA, add(CFA_XSP16, literal(-7)))
          CFI (cfiCond28) R7 load(1, XDATA, add(CFA_XSP16, literal(-6)))
          CFI (cfiCond28) ?RET_LOW load(1, XDATA, add(CFA_XSP16, literal(-5)))
          CFI (cfiCond28) ?RET_HIGH load(1, XDATA, add(CFA_XSP16, literal(-4)))
          CFI (cfiCond28) ?BRET_EXT load(1, XDATA, add(CFA_XSP16, literal(-3)))
          CFI (cfiCond28) DPL0 load(1, XDATA, add(CFA_XSP16, literal(-2)))
          CFI (cfiCond28) DPH0 load(1, XDATA, add(CFA_XSP16, literal(-1)))
          CFI (cfiCond28) CFA_SP SP+-2
          CFI (cfiCond28) CFA_XSP16 add(XSP16, 39)
          CFI Block cfiCond29 Using cfiCommon0
          CFI (cfiCond29) Function zclGp_ProcessInGreenPowerClient
          CFI (cfiCond29) Conditional ??CrossCallReturnLabel_46
          CFI (cfiCond29) R6 load(1, XDATA, add(CFA_XSP16, literal(-19)))
          CFI (cfiCond29) VB load(1, XDATA, add(CFA_XSP16, literal(-18)))
          CFI (cfiCond29) V0 load(1, XDATA, add(CFA_XSP16, literal(-17)))
          CFI (cfiCond29) V1 load(1, XDATA, add(CFA_XSP16, literal(-16)))
          CFI (cfiCond29) V2 load(1, XDATA, add(CFA_XSP16, literal(-15)))
          CFI (cfiCond29) V3 load(1, XDATA, add(CFA_XSP16, literal(-14)))
          CFI (cfiCond29) V4 load(1, XDATA, add(CFA_XSP16, literal(-13)))
          CFI (cfiCond29) V5 load(1, XDATA, add(CFA_XSP16, literal(-12)))
          CFI (cfiCond29) V6 load(1, XDATA, add(CFA_XSP16, literal(-11)))
          CFI (cfiCond29) V7 load(1, XDATA, add(CFA_XSP16, literal(-10)))
          CFI (cfiCond29) V8 load(1, XDATA, add(CFA_XSP16, literal(-9)))
          CFI (cfiCond29) V9 load(1, XDATA, add(CFA_XSP16, literal(-8)))
          CFI (cfiCond29) V10 load(1, XDATA, add(CFA_XSP16, literal(-7)))
          CFI (cfiCond29) R7 load(1, XDATA, add(CFA_XSP16, literal(-6)))
          CFI (cfiCond29) ?RET_LOW load(1, XDATA, add(CFA_XSP16, literal(-5)))
          CFI (cfiCond29) ?RET_HIGH load(1, XDATA, add(CFA_XSP16, literal(-4)))
          CFI (cfiCond29) ?BRET_EXT load(1, XDATA, add(CFA_XSP16, literal(-3)))
          CFI (cfiCond29) DPL0 load(1, XDATA, add(CFA_XSP16, literal(-2)))
          CFI (cfiCond29) DPH0 load(1, XDATA, add(CFA_XSP16, literal(-1)))
          CFI (cfiCond29) CFA_SP SP+-2
          CFI (cfiCond29) CFA_XSP16 add(XSP16, 39)
          CFI Block cfiCond30 Using cfiCommon0
          CFI (cfiCond30) Function zclGp_ProcessInGreenPowerClient
          CFI (cfiCond30) Conditional ??CrossCallReturnLabel_47
          CFI (cfiCond30) R6 load(1, XDATA, add(CFA_XSP16, literal(-19)))
          CFI (cfiCond30) VB load(1, XDATA, add(CFA_XSP16, literal(-18)))
          CFI (cfiCond30) V0 load(1, XDATA, add(CFA_XSP16, literal(-17)))
          CFI (cfiCond30) V1 load(1, XDATA, add(CFA_XSP16, literal(-16)))
          CFI (cfiCond30) V2 load(1, XDATA, add(CFA_XSP16, literal(-15)))
          CFI (cfiCond30) V3 load(1, XDATA, add(CFA_XSP16, literal(-14)))
          CFI (cfiCond30) V4 load(1, XDATA, add(CFA_XSP16, literal(-13)))
          CFI (cfiCond30) V5 load(1, XDATA, add(CFA_XSP16, literal(-12)))
          CFI (cfiCond30) V6 load(1, XDATA, add(CFA_XSP16, literal(-11)))
          CFI (cfiCond30) V7 load(1, XDATA, add(CFA_XSP16, literal(-10)))
          CFI (cfiCond30) V8 load(1, XDATA, add(CFA_XSP16, literal(-9)))
          CFI (cfiCond30) V9 load(1, XDATA, add(CFA_XSP16, literal(-8)))
          CFI (cfiCond30) V10 load(1, XDATA, add(CFA_XSP16, literal(-7)))
          CFI (cfiCond30) R7 load(1, XDATA, add(CFA_XSP16, literal(-6)))
          CFI (cfiCond30) ?RET_LOW load(1, XDATA, add(CFA_XSP16, literal(-5)))
          CFI (cfiCond30) ?RET_HIGH load(1, XDATA, add(CFA_XSP16, literal(-4)))
          CFI (cfiCond30) ?BRET_EXT load(1, XDATA, add(CFA_XSP16, literal(-3)))
          CFI (cfiCond30) DPL0 load(1, XDATA, add(CFA_XSP16, literal(-2)))
          CFI (cfiCond30) DPH0 load(1, XDATA, add(CFA_XSP16, literal(-1)))
          CFI (cfiCond30) CFA_SP SP+-2
          CFI (cfiCond30) CFA_XSP16 add(XSP16, 39)
          CFI Block cfiPicker31 Using cfiCommon1
          CFI (cfiPicker31) NoFunction
          CFI (cfiPicker31) Picker
        MOV     R0,A
        INC     DPTR
        MOVX    A,@DPTR
        ADDC    A,#0x0
        MOV     R1,A
        MOV     DPL,?V0
        MOV     DPH,?V1
        MOV     A,R0
        MOVX    @DPTR,A
        INC     DPTR
        MOV     A,R1
        MOVX    @DPTR,A
        RET
          CFI EndBlock cfiCond27
          CFI EndBlock cfiCond28
          CFI EndBlock cfiCond29
          CFI EndBlock cfiCond30
          CFI EndBlock cfiPicker31
//  372 
//  373 /*********************************************************************
//  374  * @fn      zclGp_SendGpNotificationCommand
//  375  *
//  376  * @brief   Send the Green Power Notification Command to a device
//  377  *
//  378  * @param   pCmd - Pointer to GP Notification Struct
//  379  *
//  380  * @return  ZStatus_t
//  381  */

        RSEG BANKED_CODE:CODE:NOROOT(0)
//  382 ZStatus_t zclGp_SendGpNotificationCommand( gpNotificationCmd_t *pCmd )
zclGp_SendGpNotificationCommand:
          CFI Block cfiBlock32 Using cfiCommon0
          CFI Function zclGp_SendGpNotificationCommand
        CODE
//  383 {
        FUNCALL zclGp_SendGpNotificationCommand, osal_mem_alloc
        LOCFRAME ISTACK, 0, STACK
        LOCFRAME PSTACK, 0, STACK
        LOCFRAME XSTACK, 23, STACK
        LOCFRAME IOVERLAY, 0, STATIC
        LOCFRAME DOVERLAY, 0, STATIC
        ARGFRAME ISTACK, 0, STACK
        ARGFRAME PSTACK, 0, STACK
        ARGFRAME XSTACK, 23, STACK
        ARGFRAME IOVERLAY, 0, STATIC
        ARGFRAME DOVERLAY, 0, STATIC
        FUNCALL zclGp_SendGpNotificationCommand, osal_memcpy
        LOCFRAME ISTACK, 0, STACK
        LOCFRAME PSTACK, 0, STACK
        LOCFRAME XSTACK, 26, STACK
        LOCFRAME IOVERLAY, 0, STATIC
        LOCFRAME DOVERLAY, 0, STATIC
        ARGFRAME ISTACK, 0, STACK
        ARGFRAME PSTACK, 0, STACK
        ARGFRAME XSTACK, 26, STACK
        ARGFRAME IOVERLAY, 0, STATIC
        ARGFRAME DOVERLAY, 0, STATIC
        FUNCALL zclGp_SendGpNotificationCommand, osal_memcpy
        LOCFRAME ISTACK, 0, STACK
        LOCFRAME PSTACK, 0, STACK
        LOCFRAME XSTACK, 26, STACK
        LOCFRAME IOVERLAY, 0, STATIC
        LOCFRAME DOVERLAY, 0, STATIC
        ARGFRAME ISTACK, 0, STACK
        ARGFRAME PSTACK, 0, STACK
        ARGFRAME XSTACK, 26, STACK
        ARGFRAME IOVERLAY, 0, STATIC
        ARGFRAME DOVERLAY, 0, STATIC
        FUNCALL zclGp_SendGpNotificationCommand, osal_memcpy
        LOCFRAME ISTACK, 0, STACK
        LOCFRAME PSTACK, 0, STACK
        LOCFRAME XSTACK, 26, STACK
        LOCFRAME IOVERLAY, 0, STATIC
        LOCFRAME DOVERLAY, 0, STATIC
        ARGFRAME ISTACK, 0, STACK
        ARGFRAME PSTACK, 0, STACK
        ARGFRAME XSTACK, 26, STACK
        ARGFRAME IOVERLAY, 0, STATIC
        ARGFRAME DOVERLAY, 0, STATIC
        FUNCALL zclGp_SendGpNotificationCommand, osal_memcpy
        LOCFRAME ISTACK, 0, STACK
        LOCFRAME PSTACK, 0, STACK
        LOCFRAME XSTACK, 26, STACK
        LOCFRAME IOVERLAY, 0, STATIC
        LOCFRAME DOVERLAY, 0, STATIC
        ARGFRAME ISTACK, 0, STACK
        ARGFRAME PSTACK, 0, STACK
        ARGFRAME XSTACK, 26, STACK
        ARGFRAME IOVERLAY, 0, STATIC
        ARGFRAME DOVERLAY, 0, STATIC
        FUNCALL zclGp_SendGpNotificationCommand, osal_memcpy
        LOCFRAME ISTACK, 0, STACK
        LOCFRAME PSTACK, 0, STACK
        LOCFRAME XSTACK, 26, STACK
        LOCFRAME IOVERLAY, 0, STATIC
        LOCFRAME DOVERLAY, 0, STATIC
        ARGFRAME ISTACK, 0, STACK
        ARGFRAME PSTACK, 0, STACK
        ARGFRAME XSTACK, 26, STACK
        ARGFRAME IOVERLAY, 0, STATIC
        ARGFRAME DOVERLAY, 0, STATIC
        FUNCALL zclGp_SendGpNotificationCommand, osal_memcpy
        LOCFRAME ISTACK, 0, STACK
        LOCFRAME PSTACK, 0, STACK
        LOCFRAME XSTACK, 26, STACK
        LOCFRAME IOVERLAY, 0, STATIC
        LOCFRAME DOVERLAY, 0, STATIC
        ARGFRAME ISTACK, 0, STACK
        ARGFRAME PSTACK, 0, STACK
        ARGFRAME XSTACK, 26, STACK
        ARGFRAME IOVERLAY, 0, STATIC
        ARGFRAME DOVERLAY, 0, STATIC
        FUNCALL zclGp_SendGpNotificationCommand, gp_AddCmdPayloadMsgNode
        LOCFRAME ISTACK, 0, STACK
        LOCFRAME PSTACK, 0, STACK
        LOCFRAME XSTACK, 23, STACK
        LOCFRAME IOVERLAY, 0, STATIC
        LOCFRAME DOVERLAY, 0, STATIC
        ARGFRAME ISTACK, 0, STACK
        ARGFRAME PSTACK, 0, STACK
        ARGFRAME XSTACK, 23, STACK
        ARGFRAME IOVERLAY, 0, STATIC
        ARGFRAME DOVERLAY, 0, STATIC
        FUNCALL zclGp_SendGpNotificationCommand, gp_addPairedSinksToMsgQueue
        LOCFRAME ISTACK, 0, STACK
        LOCFRAME PSTACK, 0, STACK
        LOCFRAME XSTACK, 23, STACK
        LOCFRAME IOVERLAY, 0, STATIC
        LOCFRAME DOVERLAY, 0, STATIC
        ARGFRAME ISTACK, 0, STACK
        ARGFRAME PSTACK, 0, STACK
        ARGFRAME XSTACK, 23, STACK
        ARGFRAME IOVERLAY, 0, STATIC
        ARGFRAME DOVERLAY, 0, STATIC
        FUNCALL zclGp_SendGpNotificationCommand, osal_start_timerEx
        LOCFRAME ISTACK, 0, STACK
        LOCFRAME PSTACK, 0, STACK
        LOCFRAME XSTACK, 27, STACK
        LOCFRAME IOVERLAY, 0, STATIC
        LOCFRAME DOVERLAY, 0, STATIC
        ARGFRAME ISTACK, 0, STACK
        ARGFRAME PSTACK, 0, STACK
        ARGFRAME XSTACK, 27, STACK
        ARGFRAME IOVERLAY, 0, STATIC
        ARGFRAME DOVERLAY, 0, STATIC
        REQUIRE ?V0
        REQUIRE ?V1
        REQUIRE ?V2
        REQUIRE ?V3
        REQUIRE ?V4
        REQUIRE ?V5
        REQUIRE ?V6
        REQUIRE ?V7
        REQUIRE ?V8
        REQUIRE ?V9
        REQUIRE ?V10
        REQUIRE ?V11
        REQUIRE ?V12
        REQUIRE ?V13
        REQUIRE ?V14
        MOV     A,#-0x17
        LCALL   ?BANKED_ENTER_XDATA
          CFI DPH0 load(1, XDATA, add(CFA_XSP16, literal(-1)))
          CFI DPL0 load(1, XDATA, add(CFA_XSP16, literal(-2)))
          CFI ?BRET_EXT load(1, XDATA, add(CFA_XSP16, literal(-3)))
          CFI ?RET_HIGH load(1, XDATA, add(CFA_XSP16, literal(-4)))
          CFI ?RET_LOW load(1, XDATA, add(CFA_XSP16, literal(-5)))
          CFI R7 load(1, XDATA, add(CFA_XSP16, literal(-6)))
          CFI V14 load(1, XDATA, add(CFA_XSP16, literal(-7)))
          CFI V13 load(1, XDATA, add(CFA_XSP16, literal(-8)))
          CFI V12 load(1, XDATA, add(CFA_XSP16, literal(-9)))
          CFI V11 load(1, XDATA, add(CFA_XSP16, literal(-10)))
          CFI V10 load(1, XDATA, add(CFA_XSP16, literal(-11)))
          CFI V9 load(1, XDATA, add(CFA_XSP16, literal(-12)))
          CFI V8 load(1, XDATA, add(CFA_XSP16, literal(-13)))
          CFI V7 load(1, XDATA, add(CFA_XSP16, literal(-14)))
          CFI V6 load(1, XDATA, add(CFA_XSP16, literal(-15)))
          CFI V5 load(1, XDATA, add(CFA_XSP16, literal(-16)))
          CFI V4 load(1, XDATA, add(CFA_XSP16, literal(-17)))
          CFI V3 load(1, XDATA, add(CFA_XSP16, literal(-18)))
          CFI V2 load(1, XDATA, add(CFA_XSP16, literal(-19)))
          CFI V1 load(1, XDATA, add(CFA_XSP16, literal(-20)))
          CFI V0 load(1, XDATA, add(CFA_XSP16, literal(-21)))
          CFI VB load(1, XDATA, add(CFA_XSP16, literal(-22)))
          CFI R6 load(1, XDATA, add(CFA_XSP16, literal(-23)))
          CFI CFA_SP SP+0
          CFI CFA_XSP16 add(XSP16, 23)
        ; Saved register size: 23
        ; Auto size: 0
        MOV     ?V0,R2
        MOV     ?V1,R3
//  384   uint8 *buf = NULL;
//  385   uint8 *pBuf = NULL;
//  386   uint8 *pGpdId = NULL;
        MOV     ?V8,#0x0
        MOV     ?V9,#0x0
//  387   uint8 appId;
//  388   ZStatus_t status;
//  389   uint16 len = 11;  // options + GPD Sec Counter + Cmd ID + payloadLen + GPP Short Address + GPP-GPD link
        MOV     ?V2,#0xb
        MOV     DPL,R2
        MOV     DPH,R3
        MOVX    A,@DPTR
        ANL     A,#0x7
        MOV     R0,A
        JNZ     ??zclGp_SendGpNotificationCommand_0
//  390   gpCmdPayloadMsg_t *pCmdPayloadMsgCurr = NULL;
//  391   
//  392   // Check some stuff to calculate the packet len
//  393   // If Application Id bitfield is 0b000
//  394   if( GP_IS_APPLICATION_ID_GPD( pCmd->options ) )
//  395   {
//  396     len += 4;  // GPD ID
        MOV     ?V2,#0xf
        SJMP    ??zclGp_SendGpNotificationCommand_1
//  397   }
//  398   // If Application Id bitfield is 0b010
//  399   else if( GP_IS_APPLICATION_ID_IEEE( pCmd->options ) )
??zclGp_SendGpNotificationCommand_0:
        MOV     A,#0x2
        XRL     A,R0
        JNZ     ??zclGp_SendGpNotificationCommand_1
//  400   {
//  401     len += 9;  // IEEE addr + EP
        MOV     ?V2,#0x14
//  402   }
//  403   
//  404   // Length of the command payload
//  405   len += pCmd->payloadLen;
??zclGp_SendGpNotificationCommand_1:
        MOV     A,R2
        ADD     A,#0x14
        MOV     ?V10,A
        CLR     A
        ADDC    A,?V1
        MOV     ?V11,A
        MOV     DPL,?V10
        MOV     DPH,A
        MOVX    A,@DPTR
        MOV     R0,A
        MOV     A,?V2
        ADD     A,R0
        MOV     ?V2,A
        CLR     A
        ADDC    A,#0x0
//  406 
//  407   buf = zcl_mem_alloc( len );
        ; Setup parameters for call to function osal_mem_alloc
        MOV     R2,?V2
        MOV     R3,A
        LCALL   `??osal_mem_alloc::?relay`; Banked call to: osal_mem_alloc
        MOV     ?V12,R2
        MOV     ?V13,R3
//  408   if ( buf )
        MOV     A,R2
        ORL     A,?V13
        JNZ     $+5
        LJMP    ??zclGp_SendGpNotificationCommand_2 & 0xFFFF
//  409   {
//  410     pBuf = buf;
//  411     
//  412     zcl_memcpy( pBuf, &pCmd->options, sizeof ( uint16 ) );
        ; Setup parameters for call to function osal_memcpy
        MOV     ?V4,?V0
        MOV     ?V5,?V1
        MOV     ?V6,#0x0
        MOV     R0,#?V4
        LCALL   ?PUSH_XSTACK_I_THREE
          CFI CFA_XSP16 add(XSP16, 26)
        MOV     R4,#0x2
        MOV     R5,#0x0
        LCALL   `??osal_memcpy::?relay`; Banked call to: osal_memcpy
        MOV     A,#0x3
        LCALL   ?DEALLOC_XSTACK8
          CFI CFA_XSP16 add(XSP16, 23)
//  413     pBuf += sizeof ( uint16 );
        MOV     A,?V12
        ADD     A,#0x2
        MOV     R6,A
        CLR     A
        ADDC    A,?V13
        MOV     R7,A
        MOV     DPL,?V0
        MOV     DPH,?V1
        MOVX    A,@DPTR
        ANL     A,#0x7
        MOV     R0,A
        JNZ     ??zclGp_SendGpNotificationCommand_3
//  414     
//  415     // If Application Id bitfield is 0b000
//  416     if( GP_IS_APPLICATION_ID_GPD( pCmd->options ) )
//  417     {
//  418       zcl_memcpy( pBuf, &pCmd->gpdId, sizeof ( uint32 ) );
        MOV     A,?V0
        ADD     A,#0x2
        LCALL   ?Subroutine23 & 0xFFFF
??CrossCallReturnLabel_22:
        LCALL   ?PUSH_XSTACK_I_THREE
          CFI CFA_XSP16 add(XSP16, 26)
        MOV     R4,#0x4
        MOV     R5,#0x0
        MOV     A,R6
        MOV     R2,A
        MOV     A,R7
        MOV     R3,A
        LCALL   `??osal_memcpy::?relay`; Banked call to: osal_memcpy
        MOV     A,#0x3
        LCALL   ?DEALLOC_XSTACK8
          CFI CFA_XSP16 add(XSP16, 23)
//  419       pGpdId = ( uint8* )&pCmd->gpdId;
//  420       appId = GP_OPT_APP_ID_GPD;
        MOV     ?V7,#0x0
//  421       pBuf += sizeof ( uint32 );
        MOV     A,R6
        ADD     A,#0x4
        SJMP    ??CrossCallReturnLabel_4
//  422     }
//  423     // If Application Id bitfield is 0b010
//  424     else if( GP_IS_APPLICATION_ID_IEEE( pCmd->options ) )
??zclGp_SendGpNotificationCommand_3:
        MOV     A,#0x2
        XRL     A,R0
        JNZ     ??zclGp_SendGpNotificationCommand_4
//  425     {
//  426       zcl_memcpy( pBuf, &pCmd->gpdIEEE, Z_EXTADDR_LEN );
        MOV     A,?V0
        ADD     A,#0x6
        LCALL   ?Subroutine23 & 0xFFFF
??CrossCallReturnLabel_23:
        LCALL   ?PUSH_XSTACK_I_THREE
          CFI CFA_XSP16 add(XSP16, 26)
        MOV     R4,#0x8
        MOV     R5,#0x0
        MOV     A,R6
        MOV     R2,A
        MOV     A,R7
        MOV     R3,A
        LCALL   `??osal_memcpy::?relay`; Banked call to: osal_memcpy
        MOV     A,#0x3
        LCALL   ?DEALLOC_XSTACK8
          CFI CFA_XSP16 add(XSP16, 23)
//  427       pGpdId = pCmd->gpdIEEE;
//  428       appId = GP_OPT_APP_ID_IEEE;
        MOV     ?V7,#0x2
//  429       pBuf += Z_EXTADDR_LEN;
//  430       *pBuf++ = pCmd->ep;
        MOV     A,?V0
        ADD     A,#0xe
        MOV     DPL,A
        CLR     A
        ADDC    A,?V1
        LCALL   ?Subroutine11 & 0xFFFF
//  431     }
??CrossCallReturnLabel_4:
        MOV     R6,A
        JNC     ??zclGp_SendGpNotificationCommand_4
        INC     R7
//  432     
//  433     zcl_memcpy( pBuf, &pCmd->gpdSecCounter, sizeof ( uint32 ) );
??zclGp_SendGpNotificationCommand_4:
        ; Setup parameters for call to function osal_memcpy
        MOV     A,?V0
        ADD     A,#0xf
        LCALL   ?Subroutine24 & 0xFFFF
??CrossCallReturnLabel_24:
        LCALL   ?PUSH_XSTACK_I_THREE
          CFI CFA_XSP16 add(XSP16, 26)
        MOV     R4,#0x4
        MOV     R5,#0x0
        MOV     A,R6
        MOV     R2,A
        MOV     A,R7
        MOV     R3,A
        LCALL   `??osal_memcpy::?relay`; Banked call to: osal_memcpy
        MOV     A,#0x3
        LCALL   ?DEALLOC_XSTACK8
          CFI CFA_XSP16 add(XSP16, 23)
//  434     pBuf += sizeof ( uint32 );
//  435 
//  436     *pBuf++ = pCmd->cmdId;
        MOV     A,?V0
        ADD     A,#0x13
        MOV     DPL,A
        CLR     A
        ADDC    A,?V1
        LCALL   ?Subroutine7 & 0xFFFF
//  437     
//  438     *pBuf++ = pCmd->payloadLen;
??CrossCallReturnLabel_0:
        JNC     ??zclGp_SendGpNotificationCommand_5
        INC     R7
//  439     if ( pCmd->payloadLen > 0 )
??zclGp_SendGpNotificationCommand_5:
        MOV     DPL,?V10
        MOV     DPH,?V11
        MOVX    A,@DPTR
        MOV     R4,A
        JZ      ??CrossCallReturnLabel_10
//  440     {
//  441       zcl_memcpy( pBuf, &pCmd->cmdPayload, pCmd->payloadLen );
        ; Setup parameters for call to function osal_memcpy
        MOV     A,?V0
        ADD     A,#0x15
        LCALL   ?Subroutine24 & 0xFFFF
??CrossCallReturnLabel_25:
        LCALL   ?PUSH_XSTACK_I_THREE
          CFI CFA_XSP16 add(XSP16, 26)
        MOV     R5,#0x0
        MOV     A,R6
        MOV     R2,A
        MOV     A,R7
        MOV     R3,A
        LCALL   `??osal_memcpy::?relay`; Banked call to: osal_memcpy
        MOV     A,#0x3
        LCALL   ?DEALLOC_XSTACK8
          CFI CFA_XSP16 add(XSP16, 23)
//  442       pBuf += pCmd->payloadLen;
        LCALL   ?Subroutine17 & 0xFFFF
//  443     }
//  444     
//  445     zcl_memcpy( pBuf, &pCmd->gppShortAddr, sizeof ( uint16 ) );
??CrossCallReturnLabel_10:
        ; Setup parameters for call to function osal_memcpy
        MOV     A,?V0
        ADD     A,#0x17
        LCALL   ?Subroutine24 & 0xFFFF
??CrossCallReturnLabel_26:
        LCALL   ?PUSH_XSTACK_I_THREE
          CFI CFA_XSP16 add(XSP16, 26)
        MOV     R4,#0x2
        MOV     R5,#0x0
        MOV     A,R6
        MOV     R2,A
        MOV     A,R7
        MOV     R3,A
        LCALL   `??osal_memcpy::?relay`; Banked call to: osal_memcpy
        MOV     A,#0x3
        LCALL   ?DEALLOC_XSTACK8
          CFI CFA_XSP16 add(XSP16, 23)
//  446     pBuf += sizeof ( uint16 );
//  447     
//  448     *pBuf++ = pCmd->gppGpdLink;
        MOV     A,?V0
        ADD     A,#0x19
        MOV     DPL,A
        CLR     A
        ADDC    A,?V1
        LCALL   ?Subroutine18 & 0xFFFF
//  449     
//  450     pCmdPayloadMsgCurr = gp_AddCmdPayloadMsgNode ( &pCmdPayloadMsgHead, buf, len );
??CrossCallReturnLabel_12:
        ; Setup parameters for call to function gp_AddCmdPayloadMsgNode
        MOV     R1,?V2
        MOV     R4,?V12
        MOV     R5,?V13
        MOV     R2,#pCmdPayloadMsgHead & 0xff
        MOV     R3,#(pCmdPayloadMsgHead >> 8) & 0xff
        LCALL   `??gp_AddCmdPayloadMsgNode::?relay`; Banked call to: gp_AddCmdPayloadMsgNode
        MOV     ?V0,R2
        MOV     ?V1,R3
        MOV     R4,?V0
        MOV     R5,?V1
//  451           
//  452     if ( pCmdPayloadMsgCurr != NULL )
        MOV     A,R4
        ORL     A,R5
        JZ      ??zclGp_SendGpNotificationCommand_6
//  453     {
//  454       gp_addPairedSinksToMsgQueue( appId, pGpdId, pCmdPayloadMsgCurr );
        ; Setup parameters for call to function gp_addPairedSinksToMsgQueue
        MOV     R2,?V8
        MOV     R3,?V9
        MOV     R1,?V7
        LCALL   `??gp_addPairedSinksToMsgQueue::?relay`; Banked call to: gp_addPairedSinksToMsgQueue
//  455       osal_start_timerEx( zcl_TaskID, ZCL_DATABUF_SEND, 50 );
        ; Setup parameters for call to function osal_start_timerEx
        MOV     DPTR,#__Constant_32
        LCALL   ?PUSH_XSTACK8_X_FOUR
          CFI CFA_XSP16 add(XSP16, 27)
        MOV     R2,#0x20
        MOV     R3,#0x0
        MOV     DPTR,#zcl_TaskID
        MOVX    A,@DPTR
        MOV     R1,A
        LCALL   `??osal_start_timerEx::?relay`; Banked call to: osal_start_timerEx
        MOV     A,#0x4
        LCALL   ?DEALLOC_XSTACK8
          CFI CFA_XSP16 add(XSP16, 23)
        SJMP    ??zclGp_SendGpNotificationCommand_6
//  456     }
//  457 
//  458   }
//  459   else
//  460     status = ZMemError;
??zclGp_SendGpNotificationCommand_2:
        MOV     ?V14,#0x10
//  461 
//  462   return ( status );
??zclGp_SendGpNotificationCommand_6:
        MOV     R1,?V14
        MOV     R7,#0xf
        LJMP    ?BANKED_LEAVE_XDATA
//  463 }
          CFI EndBlock cfiBlock32

        RSEG BANKED_CODE:CODE:NOROOT(0)
?Subroutine24:
          CFI Block cfiCond33 Using cfiCommon0
          CFI Function zclGp_SendGpNotificationCommand
          CFI Conditional ??CrossCallReturnLabel_24
          CFI R6 load(1, XDATA, add(CFA_XSP16, literal(-23)))
          CFI VB load(1, XDATA, add(CFA_XSP16, literal(-22)))
          CFI V0 load(1, XDATA, add(CFA_XSP16, literal(-21)))
          CFI V1 load(1, XDATA, add(CFA_XSP16, literal(-20)))
          CFI V2 load(1, XDATA, add(CFA_XSP16, literal(-19)))
          CFI V3 load(1, XDATA, add(CFA_XSP16, literal(-18)))
          CFI V4 load(1, XDATA, add(CFA_XSP16, literal(-17)))
          CFI V5 load(1, XDATA, add(CFA_XSP16, literal(-16)))
          CFI V6 load(1, XDATA, add(CFA_XSP16, literal(-15)))
          CFI V7 load(1, XDATA, add(CFA_XSP16, literal(-14)))
          CFI V8 load(1, XDATA, add(CFA_XSP16, literal(-13)))
          CFI V9 load(1, XDATA, add(CFA_XSP16, literal(-12)))
          CFI V10 load(1, XDATA, add(CFA_XSP16, literal(-11)))
          CFI V11 load(1, XDATA, add(CFA_XSP16, literal(-10)))
          CFI V12 load(1, XDATA, add(CFA_XSP16, literal(-9)))
          CFI V13 load(1, XDATA, add(CFA_XSP16, literal(-8)))
          CFI V14 load(1, XDATA, add(CFA_XSP16, literal(-7)))
          CFI R7 load(1, XDATA, add(CFA_XSP16, literal(-6)))
          CFI ?RET_LOW load(1, XDATA, add(CFA_XSP16, literal(-5)))
          CFI ?RET_HIGH load(1, XDATA, add(CFA_XSP16, literal(-4)))
          CFI ?BRET_EXT load(1, XDATA, add(CFA_XSP16, literal(-3)))
          CFI DPL0 load(1, XDATA, add(CFA_XSP16, literal(-2)))
          CFI DPH0 load(1, XDATA, add(CFA_XSP16, literal(-1)))
          CFI CFA_SP SP+-2
          CFI CFA_XSP16 add(XSP16, 23)
          CFI Block cfiCond34 Using cfiCommon0
          CFI (cfiCond34) Function zclGp_SendGpNotificationCommand
          CFI (cfiCond34) Conditional ??CrossCallReturnLabel_25
          CFI (cfiCond34) R6 load(1, XDATA, add(CFA_XSP16, literal(-23)))
          CFI (cfiCond34) VB load(1, XDATA, add(CFA_XSP16, literal(-22)))
          CFI (cfiCond34) V0 load(1, XDATA, add(CFA_XSP16, literal(-21)))
          CFI (cfiCond34) V1 load(1, XDATA, add(CFA_XSP16, literal(-20)))
          CFI (cfiCond34) V2 load(1, XDATA, add(CFA_XSP16, literal(-19)))
          CFI (cfiCond34) V3 load(1, XDATA, add(CFA_XSP16, literal(-18)))
          CFI (cfiCond34) V4 load(1, XDATA, add(CFA_XSP16, literal(-17)))
          CFI (cfiCond34) V5 load(1, XDATA, add(CFA_XSP16, literal(-16)))
          CFI (cfiCond34) V6 load(1, XDATA, add(CFA_XSP16, literal(-15)))
          CFI (cfiCond34) V7 load(1, XDATA, add(CFA_XSP16, literal(-14)))
          CFI (cfiCond34) V8 load(1, XDATA, add(CFA_XSP16, literal(-13)))
          CFI (cfiCond34) V9 load(1, XDATA, add(CFA_XSP16, literal(-12)))
          CFI (cfiCond34) V10 load(1, XDATA, add(CFA_XSP16, literal(-11)))
          CFI (cfiCond34) V11 load(1, XDATA, add(CFA_XSP16, literal(-10)))
          CFI (cfiCond34) V12 load(1, XDATA, add(CFA_XSP16, literal(-9)))
          CFI (cfiCond34) V13 load(1, XDATA, add(CFA_XSP16, literal(-8)))
          CFI (cfiCond34) V14 load(1, XDATA, add(CFA_XSP16, literal(-7)))
          CFI (cfiCond34) R7 load(1, XDATA, add(CFA_XSP16, literal(-6)))
          CFI (cfiCond34) ?RET_LOW load(1, XDATA, add(CFA_XSP16, literal(-5)))
          CFI (cfiCond34) ?RET_HIGH load(1, XDATA, add(CFA_XSP16, literal(-4)))
          CFI (cfiCond34) ?BRET_EXT load(1, XDATA, add(CFA_XSP16, literal(-3)))
          CFI (cfiCond34) DPL0 load(1, XDATA, add(CFA_XSP16, literal(-2)))
          CFI (cfiCond34) DPH0 load(1, XDATA, add(CFA_XSP16, literal(-1)))
          CFI (cfiCond34) CFA_SP SP+-2
          CFI (cfiCond34) CFA_XSP16 add(XSP16, 23)
          CFI Block cfiCond35 Using cfiCommon0
          CFI (cfiCond35) Function zclGp_SendGpNotificationCommand
          CFI (cfiCond35) Conditional ??CrossCallReturnLabel_26
          CFI (cfiCond35) R6 load(1, XDATA, add(CFA_XSP16, literal(-23)))
          CFI (cfiCond35) VB load(1, XDATA, add(CFA_XSP16, literal(-22)))
          CFI (cfiCond35) V0 load(1, XDATA, add(CFA_XSP16, literal(-21)))
          CFI (cfiCond35) V1 load(1, XDATA, add(CFA_XSP16, literal(-20)))
          CFI (cfiCond35) V2 load(1, XDATA, add(CFA_XSP16, literal(-19)))
          CFI (cfiCond35) V3 load(1, XDATA, add(CFA_XSP16, literal(-18)))
          CFI (cfiCond35) V4 load(1, XDATA, add(CFA_XSP16, literal(-17)))
          CFI (cfiCond35) V5 load(1, XDATA, add(CFA_XSP16, literal(-16)))
          CFI (cfiCond35) V6 load(1, XDATA, add(CFA_XSP16, literal(-15)))
          CFI (cfiCond35) V7 load(1, XDATA, add(CFA_XSP16, literal(-14)))
          CFI (cfiCond35) V8 load(1, XDATA, add(CFA_XSP16, literal(-13)))
          CFI (cfiCond35) V9 load(1, XDATA, add(CFA_XSP16, literal(-12)))
          CFI (cfiCond35) V10 load(1, XDATA, add(CFA_XSP16, literal(-11)))
          CFI (cfiCond35) V11 load(1, XDATA, add(CFA_XSP16, literal(-10)))
          CFI (cfiCond35) V12 load(1, XDATA, add(CFA_XSP16, literal(-9)))
          CFI (cfiCond35) V13 load(1, XDATA, add(CFA_XSP16, literal(-8)))
          CFI (cfiCond35) V14 load(1, XDATA, add(CFA_XSP16, literal(-7)))
          CFI (cfiCond35) R7 load(1, XDATA, add(CFA_XSP16, literal(-6)))
          CFI (cfiCond35) ?RET_LOW load(1, XDATA, add(CFA_XSP16, literal(-5)))
          CFI (cfiCond35) ?RET_HIGH load(1, XDATA, add(CFA_XSP16, literal(-4)))
          CFI (cfiCond35) ?BRET_EXT load(1, XDATA, add(CFA_XSP16, literal(-3)))
          CFI (cfiCond35) DPL0 load(1, XDATA, add(CFA_XSP16, literal(-2)))
          CFI (cfiCond35) DPH0 load(1, XDATA, add(CFA_XSP16, literal(-1)))
          CFI (cfiCond35) CFA_SP SP+-2
          CFI (cfiCond35) CFA_XSP16 add(XSP16, 23)
          CFI Block cfiPicker36 Using cfiCommon1
          CFI (cfiPicker36) NoFunction
          CFI (cfiPicker36) Picker
        MOV     ?V4,A
        CLR     A
        ADDC    A,?V1
        MOV     ?V5,A
        MOV     R0,#?V4
        RET
          CFI EndBlock cfiCond33
          CFI EndBlock cfiCond34
          CFI EndBlock cfiCond35
          CFI EndBlock cfiPicker36

        RSEG BANKED_CODE:CODE:NOROOT(0)
?Subroutine23:
          CFI Block cfiCond37 Using cfiCommon0
          CFI Function zclGp_SendGpNotificationCommand
          CFI Conditional ??CrossCallReturnLabel_22
          CFI R6 load(1, XDATA, add(CFA_XSP16, literal(-23)))
          CFI VB load(1, XDATA, add(CFA_XSP16, literal(-22)))
          CFI V0 load(1, XDATA, add(CFA_XSP16, literal(-21)))
          CFI V1 load(1, XDATA, add(CFA_XSP16, literal(-20)))
          CFI V2 load(1, XDATA, add(CFA_XSP16, literal(-19)))
          CFI V3 load(1, XDATA, add(CFA_XSP16, literal(-18)))
          CFI V4 load(1, XDATA, add(CFA_XSP16, literal(-17)))
          CFI V5 load(1, XDATA, add(CFA_XSP16, literal(-16)))
          CFI V6 load(1, XDATA, add(CFA_XSP16, literal(-15)))
          CFI V7 load(1, XDATA, add(CFA_XSP16, literal(-14)))
          CFI V8 load(1, XDATA, add(CFA_XSP16, literal(-13)))
          CFI V9 load(1, XDATA, add(CFA_XSP16, literal(-12)))
          CFI V10 load(1, XDATA, add(CFA_XSP16, literal(-11)))
          CFI V11 load(1, XDATA, add(CFA_XSP16, literal(-10)))
          CFI V12 load(1, XDATA, add(CFA_XSP16, literal(-9)))
          CFI V13 load(1, XDATA, add(CFA_XSP16, literal(-8)))
          CFI V14 load(1, XDATA, add(CFA_XSP16, literal(-7)))
          CFI R7 load(1, XDATA, add(CFA_XSP16, literal(-6)))
          CFI ?RET_LOW load(1, XDATA, add(CFA_XSP16, literal(-5)))
          CFI ?RET_HIGH load(1, XDATA, add(CFA_XSP16, literal(-4)))
          CFI ?BRET_EXT load(1, XDATA, add(CFA_XSP16, literal(-3)))
          CFI DPL0 load(1, XDATA, add(CFA_XSP16, literal(-2)))
          CFI DPH0 load(1, XDATA, add(CFA_XSP16, literal(-1)))
          CFI CFA_SP SP+-2
          CFI CFA_XSP16 add(XSP16, 23)
          CFI Block cfiCond38 Using cfiCommon0
          CFI (cfiCond38) Function zclGp_SendGpNotificationCommand
          CFI (cfiCond38) Conditional ??CrossCallReturnLabel_23
          CFI (cfiCond38) R6 load(1, XDATA, add(CFA_XSP16, literal(-23)))
          CFI (cfiCond38) VB load(1, XDATA, add(CFA_XSP16, literal(-22)))
          CFI (cfiCond38) V0 load(1, XDATA, add(CFA_XSP16, literal(-21)))
          CFI (cfiCond38) V1 load(1, XDATA, add(CFA_XSP16, literal(-20)))
          CFI (cfiCond38) V2 load(1, XDATA, add(CFA_XSP16, literal(-19)))
          CFI (cfiCond38) V3 load(1, XDATA, add(CFA_XSP16, literal(-18)))
          CFI (cfiCond38) V4 load(1, XDATA, add(CFA_XSP16, literal(-17)))
          CFI (cfiCond38) V5 load(1, XDATA, add(CFA_XSP16, literal(-16)))
          CFI (cfiCond38) V6 load(1, XDATA, add(CFA_XSP16, literal(-15)))
          CFI (cfiCond38) V7 load(1, XDATA, add(CFA_XSP16, literal(-14)))
          CFI (cfiCond38) V8 load(1, XDATA, add(CFA_XSP16, literal(-13)))
          CFI (cfiCond38) V9 load(1, XDATA, add(CFA_XSP16, literal(-12)))
          CFI (cfiCond38) V10 load(1, XDATA, add(CFA_XSP16, literal(-11)))
          CFI (cfiCond38) V11 load(1, XDATA, add(CFA_XSP16, literal(-10)))
          CFI (cfiCond38) V12 load(1, XDATA, add(CFA_XSP16, literal(-9)))
          CFI (cfiCond38) V13 load(1, XDATA, add(CFA_XSP16, literal(-8)))
          CFI (cfiCond38) V14 load(1, XDATA, add(CFA_XSP16, literal(-7)))
          CFI (cfiCond38) R7 load(1, XDATA, add(CFA_XSP16, literal(-6)))
          CFI (cfiCond38) ?RET_LOW load(1, XDATA, add(CFA_XSP16, literal(-5)))
          CFI (cfiCond38) ?RET_HIGH load(1, XDATA, add(CFA_XSP16, literal(-4)))
          CFI (cfiCond38) ?BRET_EXT load(1, XDATA, add(CFA_XSP16, literal(-3)))
          CFI (cfiCond38) DPL0 load(1, XDATA, add(CFA_XSP16, literal(-2)))
          CFI (cfiCond38) DPH0 load(1, XDATA, add(CFA_XSP16, literal(-1)))
          CFI (cfiCond38) CFA_SP SP+-2
          CFI (cfiCond38) CFA_XSP16 add(XSP16, 23)
          CFI Block cfiPicker39 Using cfiCommon1
          CFI (cfiPicker39) NoFunction
          CFI (cfiPicker39) Picker
        MOV     ?V8,A
        CLR     A
        ADDC    A,?V1
        MOV     ?V9,A
        ; Setup parameters for call to function osal_memcpy
        ; Setup parameters for call to function osal_memcpy
        MOV     ?V4,?V8
        MOV     ?V5,A
        MOV     R0,#?V4
        RET
          CFI EndBlock cfiCond37
          CFI EndBlock cfiCond38
          CFI EndBlock cfiPicker39
//  464   
//  465 /*********************************************************************
//  466  * @fn      zclGp_SendGpCommissioningNotificationCommand
//  467  *
//  468  * @brief   Send the Green Power Commissioning Notification Command to a device
//  469  *
//  470  * @param   pCmd - Pointer to GP Commissioning Notification Struct
//  471  *
//  472  * @return  ZStatus_t
//  473  */

        RSEG BANKED_CODE:CODE:NOROOT(0)
//  474 ZStatus_t zclGp_SendGpCommissioningNotificationCommand( gpCommissioningNotificationCmd_t *pCmd )
zclGp_SendGpCommissioningNotificationCommand:
          CFI Block cfiBlock40 Using cfiCommon0
          CFI Function zclGp_SendGpCommissioningNotificationCommand
        CODE
//  475 {
        FUNCALL zclGp_SendGpCommissioningNotificationCommand, osal_mem_alloc
        LOCFRAME ISTACK, 0, STACK
        LOCFRAME PSTACK, 0, STACK
        LOCFRAME XSTACK, 32, STACK
        LOCFRAME IOVERLAY, 0, STATIC
        LOCFRAME DOVERLAY, 0, STATIC
        ARGFRAME ISTACK, 0, STACK
        ARGFRAME PSTACK, 0, STACK
        ARGFRAME XSTACK, 32, STACK
        ARGFRAME IOVERLAY, 0, STATIC
        ARGFRAME DOVERLAY, 0, STATIC
        FUNCALL zclGp_SendGpCommissioningNotificationCommand, osal_memcpy
        LOCFRAME ISTACK, 0, STACK
        LOCFRAME PSTACK, 0, STACK
        LOCFRAME XSTACK, 35, STACK
        LOCFRAME IOVERLAY, 0, STATIC
        LOCFRAME DOVERLAY, 0, STATIC
        ARGFRAME ISTACK, 0, STACK
        ARGFRAME PSTACK, 0, STACK
        ARGFRAME XSTACK, 35, STACK
        ARGFRAME IOVERLAY, 0, STATIC
        ARGFRAME DOVERLAY, 0, STATIC
        FUNCALL zclGp_SendGpCommissioningNotificationCommand, osal_memcpy
        LOCFRAME ISTACK, 0, STACK
        LOCFRAME PSTACK, 0, STACK
        LOCFRAME XSTACK, 35, STACK
        LOCFRAME IOVERLAY, 0, STATIC
        LOCFRAME DOVERLAY, 0, STATIC
        ARGFRAME ISTACK, 0, STACK
        ARGFRAME PSTACK, 0, STACK
        ARGFRAME XSTACK, 35, STACK
        ARGFRAME IOVERLAY, 0, STATIC
        ARGFRAME DOVERLAY, 0, STATIC
        FUNCALL zclGp_SendGpCommissioningNotificationCommand, osal_memcpy
        LOCFRAME ISTACK, 0, STACK
        LOCFRAME PSTACK, 0, STACK
        LOCFRAME XSTACK, 35, STACK
        LOCFRAME IOVERLAY, 0, STATIC
        LOCFRAME DOVERLAY, 0, STATIC
        ARGFRAME ISTACK, 0, STACK
        ARGFRAME PSTACK, 0, STACK
        ARGFRAME XSTACK, 35, STACK
        ARGFRAME IOVERLAY, 0, STATIC
        ARGFRAME DOVERLAY, 0, STATIC
        FUNCALL zclGp_SendGpCommissioningNotificationCommand, osal_memcpy
        LOCFRAME ISTACK, 0, STACK
        LOCFRAME PSTACK, 0, STACK
        LOCFRAME XSTACK, 35, STACK
        LOCFRAME IOVERLAY, 0, STATIC
        LOCFRAME DOVERLAY, 0, STATIC
        ARGFRAME ISTACK, 0, STACK
        ARGFRAME PSTACK, 0, STACK
        ARGFRAME XSTACK, 35, STACK
        ARGFRAME IOVERLAY, 0, STATIC
        ARGFRAME DOVERLAY, 0, STATIC
        FUNCALL zclGp_SendGpCommissioningNotificationCommand, osal_memcpy
        LOCFRAME ISTACK, 0, STACK
        LOCFRAME PSTACK, 0, STACK
        LOCFRAME XSTACK, 35, STACK
        LOCFRAME IOVERLAY, 0, STATIC
        LOCFRAME DOVERLAY, 0, STATIC
        ARGFRAME ISTACK, 0, STACK
        ARGFRAME PSTACK, 0, STACK
        ARGFRAME XSTACK, 35, STACK
        ARGFRAME IOVERLAY, 0, STATIC
        ARGFRAME DOVERLAY, 0, STATIC
        FUNCALL zclGp_SendGpCommissioningNotificationCommand, osal_memcpy
        LOCFRAME ISTACK, 0, STACK
        LOCFRAME PSTACK, 0, STACK
        LOCFRAME XSTACK, 35, STACK
        LOCFRAME IOVERLAY, 0, STATIC
        LOCFRAME DOVERLAY, 0, STATIC
        ARGFRAME ISTACK, 0, STACK
        ARGFRAME PSTACK, 0, STACK
        ARGFRAME XSTACK, 35, STACK
        ARGFRAME IOVERLAY, 0, STATIC
        ARGFRAME DOVERLAY, 0, STATIC
        FUNCALL zclGp_SendGpCommissioningNotificationCommand, bdb_getZCLFrameCounter
        LOCFRAME ISTACK, 0, STACK
        LOCFRAME PSTACK, 0, STACK
        LOCFRAME XSTACK, 32, STACK
        LOCFRAME IOVERLAY, 0, STATIC
        LOCFRAME DOVERLAY, 0, STATIC
        ARGFRAME ISTACK, 0, STACK
        ARGFRAME PSTACK, 0, STACK
        ARGFRAME XSTACK, 32, STACK
        ARGFRAME IOVERLAY, 0, STATIC
        ARGFRAME DOVERLAY, 0, STATIC
        FUNCALL zclGp_SendGpCommissioningNotificationCommand, zcl_SendCommand
        LOCFRAME ISTACK, 0, STACK
        LOCFRAME PSTACK, 0, STACK
        LOCFRAME XSTACK, 43, STACK
        LOCFRAME IOVERLAY, 0, STATIC
        LOCFRAME DOVERLAY, 0, STATIC
        ARGFRAME ISTACK, 0, STACK
        ARGFRAME PSTACK, 0, STACK
        ARGFRAME XSTACK, 43, STACK
        ARGFRAME IOVERLAY, 0, STATIC
        ARGFRAME DOVERLAY, 0, STATIC
        FUNCALL zclGp_SendGpCommissioningNotificationCommand, osal_mem_free
        LOCFRAME ISTACK, 0, STACK
        LOCFRAME PSTACK, 0, STACK
        LOCFRAME XSTACK, 32, STACK
        LOCFRAME IOVERLAY, 0, STATIC
        LOCFRAME DOVERLAY, 0, STATIC
        ARGFRAME ISTACK, 0, STACK
        ARGFRAME PSTACK, 0, STACK
        ARGFRAME XSTACK, 32, STACK
        ARGFRAME IOVERLAY, 0, STATIC
        ARGFRAME DOVERLAY, 0, STATIC
        REQUIRE ?V0
        REQUIRE ?V1
        REQUIRE ?V2
        REQUIRE ?V3
        REQUIRE ?V4
        REQUIRE ?V5
        REQUIRE ?V6
        REQUIRE ?V7
        REQUIRE ?V8
        REQUIRE ?V9
        REQUIRE ?V10
        REQUIRE ?V11
        MOV     A,#-0x14
        LCALL   ?BANKED_ENTER_XDATA
          CFI DPH0 load(1, XDATA, add(CFA_XSP16, literal(-1)))
          CFI DPL0 load(1, XDATA, add(CFA_XSP16, literal(-2)))
          CFI ?BRET_EXT load(1, XDATA, add(CFA_XSP16, literal(-3)))
          CFI ?RET_HIGH load(1, XDATA, add(CFA_XSP16, literal(-4)))
          CFI ?RET_LOW load(1, XDATA, add(CFA_XSP16, literal(-5)))
          CFI R7 load(1, XDATA, add(CFA_XSP16, literal(-6)))
          CFI V11 load(1, XDATA, add(CFA_XSP16, literal(-7)))
          CFI V10 load(1, XDATA, add(CFA_XSP16, literal(-8)))
          CFI V9 load(1, XDATA, add(CFA_XSP16, literal(-9)))
          CFI V8 load(1, XDATA, add(CFA_XSP16, literal(-10)))
          CFI V7 load(1, XDATA, add(CFA_XSP16, literal(-11)))
          CFI V6 load(1, XDATA, add(CFA_XSP16, literal(-12)))
          CFI V5 load(1, XDATA, add(CFA_XSP16, literal(-13)))
          CFI V4 load(1, XDATA, add(CFA_XSP16, literal(-14)))
          CFI V3 load(1, XDATA, add(CFA_XSP16, literal(-15)))
          CFI V2 load(1, XDATA, add(CFA_XSP16, literal(-16)))
          CFI V1 load(1, XDATA, add(CFA_XSP16, literal(-17)))
          CFI V0 load(1, XDATA, add(CFA_XSP16, literal(-18)))
          CFI VB load(1, XDATA, add(CFA_XSP16, literal(-19)))
          CFI R6 load(1, XDATA, add(CFA_XSP16, literal(-20)))
          CFI CFA_SP SP+0
          CFI CFA_XSP16 add(XSP16, 20)
        ; Saved register size: 20
        ; Auto size: 12
        MOV     A,#-0xc
        LCALL   ?ALLOC_XSTACK8
          CFI CFA_XSP16 add(XSP16, 32)
        MOV     ?V2,R2
        MOV     ?V3,R3
//  476   uint8 *buf = NULL;
//  477   uint8 *pBuf = NULL;
//  478   ZStatus_t status;
//  479   uint16 len = 11;  // options + GPD Sec Counter + Cmd ID + payloadLen + GPP Short Address + GPP-GPD link
        MOV     ?V0,#0xb
        MOV     DPL,R2
        MOV     DPH,R3
        MOVX    A,@DPTR
        ANL     A,#0x7
        MOV     R0,A
        JNZ     ??zclGp_SendGpCommissioningNotificationCommand_0
//  480   
//  481   // Check some stuff to calculate the packet len
//  482   // If Application Id bitfield is 0b000
//  483   if( GP_IS_APPLICATION_ID_GPD( pCmd->options ) )
//  484   {
//  485     len += 4;  // GPD ID
        MOV     ?V0,#0xf
        SJMP    ??zclGp_SendGpCommissioningNotificationCommand_1
//  486   }
//  487   // If Application Id bitfield is 0b010
//  488   else if( GP_IS_APPLICATION_ID_IEEE( pCmd->options ) )
??zclGp_SendGpCommissioningNotificationCommand_0:
        MOV     A,#0x2
        XRL     A,R0
        JNZ     ??zclGp_SendGpCommissioningNotificationCommand_1
//  489   {
//  490     len += 9;  // IEEE addr + EP
        MOV     ?V0,#0x14
//  491   }
//  492   
//  493   // Length of the command payload
//  494   len += pCmd->payloadLen;
??zclGp_SendGpCommissioningNotificationCommand_1:
        MOV     A,R2
        ADD     A,#0x14
        MOV     ?V10,A
        CLR     A
        ADDC    A,?V3
        MOV     ?V11,A
        MOV     DPL,?V10
        MOV     DPH,A
        MOVX    A,@DPTR
        MOV     R0,A
        MOV     A,?V0
        ADD     A,R0
        MOV     ?V0,A
        CLR     A
        ADDC    A,#0x0
        MOV     ?V1,A
//  495 
//  496   buf = zcl_mem_alloc( len );
        ; Setup parameters for call to function osal_mem_alloc
        MOV     R2,?V0
        MOV     R3,A
        LCALL   `??osal_mem_alloc::?relay`; Banked call to: osal_mem_alloc
        MOV     ?V8,R2
        MOV     ?V9,R3
//  497   if ( buf )
        MOV     A,R2
        ORL     A,?V9
        JNZ     $+5
        LJMP    ??zclGp_SendGpCommissioningNotificationCommand_2 & 0xFFFF
//  498   {
//  499     pBuf = buf;
//  500     
//  501     zcl_memcpy( pBuf, &pCmd->options, sizeof ( uint16 ) );
        ; Setup parameters for call to function osal_memcpy
        MOV     ?V4,?V2
        MOV     ?V5,?V3
        MOV     ?V6,#0x0
        MOV     R0,#?V4
        LCALL   ?PUSH_XSTACK_I_THREE
          CFI CFA_XSP16 add(XSP16, 35)
        MOV     R4,#0x2
        MOV     R5,#0x0
        LCALL   `??osal_memcpy::?relay`; Banked call to: osal_memcpy
        MOV     A,#0x3
        LCALL   ?DEALLOC_XSTACK8
          CFI CFA_XSP16 add(XSP16, 32)
//  502     pBuf += sizeof ( uint16 );
        MOV     A,?V8
        ADD     A,#0x2
        MOV     R6,A
        CLR     A
        ADDC    A,?V9
        MOV     R7,A
        MOV     DPL,?V2
        MOV     DPH,?V3
        MOVX    A,@DPTR
        ANL     A,#0x7
        MOV     R0,A
        JNZ     ??zclGp_SendGpCommissioningNotificationCommand_3
//  503     
//  504     // If Application Id bitfield is 0b000
//  505     if( GP_IS_APPLICATION_ID_GPD( pCmd->options ) )
//  506     {
//  507       zcl_memcpy( pBuf, &pCmd->gpdId, sizeof ( uint32 ) );
        ; Setup parameters for call to function osal_memcpy
        INC     DPTR
        INC     DPTR
        MOV     R1,DPL
        MOV     R2,DPH
        MOV     ?V4,R1
        MOV     ?V5,R2
        MOV     R0,#?V4
        LCALL   ?PUSH_XSTACK_I_THREE
          CFI CFA_XSP16 add(XSP16, 35)
        MOV     R4,#0x4
        MOV     R5,#0x0
        MOV     A,R6
        MOV     R2,A
        MOV     A,R7
        MOV     R3,A
        LCALL   `??osal_memcpy::?relay`; Banked call to: osal_memcpy
        MOV     A,#0x3
        LCALL   ?DEALLOC_XSTACK8
          CFI CFA_XSP16 add(XSP16, 32)
//  508       pBuf += sizeof ( uint32 );
        MOV     A,R6
        ADD     A,#0x4
        SJMP    ??CrossCallReturnLabel_5
//  509     }
//  510     // If Application Id bitfield is 0b010
//  511     else if( GP_IS_APPLICATION_ID_IEEE( pCmd->options ) )
??zclGp_SendGpCommissioningNotificationCommand_3:
        MOV     A,#0x2
        XRL     A,R0
        JNZ     ??zclGp_SendGpCommissioningNotificationCommand_4
//  512     {
//  513       zcl_memcpy( pBuf, &pCmd->gpdIEEE, Z_EXTADDR_LEN );
        ; Setup parameters for call to function osal_memcpy
        MOV     A,?V2
        ADD     A,#0x6
        LCALL   ?Subroutine22 & 0xFFFF
??CrossCallReturnLabel_18:
        LCALL   ?PUSH_XSTACK_I_THREE
          CFI CFA_XSP16 add(XSP16, 35)
        MOV     R4,#0x8
        MOV     R5,#0x0
        MOV     A,R6
        MOV     R2,A
        MOV     A,R7
        MOV     R3,A
        LCALL   `??osal_memcpy::?relay`; Banked call to: osal_memcpy
        MOV     A,#0x3
        LCALL   ?DEALLOC_XSTACK8
          CFI CFA_XSP16 add(XSP16, 32)
//  514       pBuf += Z_EXTADDR_LEN;
//  515       *pBuf++ = pCmd->ep;
        MOV     A,?V2
        ADD     A,#0xe
        MOV     DPL,A
        CLR     A
        ADDC    A,?V3
        LCALL   ?Subroutine11 & 0xFFFF
//  516     }
??CrossCallReturnLabel_5:
        MOV     R6,A
        JNC     ??zclGp_SendGpCommissioningNotificationCommand_4
        INC     R7
//  517     
//  518     zcl_memcpy( pBuf, &pCmd->gpdSecCounter, sizeof ( uint32 ) );
??zclGp_SendGpCommissioningNotificationCommand_4:
        ; Setup parameters for call to function osal_memcpy
        MOV     A,?V2
        ADD     A,#0xf
        LCALL   ?Subroutine22 & 0xFFFF
??CrossCallReturnLabel_19:
        LCALL   ?PUSH_XSTACK_I_THREE
          CFI CFA_XSP16 add(XSP16, 35)
        MOV     R4,#0x4
        MOV     R5,#0x0
        MOV     A,R6
        MOV     R2,A
        MOV     A,R7
        MOV     R3,A
        LCALL   `??osal_memcpy::?relay`; Banked call to: osal_memcpy
        MOV     A,#0x3
        LCALL   ?DEALLOC_XSTACK8
          CFI CFA_XSP16 add(XSP16, 32)
//  519     pBuf += sizeof ( uint32 );
//  520 
//  521     *pBuf++ = pCmd->cmdId;
        MOV     A,?V2
        ADD     A,#0x13
        MOV     DPL,A
        CLR     A
        ADDC    A,?V3
        LCALL   ?Subroutine7 & 0xFFFF
//  522     
//  523     *pBuf++ = pCmd->payloadLen;
??CrossCallReturnLabel_1:
        JNC     ??zclGp_SendGpCommissioningNotificationCommand_5
        INC     R7
//  524     if ( pCmd->payloadLen > 0 )
??zclGp_SendGpCommissioningNotificationCommand_5:
        MOV     DPL,?V10
        MOV     DPH,?V11
        MOVX    A,@DPTR
        MOV     R4,A
        JZ      ??CrossCallReturnLabel_11
//  525     {
//  526       zcl_memcpy( pBuf, &pCmd->cmdPayload, pCmd->payloadLen );
        ; Setup parameters for call to function osal_memcpy
        MOV     A,?V2
        ADD     A,#0x15
        LCALL   ?Subroutine22 & 0xFFFF
??CrossCallReturnLabel_20:
        LCALL   ?PUSH_XSTACK_I_THREE
          CFI CFA_XSP16 add(XSP16, 35)
        MOV     R5,#0x0
        MOV     A,R6
        MOV     R2,A
        MOV     A,R7
        MOV     R3,A
        LCALL   `??osal_memcpy::?relay`; Banked call to: osal_memcpy
        MOV     A,#0x3
        LCALL   ?DEALLOC_XSTACK8
          CFI CFA_XSP16 add(XSP16, 32)
//  527       pBuf += pCmd->payloadLen;
        LCALL   ?Subroutine17 & 0xFFFF
//  528     }
//  529     
//  530     zcl_memcpy( pBuf, &pCmd->gppShortAddr, sizeof ( uint16 ) );
??CrossCallReturnLabel_11:
        ; Setup parameters for call to function osal_memcpy
        MOV     A,?V2
        ADD     A,#0x17
        LCALL   ?Subroutine22 & 0xFFFF
??CrossCallReturnLabel_21:
        LCALL   ?PUSH_XSTACK_I_THREE
          CFI CFA_XSP16 add(XSP16, 35)
        MOV     R4,#0x2
        MOV     R5,#0x0
        MOV     A,R6
        MOV     R2,A
        MOV     A,R7
        MOV     R3,A
        LCALL   `??osal_memcpy::?relay`; Banked call to: osal_memcpy
        MOV     A,#0x3
        LCALL   ?DEALLOC_XSTACK8
          CFI CFA_XSP16 add(XSP16, 32)
//  531     pBuf += sizeof ( uint16 );
//  532     
//  533     *pBuf++ = pCmd->gppGpdLink;
        MOV     A,?V2
        ADD     A,#0x19
        MOV     DPL,A
        CLR     A
        ADDC    A,?V3
        LCALL   ?Subroutine18 & 0xFFFF
//  534     
//  535     afAddrType_t addr;
//  536     addr.endPoint = GREEN_POWER_INTERNAL_ENDPOINT;
??CrossCallReturnLabel_13:
        MOV     A,#0x9
        LCALL   ?XSTACK_DISP0_8
        LCALL   ?Subroutine15 & 0xFFFF
//  537     addr.panId = _NIB.nwkPanId;
??CrossCallReturnLabel_82:
        MOV     A,#0xa
        LCALL   ?XSTACK_DISP0_8
        LCALL   ??Subroutine35_0 & 0xFFFF
//  538     addr.addr.shortAddr = gp_commissionerAddress; 
??CrossCallReturnLabel_55:
        MOV     DPTR,#gp_commissionerAddress
        LCALL   ?Subroutine14 & 0xFFFF
??CrossCallReturnLabel_9:
        LCALL   ??Subroutine35_0 & 0xFFFF
//  539         
//  540     if ( gp_commissionerAddress == 0xFFFF )
??CrossCallReturnLabel_56:
        MOV     DPTR,#gp_commissionerAddress
        MOVX    A,@DPTR
        CPL     A
        JNZ     ??zclGp_SendGpCommissioningNotificationCommand_6
        INC     DPTR
        MOVX    A,@DPTR
        CPL     A
??zclGp_SendGpCommissioningNotificationCommand_6:
        JNZ     ??zclGp_SendGpCommissioningNotificationCommand_7
//  541     {
//  542       addr.addrMode = afAddrBroadcast;
        MOV     A,#0x8
        LCALL   ?XSTACK_DISP0_8
        MOV     A,#0xf
        SJMP    ??zclGp_SendGpCommissioningNotificationCommand_8
//  543     }
//  544     else
//  545     {
//  546       addr.addrMode = afAddr16Bit;
??zclGp_SendGpCommissioningNotificationCommand_7:
        MOV     A,#0x8
        LCALL   ?XSTACK_DISP0_8
        MOV     A,#0x2
??zclGp_SendGpCommissioningNotificationCommand_8:
        MOVX    @DPTR,A
//  547     }
//  548         
//  549     zcl_SendCommand( GREEN_POWER_INTERNAL_ENDPOINT, &addr, ZCL_CLUSTER_ID_GREEN_POWER,
//  550                       COMMAND_GP_COMMISSIONING_NOTIFICATION, TRUE, ZCL_FRAME_CLIENT_SERVER_DIR,
//  551                       TRUE, 0,  bdb_getZCLFrameCounter(), len, buf ); 
        ; Setup parameters for call to function bdb_getZCLFrameCounter
        LCALL   `??bdb_getZCLFrameCounter::?relay`; Banked call to: bdb_getZCLFrameCounter
        MOV     A,R1
        MOV     R1,A
        ; Setup parameters for call to function zcl_SendCommand
        MOV     R0,#?V8
        LCALL   ?PUSH_XSTACK_I_TWO
          CFI CFA_XSP16 add(XSP16, 34)
        MOV     R0,#?V0
        LCALL   ?PUSH_XSTACK_I_TWO
          CFI CFA_XSP16 add(XSP16, 36)
        MOV     A,R1
        MOV     ?V0,A
        MOV     R0,#?V0
        LCALL   ?PUSH_XSTACK_I_ONE
          CFI CFA_XSP16 add(XSP16, 37)
        CLR     A
        MOV     ?V0,A
        MOV     ?V1,A
        MOV     R0,#?V0
        LCALL   ?PUSH_XSTACK_I_TWO
          CFI CFA_XSP16 add(XSP16, 39)
        MOV     ?V0,#0x1
        MOV     R0,#?V0
        LCALL   ?PUSH_XSTACK_I_ONE
          CFI CFA_XSP16 add(XSP16, 40)
        MOV     ?V0,#0x0
        MOV     R0,#?V0
        LCALL   ?PUSH_XSTACK_I_ONE
          CFI CFA_XSP16 add(XSP16, 41)
        MOV     ?V0,#0x1
        MOV     R0,#?V0
        LCALL   ?PUSH_XSTACK_I_ONE
          CFI CFA_XSP16 add(XSP16, 42)
        MOV     ?V0,#0x4
        MOV     R0,#?V0
        LCALL   ?PUSH_XSTACK_I_ONE
          CFI CFA_XSP16 add(XSP16, 43)
        MOV     R4,#0x21
        MOV     R5,#0x0
        MOV     A,#0xb
        LCALL   ?XSTACK_DISP101_8
        MOV     R1,#-0xe
        LCALL   `??zcl_SendCommand::?relay`; Banked call to: zcl_SendCommand
        MOV     A,#0xb
        LCALL   ?DEALLOC_XSTACK8
          CFI CFA_XSP16 add(XSP16, 32)
//  552       
//  553     zcl_mem_free( buf );
        ; Setup parameters for call to function osal_mem_free
        MOV     R2,?V8
        MOV     R3,?V9
        LCALL   `??osal_mem_free::?relay`; Banked call to: osal_mem_free
        SJMP    ??zclGp_SendGpCommissioningNotificationCommand_9
//  554   }
//  555   else
//  556     status = ZMemError;
??zclGp_SendGpCommissioningNotificationCommand_2:
        MOV     ?V7,#0x10
//  557 
//  558   return ( status );
??zclGp_SendGpCommissioningNotificationCommand_9:
        MOV     R1,?V7
        MOV     A,#0xc
        LCALL   ?DEALLOC_XSTACK8
          CFI CFA_XSP16 add(XSP16, 20)
        MOV     R7,#0xc
        LJMP    ?BANKED_LEAVE_XDATA
//  559 }
          CFI EndBlock cfiBlock40

        RSEG BANKED_CODE:CODE:NOROOT(0)
?Subroutine22:
          CFI Block cfiCond41 Using cfiCommon0
          CFI Function zclGp_SendGpCommissioningNotificationCommand
          CFI Conditional ??CrossCallReturnLabel_18
          CFI R6 load(1, XDATA, add(CFA_XSP16, literal(-20)))
          CFI VB load(1, XDATA, add(CFA_XSP16, literal(-19)))
          CFI V0 load(1, XDATA, add(CFA_XSP16, literal(-18)))
          CFI V1 load(1, XDATA, add(CFA_XSP16, literal(-17)))
          CFI V2 load(1, XDATA, add(CFA_XSP16, literal(-16)))
          CFI V3 load(1, XDATA, add(CFA_XSP16, literal(-15)))
          CFI V4 load(1, XDATA, add(CFA_XSP16, literal(-14)))
          CFI V5 load(1, XDATA, add(CFA_XSP16, literal(-13)))
          CFI V6 load(1, XDATA, add(CFA_XSP16, literal(-12)))
          CFI V7 load(1, XDATA, add(CFA_XSP16, literal(-11)))
          CFI V8 load(1, XDATA, add(CFA_XSP16, literal(-10)))
          CFI V9 load(1, XDATA, add(CFA_XSP16, literal(-9)))
          CFI V10 load(1, XDATA, add(CFA_XSP16, literal(-8)))
          CFI V11 load(1, XDATA, add(CFA_XSP16, literal(-7)))
          CFI R7 load(1, XDATA, add(CFA_XSP16, literal(-6)))
          CFI ?RET_LOW load(1, XDATA, add(CFA_XSP16, literal(-5)))
          CFI ?RET_HIGH load(1, XDATA, add(CFA_XSP16, literal(-4)))
          CFI ?BRET_EXT load(1, XDATA, add(CFA_XSP16, literal(-3)))
          CFI DPL0 load(1, XDATA, add(CFA_XSP16, literal(-2)))
          CFI DPH0 load(1, XDATA, add(CFA_XSP16, literal(-1)))
          CFI CFA_SP SP+-2
          CFI CFA_XSP16 add(XSP16, 32)
          CFI Block cfiCond42 Using cfiCommon0
          CFI (cfiCond42) Function zclGp_SendGpCommissioningNotificationCommand
          CFI (cfiCond42) Conditional ??CrossCallReturnLabel_19
          CFI (cfiCond42) R6 load(1, XDATA, add(CFA_XSP16, literal(-20)))
          CFI (cfiCond42) VB load(1, XDATA, add(CFA_XSP16, literal(-19)))
          CFI (cfiCond42) V0 load(1, XDATA, add(CFA_XSP16, literal(-18)))
          CFI (cfiCond42) V1 load(1, XDATA, add(CFA_XSP16, literal(-17)))
          CFI (cfiCond42) V2 load(1, XDATA, add(CFA_XSP16, literal(-16)))
          CFI (cfiCond42) V3 load(1, XDATA, add(CFA_XSP16, literal(-15)))
          CFI (cfiCond42) V4 load(1, XDATA, add(CFA_XSP16, literal(-14)))
          CFI (cfiCond42) V5 load(1, XDATA, add(CFA_XSP16, literal(-13)))
          CFI (cfiCond42) V6 load(1, XDATA, add(CFA_XSP16, literal(-12)))
          CFI (cfiCond42) V7 load(1, XDATA, add(CFA_XSP16, literal(-11)))
          CFI (cfiCond42) V8 load(1, XDATA, add(CFA_XSP16, literal(-10)))
          CFI (cfiCond42) V9 load(1, XDATA, add(CFA_XSP16, literal(-9)))
          CFI (cfiCond42) V10 load(1, XDATA, add(CFA_XSP16, literal(-8)))
          CFI (cfiCond42) V11 load(1, XDATA, add(CFA_XSP16, literal(-7)))
          CFI (cfiCond42) R7 load(1, XDATA, add(CFA_XSP16, literal(-6)))
          CFI (cfiCond42) ?RET_LOW load(1, XDATA, add(CFA_XSP16, literal(-5)))
          CFI (cfiCond42) ?RET_HIGH load(1, XDATA, add(CFA_XSP16, literal(-4)))
          CFI (cfiCond42) ?BRET_EXT load(1, XDATA, add(CFA_XSP16, literal(-3)))
          CFI (cfiCond42) DPL0 load(1, XDATA, add(CFA_XSP16, literal(-2)))
          CFI (cfiCond42) DPH0 load(1, XDATA, add(CFA_XSP16, literal(-1)))
          CFI (cfiCond42) CFA_SP SP+-2
          CFI (cfiCond42) CFA_XSP16 add(XSP16, 32)
          CFI Block cfiCond43 Using cfiCommon0
          CFI (cfiCond43) Function zclGp_SendGpCommissioningNotificationCommand
          CFI (cfiCond43) Conditional ??CrossCallReturnLabel_20
          CFI (cfiCond43) R6 load(1, XDATA, add(CFA_XSP16, literal(-20)))
          CFI (cfiCond43) VB load(1, XDATA, add(CFA_XSP16, literal(-19)))
          CFI (cfiCond43) V0 load(1, XDATA, add(CFA_XSP16, literal(-18)))
          CFI (cfiCond43) V1 load(1, XDATA, add(CFA_XSP16, literal(-17)))
          CFI (cfiCond43) V2 load(1, XDATA, add(CFA_XSP16, literal(-16)))
          CFI (cfiCond43) V3 load(1, XDATA, add(CFA_XSP16, literal(-15)))
          CFI (cfiCond43) V4 load(1, XDATA, add(CFA_XSP16, literal(-14)))
          CFI (cfiCond43) V5 load(1, XDATA, add(CFA_XSP16, literal(-13)))
          CFI (cfiCond43) V6 load(1, XDATA, add(CFA_XSP16, literal(-12)))
          CFI (cfiCond43) V7 load(1, XDATA, add(CFA_XSP16, literal(-11)))
          CFI (cfiCond43) V8 load(1, XDATA, add(CFA_XSP16, literal(-10)))
          CFI (cfiCond43) V9 load(1, XDATA, add(CFA_XSP16, literal(-9)))
          CFI (cfiCond43) V10 load(1, XDATA, add(CFA_XSP16, literal(-8)))
          CFI (cfiCond43) V11 load(1, XDATA, add(CFA_XSP16, literal(-7)))
          CFI (cfiCond43) R7 load(1, XDATA, add(CFA_XSP16, literal(-6)))
          CFI (cfiCond43) ?RET_LOW load(1, XDATA, add(CFA_XSP16, literal(-5)))
          CFI (cfiCond43) ?RET_HIGH load(1, XDATA, add(CFA_XSP16, literal(-4)))
          CFI (cfiCond43) ?BRET_EXT load(1, XDATA, add(CFA_XSP16, literal(-3)))
          CFI (cfiCond43) DPL0 load(1, XDATA, add(CFA_XSP16, literal(-2)))
          CFI (cfiCond43) DPH0 load(1, XDATA, add(CFA_XSP16, literal(-1)))
          CFI (cfiCond43) CFA_SP SP+-2
          CFI (cfiCond43) CFA_XSP16 add(XSP16, 32)
          CFI Block cfiCond44 Using cfiCommon0
          CFI (cfiCond44) Function zclGp_SendGpCommissioningNotificationCommand
          CFI (cfiCond44) Conditional ??CrossCallReturnLabel_21
          CFI (cfiCond44) R6 load(1, XDATA, add(CFA_XSP16, literal(-20)))
          CFI (cfiCond44) VB load(1, XDATA, add(CFA_XSP16, literal(-19)))
          CFI (cfiCond44) V0 load(1, XDATA, add(CFA_XSP16, literal(-18)))
          CFI (cfiCond44) V1 load(1, XDATA, add(CFA_XSP16, literal(-17)))
          CFI (cfiCond44) V2 load(1, XDATA, add(CFA_XSP16, literal(-16)))
          CFI (cfiCond44) V3 load(1, XDATA, add(CFA_XSP16, literal(-15)))
          CFI (cfiCond44) V4 load(1, XDATA, add(CFA_XSP16, literal(-14)))
          CFI (cfiCond44) V5 load(1, XDATA, add(CFA_XSP16, literal(-13)))
          CFI (cfiCond44) V6 load(1, XDATA, add(CFA_XSP16, literal(-12)))
          CFI (cfiCond44) V7 load(1, XDATA, add(CFA_XSP16, literal(-11)))
          CFI (cfiCond44) V8 load(1, XDATA, add(CFA_XSP16, literal(-10)))
          CFI (cfiCond44) V9 load(1, XDATA, add(CFA_XSP16, literal(-9)))
          CFI (cfiCond44) V10 load(1, XDATA, add(CFA_XSP16, literal(-8)))
          CFI (cfiCond44) V11 load(1, XDATA, add(CFA_XSP16, literal(-7)))
          CFI (cfiCond44) R7 load(1, XDATA, add(CFA_XSP16, literal(-6)))
          CFI (cfiCond44) ?RET_LOW load(1, XDATA, add(CFA_XSP16, literal(-5)))
          CFI (cfiCond44) ?RET_HIGH load(1, XDATA, add(CFA_XSP16, literal(-4)))
          CFI (cfiCond44) ?BRET_EXT load(1, XDATA, add(CFA_XSP16, literal(-3)))
          CFI (cfiCond44) DPL0 load(1, XDATA, add(CFA_XSP16, literal(-2)))
          CFI (cfiCond44) DPH0 load(1, XDATA, add(CFA_XSP16, literal(-1)))
          CFI (cfiCond44) CFA_SP SP+-2
          CFI (cfiCond44) CFA_XSP16 add(XSP16, 32)
          CFI Block cfiPicker45 Using cfiCommon1
          CFI (cfiPicker45) NoFunction
          CFI (cfiPicker45) Picker
        MOV     ?V4,A
        CLR     A
        ADDC    A,?V3
        MOV     ?V5,A
        MOV     R0,#?V4
        RET
          CFI EndBlock cfiCond41
          CFI EndBlock cfiCond42
          CFI EndBlock cfiCond43
          CFI EndBlock cfiCond44
          CFI EndBlock cfiPicker45

        RSEG BANKED_CODE:CODE:NOROOT(0)
?Subroutine18:
          CFI Block cfiCond46 Using cfiCommon0
          CFI Function zclGp_SendGpNotificationCommand
          CFI Conditional ??CrossCallReturnLabel_12
          CFI R6 load(1, XDATA, add(CFA_XSP16, literal(-23)))
          CFI VB load(1, XDATA, add(CFA_XSP16, literal(-22)))
          CFI V0 load(1, XDATA, add(CFA_XSP16, literal(-21)))
          CFI V1 load(1, XDATA, add(CFA_XSP16, literal(-20)))
          CFI V2 load(1, XDATA, add(CFA_XSP16, literal(-19)))
          CFI V3 load(1, XDATA, add(CFA_XSP16, literal(-18)))
          CFI V4 load(1, XDATA, add(CFA_XSP16, literal(-17)))
          CFI V5 load(1, XDATA, add(CFA_XSP16, literal(-16)))
          CFI V6 load(1, XDATA, add(CFA_XSP16, literal(-15)))
          CFI V7 load(1, XDATA, add(CFA_XSP16, literal(-14)))
          CFI V8 load(1, XDATA, add(CFA_XSP16, literal(-13)))
          CFI V9 load(1, XDATA, add(CFA_XSP16, literal(-12)))
          CFI V10 load(1, XDATA, add(CFA_XSP16, literal(-11)))
          CFI V11 load(1, XDATA, add(CFA_XSP16, literal(-10)))
          CFI V12 load(1, XDATA, add(CFA_XSP16, literal(-9)))
          CFI V13 load(1, XDATA, add(CFA_XSP16, literal(-8)))
          CFI V14 load(1, XDATA, add(CFA_XSP16, literal(-7)))
          CFI R7 load(1, XDATA, add(CFA_XSP16, literal(-6)))
          CFI ?RET_LOW load(1, XDATA, add(CFA_XSP16, literal(-5)))
          CFI ?RET_HIGH load(1, XDATA, add(CFA_XSP16, literal(-4)))
          CFI ?BRET_EXT load(1, XDATA, add(CFA_XSP16, literal(-3)))
          CFI DPL0 load(1, XDATA, add(CFA_XSP16, literal(-2)))
          CFI DPH0 load(1, XDATA, add(CFA_XSP16, literal(-1)))
          CFI CFA_SP SP+-2
          CFI CFA_XSP16 add(XSP16, 23)
          CFI Block cfiCond47 Using cfiCommon0
          CFI (cfiCond47) Function zclGp_SendGpCommissioningNotificationCommand
          CFI (cfiCond47) Conditional ??CrossCallReturnLabel_13
          CFI (cfiCond47) R6 load(1, XDATA, add(CFA_XSP16, literal(-20)))
          CFI (cfiCond47) VB load(1, XDATA, add(CFA_XSP16, literal(-19)))
          CFI (cfiCond47) V0 load(1, XDATA, add(CFA_XSP16, literal(-18)))
          CFI (cfiCond47) V1 load(1, XDATA, add(CFA_XSP16, literal(-17)))
          CFI (cfiCond47) V2 load(1, XDATA, add(CFA_XSP16, literal(-16)))
          CFI (cfiCond47) V3 load(1, XDATA, add(CFA_XSP16, literal(-15)))
          CFI (cfiCond47) V4 load(1, XDATA, add(CFA_XSP16, literal(-14)))
          CFI (cfiCond47) V5 load(1, XDATA, add(CFA_XSP16, literal(-13)))
          CFI (cfiCond47) V6 load(1, XDATA, add(CFA_XSP16, literal(-12)))
          CFI (cfiCond47) V7 load(1, XDATA, add(CFA_XSP16, literal(-11)))
          CFI (cfiCond47) V8 load(1, XDATA, add(CFA_XSP16, literal(-10)))
          CFI (cfiCond47) V9 load(1, XDATA, add(CFA_XSP16, literal(-9)))
          CFI (cfiCond47) V10 load(1, XDATA, add(CFA_XSP16, literal(-8)))
          CFI (cfiCond47) V11 load(1, XDATA, add(CFA_XSP16, literal(-7)))
          CFI (cfiCond47) R7 load(1, XDATA, add(CFA_XSP16, literal(-6)))
          CFI (cfiCond47) ?RET_LOW load(1, XDATA, add(CFA_XSP16, literal(-5)))
          CFI (cfiCond47) ?RET_HIGH load(1, XDATA, add(CFA_XSP16, literal(-4)))
          CFI (cfiCond47) ?BRET_EXT load(1, XDATA, add(CFA_XSP16, literal(-3)))
          CFI (cfiCond47) DPL0 load(1, XDATA, add(CFA_XSP16, literal(-2)))
          CFI (cfiCond47) DPH0 load(1, XDATA, add(CFA_XSP16, literal(-1)))
          CFI (cfiCond47) CFA_SP SP+-2
          CFI (cfiCond47) CFA_XSP16 add(XSP16, 32)
          CFI Block cfiPicker48 Using cfiCommon1
          CFI (cfiPicker48) NoFunction
          CFI (cfiPicker48) Picker
        MOV     DPH,A
        MOVX    A,@DPTR
        MOV     DPL,R6
        MOV     DPH,R7
        INC     DPTR
        INC     DPTR
        MOVX    @DPTR,A
        RET
          CFI EndBlock cfiCond46
          CFI EndBlock cfiCond47
          CFI EndBlock cfiPicker48

        RSEG BANKED_CODE:CODE:NOROOT(0)
?Subroutine17:
          CFI Block cfiCond49 Using cfiCommon0
          CFI Function zclGp_SendGpNotificationCommand
          CFI Conditional ??CrossCallReturnLabel_10
          CFI R6 load(1, XDATA, add(CFA_XSP16, literal(-23)))
          CFI VB load(1, XDATA, add(CFA_XSP16, literal(-22)))
          CFI V0 load(1, XDATA, add(CFA_XSP16, literal(-21)))
          CFI V1 load(1, XDATA, add(CFA_XSP16, literal(-20)))
          CFI V2 load(1, XDATA, add(CFA_XSP16, literal(-19)))
          CFI V3 load(1, XDATA, add(CFA_XSP16, literal(-18)))
          CFI V4 load(1, XDATA, add(CFA_XSP16, literal(-17)))
          CFI V5 load(1, XDATA, add(CFA_XSP16, literal(-16)))
          CFI V6 load(1, XDATA, add(CFA_XSP16, literal(-15)))
          CFI V7 load(1, XDATA, add(CFA_XSP16, literal(-14)))
          CFI V8 load(1, XDATA, add(CFA_XSP16, literal(-13)))
          CFI V9 load(1, XDATA, add(CFA_XSP16, literal(-12)))
          CFI V10 load(1, XDATA, add(CFA_XSP16, literal(-11)))
          CFI V11 load(1, XDATA, add(CFA_XSP16, literal(-10)))
          CFI V12 load(1, XDATA, add(CFA_XSP16, literal(-9)))
          CFI V13 load(1, XDATA, add(CFA_XSP16, literal(-8)))
          CFI V14 load(1, XDATA, add(CFA_XSP16, literal(-7)))
          CFI R7 load(1, XDATA, add(CFA_XSP16, literal(-6)))
          CFI ?RET_LOW load(1, XDATA, add(CFA_XSP16, literal(-5)))
          CFI ?RET_HIGH load(1, XDATA, add(CFA_XSP16, literal(-4)))
          CFI ?BRET_EXT load(1, XDATA, add(CFA_XSP16, literal(-3)))
          CFI DPL0 load(1, XDATA, add(CFA_XSP16, literal(-2)))
          CFI DPH0 load(1, XDATA, add(CFA_XSP16, literal(-1)))
          CFI CFA_SP SP+-2
          CFI CFA_XSP16 add(XSP16, 23)
          CFI Block cfiCond50 Using cfiCommon0
          CFI (cfiCond50) Function zclGp_SendGpCommissioningNotificationCommand
          CFI (cfiCond50) Conditional ??CrossCallReturnLabel_11
          CFI (cfiCond50) R6 load(1, XDATA, add(CFA_XSP16, literal(-20)))
          CFI (cfiCond50) VB load(1, XDATA, add(CFA_XSP16, literal(-19)))
          CFI (cfiCond50) V0 load(1, XDATA, add(CFA_XSP16, literal(-18)))
          CFI (cfiCond50) V1 load(1, XDATA, add(CFA_XSP16, literal(-17)))
          CFI (cfiCond50) V2 load(1, XDATA, add(CFA_XSP16, literal(-16)))
          CFI (cfiCond50) V3 load(1, XDATA, add(CFA_XSP16, literal(-15)))
          CFI (cfiCond50) V4 load(1, XDATA, add(CFA_XSP16, literal(-14)))
          CFI (cfiCond50) V5 load(1, XDATA, add(CFA_XSP16, literal(-13)))
          CFI (cfiCond50) V6 load(1, XDATA, add(CFA_XSP16, literal(-12)))
          CFI (cfiCond50) V7 load(1, XDATA, add(CFA_XSP16, literal(-11)))
          CFI (cfiCond50) V8 load(1, XDATA, add(CFA_XSP16, literal(-10)))
          CFI (cfiCond50) V9 load(1, XDATA, add(CFA_XSP16, literal(-9)))
          CFI (cfiCond50) V10 load(1, XDATA, add(CFA_XSP16, literal(-8)))
          CFI (cfiCond50) V11 load(1, XDATA, add(CFA_XSP16, literal(-7)))
          CFI (cfiCond50) R7 load(1, XDATA, add(CFA_XSP16, literal(-6)))
          CFI (cfiCond50) ?RET_LOW load(1, XDATA, add(CFA_XSP16, literal(-5)))
          CFI (cfiCond50) ?RET_HIGH load(1, XDATA, add(CFA_XSP16, literal(-4)))
          CFI (cfiCond50) ?BRET_EXT load(1, XDATA, add(CFA_XSP16, literal(-3)))
          CFI (cfiCond50) DPL0 load(1, XDATA, add(CFA_XSP16, literal(-2)))
          CFI (cfiCond50) DPH0 load(1, XDATA, add(CFA_XSP16, literal(-1)))
          CFI (cfiCond50) CFA_SP SP+-2
          CFI (cfiCond50) CFA_XSP16 add(XSP16, 32)
          CFI Block cfiPicker51 Using cfiCommon1
          CFI (cfiPicker51) NoFunction
          CFI (cfiPicker51) Picker
        MOV     DPL,?V10
        MOV     DPH,?V11
        MOVX    A,@DPTR
        MOV     R0,A
        MOV     A,R6
        ADD     A,R0
        MOV     R6,A
        CLR     A
        ADDC    A,R7
        MOV     R7,A
        RET
          CFI EndBlock cfiCond49
          CFI EndBlock cfiCond50
          CFI EndBlock cfiPicker51

        RSEG BANKED_CODE:CODE:NOROOT(0)
?Subroutine14:
          CFI Block cfiCond52 Using cfiCommon0
          CFI Function zclGp_ProcessInGreenPowerClient
          CFI Conditional ??CrossCallReturnLabel_8
          CFI R6 load(1, XDATA, add(CFA_XSP16, literal(-19)))
          CFI VB load(1, XDATA, add(CFA_XSP16, literal(-18)))
          CFI V0 load(1, XDATA, add(CFA_XSP16, literal(-17)))
          CFI V1 load(1, XDATA, add(CFA_XSP16, literal(-16)))
          CFI V2 load(1, XDATA, add(CFA_XSP16, literal(-15)))
          CFI V3 load(1, XDATA, add(CFA_XSP16, literal(-14)))
          CFI V4 load(1, XDATA, add(CFA_XSP16, literal(-13)))
          CFI V5 load(1, XDATA, add(CFA_XSP16, literal(-12)))
          CFI V6 load(1, XDATA, add(CFA_XSP16, literal(-11)))
          CFI V7 load(1, XDATA, add(CFA_XSP16, literal(-10)))
          CFI V8 load(1, XDATA, add(CFA_XSP16, literal(-9)))
          CFI V9 load(1, XDATA, add(CFA_XSP16, literal(-8)))
          CFI V10 load(1, XDATA, add(CFA_XSP16, literal(-7)))
          CFI R7 load(1, XDATA, add(CFA_XSP16, literal(-6)))
          CFI ?RET_LOW load(1, XDATA, add(CFA_XSP16, literal(-5)))
          CFI ?RET_HIGH load(1, XDATA, add(CFA_XSP16, literal(-4)))
          CFI ?BRET_EXT load(1, XDATA, add(CFA_XSP16, literal(-3)))
          CFI DPL0 load(1, XDATA, add(CFA_XSP16, literal(-2)))
          CFI DPH0 load(1, XDATA, add(CFA_XSP16, literal(-1)))
          CFI CFA_SP SP+-2
          CFI CFA_XSP16 add(XSP16, 39)
          CFI Block cfiCond53 Using cfiCommon0
          CFI (cfiCond53) Function zclGp_SendGpCommissioningNotificationCommand
          CFI (cfiCond53) Conditional ??CrossCallReturnLabel_9
          CFI (cfiCond53) R6 load(1, XDATA, add(CFA_XSP16, literal(-20)))
          CFI (cfiCond53) VB load(1, XDATA, add(CFA_XSP16, literal(-19)))
          CFI (cfiCond53) V0 load(1, XDATA, add(CFA_XSP16, literal(-18)))
          CFI (cfiCond53) V1 load(1, XDATA, add(CFA_XSP16, literal(-17)))
          CFI (cfiCond53) V2 load(1, XDATA, add(CFA_XSP16, literal(-16)))
          CFI (cfiCond53) V3 load(1, XDATA, add(CFA_XSP16, literal(-15)))
          CFI (cfiCond53) V4 load(1, XDATA, add(CFA_XSP16, literal(-14)))
          CFI (cfiCond53) V5 load(1, XDATA, add(CFA_XSP16, literal(-13)))
          CFI (cfiCond53) V6 load(1, XDATA, add(CFA_XSP16, literal(-12)))
          CFI (cfiCond53) V7 load(1, XDATA, add(CFA_XSP16, literal(-11)))
          CFI (cfiCond53) V8 load(1, XDATA, add(CFA_XSP16, literal(-10)))
          CFI (cfiCond53) V9 load(1, XDATA, add(CFA_XSP16, literal(-9)))
          CFI (cfiCond53) V10 load(1, XDATA, add(CFA_XSP16, literal(-8)))
          CFI (cfiCond53) V11 load(1, XDATA, add(CFA_XSP16, literal(-7)))
          CFI (cfiCond53) R7 load(1, XDATA, add(CFA_XSP16, literal(-6)))
          CFI (cfiCond53) ?RET_LOW load(1, XDATA, add(CFA_XSP16, literal(-5)))
          CFI (cfiCond53) ?RET_HIGH load(1, XDATA, add(CFA_XSP16, literal(-4)))
          CFI (cfiCond53) ?BRET_EXT load(1, XDATA, add(CFA_XSP16, literal(-3)))
          CFI (cfiCond53) DPL0 load(1, XDATA, add(CFA_XSP16, literal(-2)))
          CFI (cfiCond53) DPH0 load(1, XDATA, add(CFA_XSP16, literal(-1)))
          CFI (cfiCond53) CFA_SP SP+-2
          CFI (cfiCond53) CFA_XSP16 add(XSP16, 32)
          CFI Block cfiPicker54 Using cfiCommon1
          CFI (cfiPicker54) NoFunction
          CFI (cfiPicker54) Picker
        LCALL   ?Subroutine30 & 0xFFFF
??CrossCallReturnLabel_91:
        MOV     R1,A
        MOV     DPL,?XSP + 0
        MOV     DPH,?XSP + 1
        RET
          CFI EndBlock cfiCond52
          CFI EndBlock cfiCond53
          CFI EndBlock cfiPicker54

        RSEG BANKED_CODE:CODE:NOROOT(0)
?Subroutine11:
          CFI Block cfiCond55 Using cfiCommon0
          CFI Function zclGp_SendGpNotificationCommand
          CFI Conditional ??CrossCallReturnLabel_4
          CFI R6 load(1, XDATA, add(CFA_XSP16, literal(-23)))
          CFI VB load(1, XDATA, add(CFA_XSP16, literal(-22)))
          CFI V0 load(1, XDATA, add(CFA_XSP16, literal(-21)))
          CFI V1 load(1, XDATA, add(CFA_XSP16, literal(-20)))
          CFI V2 load(1, XDATA, add(CFA_XSP16, literal(-19)))
          CFI V3 load(1, XDATA, add(CFA_XSP16, literal(-18)))
          CFI V4 load(1, XDATA, add(CFA_XSP16, literal(-17)))
          CFI V5 load(1, XDATA, add(CFA_XSP16, literal(-16)))
          CFI V6 load(1, XDATA, add(CFA_XSP16, literal(-15)))
          CFI V7 load(1, XDATA, add(CFA_XSP16, literal(-14)))
          CFI V8 load(1, XDATA, add(CFA_XSP16, literal(-13)))
          CFI V9 load(1, XDATA, add(CFA_XSP16, literal(-12)))
          CFI V10 load(1, XDATA, add(CFA_XSP16, literal(-11)))
          CFI V11 load(1, XDATA, add(CFA_XSP16, literal(-10)))
          CFI V12 load(1, XDATA, add(CFA_XSP16, literal(-9)))
          CFI V13 load(1, XDATA, add(CFA_XSP16, literal(-8)))
          CFI V14 load(1, XDATA, add(CFA_XSP16, literal(-7)))
          CFI R7 load(1, XDATA, add(CFA_XSP16, literal(-6)))
          CFI ?RET_LOW load(1, XDATA, add(CFA_XSP16, literal(-5)))
          CFI ?RET_HIGH load(1, XDATA, add(CFA_XSP16, literal(-4)))
          CFI ?BRET_EXT load(1, XDATA, add(CFA_XSP16, literal(-3)))
          CFI DPL0 load(1, XDATA, add(CFA_XSP16, literal(-2)))
          CFI DPH0 load(1, XDATA, add(CFA_XSP16, literal(-1)))
          CFI CFA_SP SP+-2
          CFI CFA_XSP16 add(XSP16, 23)
          CFI Block cfiCond56 Using cfiCommon0
          CFI (cfiCond56) Function zclGp_SendGpCommissioningNotificationCommand
          CFI (cfiCond56) Conditional ??CrossCallReturnLabel_5
          CFI (cfiCond56) R6 load(1, XDATA, add(CFA_XSP16, literal(-20)))
          CFI (cfiCond56) VB load(1, XDATA, add(CFA_XSP16, literal(-19)))
          CFI (cfiCond56) V0 load(1, XDATA, add(CFA_XSP16, literal(-18)))
          CFI (cfiCond56) V1 load(1, XDATA, add(CFA_XSP16, literal(-17)))
          CFI (cfiCond56) V2 load(1, XDATA, add(CFA_XSP16, literal(-16)))
          CFI (cfiCond56) V3 load(1, XDATA, add(CFA_XSP16, literal(-15)))
          CFI (cfiCond56) V4 load(1, XDATA, add(CFA_XSP16, literal(-14)))
          CFI (cfiCond56) V5 load(1, XDATA, add(CFA_XSP16, literal(-13)))
          CFI (cfiCond56) V6 load(1, XDATA, add(CFA_XSP16, literal(-12)))
          CFI (cfiCond56) V7 load(1, XDATA, add(CFA_XSP16, literal(-11)))
          CFI (cfiCond56) V8 load(1, XDATA, add(CFA_XSP16, literal(-10)))
          CFI (cfiCond56) V9 load(1, XDATA, add(CFA_XSP16, literal(-9)))
          CFI (cfiCond56) V10 load(1, XDATA, add(CFA_XSP16, literal(-8)))
          CFI (cfiCond56) V11 load(1, XDATA, add(CFA_XSP16, literal(-7)))
          CFI (cfiCond56) R7 load(1, XDATA, add(CFA_XSP16, literal(-6)))
          CFI (cfiCond56) ?RET_LOW load(1, XDATA, add(CFA_XSP16, literal(-5)))
          CFI (cfiCond56) ?RET_HIGH load(1, XDATA, add(CFA_XSP16, literal(-4)))
          CFI (cfiCond56) ?BRET_EXT load(1, XDATA, add(CFA_XSP16, literal(-3)))
          CFI (cfiCond56) DPL0 load(1, XDATA, add(CFA_XSP16, literal(-2)))
          CFI (cfiCond56) DPH0 load(1, XDATA, add(CFA_XSP16, literal(-1)))
          CFI (cfiCond56) CFA_SP SP+-2
          CFI (cfiCond56) CFA_XSP16 add(XSP16, 32)
          CFI Block cfiPicker57 Using cfiCommon1
          CFI (cfiPicker57) NoFunction
          CFI (cfiPicker57) Picker
        MOV     DPH,A
        LCALL   ?Subroutine25 & 0xFFFF
??CrossCallReturnLabel_28:
        INC     DPTR
        INC     DPTR
        INC     DPTR
        MOVX    @DPTR,A
        MOV     A,R6
        ADD     A,#0x9
        RET
          CFI EndBlock cfiCond55
          CFI EndBlock cfiCond56
          CFI EndBlock cfiPicker57

        RSEG BANKED_CODE:CODE:NOROOT(0)
?Subroutine7:
          CFI Block cfiCond58 Using cfiCommon0
          CFI Function zclGp_SendGpNotificationCommand
          CFI Conditional ??CrossCallReturnLabel_0
          CFI R6 load(1, XDATA, add(CFA_XSP16, literal(-23)))
          CFI VB load(1, XDATA, add(CFA_XSP16, literal(-22)))
          CFI V0 load(1, XDATA, add(CFA_XSP16, literal(-21)))
          CFI V1 load(1, XDATA, add(CFA_XSP16, literal(-20)))
          CFI V2 load(1, XDATA, add(CFA_XSP16, literal(-19)))
          CFI V3 load(1, XDATA, add(CFA_XSP16, literal(-18)))
          CFI V4 load(1, XDATA, add(CFA_XSP16, literal(-17)))
          CFI V5 load(1, XDATA, add(CFA_XSP16, literal(-16)))
          CFI V6 load(1, XDATA, add(CFA_XSP16, literal(-15)))
          CFI V7 load(1, XDATA, add(CFA_XSP16, literal(-14)))
          CFI V8 load(1, XDATA, add(CFA_XSP16, literal(-13)))
          CFI V9 load(1, XDATA, add(CFA_XSP16, literal(-12)))
          CFI V10 load(1, XDATA, add(CFA_XSP16, literal(-11)))
          CFI V11 load(1, XDATA, add(CFA_XSP16, literal(-10)))
          CFI V12 load(1, XDATA, add(CFA_XSP16, literal(-9)))
          CFI V13 load(1, XDATA, add(CFA_XSP16, literal(-8)))
          CFI V14 load(1, XDATA, add(CFA_XSP16, literal(-7)))
          CFI R7 load(1, XDATA, add(CFA_XSP16, literal(-6)))
          CFI ?RET_LOW load(1, XDATA, add(CFA_XSP16, literal(-5)))
          CFI ?RET_HIGH load(1, XDATA, add(CFA_XSP16, literal(-4)))
          CFI ?BRET_EXT load(1, XDATA, add(CFA_XSP16, literal(-3)))
          CFI DPL0 load(1, XDATA, add(CFA_XSP16, literal(-2)))
          CFI DPH0 load(1, XDATA, add(CFA_XSP16, literal(-1)))
          CFI CFA_SP SP+-2
          CFI CFA_XSP16 add(XSP16, 23)
          CFI Block cfiCond59 Using cfiCommon0
          CFI (cfiCond59) Function zclGp_SendGpCommissioningNotificationCommand
          CFI (cfiCond59) Conditional ??CrossCallReturnLabel_1
          CFI (cfiCond59) R6 load(1, XDATA, add(CFA_XSP16, literal(-20)))
          CFI (cfiCond59) VB load(1, XDATA, add(CFA_XSP16, literal(-19)))
          CFI (cfiCond59) V0 load(1, XDATA, add(CFA_XSP16, literal(-18)))
          CFI (cfiCond59) V1 load(1, XDATA, add(CFA_XSP16, literal(-17)))
          CFI (cfiCond59) V2 load(1, XDATA, add(CFA_XSP16, literal(-16)))
          CFI (cfiCond59) V3 load(1, XDATA, add(CFA_XSP16, literal(-15)))
          CFI (cfiCond59) V4 load(1, XDATA, add(CFA_XSP16, literal(-14)))
          CFI (cfiCond59) V5 load(1, XDATA, add(CFA_XSP16, literal(-13)))
          CFI (cfiCond59) V6 load(1, XDATA, add(CFA_XSP16, literal(-12)))
          CFI (cfiCond59) V7 load(1, XDATA, add(CFA_XSP16, literal(-11)))
          CFI (cfiCond59) V8 load(1, XDATA, add(CFA_XSP16, literal(-10)))
          CFI (cfiCond59) V9 load(1, XDATA, add(CFA_XSP16, literal(-9)))
          CFI (cfiCond59) V10 load(1, XDATA, add(CFA_XSP16, literal(-8)))
          CFI (cfiCond59) V11 load(1, XDATA, add(CFA_XSP16, literal(-7)))
          CFI (cfiCond59) R7 load(1, XDATA, add(CFA_XSP16, literal(-6)))
          CFI (cfiCond59) ?RET_LOW load(1, XDATA, add(CFA_XSP16, literal(-5)))
          CFI (cfiCond59) ?RET_HIGH load(1, XDATA, add(CFA_XSP16, literal(-4)))
          CFI (cfiCond59) ?BRET_EXT load(1, XDATA, add(CFA_XSP16, literal(-3)))
          CFI (cfiCond59) DPL0 load(1, XDATA, add(CFA_XSP16, literal(-2)))
          CFI (cfiCond59) DPH0 load(1, XDATA, add(CFA_XSP16, literal(-1)))
          CFI (cfiCond59) CFA_SP SP+-2
          CFI (cfiCond59) CFA_XSP16 add(XSP16, 32)
          CFI Block cfiPicker60 Using cfiCommon1
          CFI (cfiPicker60) NoFunction
          CFI (cfiPicker60) Picker
        MOV     DPH,A
        LCALL   ?Subroutine29 & 0xFFFF
??CrossCallReturnLabel_38:
        MOVX    @DPTR,A
        MOV     DPL,?V10
        MOV     DPH,?V11
        LCALL   ?Subroutine25 & 0xFFFF
??CrossCallReturnLabel_27:
        MOVX    @DPTR,A
        MOV     A,R6
        ADD     A,#0x6
        MOV     R6,A
        RET
          CFI EndBlock cfiCond58
          CFI EndBlock cfiCond59
          CFI EndBlock cfiPicker60

        RSEG BANKED_CODE:CODE:NOROOT(0)
?Subroutine25:
          CFI Block cfiCond61 Using cfiCommon0
          CFI Function zclGp_SendGpNotificationCommand
          CFI Conditional ??CrossCallReturnLabel_28, ??CrossCallReturnLabel_4
          CFI R6 load(1, XDATA, add(CFA_XSP16, literal(-23)))
          CFI VB load(1, XDATA, add(CFA_XSP16, literal(-22)))
          CFI V0 load(1, XDATA, add(CFA_XSP16, literal(-21)))
          CFI V1 load(1, XDATA, add(CFA_XSP16, literal(-20)))
          CFI V2 load(1, XDATA, add(CFA_XSP16, literal(-19)))
          CFI V3 load(1, XDATA, add(CFA_XSP16, literal(-18)))
          CFI V4 load(1, XDATA, add(CFA_XSP16, literal(-17)))
          CFI V5 load(1, XDATA, add(CFA_XSP16, literal(-16)))
          CFI V6 load(1, XDATA, add(CFA_XSP16, literal(-15)))
          CFI V7 load(1, XDATA, add(CFA_XSP16, literal(-14)))
          CFI V8 load(1, XDATA, add(CFA_XSP16, literal(-13)))
          CFI V9 load(1, XDATA, add(CFA_XSP16, literal(-12)))
          CFI V10 load(1, XDATA, add(CFA_XSP16, literal(-11)))
          CFI V11 load(1, XDATA, add(CFA_XSP16, literal(-10)))
          CFI V12 load(1, XDATA, add(CFA_XSP16, literal(-9)))
          CFI V13 load(1, XDATA, add(CFA_XSP16, literal(-8)))
          CFI V14 load(1, XDATA, add(CFA_XSP16, literal(-7)))
          CFI R7 load(1, XDATA, add(CFA_XSP16, literal(-6)))
          CFI ?RET_LOW load(1, XDATA, add(CFA_XSP16, literal(-5)))
          CFI ?RET_HIGH load(1, XDATA, add(CFA_XSP16, literal(-4)))
          CFI ?BRET_EXT load(1, XDATA, add(CFA_XSP16, literal(-3)))
          CFI DPL0 load(1, XDATA, add(CFA_XSP16, literal(-2)))
          CFI DPH0 load(1, XDATA, add(CFA_XSP16, literal(-1)))
          CFI CFA_SP SP+-4
          CFI CFA_XSP16 add(XSP16, 23)
          CFI Block cfiCond62 Using cfiCommon0
          CFI (cfiCond62) Function zclGp_SendGpCommissioningNotificationCommand
          CFI (cfiCond62) Conditional ??CrossCallReturnLabel_28, ??CrossCallReturnLabel_5
          CFI (cfiCond62) R6 load(1, XDATA, add(CFA_XSP16, literal(-20)))
          CFI (cfiCond62) VB load(1, XDATA, add(CFA_XSP16, literal(-19)))
          CFI (cfiCond62) V0 load(1, XDATA, add(CFA_XSP16, literal(-18)))
          CFI (cfiCond62) V1 load(1, XDATA, add(CFA_XSP16, literal(-17)))
          CFI (cfiCond62) V2 load(1, XDATA, add(CFA_XSP16, literal(-16)))
          CFI (cfiCond62) V3 load(1, XDATA, add(CFA_XSP16, literal(-15)))
          CFI (cfiCond62) V4 load(1, XDATA, add(CFA_XSP16, literal(-14)))
          CFI (cfiCond62) V5 load(1, XDATA, add(CFA_XSP16, literal(-13)))
          CFI (cfiCond62) V6 load(1, XDATA, add(CFA_XSP16, literal(-12)))
          CFI (cfiCond62) V7 load(1, XDATA, add(CFA_XSP16, literal(-11)))
          CFI (cfiCond62) V8 load(1, XDATA, add(CFA_XSP16, literal(-10)))
          CFI (cfiCond62) V9 load(1, XDATA, add(CFA_XSP16, literal(-9)))
          CFI (cfiCond62) V10 load(1, XDATA, add(CFA_XSP16, literal(-8)))
          CFI (cfiCond62) V11 load(1, XDATA, add(CFA_XSP16, literal(-7)))
          CFI (cfiCond62) R7 load(1, XDATA, add(CFA_XSP16, literal(-6)))
          CFI (cfiCond62) ?RET_LOW load(1, XDATA, add(CFA_XSP16, literal(-5)))
          CFI (cfiCond62) ?RET_HIGH load(1, XDATA, add(CFA_XSP16, literal(-4)))
          CFI (cfiCond62) ?BRET_EXT load(1, XDATA, add(CFA_XSP16, literal(-3)))
          CFI (cfiCond62) DPL0 load(1, XDATA, add(CFA_XSP16, literal(-2)))
          CFI (cfiCond62) DPH0 load(1, XDATA, add(CFA_XSP16, literal(-1)))
          CFI (cfiCond62) CFA_SP SP+-4
          CFI (cfiCond62) CFA_XSP16 add(XSP16, 32)
          CFI Block cfiCond63 Using cfiCommon0
          CFI (cfiCond63) Function zclGp_SendGpNotificationCommand
          CFI (cfiCond63) Conditional ??CrossCallReturnLabel_27, ??CrossCallReturnLabel_0
          CFI (cfiCond63) R6 load(1, XDATA, add(CFA_XSP16, literal(-23)))
          CFI (cfiCond63) VB load(1, XDATA, add(CFA_XSP16, literal(-22)))
          CFI (cfiCond63) V0 load(1, XDATA, add(CFA_XSP16, literal(-21)))
          CFI (cfiCond63) V1 load(1, XDATA, add(CFA_XSP16, literal(-20)))
          CFI (cfiCond63) V2 load(1, XDATA, add(CFA_XSP16, literal(-19)))
          CFI (cfiCond63) V3 load(1, XDATA, add(CFA_XSP16, literal(-18)))
          CFI (cfiCond63) V4 load(1, XDATA, add(CFA_XSP16, literal(-17)))
          CFI (cfiCond63) V5 load(1, XDATA, add(CFA_XSP16, literal(-16)))
          CFI (cfiCond63) V6 load(1, XDATA, add(CFA_XSP16, literal(-15)))
          CFI (cfiCond63) V7 load(1, XDATA, add(CFA_XSP16, literal(-14)))
          CFI (cfiCond63) V8 load(1, XDATA, add(CFA_XSP16, literal(-13)))
          CFI (cfiCond63) V9 load(1, XDATA, add(CFA_XSP16, literal(-12)))
          CFI (cfiCond63) V10 load(1, XDATA, add(CFA_XSP16, literal(-11)))
          CFI (cfiCond63) V11 load(1, XDATA, add(CFA_XSP16, literal(-10)))
          CFI (cfiCond63) V12 load(1, XDATA, add(CFA_XSP16, literal(-9)))
          CFI (cfiCond63) V13 load(1, XDATA, add(CFA_XSP16, literal(-8)))
          CFI (cfiCond63) V14 load(1, XDATA, add(CFA_XSP16, literal(-7)))
          CFI (cfiCond63) R7 load(1, XDATA, add(CFA_XSP16, literal(-6)))
          CFI (cfiCond63) ?RET_LOW load(1, XDATA, add(CFA_XSP16, literal(-5)))
          CFI (cfiCond63) ?RET_HIGH load(1, XDATA, add(CFA_XSP16, literal(-4)))
          CFI (cfiCond63) ?BRET_EXT load(1, XDATA, add(CFA_XSP16, literal(-3)))
          CFI (cfiCond63) DPL0 load(1, XDATA, add(CFA_XSP16, literal(-2)))
          CFI (cfiCond63) DPH0 load(1, XDATA, add(CFA_XSP16, literal(-1)))
          CFI (cfiCond63) CFA_SP SP+-4
          CFI (cfiCond63) CFA_XSP16 add(XSP16, 23)
          CFI Block cfiCond64 Using cfiCommon0
          CFI (cfiCond64) Function zclGp_SendGpCommissioningNotificationCommand
          CFI (cfiCond64) Conditional ??CrossCallReturnLabel_27, ??CrossCallReturnLabel_1
          CFI (cfiCond64) R6 load(1, XDATA, add(CFA_XSP16, literal(-20)))
          CFI (cfiCond64) VB load(1, XDATA, add(CFA_XSP16, literal(-19)))
          CFI (cfiCond64) V0 load(1, XDATA, add(CFA_XSP16, literal(-18)))
          CFI (cfiCond64) V1 load(1, XDATA, add(CFA_XSP16, literal(-17)))
          CFI (cfiCond64) V2 load(1, XDATA, add(CFA_XSP16, literal(-16)))
          CFI (cfiCond64) V3 load(1, XDATA, add(CFA_XSP16, literal(-15)))
          CFI (cfiCond64) V4 load(1, XDATA, add(CFA_XSP16, literal(-14)))
          CFI (cfiCond64) V5 load(1, XDATA, add(CFA_XSP16, literal(-13)))
          CFI (cfiCond64) V6 load(1, XDATA, add(CFA_XSP16, literal(-12)))
          CFI (cfiCond64) V7 load(1, XDATA, add(CFA_XSP16, literal(-11)))
          CFI (cfiCond64) V8 load(1, XDATA, add(CFA_XSP16, literal(-10)))
          CFI (cfiCond64) V9 load(1, XDATA, add(CFA_XSP16, literal(-9)))
          CFI (cfiCond64) V10 load(1, XDATA, add(CFA_XSP16, literal(-8)))
          CFI (cfiCond64) V11 load(1, XDATA, add(CFA_XSP16, literal(-7)))
          CFI (cfiCond64) R7 load(1, XDATA, add(CFA_XSP16, literal(-6)))
          CFI (cfiCond64) ?RET_LOW load(1, XDATA, add(CFA_XSP16, literal(-5)))
          CFI (cfiCond64) ?RET_HIGH load(1, XDATA, add(CFA_XSP16, literal(-4)))
          CFI (cfiCond64) ?BRET_EXT load(1, XDATA, add(CFA_XSP16, literal(-3)))
          CFI (cfiCond64) DPL0 load(1, XDATA, add(CFA_XSP16, literal(-2)))
          CFI (cfiCond64) DPH0 load(1, XDATA, add(CFA_XSP16, literal(-1)))
          CFI (cfiCond64) CFA_SP SP+-4
          CFI (cfiCond64) CFA_XSP16 add(XSP16, 32)
          CFI Block cfiPicker65 Using cfiCommon1
          CFI (cfiPicker65) NoFunction
          CFI (cfiPicker65) Picker
        LCALL   ?Subroutine29 & 0xFFFF
??CrossCallReturnLabel_39:
        INC     DPTR
        RET
          CFI EndBlock cfiCond61
          CFI EndBlock cfiCond62
          CFI EndBlock cfiCond63
          CFI EndBlock cfiCond64
          CFI EndBlock cfiPicker65

        RSEG BANKED_CODE:CODE:NOROOT(0)
?Subroutine29:
          CFI Block cfiCond66 Using cfiCommon0
          CFI Function zclGp_SendGpNotificationCommand
          CFI Conditional ??CrossCallReturnLabel_38, ??CrossCallReturnLabel_0
          CFI R6 load(1, XDATA, add(CFA_XSP16, literal(-23)))
          CFI VB load(1, XDATA, add(CFA_XSP16, literal(-22)))
          CFI V0 load(1, XDATA, add(CFA_XSP16, literal(-21)))
          CFI V1 load(1, XDATA, add(CFA_XSP16, literal(-20)))
          CFI V2 load(1, XDATA, add(CFA_XSP16, literal(-19)))
          CFI V3 load(1, XDATA, add(CFA_XSP16, literal(-18)))
          CFI V4 load(1, XDATA, add(CFA_XSP16, literal(-17)))
          CFI V5 load(1, XDATA, add(CFA_XSP16, literal(-16)))
          CFI V6 load(1, XDATA, add(CFA_XSP16, literal(-15)))
          CFI V7 load(1, XDATA, add(CFA_XSP16, literal(-14)))
          CFI V8 load(1, XDATA, add(CFA_XSP16, literal(-13)))
          CFI V9 load(1, XDATA, add(CFA_XSP16, literal(-12)))
          CFI V10 load(1, XDATA, add(CFA_XSP16, literal(-11)))
          CFI V11 load(1, XDATA, add(CFA_XSP16, literal(-10)))
          CFI V12 load(1, XDATA, add(CFA_XSP16, literal(-9)))
          CFI V13 load(1, XDATA, add(CFA_XSP16, literal(-8)))
          CFI V14 load(1, XDATA, add(CFA_XSP16, literal(-7)))
          CFI R7 load(1, XDATA, add(CFA_XSP16, literal(-6)))
          CFI ?RET_LOW load(1, XDATA, add(CFA_XSP16, literal(-5)))
          CFI ?RET_HIGH load(1, XDATA, add(CFA_XSP16, literal(-4)))
          CFI ?BRET_EXT load(1, XDATA, add(CFA_XSP16, literal(-3)))
          CFI DPL0 load(1, XDATA, add(CFA_XSP16, literal(-2)))
          CFI DPH0 load(1, XDATA, add(CFA_XSP16, literal(-1)))
          CFI CFA_SP SP+-4
          CFI CFA_XSP16 add(XSP16, 23)
          CFI Block cfiCond67 Using cfiCommon0
          CFI (cfiCond67) Function zclGp_SendGpCommissioningNotificationCommand
          CFI (cfiCond67) Conditional ??CrossCallReturnLabel_38, ??CrossCallReturnLabel_1
          CFI (cfiCond67) R6 load(1, XDATA, add(CFA_XSP16, literal(-20)))
          CFI (cfiCond67) VB load(1, XDATA, add(CFA_XSP16, literal(-19)))
          CFI (cfiCond67) V0 load(1, XDATA, add(CFA_XSP16, literal(-18)))
          CFI (cfiCond67) V1 load(1, XDATA, add(CFA_XSP16, literal(-17)))
          CFI (cfiCond67) V2 load(1, XDATA, add(CFA_XSP16, literal(-16)))
          CFI (cfiCond67) V3 load(1, XDATA, add(CFA_XSP16, literal(-15)))
          CFI (cfiCond67) V4 load(1, XDATA, add(CFA_XSP16, literal(-14)))
          CFI (cfiCond67) V5 load(1, XDATA, add(CFA_XSP16, literal(-13)))
          CFI (cfiCond67) V6 load(1, XDATA, add(CFA_XSP16, literal(-12)))
          CFI (cfiCond67) V7 load(1, XDATA, add(CFA_XSP16, literal(-11)))
          CFI (cfiCond67) V8 load(1, XDATA, add(CFA_XSP16, literal(-10)))
          CFI (cfiCond67) V9 load(1, XDATA, add(CFA_XSP16, literal(-9)))
          CFI (cfiCond67) V10 load(1, XDATA, add(CFA_XSP16, literal(-8)))
          CFI (cfiCond67) V11 load(1, XDATA, add(CFA_XSP16, literal(-7)))
          CFI (cfiCond67) R7 load(1, XDATA, add(CFA_XSP16, literal(-6)))
          CFI (cfiCond67) ?RET_LOW load(1, XDATA, add(CFA_XSP16, literal(-5)))
          CFI (cfiCond67) ?RET_HIGH load(1, XDATA, add(CFA_XSP16, literal(-4)))
          CFI (cfiCond67) ?BRET_EXT load(1, XDATA, add(CFA_XSP16, literal(-3)))
          CFI (cfiCond67) DPL0 load(1, XDATA, add(CFA_XSP16, literal(-2)))
          CFI (cfiCond67) DPH0 load(1, XDATA, add(CFA_XSP16, literal(-1)))
          CFI (cfiCond67) CFA_SP SP+-4
          CFI (cfiCond67) CFA_XSP16 add(XSP16, 32)
          CFI Block cfiCond68 Using cfiCommon0
          CFI (cfiCond68) Function zclGp_SendGpNotificationCommand
          CFI (cfiCond68) Conditional ??CrossCallReturnLabel_39, ??CrossCallReturnLabel_28, ??CrossCallReturnLabel_4
          CFI (cfiCond68) R6 load(1, XDATA, add(CFA_XSP16, literal(-23)))
          CFI (cfiCond68) VB load(1, XDATA, add(CFA_XSP16, literal(-22)))
          CFI (cfiCond68) V0 load(1, XDATA, add(CFA_XSP16, literal(-21)))
          CFI (cfiCond68) V1 load(1, XDATA, add(CFA_XSP16, literal(-20)))
          CFI (cfiCond68) V2 load(1, XDATA, add(CFA_XSP16, literal(-19)))
          CFI (cfiCond68) V3 load(1, XDATA, add(CFA_XSP16, literal(-18)))
          CFI (cfiCond68) V4 load(1, XDATA, add(CFA_XSP16, literal(-17)))
          CFI (cfiCond68) V5 load(1, XDATA, add(CFA_XSP16, literal(-16)))
          CFI (cfiCond68) V6 load(1, XDATA, add(CFA_XSP16, literal(-15)))
          CFI (cfiCond68) V7 load(1, XDATA, add(CFA_XSP16, literal(-14)))
          CFI (cfiCond68) V8 load(1, XDATA, add(CFA_XSP16, literal(-13)))
          CFI (cfiCond68) V9 load(1, XDATA, add(CFA_XSP16, literal(-12)))
          CFI (cfiCond68) V10 load(1, XDATA, add(CFA_XSP16, literal(-11)))
          CFI (cfiCond68) V11 load(1, XDATA, add(CFA_XSP16, literal(-10)))
          CFI (cfiCond68) V12 load(1, XDATA, add(CFA_XSP16, literal(-9)))
          CFI (cfiCond68) V13 load(1, XDATA, add(CFA_XSP16, literal(-8)))
          CFI (cfiCond68) V14 load(1, XDATA, add(CFA_XSP16, literal(-7)))
          CFI (cfiCond68) R7 load(1, XDATA, add(CFA_XSP16, literal(-6)))
          CFI (cfiCond68) ?RET_LOW load(1, XDATA, add(CFA_XSP16, literal(-5)))
          CFI (cfiCond68) ?RET_HIGH load(1, XDATA, add(CFA_XSP16, literal(-4)))
          CFI (cfiCond68) ?BRET_EXT load(1, XDATA, add(CFA_XSP16, literal(-3)))
          CFI (cfiCond68) DPL0 load(1, XDATA, add(CFA_XSP16, literal(-2)))
          CFI (cfiCond68) DPH0 load(1, XDATA, add(CFA_XSP16, literal(-1)))
          CFI (cfiCond68) CFA_SP SP+-6
          CFI (cfiCond68) CFA_XSP16 add(XSP16, 23)
          CFI Block cfiCond69 Using cfiCommon0
          CFI (cfiCond69) Function zclGp_SendGpCommissioningNotificationCommand
          CFI (cfiCond69) Conditional ??CrossCallReturnLabel_39, ??CrossCallReturnLabel_28, ??CrossCallReturnLabel_5
          CFI (cfiCond69) R6 load(1, XDATA, add(CFA_XSP16, literal(-20)))
          CFI (cfiCond69) VB load(1, XDATA, add(CFA_XSP16, literal(-19)))
          CFI (cfiCond69) V0 load(1, XDATA, add(CFA_XSP16, literal(-18)))
          CFI (cfiCond69) V1 load(1, XDATA, add(CFA_XSP16, literal(-17)))
          CFI (cfiCond69) V2 load(1, XDATA, add(CFA_XSP16, literal(-16)))
          CFI (cfiCond69) V3 load(1, XDATA, add(CFA_XSP16, literal(-15)))
          CFI (cfiCond69) V4 load(1, XDATA, add(CFA_XSP16, literal(-14)))
          CFI (cfiCond69) V5 load(1, XDATA, add(CFA_XSP16, literal(-13)))
          CFI (cfiCond69) V6 load(1, XDATA, add(CFA_XSP16, literal(-12)))
          CFI (cfiCond69) V7 load(1, XDATA, add(CFA_XSP16, literal(-11)))
          CFI (cfiCond69) V8 load(1, XDATA, add(CFA_XSP16, literal(-10)))
          CFI (cfiCond69) V9 load(1, XDATA, add(CFA_XSP16, literal(-9)))
          CFI (cfiCond69) V10 load(1, XDATA, add(CFA_XSP16, literal(-8)))
          CFI (cfiCond69) V11 load(1, XDATA, add(CFA_XSP16, literal(-7)))
          CFI (cfiCond69) R7 load(1, XDATA, add(CFA_XSP16, literal(-6)))
          CFI (cfiCond69) ?RET_LOW load(1, XDATA, add(CFA_XSP16, literal(-5)))
          CFI (cfiCond69) ?RET_HIGH load(1, XDATA, add(CFA_XSP16, literal(-4)))
          CFI (cfiCond69) ?BRET_EXT load(1, XDATA, add(CFA_XSP16, literal(-3)))
          CFI (cfiCond69) DPL0 load(1, XDATA, add(CFA_XSP16, literal(-2)))
          CFI (cfiCond69) DPH0 load(1, XDATA, add(CFA_XSP16, literal(-1)))
          CFI (cfiCond69) CFA_SP SP+-6
          CFI (cfiCond69) CFA_XSP16 add(XSP16, 32)
          CFI Block cfiCond70 Using cfiCommon0
          CFI (cfiCond70) Function zclGp_SendGpNotificationCommand
          CFI (cfiCond70) Conditional ??CrossCallReturnLabel_39, ??CrossCallReturnLabel_27, ??CrossCallReturnLabel_0
          CFI (cfiCond70) R6 load(1, XDATA, add(CFA_XSP16, literal(-23)))
          CFI (cfiCond70) VB load(1, XDATA, add(CFA_XSP16, literal(-22)))
          CFI (cfiCond70) V0 load(1, XDATA, add(CFA_XSP16, literal(-21)))
          CFI (cfiCond70) V1 load(1, XDATA, add(CFA_XSP16, literal(-20)))
          CFI (cfiCond70) V2 load(1, XDATA, add(CFA_XSP16, literal(-19)))
          CFI (cfiCond70) V3 load(1, XDATA, add(CFA_XSP16, literal(-18)))
          CFI (cfiCond70) V4 load(1, XDATA, add(CFA_XSP16, literal(-17)))
          CFI (cfiCond70) V5 load(1, XDATA, add(CFA_XSP16, literal(-16)))
          CFI (cfiCond70) V6 load(1, XDATA, add(CFA_XSP16, literal(-15)))
          CFI (cfiCond70) V7 load(1, XDATA, add(CFA_XSP16, literal(-14)))
          CFI (cfiCond70) V8 load(1, XDATA, add(CFA_XSP16, literal(-13)))
          CFI (cfiCond70) V9 load(1, XDATA, add(CFA_XSP16, literal(-12)))
          CFI (cfiCond70) V10 load(1, XDATA, add(CFA_XSP16, literal(-11)))
          CFI (cfiCond70) V11 load(1, XDATA, add(CFA_XSP16, literal(-10)))
          CFI (cfiCond70) V12 load(1, XDATA, add(CFA_XSP16, literal(-9)))
          CFI (cfiCond70) V13 load(1, XDATA, add(CFA_XSP16, literal(-8)))
          CFI (cfiCond70) V14 load(1, XDATA, add(CFA_XSP16, literal(-7)))
          CFI (cfiCond70) R7 load(1, XDATA, add(CFA_XSP16, literal(-6)))
          CFI (cfiCond70) ?RET_LOW load(1, XDATA, add(CFA_XSP16, literal(-5)))
          CFI (cfiCond70) ?RET_HIGH load(1, XDATA, add(CFA_XSP16, literal(-4)))
          CFI (cfiCond70) ?BRET_EXT load(1, XDATA, add(CFA_XSP16, literal(-3)))
          CFI (cfiCond70) DPL0 load(1, XDATA, add(CFA_XSP16, literal(-2)))
          CFI (cfiCond70) DPH0 load(1, XDATA, add(CFA_XSP16, literal(-1)))
          CFI (cfiCond70) CFA_SP SP+-6
          CFI (cfiCond70) CFA_XSP16 add(XSP16, 23)
          CFI Block cfiCond71 Using cfiCommon0
          CFI (cfiCond71) Function zclGp_SendGpCommissioningNotificationCommand
          CFI (cfiCond71) Conditional ??CrossCallReturnLabel_39, ??CrossCallReturnLabel_27, ??CrossCallReturnLabel_1
          CFI (cfiCond71) R6 load(1, XDATA, add(CFA_XSP16, literal(-20)))
          CFI (cfiCond71) VB load(1, XDATA, add(CFA_XSP16, literal(-19)))
          CFI (cfiCond71) V0 load(1, XDATA, add(CFA_XSP16, literal(-18)))
          CFI (cfiCond71) V1 load(1, XDATA, add(CFA_XSP16, literal(-17)))
          CFI (cfiCond71) V2 load(1, XDATA, add(CFA_XSP16, literal(-16)))
          CFI (cfiCond71) V3 load(1, XDATA, add(CFA_XSP16, literal(-15)))
          CFI (cfiCond71) V4 load(1, XDATA, add(CFA_XSP16, literal(-14)))
          CFI (cfiCond71) V5 load(1, XDATA, add(CFA_XSP16, literal(-13)))
          CFI (cfiCond71) V6 load(1, XDATA, add(CFA_XSP16, literal(-12)))
          CFI (cfiCond71) V7 load(1, XDATA, add(CFA_XSP16, literal(-11)))
          CFI (cfiCond71) V8 load(1, XDATA, add(CFA_XSP16, literal(-10)))
          CFI (cfiCond71) V9 load(1, XDATA, add(CFA_XSP16, literal(-9)))
          CFI (cfiCond71) V10 load(1, XDATA, add(CFA_XSP16, literal(-8)))
          CFI (cfiCond71) V11 load(1, XDATA, add(CFA_XSP16, literal(-7)))
          CFI (cfiCond71) R7 load(1, XDATA, add(CFA_XSP16, literal(-6)))
          CFI (cfiCond71) ?RET_LOW load(1, XDATA, add(CFA_XSP16, literal(-5)))
          CFI (cfiCond71) ?RET_HIGH load(1, XDATA, add(CFA_XSP16, literal(-4)))
          CFI (cfiCond71) ?BRET_EXT load(1, XDATA, add(CFA_XSP16, literal(-3)))
          CFI (cfiCond71) DPL0 load(1, XDATA, add(CFA_XSP16, literal(-2)))
          CFI (cfiCond71) DPH0 load(1, XDATA, add(CFA_XSP16, literal(-1)))
          CFI (cfiCond71) CFA_SP SP+-6
          CFI (cfiCond71) CFA_XSP16 add(XSP16, 32)
          CFI Block cfiPicker72 Using cfiCommon1
          CFI (cfiPicker72) NoFunction
          CFI (cfiPicker72) Picker
        MOVX    A,@DPTR
        MOV     DPL,R6
        MOV     DPH,R7
        INC     DPTR
        INC     DPTR
        INC     DPTR
        INC     DPTR
        RET
          CFI EndBlock cfiCond66
          CFI EndBlock cfiCond67
          CFI EndBlock cfiCond68
          CFI EndBlock cfiCond69
          CFI EndBlock cfiCond70
          CFI EndBlock cfiCond71
          CFI EndBlock cfiPicker72
//  560 /*********************************************************************
//  561  * @fn      zclGp_SendGpProxyTableResponse
//  562  *
//  563  * @brief   Send the Green Power Proxy Table Response to a device
//  564  *
//  565  * @param   dstAddr - where to send the request
//  566  * @param   groupID - pointer to the group structure
//  567  * @param   groupName - pointer to Group Name.  This is a Zigbee
//  568  *          string data type, so the first byte is the length of the
//  569  *          name (in bytes), then the name.
//  570  *
//  571  * @return  ZStatus_t
//  572  */

        RSEG BANKED_CODE:CODE:NOROOT(0)
//  573 ZStatus_t zclGp_SendGpProxyTableResponse( afAddrType_t *dstAddr, zclGpProxyTableResponse_t *rsp, 
zclGp_SendGpProxyTableResponse:
          CFI Block cfiBlock73 Using cfiCommon0
          CFI Function zclGp_SendGpProxyTableResponse
        CODE
//  574                                           uint8 seqNum )
//  575 {
        FUNCALL zclGp_SendGpProxyTableResponse, osal_memcpy
        LOCFRAME ISTACK, 0, STACK
        LOCFRAME PSTACK, 0, STACK
        LOCFRAME XSTACK, 27, STACK
        LOCFRAME IOVERLAY, 0, STATIC
        LOCFRAME DOVERLAY, 0, STATIC
        ARGFRAME ISTACK, 0, STACK
        ARGFRAME PSTACK, 0, STACK
        ARGFRAME XSTACK, 27, STACK
        ARGFRAME IOVERLAY, 0, STATIC
        ARGFRAME DOVERLAY, 0, STATIC
        FUNCALL zclGp_SendGpProxyTableResponse, osal_mem_alloc
        LOCFRAME ISTACK, 0, STACK
        LOCFRAME PSTACK, 0, STACK
        LOCFRAME XSTACK, 24, STACK
        LOCFRAME IOVERLAY, 0, STATIC
        LOCFRAME DOVERLAY, 0, STATIC
        ARGFRAME ISTACK, 0, STACK
        ARGFRAME PSTACK, 0, STACK
        ARGFRAME XSTACK, 24, STACK
        ARGFRAME IOVERLAY, 0, STATIC
        ARGFRAME DOVERLAY, 0, STATIC
        FUNCALL zclGp_SendGpProxyTableResponse, osal_memcpy
        LOCFRAME ISTACK, 0, STACK
        LOCFRAME PSTACK, 0, STACK
        LOCFRAME XSTACK, 27, STACK
        LOCFRAME IOVERLAY, 0, STATIC
        LOCFRAME DOVERLAY, 0, STATIC
        ARGFRAME ISTACK, 0, STACK
        ARGFRAME PSTACK, 0, STACK
        ARGFRAME XSTACK, 27, STACK
        ARGFRAME IOVERLAY, 0, STATIC
        ARGFRAME DOVERLAY, 0, STATIC
        FUNCALL zclGp_SendGpProxyTableResponse, zcl_SendCommand
        LOCFRAME ISTACK, 0, STACK
        LOCFRAME PSTACK, 0, STACK
        LOCFRAME XSTACK, 35, STACK
        LOCFRAME IOVERLAY, 0, STATIC
        LOCFRAME DOVERLAY, 0, STATIC
        ARGFRAME ISTACK, 0, STACK
        ARGFRAME PSTACK, 0, STACK
        ARGFRAME XSTACK, 35, STACK
        ARGFRAME IOVERLAY, 0, STATIC
        ARGFRAME DOVERLAY, 0, STATIC
        FUNCALL zclGp_SendGpProxyTableResponse, osal_mem_free
        LOCFRAME ISTACK, 0, STACK
        LOCFRAME PSTACK, 0, STACK
        LOCFRAME XSTACK, 24, STACK
        LOCFRAME IOVERLAY, 0, STATIC
        LOCFRAME DOVERLAY, 0, STATIC
        ARGFRAME ISTACK, 0, STACK
        ARGFRAME PSTACK, 0, STACK
        ARGFRAME XSTACK, 24, STACK
        ARGFRAME IOVERLAY, 0, STATIC
        ARGFRAME DOVERLAY, 0, STATIC
        REQUIRE ?V0
        REQUIRE ?V1
        REQUIRE ?V2
        REQUIRE ?V3
        REQUIRE ?V4
        REQUIRE ?V5
        REQUIRE ?V6
        REQUIRE ?V7
        REQUIRE ?V8
        REQUIRE ?V9
        REQUIRE ?V10
        REQUIRE ?V11
        REQUIRE ?V12
        REQUIRE ?V13
        MOV     A,#-0x16
        LCALL   ?BANKED_ENTER_XDATA
          CFI DPH0 load(1, XDATA, add(CFA_XSP16, literal(-1)))
          CFI DPL0 load(1, XDATA, add(CFA_XSP16, literal(-2)))
          CFI ?BRET_EXT load(1, XDATA, add(CFA_XSP16, literal(-3)))
          CFI ?RET_HIGH load(1, XDATA, add(CFA_XSP16, literal(-4)))
          CFI ?RET_LOW load(1, XDATA, add(CFA_XSP16, literal(-5)))
          CFI R7 load(1, XDATA, add(CFA_XSP16, literal(-6)))
          CFI V13 load(1, XDATA, add(CFA_XSP16, literal(-7)))
          CFI V12 load(1, XDATA, add(CFA_XSP16, literal(-8)))
          CFI V11 load(1, XDATA, add(CFA_XSP16, literal(-9)))
          CFI V10 load(1, XDATA, add(CFA_XSP16, literal(-10)))
          CFI V9 load(1, XDATA, add(CFA_XSP16, literal(-11)))
          CFI V8 load(1, XDATA, add(CFA_XSP16, literal(-12)))
          CFI V7 load(1, XDATA, add(CFA_XSP16, literal(-13)))
          CFI V6 load(1, XDATA, add(CFA_XSP16, literal(-14)))
          CFI V5 load(1, XDATA, add(CFA_XSP16, literal(-15)))
          CFI V4 load(1, XDATA, add(CFA_XSP16, literal(-16)))
          CFI V3 load(1, XDATA, add(CFA_XSP16, literal(-17)))
          CFI V2 load(1, XDATA, add(CFA_XSP16, literal(-18)))
          CFI V1 load(1, XDATA, add(CFA_XSP16, literal(-19)))
          CFI V0 load(1, XDATA, add(CFA_XSP16, literal(-20)))
          CFI VB load(1, XDATA, add(CFA_XSP16, literal(-21)))
          CFI R6 load(1, XDATA, add(CFA_XSP16, literal(-22)))
          CFI CFA_SP SP+0
          CFI CFA_XSP16 add(XSP16, 22)
        ; Saved register size: 22
        ; Auto size: 2
        MOV     A,#-0x2
        LCALL   ?ALLOC_XSTACK8
          CFI CFA_XSP16 add(XSP16, 24)
        MOV     ?V12,R2
        MOV     ?V13,R3
        MOV     A,R4
        MOV     R6,A
        MOV     A,R5
        MOV     R7,A
        MOV     ?V11,R1
//  576   uint8 *buf = NULL;
//  577   uint8 *pBuf = NULL;
//  578   uint8 *pEntry = NULL;
        MOV     ?V2,#0x0
        MOV     ?V3,#0x0
//  579   
//  580   ZStatus_t status;
//  581   uint16 entryLen = 0;
        MOV     DPL,?XSP + 0
        MOV     DPH,?XSP + 1
        CLR     A
        MOVX    @DPTR,A
        INC     DPTR
        MOVX    @DPTR,A
//  582   uint16 len;
//  583   
//  584   if ( rsp->proxyTableEntry != NULL )
        MOV     A,R6
        ADD     A,#0x4
        MOV     ?V6,A
        CLR     A
        ADDC    A,R7
        MOV     ?V7,A
        MOV     DPL,?V6
        MOV     DPH,A
        LCALL   ??Subroutine39_0 & 0xFFFF
??CrossCallReturnLabel_78:
        JZ      ??zclGp_SendGpProxyTableResponse_0
//  585   {
//  586     pEntry = rsp->proxyTableEntry;
        MOV     ?V2,R0
        MOV     ?V3,R1
//  587     zcl_memcpy( &entryLen, pEntry, sizeof ( uint16 ) );
        ; Setup parameters for call to function osal_memcpy
        MOV     ?V8,R0
        MOV     ?V9,R1
        MOV     ?V10,#0x0
        MOV     R0,#?V8
        LCALL   ?PUSH_XSTACK_I_THREE
          CFI CFA_XSP16 add(XSP16, 27)
        MOV     R4,#0x2
        MOV     R5,#0x0
        MOV     A,#0x3
        LCALL   ?XSTACK_DISP101_8
        LCALL   `??osal_memcpy::?relay`; Banked call to: osal_memcpy
        MOV     A,#0x3
        LCALL   ?DEALLOC_XSTACK8
          CFI CFA_XSP16 add(XSP16, 24)
//  588     pEntry += sizeof ( uint16 );
        MOV     A,?V2
        ADD     A,#0x2
        MOV     ?V2,A
        JNC     ??zclGp_SendGpProxyTableResponse_0
        INC     ?V3
//  589   }
//  590   
//  591   len = entryLen + 4;
??zclGp_SendGpProxyTableResponse_0:
        MOV     DPL,?XSP + 0
        MOV     DPH,?XSP + 1
        MOVX    A,@DPTR
        ADD     A,#0x4
        MOV     ?V4,A
        INC     DPTR
        MOVX    A,@DPTR
        ADDC    A,#0x0
        MOV     ?V5,A
//  592 
//  593   buf = zcl_mem_alloc( len );
        ; Setup parameters for call to function osal_mem_alloc
        MOV     R2,?V4
        MOV     R3,A
        LCALL   `??osal_mem_alloc::?relay`; Banked call to: osal_mem_alloc
        MOV     ?V0,R2
        MOV     ?V1,R3
//  594   if ( buf )
        MOV     A,R2
        ORL     A,?V1
        JNZ     $+5
        LJMP    ??zclGp_SendGpProxyTableResponse_1 & 0xFFFF
//  595   {
//  596     pBuf = buf;
//  597     *pBuf++ = rsp->status;
        MOV     DPL,R6
        MOV     DPH,R7
        MOVX    A,@DPTR
        MOV     DPL,R2
        MOV     DPH,R3
        LCALL   ?Subroutine28 & 0xFFFF
//  598     *pBuf++ = rsp->tableEntriesTotal;
??CrossCallReturnLabel_34:
        LCALL   ??Subroutine33_0 & 0xFFFF
??CrossCallReturnLabel_48:
        LCALL   ?Subroutine28 & 0xFFFF
//  599     *pBuf++ = rsp->startIndex;
??CrossCallReturnLabel_35:
        LCALL   ?Subroutine16 & 0xFFFF
??CrossCallReturnLabel_49:
        INC     DPTR
        LCALL   ?Subroutine28 & 0xFFFF
//  600     *pBuf++ = rsp->entriesCount;
??CrossCallReturnLabel_36:
        INC     DPTR
        LCALL   ?Subroutine16 & 0xFFFF
??CrossCallReturnLabel_50:
        INC     DPTR
        INC     DPTR
        MOVX    @DPTR,A
//  601     if ( rsp->proxyTableEntry != NULL )
        MOV     DPL,?V6
        MOV     DPH,?V7
        LCALL   ??Subroutine39_0 & 0xFFFF
??CrossCallReturnLabel_79:
        JZ      ??zclGp_SendGpProxyTableResponse_2
//  602     {
//  603       zcl_memcpy( pBuf, pEntry, entryLen );
        ; Setup parameters for call to function osal_memcpy
        MOV     ?V8,?V2
        MOV     ?V9,?V3
        MOV     ?V10,#0x0
        MOV     R0,#?V8
        LCALL   ?PUSH_XSTACK_I_THREE
          CFI CFA_XSP16 add(XSP16, 27)
        MOV     A,#0x3
        LCALL   ?XSTACK_DISP0_8
        MOVX    A,@DPTR
        MOV     R4,A
        INC     DPTR
        MOVX    A,@DPTR
        MOV     R5,A
        MOV     A,R2
        ADD     A,#0x4
        MOV     R2,A
        CLR     A
        ADDC    A,?V1
        MOV     R3,A
        LCALL   `??osal_memcpy::?relay`; Banked call to: osal_memcpy
        MOV     A,#0x3
        LCALL   ?DEALLOC_XSTACK8
          CFI CFA_XSP16 add(XSP16, 24)
//  604     }
//  605 
//  606     status = zcl_SendCommand( GREEN_POWER_INTERNAL_ENDPOINT, dstAddr, ZCL_CLUSTER_ID_GREEN_POWER,
//  607                               COMMAND_GP_PROXY_TABLE_RESPONSE, TRUE, ZCL_FRAME_CLIENT_SERVER_DIR,
//  608                               TRUE, 0, seqNum, len, buf );
??zclGp_SendGpProxyTableResponse_2:
        ; Setup parameters for call to function zcl_SendCommand
        MOV     R0,#?V0
        LCALL   ?PUSH_XSTACK_I_TWO
          CFI CFA_XSP16 add(XSP16, 26)
        MOV     R0,#?V4
        LCALL   ?PUSH_XSTACK_I_TWO
          CFI CFA_XSP16 add(XSP16, 28)
        MOV     A,?V11
        MOV     ?V2,A
        MOV     R0,#?V2
        LCALL   ?PUSH_XSTACK_I_ONE
          CFI CFA_XSP16 add(XSP16, 29)
        CLR     A
        MOV     ?V2,A
        MOV     ?V3,A
        MOV     R0,#?V2
        LCALL   ?PUSH_XSTACK_I_TWO
          CFI CFA_XSP16 add(XSP16, 31)
        MOV     ?V2,#0x1
        MOV     R0,#?V2
        LCALL   ?PUSH_XSTACK_I_ONE
          CFI CFA_XSP16 add(XSP16, 32)
        MOV     ?V2,#0x0
        MOV     R0,#?V2
        LCALL   ?PUSH_XSTACK_I_ONE
          CFI CFA_XSP16 add(XSP16, 33)
        MOV     ?V2,#0x1
        MOV     R0,#?V2
        LCALL   ?PUSH_XSTACK_I_ONE
          CFI CFA_XSP16 add(XSP16, 34)
        MOV     ?V2,#0xb
        MOV     R0,#?V2
        LCALL   ?PUSH_XSTACK_I_ONE
          CFI CFA_XSP16 add(XSP16, 35)
        MOV     R4,#0x21
        MOV     R5,#0x0
        MOV     R2,?V12
        MOV     R3,?V13
        MOV     R1,#-0xe
        LCALL   `??zcl_SendCommand::?relay`; Banked call to: zcl_SendCommand
        MOV     A,#0xb
        LCALL   ?DEALLOC_XSTACK8
          CFI CFA_XSP16 add(XSP16, 24)
        MOV     A,R1
        MOV     R6,A
//  609     zcl_mem_free( buf );
        ; Setup parameters for call to function osal_mem_free
        MOV     R2,?V0
        MOV     R3,?V1
        LCALL   `??osal_mem_free::?relay`; Banked call to: osal_mem_free
        SJMP    ??zclGp_SendGpProxyTableResponse_3
//  610   }
//  611   else
//  612     status = ZMemError;
??zclGp_SendGpProxyTableResponse_1:
        MOV     R6,#0x10
//  613 
//  614   return ( status );
??zclGp_SendGpProxyTableResponse_3:
        MOV     A,R6
        MOV     R1,A
        MOV     A,#0x2
          CFI EndBlock cfiBlock73
        REQUIRE ?Subroutine2
        ; // Fall through to label ?Subroutine2
//  615 }

        RSEG BANKED_CODE:CODE:NOROOT(0)
?Subroutine2:
          CFI Block cfiBlock74 Using cfiCommon0
          CFI NoFunction
          CFI CFA_SP SP+0
          CFI CFA_XSP16 add(XSP16, 24)
          CFI VB load(1, XDATA, add(CFA_XSP16, literal(-21)))
          CFI DPL0 load(1, XDATA, add(CFA_XSP16, literal(-2)))
          CFI DPH0 load(1, XDATA, add(CFA_XSP16, literal(-1)))
          CFI R6 load(1, XDATA, add(CFA_XSP16, literal(-22)))
          CFI R7 load(1, XDATA, add(CFA_XSP16, literal(-6)))
          CFI V0 load(1, XDATA, add(CFA_XSP16, literal(-20)))
          CFI V1 load(1, XDATA, add(CFA_XSP16, literal(-19)))
          CFI V2 load(1, XDATA, add(CFA_XSP16, literal(-18)))
          CFI V3 load(1, XDATA, add(CFA_XSP16, literal(-17)))
          CFI V4 load(1, XDATA, add(CFA_XSP16, literal(-16)))
          CFI V5 load(1, XDATA, add(CFA_XSP16, literal(-15)))
          CFI V6 load(1, XDATA, add(CFA_XSP16, literal(-14)))
          CFI V7 load(1, XDATA, add(CFA_XSP16, literal(-13)))
          CFI V8 load(1, XDATA, add(CFA_XSP16, literal(-12)))
          CFI V9 load(1, XDATA, add(CFA_XSP16, literal(-11)))
          CFI V10 load(1, XDATA, add(CFA_XSP16, literal(-10)))
          CFI V11 load(1, XDATA, add(CFA_XSP16, literal(-9)))
          CFI V12 load(1, XDATA, add(CFA_XSP16, literal(-8)))
          CFI V13 load(1, XDATA, add(CFA_XSP16, literal(-7)))
          CFI ?BRET_EXT load(1, XDATA, add(CFA_XSP16, literal(-3)))
          CFI ?RET_HIGH load(1, XDATA, add(CFA_XSP16, literal(-4)))
          CFI ?RET_LOW load(1, XDATA, add(CFA_XSP16, literal(-5)))
          CFI Invalid
        LCALL   ?DEALLOC_XSTACK8
          CFI CFA_XSP16 add(XSP16, 22)
          CFI Valid
        MOV     R7,#0xe
        LJMP    ?BANKED_LEAVE_XDATA
          CFI EndBlock cfiBlock74

        RSEG BANKED_CODE:CODE:NOROOT(0)
?Subroutine28:
          CFI Block cfiCond75 Using cfiCommon0
          CFI Function zclGp_ProcessInGreenPowerClient
          CFI Conditional ??CrossCallReturnLabel_33, ??CrossCallReturnLabel_2
          CFI R6 load(1, XDATA, add(CFA_XSP16, literal(-19)))
          CFI VB load(1, XDATA, add(CFA_XSP16, literal(-18)))
          CFI V0 load(1, XDATA, add(CFA_XSP16, literal(-17)))
          CFI V1 load(1, XDATA, add(CFA_XSP16, literal(-16)))
          CFI V2 load(1, XDATA, add(CFA_XSP16, literal(-15)))
          CFI V3 load(1, XDATA, add(CFA_XSP16, literal(-14)))
          CFI V4 load(1, XDATA, add(CFA_XSP16, literal(-13)))
          CFI V5 load(1, XDATA, add(CFA_XSP16, literal(-12)))
          CFI V6 load(1, XDATA, add(CFA_XSP16, literal(-11)))
          CFI V7 load(1, XDATA, add(CFA_XSP16, literal(-10)))
          CFI V8 load(1, XDATA, add(CFA_XSP16, literal(-9)))
          CFI V9 load(1, XDATA, add(CFA_XSP16, literal(-8)))
          CFI V10 load(1, XDATA, add(CFA_XSP16, literal(-7)))
          CFI R7 load(1, XDATA, add(CFA_XSP16, literal(-6)))
          CFI ?RET_LOW load(1, XDATA, add(CFA_XSP16, literal(-5)))
          CFI ?RET_HIGH load(1, XDATA, add(CFA_XSP16, literal(-4)))
          CFI ?BRET_EXT load(1, XDATA, add(CFA_XSP16, literal(-3)))
          CFI DPL0 load(1, XDATA, add(CFA_XSP16, literal(-2)))
          CFI DPH0 load(1, XDATA, add(CFA_XSP16, literal(-1)))
          CFI CFA_SP SP+-4
          CFI CFA_XSP16 add(XSP16, 39)
          CFI Block cfiCond76 Using cfiCommon0
          CFI (cfiCond76) Function zclGp_ProcessInGreenPowerClient
          CFI (cfiCond76) Conditional ??CrossCallReturnLabel_33, ??CrossCallReturnLabel_3
          CFI (cfiCond76) R6 load(1, XDATA, add(CFA_XSP16, literal(-19)))
          CFI (cfiCond76) VB load(1, XDATA, add(CFA_XSP16, literal(-18)))
          CFI (cfiCond76) V0 load(1, XDATA, add(CFA_XSP16, literal(-17)))
          CFI (cfiCond76) V1 load(1, XDATA, add(CFA_XSP16, literal(-16)))
          CFI (cfiCond76) V2 load(1, XDATA, add(CFA_XSP16, literal(-15)))
          CFI (cfiCond76) V3 load(1, XDATA, add(CFA_XSP16, literal(-14)))
          CFI (cfiCond76) V4 load(1, XDATA, add(CFA_XSP16, literal(-13)))
          CFI (cfiCond76) V5 load(1, XDATA, add(CFA_XSP16, literal(-12)))
          CFI (cfiCond76) V6 load(1, XDATA, add(CFA_XSP16, literal(-11)))
          CFI (cfiCond76) V7 load(1, XDATA, add(CFA_XSP16, literal(-10)))
          CFI (cfiCond76) V8 load(1, XDATA, add(CFA_XSP16, literal(-9)))
          CFI (cfiCond76) V9 load(1, XDATA, add(CFA_XSP16, literal(-8)))
          CFI (cfiCond76) V10 load(1, XDATA, add(CFA_XSP16, literal(-7)))
          CFI (cfiCond76) R7 load(1, XDATA, add(CFA_XSP16, literal(-6)))
          CFI (cfiCond76) ?RET_LOW load(1, XDATA, add(CFA_XSP16, literal(-5)))
          CFI (cfiCond76) ?RET_HIGH load(1, XDATA, add(CFA_XSP16, literal(-4)))
          CFI (cfiCond76) ?BRET_EXT load(1, XDATA, add(CFA_XSP16, literal(-3)))
          CFI (cfiCond76) DPL0 load(1, XDATA, add(CFA_XSP16, literal(-2)))
          CFI (cfiCond76) DPH0 load(1, XDATA, add(CFA_XSP16, literal(-1)))
          CFI (cfiCond76) CFA_SP SP+-4
          CFI (cfiCond76) CFA_XSP16 add(XSP16, 39)
          CFI Block cfiCond77 Using cfiCommon0
          CFI (cfiCond77) Function zclGp_SendGpProxyTableResponse
          CFI (cfiCond77) Conditional ??CrossCallReturnLabel_34
          CFI (cfiCond77) R6 load(1, XDATA, add(CFA_XSP16, literal(-22)))
          CFI (cfiCond77) VB load(1, XDATA, add(CFA_XSP16, literal(-21)))
          CFI (cfiCond77) V0 load(1, XDATA, add(CFA_XSP16, literal(-20)))
          CFI (cfiCond77) V1 load(1, XDATA, add(CFA_XSP16, literal(-19)))
          CFI (cfiCond77) V2 load(1, XDATA, add(CFA_XSP16, literal(-18)))
          CFI (cfiCond77) V3 load(1, XDATA, add(CFA_XSP16, literal(-17)))
          CFI (cfiCond77) V4 load(1, XDATA, add(CFA_XSP16, literal(-16)))
          CFI (cfiCond77) V5 load(1, XDATA, add(CFA_XSP16, literal(-15)))
          CFI (cfiCond77) V6 load(1, XDATA, add(CFA_XSP16, literal(-14)))
          CFI (cfiCond77) V7 load(1, XDATA, add(CFA_XSP16, literal(-13)))
          CFI (cfiCond77) V8 load(1, XDATA, add(CFA_XSP16, literal(-12)))
          CFI (cfiCond77) V9 load(1, XDATA, add(CFA_XSP16, literal(-11)))
          CFI (cfiCond77) V10 load(1, XDATA, add(CFA_XSP16, literal(-10)))
          CFI (cfiCond77) V11 load(1, XDATA, add(CFA_XSP16, literal(-9)))
          CFI (cfiCond77) V12 load(1, XDATA, add(CFA_XSP16, literal(-8)))
          CFI (cfiCond77) V13 load(1, XDATA, add(CFA_XSP16, literal(-7)))
          CFI (cfiCond77) R7 load(1, XDATA, add(CFA_XSP16, literal(-6)))
          CFI (cfiCond77) ?RET_LOW load(1, XDATA, add(CFA_XSP16, literal(-5)))
          CFI (cfiCond77) ?RET_HIGH load(1, XDATA, add(CFA_XSP16, literal(-4)))
          CFI (cfiCond77) ?BRET_EXT load(1, XDATA, add(CFA_XSP16, literal(-3)))
          CFI (cfiCond77) DPL0 load(1, XDATA, add(CFA_XSP16, literal(-2)))
          CFI (cfiCond77) DPH0 load(1, XDATA, add(CFA_XSP16, literal(-1)))
          CFI (cfiCond77) CFA_SP SP+-2
          CFI (cfiCond77) CFA_XSP16 add(XSP16, 24)
          CFI Block cfiCond78 Using cfiCommon0
          CFI (cfiCond78) Function zclGp_SendGpProxyTableResponse
          CFI (cfiCond78) Conditional ??CrossCallReturnLabel_35
          CFI (cfiCond78) R6 load(1, XDATA, add(CFA_XSP16, literal(-22)))
          CFI (cfiCond78) VB load(1, XDATA, add(CFA_XSP16, literal(-21)))
          CFI (cfiCond78) V0 load(1, XDATA, add(CFA_XSP16, literal(-20)))
          CFI (cfiCond78) V1 load(1, XDATA, add(CFA_XSP16, literal(-19)))
          CFI (cfiCond78) V2 load(1, XDATA, add(CFA_XSP16, literal(-18)))
          CFI (cfiCond78) V3 load(1, XDATA, add(CFA_XSP16, literal(-17)))
          CFI (cfiCond78) V4 load(1, XDATA, add(CFA_XSP16, literal(-16)))
          CFI (cfiCond78) V5 load(1, XDATA, add(CFA_XSP16, literal(-15)))
          CFI (cfiCond78) V6 load(1, XDATA, add(CFA_XSP16, literal(-14)))
          CFI (cfiCond78) V7 load(1, XDATA, add(CFA_XSP16, literal(-13)))
          CFI (cfiCond78) V8 load(1, XDATA, add(CFA_XSP16, literal(-12)))
          CFI (cfiCond78) V9 load(1, XDATA, add(CFA_XSP16, literal(-11)))
          CFI (cfiCond78) V10 load(1, XDATA, add(CFA_XSP16, literal(-10)))
          CFI (cfiCond78) V11 load(1, XDATA, add(CFA_XSP16, literal(-9)))
          CFI (cfiCond78) V12 load(1, XDATA, add(CFA_XSP16, literal(-8)))
          CFI (cfiCond78) V13 load(1, XDATA, add(CFA_XSP16, literal(-7)))
          CFI (cfiCond78) R7 load(1, XDATA, add(CFA_XSP16, literal(-6)))
          CFI (cfiCond78) ?RET_LOW load(1, XDATA, add(CFA_XSP16, literal(-5)))
          CFI (cfiCond78) ?RET_HIGH load(1, XDATA, add(CFA_XSP16, literal(-4)))
          CFI (cfiCond78) ?BRET_EXT load(1, XDATA, add(CFA_XSP16, literal(-3)))
          CFI (cfiCond78) DPL0 load(1, XDATA, add(CFA_XSP16, literal(-2)))
          CFI (cfiCond78) DPH0 load(1, XDATA, add(CFA_XSP16, literal(-1)))
          CFI (cfiCond78) CFA_SP SP+-2
          CFI (cfiCond78) CFA_XSP16 add(XSP16, 24)
          CFI Block cfiCond79 Using cfiCommon0
          CFI (cfiCond79) Function zclGp_SendGpProxyTableResponse
          CFI (cfiCond79) Conditional ??CrossCallReturnLabel_36
          CFI (cfiCond79) R6 load(1, XDATA, add(CFA_XSP16, literal(-22)))
          CFI (cfiCond79) VB load(1, XDATA, add(CFA_XSP16, literal(-21)))
          CFI (cfiCond79) V0 load(1, XDATA, add(CFA_XSP16, literal(-20)))
          CFI (cfiCond79) V1 load(1, XDATA, add(CFA_XSP16, literal(-19)))
          CFI (cfiCond79) V2 load(1, XDATA, add(CFA_XSP16, literal(-18)))
          CFI (cfiCond79) V3 load(1, XDATA, add(CFA_XSP16, literal(-17)))
          CFI (cfiCond79) V4 load(1, XDATA, add(CFA_XSP16, literal(-16)))
          CFI (cfiCond79) V5 load(1, XDATA, add(CFA_XSP16, literal(-15)))
          CFI (cfiCond79) V6 load(1, XDATA, add(CFA_XSP16, literal(-14)))
          CFI (cfiCond79) V7 load(1, XDATA, add(CFA_XSP16, literal(-13)))
          CFI (cfiCond79) V8 load(1, XDATA, add(CFA_XSP16, literal(-12)))
          CFI (cfiCond79) V9 load(1, XDATA, add(CFA_XSP16, literal(-11)))
          CFI (cfiCond79) V10 load(1, XDATA, add(CFA_XSP16, literal(-10)))
          CFI (cfiCond79) V11 load(1, XDATA, add(CFA_XSP16, literal(-9)))
          CFI (cfiCond79) V12 load(1, XDATA, add(CFA_XSP16, literal(-8)))
          CFI (cfiCond79) V13 load(1, XDATA, add(CFA_XSP16, literal(-7)))
          CFI (cfiCond79) R7 load(1, XDATA, add(CFA_XSP16, literal(-6)))
          CFI (cfiCond79) ?RET_LOW load(1, XDATA, add(CFA_XSP16, literal(-5)))
          CFI (cfiCond79) ?RET_HIGH load(1, XDATA, add(CFA_XSP16, literal(-4)))
          CFI (cfiCond79) ?BRET_EXT load(1, XDATA, add(CFA_XSP16, literal(-3)))
          CFI (cfiCond79) DPL0 load(1, XDATA, add(CFA_XSP16, literal(-2)))
          CFI (cfiCond79) DPH0 load(1, XDATA, add(CFA_XSP16, literal(-1)))
          CFI (cfiCond79) CFA_SP SP+-2
          CFI (cfiCond79) CFA_XSP16 add(XSP16, 24)
          CFI Block cfiCond80 Using cfiCommon0
          CFI (cfiCond80) Function gp_AddCmdPayloadMsgNode
          CFI (cfiCond80) Conditional ??CrossCallReturnLabel_37, ??CrossCallReturnLabel_6
          CFI (cfiCond80) R6 load(1, XDATA, add(CFA_XSP16, literal(-14)))
          CFI (cfiCond80) VB load(1, XDATA, add(CFA_XSP16, literal(-13)))
          CFI (cfiCond80) V0 load(1, XDATA, add(CFA_XSP16, literal(-12)))
          CFI (cfiCond80) V1 load(1, XDATA, add(CFA_XSP16, literal(-11)))
          CFI (cfiCond80) V2 load(1, XDATA, add(CFA_XSP16, literal(-10)))
          CFI (cfiCond80) V3 load(1, XDATA, add(CFA_XSP16, literal(-9)))
          CFI (cfiCond80) V4 load(1, XDATA, add(CFA_XSP16, literal(-8)))
          CFI (cfiCond80) V5 load(1, XDATA, add(CFA_XSP16, literal(-7)))
          CFI (cfiCond80) R7 load(1, XDATA, add(CFA_XSP16, literal(-6)))
          CFI (cfiCond80) ?RET_LOW load(1, XDATA, add(CFA_XSP16, literal(-5)))
          CFI (cfiCond80) ?RET_HIGH load(1, XDATA, add(CFA_XSP16, literal(-4)))
          CFI (cfiCond80) ?BRET_EXT load(1, XDATA, add(CFA_XSP16, literal(-3)))
          CFI (cfiCond80) DPL0 load(1, XDATA, add(CFA_XSP16, literal(-2)))
          CFI (cfiCond80) DPH0 load(1, XDATA, add(CFA_XSP16, literal(-1)))
          CFI (cfiCond80) CFA_SP SP+-4
          CFI (cfiCond80) CFA_XSP16 add(XSP16, 14)
          CFI Block cfiCond81 Using cfiCommon0
          CFI (cfiCond81) Function gp_AddCmdPayloadMsgNode
          CFI (cfiCond81) Conditional ??CrossCallReturnLabel_37, ??CrossCallReturnLabel_7
          CFI (cfiCond81) R6 load(1, XDATA, add(CFA_XSP16, literal(-14)))
          CFI (cfiCond81) VB load(1, XDATA, add(CFA_XSP16, literal(-13)))
          CFI (cfiCond81) V0 load(1, XDATA, add(CFA_XSP16, literal(-12)))
          CFI (cfiCond81) V1 load(1, XDATA, add(CFA_XSP16, literal(-11)))
          CFI (cfiCond81) V2 load(1, XDATA, add(CFA_XSP16, literal(-10)))
          CFI (cfiCond81) V3 load(1, XDATA, add(CFA_XSP16, literal(-9)))
          CFI (cfiCond81) V4 load(1, XDATA, add(CFA_XSP16, literal(-8)))
          CFI (cfiCond81) V5 load(1, XDATA, add(CFA_XSP16, literal(-7)))
          CFI (cfiCond81) R7 load(1, XDATA, add(CFA_XSP16, literal(-6)))
          CFI (cfiCond81) ?RET_LOW load(1, XDATA, add(CFA_XSP16, literal(-5)))
          CFI (cfiCond81) ?RET_HIGH load(1, XDATA, add(CFA_XSP16, literal(-4)))
          CFI (cfiCond81) ?BRET_EXT load(1, XDATA, add(CFA_XSP16, literal(-3)))
          CFI (cfiCond81) DPL0 load(1, XDATA, add(CFA_XSP16, literal(-2)))
          CFI (cfiCond81) DPH0 load(1, XDATA, add(CFA_XSP16, literal(-1)))
          CFI (cfiCond81) CFA_SP SP+-4
          CFI (cfiCond81) CFA_XSP16 add(XSP16, 14)
          CFI Block cfiPicker82 Using cfiCommon1
          CFI (cfiPicker82) NoFunction
          CFI (cfiPicker82) Picker
        MOVX    @DPTR,A
        MOV     DPL,R6
        MOV     DPH,R7
        RET
          CFI EndBlock cfiCond75
          CFI EndBlock cfiCond76
          CFI EndBlock cfiCond77
          CFI EndBlock cfiCond78
          CFI EndBlock cfiCond79
          CFI EndBlock cfiCond80
          CFI EndBlock cfiCond81
          CFI EndBlock cfiPicker82

        RSEG BANKED_CODE:CODE:NOROOT(0)
?Subroutine16:
          CFI Block cfiCond83 Using cfiCommon0
          CFI Function zclGp_SendGpProxyTableResponse
          CFI Conditional ??CrossCallReturnLabel_49
          CFI R6 load(1, XDATA, add(CFA_XSP16, literal(-22)))
          CFI VB load(1, XDATA, add(CFA_XSP16, literal(-21)))
          CFI V0 load(1, XDATA, add(CFA_XSP16, literal(-20)))
          CFI V1 load(1, XDATA, add(CFA_XSP16, literal(-19)))
          CFI V2 load(1, XDATA, add(CFA_XSP16, literal(-18)))
          CFI V3 load(1, XDATA, add(CFA_XSP16, literal(-17)))
          CFI V4 load(1, XDATA, add(CFA_XSP16, literal(-16)))
          CFI V5 load(1, XDATA, add(CFA_XSP16, literal(-15)))
          CFI V6 load(1, XDATA, add(CFA_XSP16, literal(-14)))
          CFI V7 load(1, XDATA, add(CFA_XSP16, literal(-13)))
          CFI V8 load(1, XDATA, add(CFA_XSP16, literal(-12)))
          CFI V9 load(1, XDATA, add(CFA_XSP16, literal(-11)))
          CFI V10 load(1, XDATA, add(CFA_XSP16, literal(-10)))
          CFI V11 load(1, XDATA, add(CFA_XSP16, literal(-9)))
          CFI V12 load(1, XDATA, add(CFA_XSP16, literal(-8)))
          CFI V13 load(1, XDATA, add(CFA_XSP16, literal(-7)))
          CFI R7 load(1, XDATA, add(CFA_XSP16, literal(-6)))
          CFI ?RET_LOW load(1, XDATA, add(CFA_XSP16, literal(-5)))
          CFI ?RET_HIGH load(1, XDATA, add(CFA_XSP16, literal(-4)))
          CFI ?BRET_EXT load(1, XDATA, add(CFA_XSP16, literal(-3)))
          CFI DPL0 load(1, XDATA, add(CFA_XSP16, literal(-2)))
          CFI DPH0 load(1, XDATA, add(CFA_XSP16, literal(-1)))
          CFI CFA_SP SP+-2
          CFI CFA_XSP16 add(XSP16, 24)
          CFI Block cfiCond84 Using cfiCommon0
          CFI (cfiCond84) Function zclGp_SendGpProxyTableResponse
          CFI (cfiCond84) Conditional ??CrossCallReturnLabel_50
          CFI (cfiCond84) R6 load(1, XDATA, add(CFA_XSP16, literal(-22)))
          CFI (cfiCond84) VB load(1, XDATA, add(CFA_XSP16, literal(-21)))
          CFI (cfiCond84) V0 load(1, XDATA, add(CFA_XSP16, literal(-20)))
          CFI (cfiCond84) V1 load(1, XDATA, add(CFA_XSP16, literal(-19)))
          CFI (cfiCond84) V2 load(1, XDATA, add(CFA_XSP16, literal(-18)))
          CFI (cfiCond84) V3 load(1, XDATA, add(CFA_XSP16, literal(-17)))
          CFI (cfiCond84) V4 load(1, XDATA, add(CFA_XSP16, literal(-16)))
          CFI (cfiCond84) V5 load(1, XDATA, add(CFA_XSP16, literal(-15)))
          CFI (cfiCond84) V6 load(1, XDATA, add(CFA_XSP16, literal(-14)))
          CFI (cfiCond84) V7 load(1, XDATA, add(CFA_XSP16, literal(-13)))
          CFI (cfiCond84) V8 load(1, XDATA, add(CFA_XSP16, literal(-12)))
          CFI (cfiCond84) V9 load(1, XDATA, add(CFA_XSP16, literal(-11)))
          CFI (cfiCond84) V10 load(1, XDATA, add(CFA_XSP16, literal(-10)))
          CFI (cfiCond84) V11 load(1, XDATA, add(CFA_XSP16, literal(-9)))
          CFI (cfiCond84) V12 load(1, XDATA, add(CFA_XSP16, literal(-8)))
          CFI (cfiCond84) V13 load(1, XDATA, add(CFA_XSP16, literal(-7)))
          CFI (cfiCond84) R7 load(1, XDATA, add(CFA_XSP16, literal(-6)))
          CFI (cfiCond84) ?RET_LOW load(1, XDATA, add(CFA_XSP16, literal(-5)))
          CFI (cfiCond84) ?RET_HIGH load(1, XDATA, add(CFA_XSP16, literal(-4)))
          CFI (cfiCond84) ?BRET_EXT load(1, XDATA, add(CFA_XSP16, literal(-3)))
          CFI (cfiCond84) DPL0 load(1, XDATA, add(CFA_XSP16, literal(-2)))
          CFI (cfiCond84) DPH0 load(1, XDATA, add(CFA_XSP16, literal(-1)))
          CFI (cfiCond84) CFA_SP SP+-2
          CFI (cfiCond84) CFA_XSP16 add(XSP16, 24)
          CFI Block cfiPicker85 Using cfiCommon1
          CFI (cfiPicker85) NoFunction
          CFI (cfiPicker85) Picker
        INC     DPTR
          CFI EndBlock cfiCond83
          CFI EndBlock cfiCond84
          CFI EndBlock cfiPicker85
        REQUIRE ??Subroutine33_0
        ; // Fall through to label ??Subroutine33_0

        RSEG BANKED_CODE:CODE:NOROOT(0)
??Subroutine33_0:
          CFI Block cfiCond86 Using cfiCommon0
          CFI Function zclGp_SendGpProxyTableResponse
          CFI Conditional ??CrossCallReturnLabel_48
          CFI R6 load(1, XDATA, add(CFA_XSP16, literal(-22)))
          CFI VB load(1, XDATA, add(CFA_XSP16, literal(-21)))
          CFI V0 load(1, XDATA, add(CFA_XSP16, literal(-20)))
          CFI V1 load(1, XDATA, add(CFA_XSP16, literal(-19)))
          CFI V2 load(1, XDATA, add(CFA_XSP16, literal(-18)))
          CFI V3 load(1, XDATA, add(CFA_XSP16, literal(-17)))
          CFI V4 load(1, XDATA, add(CFA_XSP16, literal(-16)))
          CFI V5 load(1, XDATA, add(CFA_XSP16, literal(-15)))
          CFI V6 load(1, XDATA, add(CFA_XSP16, literal(-14)))
          CFI V7 load(1, XDATA, add(CFA_XSP16, literal(-13)))
          CFI V8 load(1, XDATA, add(CFA_XSP16, literal(-12)))
          CFI V9 load(1, XDATA, add(CFA_XSP16, literal(-11)))
          CFI V10 load(1, XDATA, add(CFA_XSP16, literal(-10)))
          CFI V11 load(1, XDATA, add(CFA_XSP16, literal(-9)))
          CFI V12 load(1, XDATA, add(CFA_XSP16, literal(-8)))
          CFI V13 load(1, XDATA, add(CFA_XSP16, literal(-7)))
          CFI R7 load(1, XDATA, add(CFA_XSP16, literal(-6)))
          CFI ?RET_LOW load(1, XDATA, add(CFA_XSP16, literal(-5)))
          CFI ?RET_HIGH load(1, XDATA, add(CFA_XSP16, literal(-4)))
          CFI ?BRET_EXT load(1, XDATA, add(CFA_XSP16, literal(-3)))
          CFI DPL0 load(1, XDATA, add(CFA_XSP16, literal(-2)))
          CFI DPH0 load(1, XDATA, add(CFA_XSP16, literal(-1)))
          CFI CFA_SP SP+-2
          CFI CFA_XSP16 add(XSP16, 24)
          CFI Block cfiCond87 Using cfiCommon0
          CFI (cfiCond87) Function zclGp_SendGpProxyTableResponse
          CFI (cfiCond87) Conditional ??CrossCallReturnLabel_49
          CFI (cfiCond87) R6 load(1, XDATA, add(CFA_XSP16, literal(-22)))
          CFI (cfiCond87) VB load(1, XDATA, add(CFA_XSP16, literal(-21)))
          CFI (cfiCond87) V0 load(1, XDATA, add(CFA_XSP16, literal(-20)))
          CFI (cfiCond87) V1 load(1, XDATA, add(CFA_XSP16, literal(-19)))
          CFI (cfiCond87) V2 load(1, XDATA, add(CFA_XSP16, literal(-18)))
          CFI (cfiCond87) V3 load(1, XDATA, add(CFA_XSP16, literal(-17)))
          CFI (cfiCond87) V4 load(1, XDATA, add(CFA_XSP16, literal(-16)))
          CFI (cfiCond87) V5 load(1, XDATA, add(CFA_XSP16, literal(-15)))
          CFI (cfiCond87) V6 load(1, XDATA, add(CFA_XSP16, literal(-14)))
          CFI (cfiCond87) V7 load(1, XDATA, add(CFA_XSP16, literal(-13)))
          CFI (cfiCond87) V8 load(1, XDATA, add(CFA_XSP16, literal(-12)))
          CFI (cfiCond87) V9 load(1, XDATA, add(CFA_XSP16, literal(-11)))
          CFI (cfiCond87) V10 load(1, XDATA, add(CFA_XSP16, literal(-10)))
          CFI (cfiCond87) V11 load(1, XDATA, add(CFA_XSP16, literal(-9)))
          CFI (cfiCond87) V12 load(1, XDATA, add(CFA_XSP16, literal(-8)))
          CFI (cfiCond87) V13 load(1, XDATA, add(CFA_XSP16, literal(-7)))
          CFI (cfiCond87) R7 load(1, XDATA, add(CFA_XSP16, literal(-6)))
          CFI (cfiCond87) ?RET_LOW load(1, XDATA, add(CFA_XSP16, literal(-5)))
          CFI (cfiCond87) ?RET_HIGH load(1, XDATA, add(CFA_XSP16, literal(-4)))
          CFI (cfiCond87) ?BRET_EXT load(1, XDATA, add(CFA_XSP16, literal(-3)))
          CFI (cfiCond87) DPL0 load(1, XDATA, add(CFA_XSP16, literal(-2)))
          CFI (cfiCond87) DPH0 load(1, XDATA, add(CFA_XSP16, literal(-1)))
          CFI (cfiCond87) CFA_SP SP+-2
          CFI (cfiCond87) CFA_XSP16 add(XSP16, 24)
          CFI Block cfiCond88 Using cfiCommon0
          CFI (cfiCond88) Function zclGp_SendGpProxyTableResponse
          CFI (cfiCond88) Conditional ??CrossCallReturnLabel_50
          CFI (cfiCond88) R6 load(1, XDATA, add(CFA_XSP16, literal(-22)))
          CFI (cfiCond88) VB load(1, XDATA, add(CFA_XSP16, literal(-21)))
          CFI (cfiCond88) V0 load(1, XDATA, add(CFA_XSP16, literal(-20)))
          CFI (cfiCond88) V1 load(1, XDATA, add(CFA_XSP16, literal(-19)))
          CFI (cfiCond88) V2 load(1, XDATA, add(CFA_XSP16, literal(-18)))
          CFI (cfiCond88) V3 load(1, XDATA, add(CFA_XSP16, literal(-17)))
          CFI (cfiCond88) V4 load(1, XDATA, add(CFA_XSP16, literal(-16)))
          CFI (cfiCond88) V5 load(1, XDATA, add(CFA_XSP16, literal(-15)))
          CFI (cfiCond88) V6 load(1, XDATA, add(CFA_XSP16, literal(-14)))
          CFI (cfiCond88) V7 load(1, XDATA, add(CFA_XSP16, literal(-13)))
          CFI (cfiCond88) V8 load(1, XDATA, add(CFA_XSP16, literal(-12)))
          CFI (cfiCond88) V9 load(1, XDATA, add(CFA_XSP16, literal(-11)))
          CFI (cfiCond88) V10 load(1, XDATA, add(CFA_XSP16, literal(-10)))
          CFI (cfiCond88) V11 load(1, XDATA, add(CFA_XSP16, literal(-9)))
          CFI (cfiCond88) V12 load(1, XDATA, add(CFA_XSP16, literal(-8)))
          CFI (cfiCond88) V13 load(1, XDATA, add(CFA_XSP16, literal(-7)))
          CFI (cfiCond88) R7 load(1, XDATA, add(CFA_XSP16, literal(-6)))
          CFI (cfiCond88) ?RET_LOW load(1, XDATA, add(CFA_XSP16, literal(-5)))
          CFI (cfiCond88) ?RET_HIGH load(1, XDATA, add(CFA_XSP16, literal(-4)))
          CFI (cfiCond88) ?BRET_EXT load(1, XDATA, add(CFA_XSP16, literal(-3)))
          CFI (cfiCond88) DPL0 load(1, XDATA, add(CFA_XSP16, literal(-2)))
          CFI (cfiCond88) DPH0 load(1, XDATA, add(CFA_XSP16, literal(-1)))
          CFI (cfiCond88) CFA_SP SP+-2
          CFI (cfiCond88) CFA_XSP16 add(XSP16, 24)
          CFI Block cfiPicker89 Using cfiCommon1
          CFI (cfiPicker89) NoFunction
          CFI (cfiPicker89) Picker
        INC     DPTR
        MOVX    A,@DPTR
        MOV     DPL,R2
        MOV     DPH,R3
        INC     DPTR
        RET
          CFI EndBlock cfiCond86
          CFI EndBlock cfiCond87
          CFI EndBlock cfiCond88
          CFI EndBlock cfiPicker89
//  616 
//  617  /*********************************************************************
//  618  * @fn          gp_addPairedSinksToMsgQueue
//  619  *
//  620  * @brief       General function to add Notification Msg to Queue for all 
//  621  *              Sinks paired to the given GPD
//  622  *
//  623  * @param       nvIndex - NV Id of proxy table
//  624  *              pEntry  - pointer to PROXY_TBL_ENTRY_LEN array
//  625  *
//  626  * @return      
//  627  */

        RSEG BANKED_CODE:CODE:NOROOT(0)
//  628 static uint8 gp_addPairedSinksToMsgQueue( uint8 appId, uint8 *pId, gpCmdPayloadMsg_t* pMsg )
gp_addPairedSinksToMsgQueue:
          CFI Block cfiBlock90 Using cfiCommon0
          CFI Function gp_addPairedSinksToMsgQueue
        CODE
//  629 {
        FUNCALL gp_addPairedSinksToMsgQueue, gp_getProxyTableByIndex
        LOCFRAME ISTACK, 0, STACK
        LOCFRAME PSTACK, 0, STACK
        LOCFRAME XSTACK, 108, STACK
        LOCFRAME IOVERLAY, 0, STATIC
        LOCFRAME DOVERLAY, 0, STATIC
        ARGFRAME ISTACK, 0, STACK
        ARGFRAME PSTACK, 0, STACK
        ARGFRAME XSTACK, 108, STACK
        ARGFRAME IOVERLAY, 0, STATIC
        ARGFRAME DOVERLAY, 0, STATIC
        FUNCALL gp_addPairedSinksToMsgQueue, osal_memcmp
        LOCFRAME ISTACK, 0, STACK
        LOCFRAME PSTACK, 0, STACK
        LOCFRAME XSTACK, 111, STACK
        LOCFRAME IOVERLAY, 0, STATIC
        LOCFRAME DOVERLAY, 0, STATIC
        ARGFRAME ISTACK, 0, STACK
        ARGFRAME PSTACK, 0, STACK
        ARGFRAME XSTACK, 111, STACK
        ARGFRAME IOVERLAY, 0, STATIC
        ARGFRAME DOVERLAY, 0, STATIC
        FUNCALL gp_addPairedSinksToMsgQueue, osal_memcmp
        LOCFRAME ISTACK, 0, STACK
        LOCFRAME PSTACK, 0, STACK
        LOCFRAME XSTACK, 111, STACK
        LOCFRAME IOVERLAY, 0, STATIC
        LOCFRAME DOVERLAY, 0, STATIC
        ARGFRAME ISTACK, 0, STACK
        ARGFRAME PSTACK, 0, STACK
        ARGFRAME XSTACK, 111, STACK
        ARGFRAME IOVERLAY, 0, STATIC
        ARGFRAME DOVERLAY, 0, STATIC
        FUNCALL gp_addPairedSinksToMsgQueue, osal_memcmp
        LOCFRAME ISTACK, 0, STACK
        LOCFRAME PSTACK, 0, STACK
        LOCFRAME XSTACK, 111, STACK
        LOCFRAME IOVERLAY, 0, STATIC
        LOCFRAME DOVERLAY, 0, STATIC
        ARGFRAME ISTACK, 0, STACK
        ARGFRAME PSTACK, 0, STACK
        ARGFRAME XSTACK, 111, STACK
        ARGFRAME IOVERLAY, 0, STATIC
        ARGFRAME DOVERLAY, 0, STATIC
        FUNCALL gp_addPairedSinksToMsgQueue, osal_memcpy
        LOCFRAME ISTACK, 0, STACK
        LOCFRAME PSTACK, 0, STACK
        LOCFRAME XSTACK, 111, STACK
        LOCFRAME IOVERLAY, 0, STATIC
        LOCFRAME DOVERLAY, 0, STATIC
        ARGFRAME ISTACK, 0, STACK
        ARGFRAME PSTACK, 0, STACK
        ARGFRAME XSTACK, 111, STACK
        ARGFRAME IOVERLAY, 0, STATIC
        ARGFRAME DOVERLAY, 0, STATIC
        FUNCALL gp_addPairedSinksToMsgQueue, gp_AddNotificationMsgNode
        LOCFRAME ISTACK, 0, STACK
        LOCFRAME PSTACK, 0, STACK
        LOCFRAME XSTACK, 108, STACK
        LOCFRAME IOVERLAY, 0, STATIC
        LOCFRAME DOVERLAY, 0, STATIC
        ARGFRAME ISTACK, 0, STACK
        ARGFRAME PSTACK, 0, STACK
        ARGFRAME XSTACK, 108, STACK
        ARGFRAME IOVERLAY, 0, STATIC
        ARGFRAME DOVERLAY, 0, STATIC
        FUNCALL gp_addPairedSinksToMsgQueue, osal_memcmp
        LOCFRAME ISTACK, 0, STACK
        LOCFRAME PSTACK, 0, STACK
        LOCFRAME XSTACK, 111, STACK
        LOCFRAME IOVERLAY, 0, STATIC
        LOCFRAME DOVERLAY, 0, STATIC
        ARGFRAME ISTACK, 0, STACK
        ARGFRAME PSTACK, 0, STACK
        ARGFRAME XSTACK, 111, STACK
        ARGFRAME IOVERLAY, 0, STATIC
        ARGFRAME DOVERLAY, 0, STATIC
        FUNCALL gp_addPairedSinksToMsgQueue, osal_memcpy
        LOCFRAME ISTACK, 0, STACK
        LOCFRAME PSTACK, 0, STACK
        LOCFRAME XSTACK, 111, STACK
        LOCFRAME IOVERLAY, 0, STATIC
        LOCFRAME DOVERLAY, 0, STATIC
        ARGFRAME ISTACK, 0, STACK
        ARGFRAME PSTACK, 0, STACK
        ARGFRAME XSTACK, 111, STACK
        ARGFRAME IOVERLAY, 0, STATIC
        ARGFRAME DOVERLAY, 0, STATIC
        FUNCALL gp_addPairedSinksToMsgQueue, gp_AddNotificationMsgNode
        LOCFRAME ISTACK, 0, STACK
        LOCFRAME PSTACK, 0, STACK
        LOCFRAME XSTACK, 108, STACK
        LOCFRAME IOVERLAY, 0, STATIC
        LOCFRAME DOVERLAY, 0, STATIC
        ARGFRAME ISTACK, 0, STACK
        ARGFRAME PSTACK, 0, STACK
        ARGFRAME XSTACK, 108, STACK
        ARGFRAME IOVERLAY, 0, STATIC
        ARGFRAME DOVERLAY, 0, STATIC
        FUNCALL gp_addPairedSinksToMsgQueue, osal_memcmp
        LOCFRAME ISTACK, 0, STACK
        LOCFRAME PSTACK, 0, STACK
        LOCFRAME XSTACK, 111, STACK
        LOCFRAME IOVERLAY, 0, STATIC
        LOCFRAME DOVERLAY, 0, STATIC
        ARGFRAME ISTACK, 0, STACK
        ARGFRAME PSTACK, 0, STACK
        ARGFRAME XSTACK, 111, STACK
        ARGFRAME IOVERLAY, 0, STATIC
        ARGFRAME DOVERLAY, 0, STATIC
        FUNCALL gp_addPairedSinksToMsgQueue, osal_memcmp
        LOCFRAME ISTACK, 0, STACK
        LOCFRAME PSTACK, 0, STACK
        LOCFRAME XSTACK, 111, STACK
        LOCFRAME IOVERLAY, 0, STATIC
        LOCFRAME DOVERLAY, 0, STATIC
        ARGFRAME ISTACK, 0, STACK
        ARGFRAME PSTACK, 0, STACK
        ARGFRAME XSTACK, 111, STACK
        ARGFRAME IOVERLAY, 0, STATIC
        ARGFRAME DOVERLAY, 0, STATIC
        FUNCALL gp_addPairedSinksToMsgQueue, gp_AddNotificationMsgNode
        LOCFRAME ISTACK, 0, STACK
        LOCFRAME PSTACK, 0, STACK
        LOCFRAME XSTACK, 108, STACK
        LOCFRAME IOVERLAY, 0, STATIC
        LOCFRAME DOVERLAY, 0, STATIC
        ARGFRAME ISTACK, 0, STACK
        ARGFRAME PSTACK, 0, STACK
        ARGFRAME XSTACK, 108, STACK
        ARGFRAME IOVERLAY, 0, STATIC
        ARGFRAME DOVERLAY, 0, STATIC
        FUNCALL gp_addPairedSinksToMsgQueue, osal_memcmp
        LOCFRAME ISTACK, 0, STACK
        LOCFRAME PSTACK, 0, STACK
        LOCFRAME XSTACK, 111, STACK
        LOCFRAME IOVERLAY, 0, STATIC
        LOCFRAME DOVERLAY, 0, STATIC
        ARGFRAME ISTACK, 0, STACK
        ARGFRAME PSTACK, 0, STACK
        ARGFRAME XSTACK, 111, STACK
        ARGFRAME IOVERLAY, 0, STATIC
        ARGFRAME DOVERLAY, 0, STATIC
        FUNCALL gp_addPairedSinksToMsgQueue, osal_memcmp
        LOCFRAME ISTACK, 0, STACK
        LOCFRAME PSTACK, 0, STACK
        LOCFRAME XSTACK, 111, STACK
        LOCFRAME IOVERLAY, 0, STATIC
        LOCFRAME DOVERLAY, 0, STATIC
        ARGFRAME ISTACK, 0, STACK
        ARGFRAME PSTACK, 0, STACK
        ARGFRAME XSTACK, 111, STACK
        ARGFRAME IOVERLAY, 0, STATIC
        ARGFRAME DOVERLAY, 0, STATIC
        FUNCALL gp_addPairedSinksToMsgQueue, gp_AddNotificationMsgNode
        LOCFRAME ISTACK, 0, STACK
        LOCFRAME PSTACK, 0, STACK
        LOCFRAME XSTACK, 108, STACK
        LOCFRAME IOVERLAY, 0, STATIC
        LOCFRAME DOVERLAY, 0, STATIC
        ARGFRAME ISTACK, 0, STACK
        ARGFRAME PSTACK, 0, STACK
        ARGFRAME XSTACK, 108, STACK
        ARGFRAME IOVERLAY, 0, STATIC
        ARGFRAME DOVERLAY, 0, STATIC
        REQUIRE ?V0
        REQUIRE ?V1
        REQUIRE ?V2
        REQUIRE ?V3
        REQUIRE ?V4
        REQUIRE ?V5
        REQUIRE ?V6
        REQUIRE ?V8
        REQUIRE ?V9
        REQUIRE ?V10
        REQUIRE ?V12
        REQUIRE ?V13
        MOV     A,#-0x16
        LCALL   ?BANKED_ENTER_XDATA
          CFI DPH0 load(1, XDATA, add(CFA_XSP16, literal(-1)))
          CFI DPL0 load(1, XDATA, add(CFA_XSP16, literal(-2)))
          CFI ?BRET_EXT load(1, XDATA, add(CFA_XSP16, literal(-3)))
          CFI ?RET_HIGH load(1, XDATA, add(CFA_XSP16, literal(-4)))
          CFI ?RET_LOW load(1, XDATA, add(CFA_XSP16, literal(-5)))
          CFI R7 load(1, XDATA, add(CFA_XSP16, literal(-6)))
          CFI V13 load(1, XDATA, add(CFA_XSP16, literal(-7)))
          CFI V12 load(1, XDATA, add(CFA_XSP16, literal(-8)))
          CFI V11 load(1, XDATA, add(CFA_XSP16, literal(-9)))
          CFI V10 load(1, XDATA, add(CFA_XSP16, literal(-10)))
          CFI V9 load(1, XDATA, add(CFA_XSP16, literal(-11)))
          CFI V8 load(1, XDATA, add(CFA_XSP16, literal(-12)))
          CFI V7 load(1, XDATA, add(CFA_XSP16, literal(-13)))
          CFI V6 load(1, XDATA, add(CFA_XSP16, literal(-14)))
          CFI V5 load(1, XDATA, add(CFA_XSP16, literal(-15)))
          CFI V4 load(1, XDATA, add(CFA_XSP16, literal(-16)))
          CFI V3 load(1, XDATA, add(CFA_XSP16, literal(-17)))
          CFI V2 load(1, XDATA, add(CFA_XSP16, literal(-18)))
          CFI V1 load(1, XDATA, add(CFA_XSP16, literal(-19)))
          CFI V0 load(1, XDATA, add(CFA_XSP16, literal(-20)))
          CFI VB load(1, XDATA, add(CFA_XSP16, literal(-21)))
          CFI R6 load(1, XDATA, add(CFA_XSP16, literal(-22)))
          CFI CFA_SP SP+0
          CFI CFA_XSP16 add(XSP16, 22)
        ; Saved register size: 22
        ; Auto size: 86
        MOV     A,#-0x56
        LCALL   ?ALLOC_XSTACK8
          CFI CFA_XSP16 add(XSP16, 108)
        MOV     ?V3,R1
        MOV     ?V12,R4
        MOV     ?V13,R5
//  630   uint8  freeSinkEntry[LSINK_ADDR_LEN] = {0xFF, 0xFF, 0xFF, 0xFF, 0xFF, 0xFF, 0xFF, 0xFF, 0xFF, 0xFF};
        MOV     DPTR,#`?<Constant {255, 255, 255, 255, 255, 255, 255,`
        MOV     A,#0x4c
        LCALL   ?XSTACK_DISP102_8
        MOV     A,#0xa
        LCALL   ?MOVE_LONG8_XDATA_XDATA
//  631   uint8 status;
//  632   uint8 i;
//  633   uint8 currEntry[PROXY_TBL_ENTRY_LEN] = {0};
        MOV     DPTR,#`?<Constant {0, 0, 0, 0, 0, 0, 0, 0, 0, 0, 0, 0`
        MOV     A,#0xc
        LCALL   ?XSTACK_DISP102_8
        MOV     A,#0x40
        LCALL   ?MOVE_LONG8_XDATA_XDATA
//  634   afAddrType_t dstAddr = {0};
        MOV     DPTR,#`?<Constant {{0}}>`
        MOV     R4,?XSP + 0
        MOV     R5,?XSP + 1
        MOV     A,#0xc
        LCALL   ?MOVE_LONG8_XDATA_XDATA
//  635   gpNotificationMsg_t *pNotificationMsgCurr = NULL;
//  636 
//  637     
//  638   for ( i = 0; i <= GPP_MAX_PROXY_TABLE_ENTRIES ; i++ )
        MOV     R6,#0x0
        MOV     ?V0,R2
        MOV     ?V1,R3
        MOV     ?V2,A
//  639   {
//  640     status = gp_getProxyTableByIndex( ( ZCD_NV_PROXY_TABLE_START + i ), currEntry );
??gp_addPairedSinksToMsgQueue_0:
        ; Setup parameters for call to function gp_getProxyTableByIndex
        MOV     A,#0xc
        LCALL   ?XSTACK_DISP102_8
        MOV     A,R6
        ADD     A,#0x10
        MOV     R2,A
        CLR     A
        ADDC    A,#0x3
        MOV     R3,A
        LCALL   `??gp_getProxyTableByIndex::?relay`; Banked call to: gp_getProxyTableByIndex
        MOV     A,R1
        MOV     R7,A
//  641 
//  642     if ( status == NV_OPER_FAILED )
        MOV     A,#0xa
        XRL     A,R7
        JNZ     $+5
        LJMP    ??gp_addPairedSinksToMsgQueue_1 & 0xFFFF
//  643     {
//  644       break;
//  645     }
//  646     
//  647     // if the entry is empty
//  648     if ( status == NV_INVALID_DATA )
        MOV     A,#0xd
        XRL     A,R7
        JNZ     ??gp_addPairedSinksToMsgQueue_2
//  649     {
//  650       if ( i >= GPP_MAX_PROXY_TABLE_ENTRIES )
        MOV     A,R6
        CLR     C
        SUBB    A,#0x5
        JC      ??gp_addPairedSinksToMsgQueue_3
        LJMP    ??gp_addPairedSinksToMsgQueue_4 & 0xFFFF
//  651       {
//  652         return status;
//  653       }
//  654       continue;
//  655     }
//  656     
//  657     if ( PROXY_TBL_COMP_APPLICTION_ID( appId, currEntry[PROXY_TBL_ENTRY_OPT] ) )
??gp_addPairedSinksToMsgQueue_2:
        MOV     A,?V3
        ANL     A,#0x7
        MOV     R2,A
        MOV     A,#0xc
        LCALL   ?XSTACK_DISP0_8
        MOVX    A,@DPTR
        ANL     A,#0x7
        XRL     A,R2
        JNZ     ??gp_addPairedSinksToMsgQueue_5
        CLR     A
??gp_addPairedSinksToMsgQueue_5:
        JNZ     ??gp_addPairedSinksToMsgQueue_3
//  658     {
//  659       if ( appId == GP_OPT_APP_ID_GPD )
        MOV     A,?V3
        JNZ     ??gp_addPairedSinksToMsgQueue_6
//  660       {
//  661         if ( osal_memcmp( pId, &currEntry[PROXY_TBL_ENTRY_GPD_ID + 4], sizeof ( uint32 ) ) )
        ; Setup parameters for call to function osal_memcmp
        MOV     A,#0x12
        LCALL   ?XSTACK_DISP0_8
        MOV     R1,DPL
        MOV     R2,DPH
        MOV     ?V4,R1
        MOV     ?V5,R2
        MOV     ?V6,#0x0
        MOV     R0,#?V4
        LCALL   ?PUSH_XSTACK_I_THREE
          CFI CFA_XSP16 add(XSP16, 111)
        MOV     R4,#0x4
        MOV     R5,#0x0
        MOV     R1,?V0
        MOV     R2,?V1
        MOV     R3,?V2
        LCALL   `??osal_memcmp::?relay`; Banked call to: osal_memcmp
        MOV     A,#0x3
        LCALL   ?DEALLOC_XSTACK8
          CFI CFA_XSP16 add(XSP16, 108)
        MOV     A,R1
        JNZ     ??gp_addPairedSinksToMsgQueue_1
        SJMP    ??gp_addPairedSinksToMsgQueue_3
//  662         {
//  663           // Entry found
//  664           break;
//  665         }
//  666       }
//  667       else if ( appId == GP_OPT_APP_ID_IEEE )
??gp_addPairedSinksToMsgQueue_6:
        MOV     A,#0x2
        XRL     A,?V3
        JNZ     ??gp_addPairedSinksToMsgQueue_3
//  668       {
//  669         if ( osal_memcmp( pId, &currEntry[PROXY_TBL_ENTRY_GPD_ID], Z_EXTADDR_LEN ) )
        ; Setup parameters for call to function osal_memcmp
        MOV     A,#0xe
        LCALL   ?XSTACK_DISP0_8
        MOV     R1,DPL
        MOV     R2,DPH
        MOV     ?V4,R1
        MOV     ?V5,R2
        MOV     ?V6,#0x0
        MOV     R0,#?V4
        LCALL   ?PUSH_XSTACK_I_THREE
          CFI CFA_XSP16 add(XSP16, 111)
        MOV     R4,#0x8
        MOV     R5,#0x0
        MOV     R1,?V0
        MOV     R2,?V1
        MOV     R3,?V2
        LCALL   `??osal_memcmp::?relay`; Banked call to: osal_memcmp
        MOV     A,#0x3
        LCALL   ?DEALLOC_XSTACK8
          CFI CFA_XSP16 add(XSP16, 108)
        MOV     A,R1
        JNZ     ??gp_addPairedSinksToMsgQueue_1
//  670         {
//  671           // Entry found
//  672           break;
//  673         }
//  674       }
//  675     }
//  676   }
??gp_addPairedSinksToMsgQueue_3:
        INC     R6
        MOV     A,R6
        CLR     C
        SUBB    A,#0x6
        JNC     $+5
        LJMP    ??gp_addPairedSinksToMsgQueue_0 & 0xFFFF
//  677   
//  678   dstAddr.endPoint = GREEN_POWER_INTERNAL_ENDPOINT;
??gp_addPairedSinksToMsgQueue_1:
        MOV     A,#0x9
        LCALL   ?XSTACK_DISP0_8
        LCALL   ?Subroutine15 & 0xFFFF
//  679   dstAddr.panId = _NIB.nwkPanId;
??CrossCallReturnLabel_83:
        MOV     A,#0xa
        LCALL   ?XSTACK_DISP0_8
        LCALL   ??Subroutine35_0 & 0xFFFF
//  680   
//  681   if ( PROXY_TBL_GET_LIGHTWIGHT_UNICAST( currEntry[PROXY_TBL_ENTRY_OPT] ) )
??CrossCallReturnLabel_57:
        MOV     A,#0x4c
        LCALL   ?XSTACK_DISP100_8
        MOV     ?V4,R0
        MOV     ?V5,R1
        MOV     ?V6,#0x0
        MOV     A,#0xc
        LCALL   ?XSTACK_DISP0_8
        MOVX    A,@DPTR
        MOV     C,0xE0 /* A   */.6
        JC      $+5
        LJMP    ??gp_addPairedSinksToMsgQueue_7 & 0xFFFF
//  682   {
//  683     dstAddr.addrMode = afAddr16Bit;
        MOV     A,#0x8
        LCALL   ?XSTACK_DISP0_8
        MOV     A,#0x2
        MOVX    @DPTR,A
//  684     if ( !osal_memcmp( freeSinkEntry, &currEntry[PROXY_TBL_ENTRY_1ST_LSINK_ADDR], LSINK_ADDR_LEN ) )
        ; Setup parameters for call to function osal_memcmp
        MOV     A,#0x2e
        LCALL   ?XSTACK_DISP0_8
        MOV     R1,DPL
        MOV     R2,DPH
        MOV     ?V0,R1
        MOV     ?V1,R2
        MOV     R0,#?V0
        LCALL   ?PUSH_XSTACK_I_THREE
          CFI CFA_XSP16 add(XSP16, 111)
        MOV     R4,#0xa
        MOV     R5,#0x0
        MOV     R1,?V4
        MOV     R2,?V5
        MOV     R3,?V6
        LCALL   `??osal_memcmp::?relay`; Banked call to: osal_memcmp
        MOV     A,#0x3
        LCALL   ?DEALLOC_XSTACK8
          CFI CFA_XSP16 add(XSP16, 108)
        MOV     A,R1
        JNZ     ??gp_addPairedSinksToMsgQueue_8
//  685     {
//  686       osal_memcpy( &dstAddr.addr.shortAddr, &currEntry[PROXY_TBL_ENTRY_1ST_LSINK_ADDR + Z_EXTADDR_LEN], sizeof ( uint16 ) );
        ; Setup parameters for call to function osal_memcpy
        MOV     A,#0x36
        LCALL   ?XSTACK_DISP0_8
        MOV     R1,DPL
        MOV     R2,DPH
        MOV     ?V0,R1
        MOV     ?V1,R2
        MOV     R0,#?V0
        LCALL   ?PUSH_XSTACK_I_THREE
          CFI CFA_XSP16 add(XSP16, 111)
        MOV     R4,#0x2
        MOV     R5,#0x0
        MOV     A,#0x3
        LCALL   ?XSTACK_DISP101_8
        LCALL   `??osal_memcpy::?relay`; Banked call to: osal_memcpy
        MOV     A,#0x3
        LCALL   ?DEALLOC_XSTACK8
          CFI CFA_XSP16 add(XSP16, 108)
//  687       
//  688       pNotificationMsgCurr = gp_AddNotificationMsgNode( &pNotificationMsgHead, pMsg );
        ; Setup parameters for call to function gp_AddNotificationMsgNode
        MOV     R4,?V12
        MOV     R5,?V13
        MOV     R2,#pNotificationMsgHead & 0xff
        MOV     R3,#(pNotificationMsgHead >> 8) & 0xff
        LCALL   `??gp_AddNotificationMsgNode::?relay`; Banked call to: gp_AddNotificationMsgNode
        MOV     ?V0,R2
        MOV     ?V1,R3
        MOV     R4,?V0
        MOV     R5,?V1
//  689       if ( pNotificationMsgCurr != NULL )
        MOV     A,R4
        ORL     A,R5
        JZ      ??gp_addPairedSinksToMsgQueue_8
//  690       {
//  691         pNotificationMsgCurr->addr = dstAddr;
        MOV     DPL,?XSP + 0
        MOV     DPH,?XSP + 1
        MOV     A,#0xc
        LCALL   ?MOVE_LONG8_XDATA_XDATA
//  692       }
//  693     }
//  694     if ( !osal_memcmp( freeSinkEntry, &currEntry[PROXY_TBL_ENTRY_2ND_LSINK_ADDR], LSINK_ADDR_LEN ) )
??gp_addPairedSinksToMsgQueue_8:
        ; Setup parameters for call to function osal_memcmp
        MOV     A,#0x38
        LCALL   ?XSTACK_DISP0_8
        MOV     R1,DPL
        MOV     R2,DPH
        MOV     ?V0,R1
        MOV     ?V1,R2
        MOV     R0,#?V0
        LCALL   ?PUSH_XSTACK_I_THREE
          CFI CFA_XSP16 add(XSP16, 111)
        MOV     R4,#0xa
        MOV     R5,#0x0
        MOV     R1,?V4
        MOV     R2,?V5
        MOV     R3,?V6
        LCALL   `??osal_memcmp::?relay`; Banked call to: osal_memcmp
        MOV     A,#0x3
        LCALL   ?DEALLOC_XSTACK8
          CFI CFA_XSP16 add(XSP16, 108)
        MOV     A,R1
        JNZ     ??gp_addPairedSinksToMsgQueue_7
//  695     {
//  696       osal_memcpy( &dstAddr.addr.shortAddr, &currEntry[PROXY_TBL_ENTRY_2ND_LSINK_ADDR + Z_EXTADDR_LEN], sizeof ( uint16 ) );   
        ; Setup parameters for call to function osal_memcpy
        MOV     A,#0x40
        LCALL   ?XSTACK_DISP0_8
        MOV     R1,DPL
        MOV     R2,DPH
        MOV     ?V0,R1
        MOV     ?V1,R2
        MOV     R0,#?V0
        LCALL   ?PUSH_XSTACK_I_THREE
          CFI CFA_XSP16 add(XSP16, 111)
        MOV     R4,#0x2
        MOV     R5,#0x0
        MOV     A,#0x3
        LCALL   ?XSTACK_DISP101_8
        LCALL   `??osal_memcpy::?relay`; Banked call to: osal_memcpy
        MOV     A,#0x3
        LCALL   ?DEALLOC_XSTACK8
          CFI CFA_XSP16 add(XSP16, 108)
//  697       
//  698       pNotificationMsgCurr = gp_AddNotificationMsgNode( &pNotificationMsgHead, pMsg );
        ; Setup parameters for call to function gp_AddNotificationMsgNode
        MOV     R4,?V12
        MOV     R5,?V13
        MOV     R2,#pNotificationMsgHead & 0xff
        MOV     R3,#(pNotificationMsgHead >> 8) & 0xff
        LCALL   `??gp_AddNotificationMsgNode::?relay`; Banked call to: gp_AddNotificationMsgNode
        MOV     ?V0,R2
        MOV     ?V1,R3
        MOV     R4,?V0
        MOV     R5,?V1
//  699       if ( pNotificationMsgCurr != NULL )
        MOV     A,R4
        ORL     A,R5
        JZ      ??gp_addPairedSinksToMsgQueue_7
//  700       {
//  701         pNotificationMsgCurr->addr = dstAddr;
        MOV     DPL,?XSP + 0
        MOV     DPH,?XSP + 1
        MOV     A,#0xc
        LCALL   ?MOVE_LONG8_XDATA_XDATA
//  702       }
//  703     }
//  704   }
//  705      
//  706   if ( PROXY_TBL_GET_CGROUP( currEntry[PROXY_TBL_ENTRY_OPT + 1] ) )
??gp_addPairedSinksToMsgQueue_7:
        MOV     A,#0xd
        LCALL   ?XSTACK_DISP0_8
        MOVX    A,@DPTR
        MOV     C,0xE0 /* A   */.0
        JC      $+5
        LJMP    ??gp_addPairedSinksToMsgQueue_4 & 0xFFFF
//  707   {
//  708     dstAddr.addrMode = afAddrGroup;
        MOV     A,#0x8
        LCALL   ?XSTACK_DISP0_8
        MOV     A,#0x1
        MOVX    @DPTR,A
//  709     if ( !osal_memcmp( freeSinkEntry, &currEntry[PROXY_TBL_ENTRY_1ST_GRP_ADDR], sizeof ( uint16 ) ) )
        MOV     A,#0x42
        LCALL   ?XSTACK_DISP0_8
        MOV     R1,DPL
        MOV     R2,DPH
        MOV     ?V0,R1
        MOV     ?V1,R2
        MOV     R0,?XSP + 0
        MOV     R1,?XSP + 1
        MOV     ?V8,R0
        MOV     ?V9,R1
        MOV     ?V10,#0x0
        ; Setup parameters for call to function osal_memcmp
        MOV     R0,#?V0
        LCALL   ?PUSH_XSTACK_I_THREE
          CFI CFA_XSP16 add(XSP16, 111)
        MOV     R4,#0x2
        MOV     R5,#0x0
        MOV     R1,?V4
        MOV     R2,?V5
        MOV     R3,?V6
        LCALL   `??osal_memcmp::?relay`; Banked call to: osal_memcmp
        MOV     A,#0x3
        LCALL   ?DEALLOC_XSTACK8
          CFI CFA_XSP16 add(XSP16, 108)
        MOV     A,R1
        JNZ     ??gp_addPairedSinksToMsgQueue_9
//  710     {
//  711       osal_memcmp( &dstAddr.addr.shortAddr, &currEntry[PROXY_TBL_ENTRY_1ST_GRP_ADDR], sizeof ( uint16 ) );   
        ; Setup parameters for call to function osal_memcmp
        MOV     R0,#?V0
        LCALL   ?PUSH_XSTACK_I_THREE
          CFI CFA_XSP16 add(XSP16, 111)
        MOV     R4,#0x2
        MOV     R5,#0x0
        MOV     R1,?V8
        MOV     R2,?V9
        MOV     R3,?V10
        LCALL   `??osal_memcmp::?relay`; Banked call to: osal_memcmp
        MOV     A,#0x3
        LCALL   ?DEALLOC_XSTACK8
          CFI CFA_XSP16 add(XSP16, 108)
//  712       
//  713       pNotificationMsgCurr = gp_AddNotificationMsgNode( &pNotificationMsgHead, pMsg );
        ; Setup parameters for call to function gp_AddNotificationMsgNode
        MOV     R4,?V12
        MOV     R5,?V13
        MOV     R2,#pNotificationMsgHead & 0xff
        MOV     R3,#(pNotificationMsgHead >> 8) & 0xff
        LCALL   `??gp_AddNotificationMsgNode::?relay`; Banked call to: gp_AddNotificationMsgNode
        MOV     ?V0,R2
        MOV     ?V1,R3
        MOV     R4,?V0
        MOV     R5,?V1
//  714       if ( pNotificationMsgCurr != NULL )
        MOV     A,R4
        ORL     A,R5
        JZ      ??gp_addPairedSinksToMsgQueue_9
//  715       {
//  716         pNotificationMsgCurr->addr = dstAddr;
        MOV     DPL,?XSP + 0
        MOV     DPH,?XSP + 1
        MOV     A,#0xc
        LCALL   ?MOVE_LONG8_XDATA_XDATA
//  717       }
//  718     }
//  719     if ( !osal_memcmp( freeSinkEntry, &currEntry[PROXY_TBL_ENTRY_2ND_GRP_ADDR], sizeof ( uint16 ) ) )
??gp_addPairedSinksToMsgQueue_9:
        MOV     A,#0x46
        LCALL   ?XSTACK_DISP0_8
        MOV     R1,DPL
        MOV     R2,DPH
        MOV     ?V0,R1
        MOV     ?V1,R2
        ; Setup parameters for call to function osal_memcmp
        MOV     R0,#?V0
        LCALL   ?PUSH_XSTACK_I_THREE
          CFI CFA_XSP16 add(XSP16, 111)
        MOV     R4,#0x2
        MOV     R5,#0x0
        MOV     R1,?V4
        MOV     R2,?V5
        MOV     R3,?V6
        LCALL   `??osal_memcmp::?relay`; Banked call to: osal_memcmp
        MOV     A,#0x3
        LCALL   ?DEALLOC_XSTACK8
          CFI CFA_XSP16 add(XSP16, 108)
        MOV     A,R1
        JNZ     ??gp_addPairedSinksToMsgQueue_4
//  720     {
//  721       osal_memcmp( &dstAddr.addr.shortAddr, &currEntry[PROXY_TBL_ENTRY_2ND_GRP_ADDR], sizeof ( uint16 ) );   
        ; Setup parameters for call to function osal_memcmp
        MOV     R0,#?V0
        LCALL   ?PUSH_XSTACK_I_THREE
          CFI CFA_XSP16 add(XSP16, 111)
        MOV     R4,#0x2
        MOV     R5,#0x0
        MOV     R1,?V8
        MOV     R2,?V9
        MOV     R3,?V10
        LCALL   `??osal_memcmp::?relay`; Banked call to: osal_memcmp
        MOV     A,#0x3
        LCALL   ?DEALLOC_XSTACK8
          CFI CFA_XSP16 add(XSP16, 108)
//  722       
//  723       pNotificationMsgCurr = gp_AddNotificationMsgNode( &pNotificationMsgHead, pMsg );
        ; Setup parameters for call to function gp_AddNotificationMsgNode
        MOV     R4,?V12
        MOV     R5,?V13
        MOV     R2,#pNotificationMsgHead & 0xff
        MOV     R3,#(pNotificationMsgHead >> 8) & 0xff
        LCALL   `??gp_AddNotificationMsgNode::?relay`; Banked call to: gp_AddNotificationMsgNode
        MOV     ?V0,R2
        MOV     ?V1,R3
        MOV     R4,?V0
        MOV     R5,?V1
//  724       if ( pNotificationMsgCurr != NULL )
        MOV     A,R4
        ORL     A,R5
        JZ      ??gp_addPairedSinksToMsgQueue_4
//  725       {
//  726         pNotificationMsgCurr->addr = dstAddr;
        MOV     DPL,?XSP + 0
        MOV     DPH,?XSP + 1
        MOV     A,#0xc
        LCALL   ?MOVE_LONG8_XDATA_XDATA
//  727       }
//  728     }
//  729   }
//  730 
//  731   return status;
??gp_addPairedSinksToMsgQueue_4:
        MOV     A,R7
        MOV     R1,A
        MOV     A,#0x56
        LJMP    ?Subroutine2 & 0xFFFF
//  732 }
          CFI EndBlock cfiBlock90

        RSEG XDATA_ROM_C:CONST:REORDER:NOROOT(0)
        DATA8
`?<Constant {{0}}>`:
        DATA16
        DW 0
        DB 0, 0, 0, 0, 0, 0
        DB 0, 0, 0, 0
//  733 
//  734 /*********************************************************************
//  735  * @fn      gp_CreateNotificationMsgList
//  736  *
//  737  * @brief   Create Notification Msg List for paired sinks if empty
//  738  *
//  739  * @param   pHead - pointer to a pointer of the list head
//  740  *
//  741  * @return  none
//  742  */

        RSEG BANKED_CODE:CODE:NOROOT(0)
//  743 void gp_CreateNotificationMsgList( gpNotificationMsg_t **pHead )
gp_CreateNotificationMsgList:
          CFI Block cfiBlock91 Using cfiCommon0
          CFI Function gp_CreateNotificationMsgList
        CODE
//  744 {
        FUNCALL gp_CreateNotificationMsgList, osal_mem_alloc
        LOCFRAME ISTACK, 0, STACK
        LOCFRAME PSTACK, 0, STACK
        LOCFRAME XSTACK, 10, STACK
        LOCFRAME IOVERLAY, 0, STATIC
        LOCFRAME DOVERLAY, 0, STATIC
        ARGFRAME ISTACK, 0, STACK
        ARGFRAME PSTACK, 0, STACK
        ARGFRAME XSTACK, 10, STACK
        ARGFRAME IOVERLAY, 0, STATIC
        ARGFRAME DOVERLAY, 0, STATIC
        REQUIRE ?V0
        REQUIRE ?V1
        MOV     A,#-0xa
        LCALL   ?BANKED_ENTER_XDATA
          CFI DPH0 load(1, XDATA, add(CFA_XSP16, literal(-1)))
          CFI DPL0 load(1, XDATA, add(CFA_XSP16, literal(-2)))
          CFI ?BRET_EXT load(1, XDATA, add(CFA_XSP16, literal(-3)))
          CFI ?RET_HIGH load(1, XDATA, add(CFA_XSP16, literal(-4)))
          CFI ?RET_LOW load(1, XDATA, add(CFA_XSP16, literal(-5)))
          CFI R7 load(1, XDATA, add(CFA_XSP16, literal(-6)))
          CFI V1 load(1, XDATA, add(CFA_XSP16, literal(-7)))
          CFI V0 load(1, XDATA, add(CFA_XSP16, literal(-8)))
          CFI VB load(1, XDATA, add(CFA_XSP16, literal(-9)))
          CFI R6 load(1, XDATA, add(CFA_XSP16, literal(-10)))
          CFI CFA_SP SP+0
          CFI CFA_XSP16 add(XSP16, 10)
        ; Saved register size: 10
        ; Auto size: 0
        LCALL   ?Subroutine5 & 0xFFFF
//  745 
//  746   // Create the list if empty
//  747   if ( *pHead == NULL )
??CrossCallReturnLabel_68:
        JNZ     ??gp_CreateNotificationMsgList_0
//  748   {
//  749     *pHead = ( gpNotificationMsg_t* )osal_mem_alloc( sizeof( gpNotificationMsg_t ) );
        ; Setup parameters for call to function osal_mem_alloc
        MOV     R2,#0x10
        MOV     R3,#0x0
        LCALL   `??osal_mem_alloc::?relay`; Banked call to: osal_mem_alloc
        LCALL   ?Subroutine20 & 0xFFFF
//  750     
//  751     if ( *pHead != NULL )
??CrossCallReturnLabel_61:
        MOV     A,R0
        ORL     A,R1
        JZ      ??gp_CreateNotificationMsgList_0
//  752     {
//  753       (*pHead)->pNext = NULL;
        LCALL   ?Subroutine21 & 0xFFFF
//  754     }
//  755   }
??CrossCallReturnLabel_17:
        CLR     A
        MOVX    @DPTR,A
        INC     DPTR
        MOVX    @DPTR,A
//  756   return;
??gp_CreateNotificationMsgList_0:
          CFI EndBlock cfiBlock91
        REQUIRE ?Subroutine3
        ; // Fall through to label ?Subroutine3
//  757 }

        RSEG BANKED_CODE:CODE:NOROOT(0)
?Subroutine3:
          CFI Block cfiBlock92 Using cfiCommon0
          CFI NoFunction
          CFI CFA_SP SP+0
          CFI CFA_XSP16 add(XSP16, 10)
          CFI VB load(1, XDATA, add(CFA_XSP16, literal(-9)))
          CFI DPL0 load(1, XDATA, add(CFA_XSP16, literal(-2)))
          CFI DPH0 load(1, XDATA, add(CFA_XSP16, literal(-1)))
          CFI R6 load(1, XDATA, add(CFA_XSP16, literal(-10)))
          CFI R7 load(1, XDATA, add(CFA_XSP16, literal(-6)))
          CFI V0 load(1, XDATA, add(CFA_XSP16, literal(-8)))
          CFI V1 load(1, XDATA, add(CFA_XSP16, literal(-7)))
          CFI ?BRET_EXT load(1, XDATA, add(CFA_XSP16, literal(-3)))
          CFI ?RET_HIGH load(1, XDATA, add(CFA_XSP16, literal(-4)))
          CFI ?RET_LOW load(1, XDATA, add(CFA_XSP16, literal(-5)))
        MOV     R7,#0x2
        LJMP    ?BANKED_LEAVE_XDATA
          CFI EndBlock cfiBlock92

        RSEG BANKED_CODE:CODE:NOROOT(0)
?Subroutine21:
          CFI Block cfiCond93 Using cfiCommon0
          CFI Function zclGp_ProcessInGreenPowerClient
          CFI Conditional ??CrossCallReturnLabel_16
          CFI R6 load(1, XDATA, add(CFA_XSP16, literal(-19)))
          CFI VB load(1, XDATA, add(CFA_XSP16, literal(-18)))
          CFI V0 load(1, XDATA, add(CFA_XSP16, literal(-17)))
          CFI V1 load(1, XDATA, add(CFA_XSP16, literal(-16)))
          CFI V2 load(1, XDATA, add(CFA_XSP16, literal(-15)))
          CFI V3 load(1, XDATA, add(CFA_XSP16, literal(-14)))
          CFI V4 load(1, XDATA, add(CFA_XSP16, literal(-13)))
          CFI V5 load(1, XDATA, add(CFA_XSP16, literal(-12)))
          CFI V6 load(1, XDATA, add(CFA_XSP16, literal(-11)))
          CFI V7 load(1, XDATA, add(CFA_XSP16, literal(-10)))
          CFI V8 load(1, XDATA, add(CFA_XSP16, literal(-9)))
          CFI V9 load(1, XDATA, add(CFA_XSP16, literal(-8)))
          CFI V10 load(1, XDATA, add(CFA_XSP16, literal(-7)))
          CFI R7 load(1, XDATA, add(CFA_XSP16, literal(-6)))
          CFI ?RET_LOW load(1, XDATA, add(CFA_XSP16, literal(-5)))
          CFI ?RET_HIGH load(1, XDATA, add(CFA_XSP16, literal(-4)))
          CFI ?BRET_EXT load(1, XDATA, add(CFA_XSP16, literal(-3)))
          CFI DPL0 load(1, XDATA, add(CFA_XSP16, literal(-2)))
          CFI DPH0 load(1, XDATA, add(CFA_XSP16, literal(-1)))
          CFI CFA_SP SP+-2
          CFI CFA_XSP16 add(XSP16, 39)
          CFI Block cfiCond94 Using cfiCommon0
          CFI (cfiCond94) Function gp_CreateNotificationMsgList
          CFI (cfiCond94) Conditional ??CrossCallReturnLabel_17
          CFI (cfiCond94) R6 load(1, XDATA, add(CFA_XSP16, literal(-10)))
          CFI (cfiCond94) VB load(1, XDATA, add(CFA_XSP16, literal(-9)))
          CFI (cfiCond94) V0 load(1, XDATA, add(CFA_XSP16, literal(-8)))
          CFI (cfiCond94) V1 load(1, XDATA, add(CFA_XSP16, literal(-7)))
          CFI (cfiCond94) R7 load(1, XDATA, add(CFA_XSP16, literal(-6)))
          CFI (cfiCond94) ?RET_LOW load(1, XDATA, add(CFA_XSP16, literal(-5)))
          CFI (cfiCond94) ?RET_HIGH load(1, XDATA, add(CFA_XSP16, literal(-4)))
          CFI (cfiCond94) ?BRET_EXT load(1, XDATA, add(CFA_XSP16, literal(-3)))
          CFI (cfiCond94) DPL0 load(1, XDATA, add(CFA_XSP16, literal(-2)))
          CFI (cfiCond94) DPH0 load(1, XDATA, add(CFA_XSP16, literal(-1)))
          CFI (cfiCond94) CFA_SP SP+-2
          CFI (cfiCond94) CFA_XSP16 add(XSP16, 10)
          CFI Block cfiPicker95 Using cfiCommon1
          CFI (cfiPicker95) NoFunction
          CFI (cfiPicker95) Picker
        MOV     A,R0
        ADD     A,#0xe
        MOV     DPL,A
        CLR     A
        ADDC    A,R1
        MOV     DPH,A
        RET
          CFI EndBlock cfiCond93
          CFI EndBlock cfiCond94
          CFI EndBlock cfiPicker95
//  758 
//  759 /*********************************************************************
//  760  * @fn      gp_CreateCmdPayloadMsgList
//  761  *
//  762  * @brief   Create Notification Msg List for paired sinks if empty
//  763  *
//  764  * @param   pHead - pointer to a pointer of the list head
//  765  *
//  766  * @return  none
//  767  */

        RSEG BANKED_CODE:CODE:NOROOT(0)
//  768 void gp_CreateCmdPayloadMsgList( gpCmdPayloadMsg_t **pHead )
gp_CreateCmdPayloadMsgList:
          CFI Block cfiBlock96 Using cfiCommon0
          CFI Function gp_CreateCmdPayloadMsgList
        CODE
//  769 {
        FUNCALL gp_CreateCmdPayloadMsgList, osal_mem_alloc
        LOCFRAME ISTACK, 0, STACK
        LOCFRAME PSTACK, 0, STACK
        LOCFRAME XSTACK, 10, STACK
        LOCFRAME IOVERLAY, 0, STATIC
        LOCFRAME DOVERLAY, 0, STATIC
        ARGFRAME ISTACK, 0, STACK
        ARGFRAME PSTACK, 0, STACK
        ARGFRAME XSTACK, 10, STACK
        ARGFRAME IOVERLAY, 0, STATIC
        ARGFRAME DOVERLAY, 0, STATIC
        REQUIRE ?V0
        REQUIRE ?V1
        MOV     A,#-0xa
        LCALL   ?BANKED_ENTER_XDATA
          CFI DPH0 load(1, XDATA, add(CFA_XSP16, literal(-1)))
          CFI DPL0 load(1, XDATA, add(CFA_XSP16, literal(-2)))
          CFI ?BRET_EXT load(1, XDATA, add(CFA_XSP16, literal(-3)))
          CFI ?RET_HIGH load(1, XDATA, add(CFA_XSP16, literal(-4)))
          CFI ?RET_LOW load(1, XDATA, add(CFA_XSP16, literal(-5)))
          CFI R7 load(1, XDATA, add(CFA_XSP16, literal(-6)))
          CFI V1 load(1, XDATA, add(CFA_XSP16, literal(-7)))
          CFI V0 load(1, XDATA, add(CFA_XSP16, literal(-8)))
          CFI VB load(1, XDATA, add(CFA_XSP16, literal(-9)))
          CFI R6 load(1, XDATA, add(CFA_XSP16, literal(-10)))
          CFI CFA_SP SP+0
          CFI CFA_XSP16 add(XSP16, 10)
        ; Saved register size: 10
        ; Auto size: 0
        LCALL   ?Subroutine5 & 0xFFFF
//  770 
//  771   // Create the list if empty
//  772   if ( *pHead == NULL )
??CrossCallReturnLabel_69:
        JNZ     ??gp_CreateCmdPayloadMsgList_0
//  773   {
//  774     *pHead = ( gpCmdPayloadMsg_t* )osal_mem_alloc( sizeof( gpCmdPayloadMsg_t ) );
        ; Setup parameters for call to function osal_mem_alloc
        MOV     R2,#0x5
        MOV     R3,#0x0
        LCALL   `??osal_mem_alloc::?relay`; Banked call to: osal_mem_alloc
        LCALL   ?Subroutine20 & 0xFFFF
//  775     ( ( gpCmdPayloadMsg_t* )*pHead )->pMsg = NULL;
??CrossCallReturnLabel_62:
        MOV     DPL,R0
        MOV     DPH,R1
        INC     DPTR
        CLR     A
        MOVX    @DPTR,A
        INC     DPTR
        MOVX    @DPTR,A
//  776     
//  777     if ( *pHead != NULL )
        MOV     A,R0
        ORL     A,R1
        JZ      ??gp_CreateCmdPayloadMsgList_0
//  778     {
//  779       (*pHead)->pNext = NULL;
        MOV     DPL,R0
        MOV     DPH,R1
        INC     DPTR
        INC     DPTR
        INC     DPTR
        CLR     A
        MOVX    @DPTR,A
        INC     DPTR
        MOVX    @DPTR,A
//  780     }
//  781   }
//  782   return;
??gp_CreateCmdPayloadMsgList_0:
        SJMP    ?Subroutine3
//  783 }
          CFI EndBlock cfiBlock96
//  784 
//  785 /*********************************************************************
//  786  * @fn      gp_AddNotificationMsgNode
//  787  *
//  788  * @brief   Add node to Notification Msg list
//  789  *
//  790  * @param   pHead - pointer to a pointer of the list head
//  791  *
//  792  * @return  pointer to new node
//  793  */

        RSEG BANKED_CODE:CODE:NOROOT(0)
//  794 gpNotificationMsg_t* gp_AddNotificationMsgNode( gpNotificationMsg_t **pHead, gpCmdPayloadMsg_t *pMsg )
gp_AddNotificationMsgNode:
          CFI Block cfiBlock97 Using cfiCommon0
          CFI Function gp_AddNotificationMsgNode
        CODE
//  795 {
        FUNCALL gp_AddNotificationMsgNode, gp_CreateNotificationMsgList
        LOCFRAME ISTACK, 0, STACK
        LOCFRAME PSTACK, 0, STACK
        LOCFRAME XSTACK, 12, STACK
        LOCFRAME IOVERLAY, 0, STATIC
        LOCFRAME DOVERLAY, 0, STATIC
        ARGFRAME ISTACK, 0, STACK
        ARGFRAME PSTACK, 0, STACK
        ARGFRAME XSTACK, 12, STACK
        ARGFRAME IOVERLAY, 0, STATIC
        ARGFRAME DOVERLAY, 0, STATIC
        FUNCALL gp_AddNotificationMsgNode, osal_mem_alloc
        LOCFRAME ISTACK, 0, STACK
        LOCFRAME PSTACK, 0, STACK
        LOCFRAME XSTACK, 12, STACK
        LOCFRAME IOVERLAY, 0, STATIC
        LOCFRAME DOVERLAY, 0, STATIC
        ARGFRAME ISTACK, 0, STACK
        ARGFRAME PSTACK, 0, STACK
        ARGFRAME XSTACK, 12, STACK
        ARGFRAME IOVERLAY, 0, STATIC
        ARGFRAME DOVERLAY, 0, STATIC
        REQUIRE ?V0
        REQUIRE ?V1
        REQUIRE ?V2
        REQUIRE ?V3
        MOV     A,#-0xc
        LCALL   ?BANKED_ENTER_XDATA
          CFI DPH0 load(1, XDATA, add(CFA_XSP16, literal(-1)))
          CFI DPL0 load(1, XDATA, add(CFA_XSP16, literal(-2)))
          CFI ?BRET_EXT load(1, XDATA, add(CFA_XSP16, literal(-3)))
          CFI ?RET_HIGH load(1, XDATA, add(CFA_XSP16, literal(-4)))
          CFI ?RET_LOW load(1, XDATA, add(CFA_XSP16, literal(-5)))
          CFI R7 load(1, XDATA, add(CFA_XSP16, literal(-6)))
          CFI V3 load(1, XDATA, add(CFA_XSP16, literal(-7)))
          CFI V2 load(1, XDATA, add(CFA_XSP16, literal(-8)))
          CFI V1 load(1, XDATA, add(CFA_XSP16, literal(-9)))
          CFI V0 load(1, XDATA, add(CFA_XSP16, literal(-10)))
          CFI VB load(1, XDATA, add(CFA_XSP16, literal(-11)))
          CFI R6 load(1, XDATA, add(CFA_XSP16, literal(-12)))
          CFI CFA_SP SP+0
          CFI CFA_XSP16 add(XSP16, 12)
        ; Saved register size: 12
        ; Auto size: 0
        MOV     A,R2
        MOV     R6,A
        MOV     A,R3
        MOV     R7,A
        MOV     ?V0,R4
        MOV     ?V1,R5
//  796   gpNotificationMsg_t **pCurr;
//  797   
//  798     // Create respondent list if empty
//  799   if ( *pHead == NULL )
        LCALL   ??Subroutine38_0 & 0xFFFF
??CrossCallReturnLabel_80:
        JNZ     ??gp_AddNotificationMsgNode_0
//  800   {
//  801     gp_CreateNotificationMsgList( pHead );
        ; Setup parameters for call to function gp_CreateNotificationMsgList
        LCALL   `??gp_CreateNotificationMsgList::?relay`; Banked call to: gp_CreateNotificationMsgList
//  802     ( ( gpNotificationMsg_t* ) *pHead )->pMsg = ( uint8* )pMsg;
        SJMP    ??gp_AddNotificationMsgNode_1
//  803     return *pHead;
//  804   }
//  805   
//  806   pCurr = &((*pHead)->pNext);
??gp_AddNotificationMsgNode_0:
        MOV     A,R0
        ADD     A,#0xe
        MOV     R6,A
        CLR     A
        ADDC    A,R1
        SJMP    ??gp_AddNotificationMsgNode_2
//  807   
//  808   while ( *pCurr != NULL )
//  809   {
//  810     pCurr = &((*pCurr)->pNext);
??gp_AddNotificationMsgNode_3:
        MOV     A,R0
        ADD     A,#0xe
        JNC     ??gp_AddNotificationMsgNode_4
        INC     R1
??gp_AddNotificationMsgNode_4:
        MOV     R6,A
        MOV     A,R1
//  811   }
??gp_AddNotificationMsgNode_2:
        LCALL   ??Subroutine37_0 & 0xFFFF
??CrossCallReturnLabel_71:
        JNZ     ??gp_AddNotificationMsgNode_3
//  812 
//  813   *pCurr = ( gpNotificationMsg_t* )osal_mem_alloc( sizeof( gpNotificationMsg_t ) );
        ; Setup parameters for call to function osal_mem_alloc
        MOV     R2,#0x10
        MOV     R3,#0x0
        LCALL   `??osal_mem_alloc::?relay`; Banked call to: osal_mem_alloc
        MOV     ?V2,R2
        MOV     ?V3,R3
        MOV     R0,?V2
        MOV     R1,?V3
        LCALL   ??Subroutine34_0 & 0xFFFF
//  814     
//  815   if ( (*pCurr)->pNext != NULL )
??CrossCallReturnLabel_58:
        MOV     A,R0
        ADD     A,#0xe
        MOV     R0,A
        JNC     ??gp_AddNotificationMsgNode_5
        INC     R1
??gp_AddNotificationMsgNode_5:
        LCALL   ?Subroutine9 & 0xFFFF
??CrossCallReturnLabel_66:
        JZ      ??gp_AddNotificationMsgNode_1
//  816   {
//  817     (*pCurr)->pNext = NULL;
        MOV     DPL,R0
        MOV     DPH,R1
        CLR     A
        MOVX    @DPTR,A
        INC     DPTR
        MOVX    @DPTR,A
//  818   }
//  819   ( ( gpNotificationMsg_t* ) *pCurr )->pMsg = ( uint8* )pMsg;
??gp_AddNotificationMsgNode_1:
        LCALL   ?Subroutine13 & 0xFFFF
??CrossCallReturnLabel_98:
        MOV     A,R2
        ADD     A,#0xc
        MOV     DPL,A
        CLR     A
        ADDC    A,R3
        MOV     DPH,A
        MOV     A,?V0
        MOVX    @DPTR,A
        INC     DPTR
        MOV     A,?V1
        MOVX    @DPTR,A
//  820   return *pCurr;
        LJMP    ?Subroutine0 & 0xFFFF
//  821 }
          CFI EndBlock cfiBlock97

        RSEG BANKED_CODE:CODE:NOROOT(0)
?Subroutine20:
          CFI Block cfiCond98 Using cfiCommon0
          CFI Function gp_CreateNotificationMsgList
          CFI Conditional ??CrossCallReturnLabel_61
          CFI R6 load(1, XDATA, add(CFA_XSP16, literal(-10)))
          CFI VB load(1, XDATA, add(CFA_XSP16, literal(-9)))
          CFI V0 load(1, XDATA, add(CFA_XSP16, literal(-8)))
          CFI V1 load(1, XDATA, add(CFA_XSP16, literal(-7)))
          CFI R7 load(1, XDATA, add(CFA_XSP16, literal(-6)))
          CFI ?RET_LOW load(1, XDATA, add(CFA_XSP16, literal(-5)))
          CFI ?RET_HIGH load(1, XDATA, add(CFA_XSP16, literal(-4)))
          CFI ?BRET_EXT load(1, XDATA, add(CFA_XSP16, literal(-3)))
          CFI DPL0 load(1, XDATA, add(CFA_XSP16, literal(-2)))
          CFI DPH0 load(1, XDATA, add(CFA_XSP16, literal(-1)))
          CFI CFA_SP SP+-2
          CFI CFA_XSP16 add(XSP16, 10)
          CFI Block cfiCond99 Using cfiCommon0
          CFI (cfiCond99) Function gp_CreateCmdPayloadMsgList
          CFI (cfiCond99) Conditional ??CrossCallReturnLabel_62
          CFI (cfiCond99) R6 load(1, XDATA, add(CFA_XSP16, literal(-10)))
          CFI (cfiCond99) VB load(1, XDATA, add(CFA_XSP16, literal(-9)))
          CFI (cfiCond99) V0 load(1, XDATA, add(CFA_XSP16, literal(-8)))
          CFI (cfiCond99) V1 load(1, XDATA, add(CFA_XSP16, literal(-7)))
          CFI (cfiCond99) R7 load(1, XDATA, add(CFA_XSP16, literal(-6)))
          CFI (cfiCond99) ?RET_LOW load(1, XDATA, add(CFA_XSP16, literal(-5)))
          CFI (cfiCond99) ?RET_HIGH load(1, XDATA, add(CFA_XSP16, literal(-4)))
          CFI (cfiCond99) ?BRET_EXT load(1, XDATA, add(CFA_XSP16, literal(-3)))
          CFI (cfiCond99) DPL0 load(1, XDATA, add(CFA_XSP16, literal(-2)))
          CFI (cfiCond99) DPH0 load(1, XDATA, add(CFA_XSP16, literal(-1)))
          CFI (cfiCond99) CFA_SP SP+-2
          CFI (cfiCond99) CFA_XSP16 add(XSP16, 10)
          CFI Block cfiPicker100 Using cfiCommon1
          CFI (cfiPicker100) NoFunction
          CFI (cfiPicker100) Picker
        MOV     ?V0,R2
        MOV     ?V1,R3
        MOV     R0,?V0
        MOV     R1,?V1
          CFI EndBlock cfiCond98
          CFI EndBlock cfiCond99
          CFI EndBlock cfiPicker100
        REQUIRE ??Subroutine34_0
        ; // Fall through to label ??Subroutine34_0

        RSEG BANKED_CODE:CODE:NOROOT(0)
??Subroutine34_0:
          CFI Block cfiCond101 Using cfiCommon0
          CFI Function gp_AddNotificationMsgNode
          CFI Conditional ??CrossCallReturnLabel_58
          CFI R6 load(1, XDATA, add(CFA_XSP16, literal(-12)))
          CFI VB load(1, XDATA, add(CFA_XSP16, literal(-11)))
          CFI V0 load(1, XDATA, add(CFA_XSP16, literal(-10)))
          CFI V1 load(1, XDATA, add(CFA_XSP16, literal(-9)))
          CFI V2 load(1, XDATA, add(CFA_XSP16, literal(-8)))
          CFI V3 load(1, XDATA, add(CFA_XSP16, literal(-7)))
          CFI R7 load(1, XDATA, add(CFA_XSP16, literal(-6)))
          CFI ?RET_LOW load(1, XDATA, add(CFA_XSP16, literal(-5)))
          CFI ?RET_HIGH load(1, XDATA, add(CFA_XSP16, literal(-4)))
          CFI ?BRET_EXT load(1, XDATA, add(CFA_XSP16, literal(-3)))
          CFI DPL0 load(1, XDATA, add(CFA_XSP16, literal(-2)))
          CFI DPH0 load(1, XDATA, add(CFA_XSP16, literal(-1)))
          CFI CFA_SP SP+-2
          CFI CFA_XSP16 add(XSP16, 12)
          CFI Block cfiCond102 Using cfiCommon0
          CFI (cfiCond102) Function gp_AddCmdPayloadMsgNode
          CFI (cfiCond102) Conditional ??CrossCallReturnLabel_59
          CFI (cfiCond102) R6 load(1, XDATA, add(CFA_XSP16, literal(-14)))
          CFI (cfiCond102) VB load(1, XDATA, add(CFA_XSP16, literal(-13)))
          CFI (cfiCond102) V0 load(1, XDATA, add(CFA_XSP16, literal(-12)))
          CFI (cfiCond102) V1 load(1, XDATA, add(CFA_XSP16, literal(-11)))
          CFI (cfiCond102) V2 load(1, XDATA, add(CFA_XSP16, literal(-10)))
          CFI (cfiCond102) V3 load(1, XDATA, add(CFA_XSP16, literal(-9)))
          CFI (cfiCond102) V4 load(1, XDATA, add(CFA_XSP16, literal(-8)))
          CFI (cfiCond102) V5 load(1, XDATA, add(CFA_XSP16, literal(-7)))
          CFI (cfiCond102) R7 load(1, XDATA, add(CFA_XSP16, literal(-6)))
          CFI (cfiCond102) ?RET_LOW load(1, XDATA, add(CFA_XSP16, literal(-5)))
          CFI (cfiCond102) ?RET_HIGH load(1, XDATA, add(CFA_XSP16, literal(-4)))
          CFI (cfiCond102) ?BRET_EXT load(1, XDATA, add(CFA_XSP16, literal(-3)))
          CFI (cfiCond102) DPL0 load(1, XDATA, add(CFA_XSP16, literal(-2)))
          CFI (cfiCond102) DPH0 load(1, XDATA, add(CFA_XSP16, literal(-1)))
          CFI (cfiCond102) CFA_SP SP+-2
          CFI (cfiCond102) CFA_XSP16 add(XSP16, 14)
          CFI Block cfiCond103 Using cfiCommon0
          CFI (cfiCond103) Function gp_NotificationMsgClean
          CFI (cfiCond103) Conditional ??CrossCallReturnLabel_60
          CFI (cfiCond103) R6 load(1, XDATA, add(CFA_XSP16, literal(-12)))
          CFI (cfiCond103) VB load(1, XDATA, add(CFA_XSP16, literal(-11)))
          CFI (cfiCond103) V0 load(1, XDATA, add(CFA_XSP16, literal(-10)))
          CFI (cfiCond103) V1 load(1, XDATA, add(CFA_XSP16, literal(-9)))
          CFI (cfiCond103) V2 load(1, XDATA, add(CFA_XSP16, literal(-8)))
          CFI (cfiCond103) V3 load(1, XDATA, add(CFA_XSP16, literal(-7)))
          CFI (cfiCond103) R7 load(1, XDATA, add(CFA_XSP16, literal(-6)))
          CFI (cfiCond103) ?RET_LOW load(1, XDATA, add(CFA_XSP16, literal(-5)))
          CFI (cfiCond103) ?RET_HIGH load(1, XDATA, add(CFA_XSP16, literal(-4)))
          CFI (cfiCond103) ?BRET_EXT load(1, XDATA, add(CFA_XSP16, literal(-3)))
          CFI (cfiCond103) DPL0 load(1, XDATA, add(CFA_XSP16, literal(-2)))
          CFI (cfiCond103) DPH0 load(1, XDATA, add(CFA_XSP16, literal(-1)))
          CFI (cfiCond103) CFA_SP SP+-2
          CFI (cfiCond103) CFA_XSP16 add(XSP16, 12)
          CFI Block cfiCond104 Using cfiCommon0
          CFI (cfiCond104) Function gp_CreateNotificationMsgList
          CFI (cfiCond104) Conditional ??CrossCallReturnLabel_61
          CFI (cfiCond104) R6 load(1, XDATA, add(CFA_XSP16, literal(-10)))
          CFI (cfiCond104) VB load(1, XDATA, add(CFA_XSP16, literal(-9)))
          CFI (cfiCond104) V0 load(1, XDATA, add(CFA_XSP16, literal(-8)))
          CFI (cfiCond104) V1 load(1, XDATA, add(CFA_XSP16, literal(-7)))
          CFI (cfiCond104) R7 load(1, XDATA, add(CFA_XSP16, literal(-6)))
          CFI (cfiCond104) ?RET_LOW load(1, XDATA, add(CFA_XSP16, literal(-5)))
          CFI (cfiCond104) ?RET_HIGH load(1, XDATA, add(CFA_XSP16, literal(-4)))
          CFI (cfiCond104) ?BRET_EXT load(1, XDATA, add(CFA_XSP16, literal(-3)))
          CFI (cfiCond104) DPL0 load(1, XDATA, add(CFA_XSP16, literal(-2)))
          CFI (cfiCond104) DPH0 load(1, XDATA, add(CFA_XSP16, literal(-1)))
          CFI (cfiCond104) CFA_SP SP+-2
          CFI (cfiCond104) CFA_XSP16 add(XSP16, 10)
          CFI Block cfiCond105 Using cfiCommon0
          CFI (cfiCond105) Function gp_CreateCmdPayloadMsgList
          CFI (cfiCond105) Conditional ??CrossCallReturnLabel_62
          CFI (cfiCond105) R6 load(1, XDATA, add(CFA_XSP16, literal(-10)))
          CFI (cfiCond105) VB load(1, XDATA, add(CFA_XSP16, literal(-9)))
          CFI (cfiCond105) V0 load(1, XDATA, add(CFA_XSP16, literal(-8)))
          CFI (cfiCond105) V1 load(1, XDATA, add(CFA_XSP16, literal(-7)))
          CFI (cfiCond105) R7 load(1, XDATA, add(CFA_XSP16, literal(-6)))
          CFI (cfiCond105) ?RET_LOW load(1, XDATA, add(CFA_XSP16, literal(-5)))
          CFI (cfiCond105) ?RET_HIGH load(1, XDATA, add(CFA_XSP16, literal(-4)))
          CFI (cfiCond105) ?BRET_EXT load(1, XDATA, add(CFA_XSP16, literal(-3)))
          CFI (cfiCond105) DPL0 load(1, XDATA, add(CFA_XSP16, literal(-2)))
          CFI (cfiCond105) DPH0 load(1, XDATA, add(CFA_XSP16, literal(-1)))
          CFI (cfiCond105) CFA_SP SP+-2
          CFI (cfiCond105) CFA_XSP16 add(XSP16, 10)
          CFI Block cfiPicker106 Using cfiCommon1
          CFI (cfiPicker106) NoFunction
          CFI (cfiPicker106) Picker
        MOV     DPL,R6
        MOV     DPH,R7
          CFI EndBlock cfiCond101
          CFI EndBlock cfiCond102
          CFI EndBlock cfiCond103
          CFI EndBlock cfiCond104
          CFI EndBlock cfiCond105
          CFI EndBlock cfiPicker106
        REQUIRE ??Subroutine35_0
        ; // Fall through to label ??Subroutine35_0

        RSEG BANKED_CODE:CODE:NOROOT(0)
??Subroutine35_0:
          CFI Block cfiCond107 Using cfiCommon0
          CFI Function zclGp_RegisterCmdCallbacks
          CFI Conditional ??CrossCallReturnLabel_51
          CFI R6 load(1, XDATA, add(CFA_XSP16, literal(-12)))
          CFI VB load(1, XDATA, add(CFA_XSP16, literal(-11)))
          CFI V0 load(1, XDATA, add(CFA_XSP16, literal(-10)))
          CFI V1 load(1, XDATA, add(CFA_XSP16, literal(-9)))
          CFI V2 load(1, XDATA, add(CFA_XSP16, literal(-8)))
          CFI V3 load(1, XDATA, add(CFA_XSP16, literal(-7)))
          CFI R7 load(1, XDATA, add(CFA_XSP16, literal(-6)))
          CFI ?RET_LOW load(1, XDATA, add(CFA_XSP16, literal(-5)))
          CFI ?RET_HIGH load(1, XDATA, add(CFA_XSP16, literal(-4)))
          CFI ?BRET_EXT load(1, XDATA, add(CFA_XSP16, literal(-3)))
          CFI DPL0 load(1, XDATA, add(CFA_XSP16, literal(-2)))
          CFI DPH0 load(1, XDATA, add(CFA_XSP16, literal(-1)))
          CFI CFA_SP SP+-2
          CFI CFA_XSP16 add(XSP16, 12)
          CFI Block cfiCond108 Using cfiCommon0
          CFI (cfiCond108) Function zclGp_ProcessInGreenPowerClient
          CFI (cfiCond108) Conditional ??CrossCallReturnLabel_52
          CFI (cfiCond108) R6 load(1, XDATA, add(CFA_XSP16, literal(-19)))
          CFI (cfiCond108) VB load(1, XDATA, add(CFA_XSP16, literal(-18)))
          CFI (cfiCond108) V0 load(1, XDATA, add(CFA_XSP16, literal(-17)))
          CFI (cfiCond108) V1 load(1, XDATA, add(CFA_XSP16, literal(-16)))
          CFI (cfiCond108) V2 load(1, XDATA, add(CFA_XSP16, literal(-15)))
          CFI (cfiCond108) V3 load(1, XDATA, add(CFA_XSP16, literal(-14)))
          CFI (cfiCond108) V4 load(1, XDATA, add(CFA_XSP16, literal(-13)))
          CFI (cfiCond108) V5 load(1, XDATA, add(CFA_XSP16, literal(-12)))
          CFI (cfiCond108) V6 load(1, XDATA, add(CFA_XSP16, literal(-11)))
          CFI (cfiCond108) V7 load(1, XDATA, add(CFA_XSP16, literal(-10)))
          CFI (cfiCond108) V8 load(1, XDATA, add(CFA_XSP16, literal(-9)))
          CFI (cfiCond108) V9 load(1, XDATA, add(CFA_XSP16, literal(-8)))
          CFI (cfiCond108) V10 load(1, XDATA, add(CFA_XSP16, literal(-7)))
          CFI (cfiCond108) R7 load(1, XDATA, add(CFA_XSP16, literal(-6)))
          CFI (cfiCond108) ?RET_LOW load(1, XDATA, add(CFA_XSP16, literal(-5)))
          CFI (cfiCond108) ?RET_HIGH load(1, XDATA, add(CFA_XSP16, literal(-4)))
          CFI (cfiCond108) ?BRET_EXT load(1, XDATA, add(CFA_XSP16, literal(-3)))
          CFI (cfiCond108) DPL0 load(1, XDATA, add(CFA_XSP16, literal(-2)))
          CFI (cfiCond108) DPH0 load(1, XDATA, add(CFA_XSP16, literal(-1)))
          CFI (cfiCond108) CFA_SP SP+-2
          CFI (cfiCond108) CFA_XSP16 add(XSP16, 39)
          CFI Block cfiCond109 Using cfiCommon0
          CFI (cfiCond109) Function zclGp_ProcessInGreenPowerClient
          CFI (cfiCond109) Conditional ??CrossCallReturnLabel_53
          CFI (cfiCond109) R6 load(1, XDATA, add(CFA_XSP16, literal(-19)))
          CFI (cfiCond109) VB load(1, XDATA, add(CFA_XSP16, literal(-18)))
          CFI (cfiCond109) V0 load(1, XDATA, add(CFA_XSP16, literal(-17)))
          CFI (cfiCond109) V1 load(1, XDATA, add(CFA_XSP16, literal(-16)))
          CFI (cfiCond109) V2 load(1, XDATA, add(CFA_XSP16, literal(-15)))
          CFI (cfiCond109) V3 load(1, XDATA, add(CFA_XSP16, literal(-14)))
          CFI (cfiCond109) V4 load(1, XDATA, add(CFA_XSP16, literal(-13)))
          CFI (cfiCond109) V5 load(1, XDATA, add(CFA_XSP16, literal(-12)))
          CFI (cfiCond109) V6 load(1, XDATA, add(CFA_XSP16, literal(-11)))
          CFI (cfiCond109) V7 load(1, XDATA, add(CFA_XSP16, literal(-10)))
          CFI (cfiCond109) V8 load(1, XDATA, add(CFA_XSP16, literal(-9)))
          CFI (cfiCond109) V9 load(1, XDATA, add(CFA_XSP16, literal(-8)))
          CFI (cfiCond109) V10 load(1, XDATA, add(CFA_XSP16, literal(-7)))
          CFI (cfiCond109) R7 load(1, XDATA, add(CFA_XSP16, literal(-6)))
          CFI (cfiCond109) ?RET_LOW load(1, XDATA, add(CFA_XSP16, literal(-5)))
          CFI (cfiCond109) ?RET_HIGH load(1, XDATA, add(CFA_XSP16, literal(-4)))
          CFI (cfiCond109) ?BRET_EXT load(1, XDATA, add(CFA_XSP16, literal(-3)))
          CFI (cfiCond109) DPL0 load(1, XDATA, add(CFA_XSP16, literal(-2)))
          CFI (cfiCond109) DPH0 load(1, XDATA, add(CFA_XSP16, literal(-1)))
          CFI (cfiCond109) CFA_SP SP+-2
          CFI (cfiCond109) CFA_XSP16 add(XSP16, 39)
          CFI Block cfiCond110 Using cfiCommon0
          CFI (cfiCond110) Function zclGp_ProcessInGreenPowerClient
          CFI (cfiCond110) Conditional ??CrossCallReturnLabel_54
          CFI (cfiCond110) R6 load(1, XDATA, add(CFA_XSP16, literal(-19)))
          CFI (cfiCond110) VB load(1, XDATA, add(CFA_XSP16, literal(-18)))
          CFI (cfiCond110) V0 load(1, XDATA, add(CFA_XSP16, literal(-17)))
          CFI (cfiCond110) V1 load(1, XDATA, add(CFA_XSP16, literal(-16)))
          CFI (cfiCond110) V2 load(1, XDATA, add(CFA_XSP16, literal(-15)))
          CFI (cfiCond110) V3 load(1, XDATA, add(CFA_XSP16, literal(-14)))
          CFI (cfiCond110) V4 load(1, XDATA, add(CFA_XSP16, literal(-13)))
          CFI (cfiCond110) V5 load(1, XDATA, add(CFA_XSP16, literal(-12)))
          CFI (cfiCond110) V6 load(1, XDATA, add(CFA_XSP16, literal(-11)))
          CFI (cfiCond110) V7 load(1, XDATA, add(CFA_XSP16, literal(-10)))
          CFI (cfiCond110) V8 load(1, XDATA, add(CFA_XSP16, literal(-9)))
          CFI (cfiCond110) V9 load(1, XDATA, add(CFA_XSP16, literal(-8)))
          CFI (cfiCond110) V10 load(1, XDATA, add(CFA_XSP16, literal(-7)))
          CFI (cfiCond110) R7 load(1, XDATA, add(CFA_XSP16, literal(-6)))
          CFI (cfiCond110) ?RET_LOW load(1, XDATA, add(CFA_XSP16, literal(-5)))
          CFI (cfiCond110) ?RET_HIGH load(1, XDATA, add(CFA_XSP16, literal(-4)))
          CFI (cfiCond110) ?BRET_EXT load(1, XDATA, add(CFA_XSP16, literal(-3)))
          CFI (cfiCond110) DPL0 load(1, XDATA, add(CFA_XSP16, literal(-2)))
          CFI (cfiCond110) DPH0 load(1, XDATA, add(CFA_XSP16, literal(-1)))
          CFI (cfiCond110) CFA_SP SP+-2
          CFI (cfiCond110) CFA_XSP16 add(XSP16, 39)
          CFI Block cfiCond111 Using cfiCommon0
          CFI (cfiCond111) Function zclGp_SendGpCommissioningNotificationCommand
          CFI (cfiCond111) Conditional ??CrossCallReturnLabel_55
          CFI (cfiCond111) R6 load(1, XDATA, add(CFA_XSP16, literal(-20)))
          CFI (cfiCond111) VB load(1, XDATA, add(CFA_XSP16, literal(-19)))
          CFI (cfiCond111) V0 load(1, XDATA, add(CFA_XSP16, literal(-18)))
          CFI (cfiCond111) V1 load(1, XDATA, add(CFA_XSP16, literal(-17)))
          CFI (cfiCond111) V2 load(1, XDATA, add(CFA_XSP16, literal(-16)))
          CFI (cfiCond111) V3 load(1, XDATA, add(CFA_XSP16, literal(-15)))
          CFI (cfiCond111) V4 load(1, XDATA, add(CFA_XSP16, literal(-14)))
          CFI (cfiCond111) V5 load(1, XDATA, add(CFA_XSP16, literal(-13)))
          CFI (cfiCond111) V6 load(1, XDATA, add(CFA_XSP16, literal(-12)))
          CFI (cfiCond111) V7 load(1, XDATA, add(CFA_XSP16, literal(-11)))
          CFI (cfiCond111) V8 load(1, XDATA, add(CFA_XSP16, literal(-10)))
          CFI (cfiCond111) V9 load(1, XDATA, add(CFA_XSP16, literal(-9)))
          CFI (cfiCond111) V10 load(1, XDATA, add(CFA_XSP16, literal(-8)))
          CFI (cfiCond111) V11 load(1, XDATA, add(CFA_XSP16, literal(-7)))
          CFI (cfiCond111) R7 load(1, XDATA, add(CFA_XSP16, literal(-6)))
          CFI (cfiCond111) ?RET_LOW load(1, XDATA, add(CFA_XSP16, literal(-5)))
          CFI (cfiCond111) ?RET_HIGH load(1, XDATA, add(CFA_XSP16, literal(-4)))
          CFI (cfiCond111) ?BRET_EXT load(1, XDATA, add(CFA_XSP16, literal(-3)))
          CFI (cfiCond111) DPL0 load(1, XDATA, add(CFA_XSP16, literal(-2)))
          CFI (cfiCond111) DPH0 load(1, XDATA, add(CFA_XSP16, literal(-1)))
          CFI (cfiCond111) CFA_SP SP+-2
          CFI (cfiCond111) CFA_XSP16 add(XSP16, 32)
          CFI Block cfiCond112 Using cfiCommon0
          CFI (cfiCond112) Function zclGp_SendGpCommissioningNotificationCommand
          CFI (cfiCond112) Conditional ??CrossCallReturnLabel_56
          CFI (cfiCond112) R6 load(1, XDATA, add(CFA_XSP16, literal(-20)))
          CFI (cfiCond112) VB load(1, XDATA, add(CFA_XSP16, literal(-19)))
          CFI (cfiCond112) V0 load(1, XDATA, add(CFA_XSP16, literal(-18)))
          CFI (cfiCond112) V1 load(1, XDATA, add(CFA_XSP16, literal(-17)))
          CFI (cfiCond112) V2 load(1, XDATA, add(CFA_XSP16, literal(-16)))
          CFI (cfiCond112) V3 load(1, XDATA, add(CFA_XSP16, literal(-15)))
          CFI (cfiCond112) V4 load(1, XDATA, add(CFA_XSP16, literal(-14)))
          CFI (cfiCond112) V5 load(1, XDATA, add(CFA_XSP16, literal(-13)))
          CFI (cfiCond112) V6 load(1, XDATA, add(CFA_XSP16, literal(-12)))
          CFI (cfiCond112) V7 load(1, XDATA, add(CFA_XSP16, literal(-11)))
          CFI (cfiCond112) V8 load(1, XDATA, add(CFA_XSP16, literal(-10)))
          CFI (cfiCond112) V9 load(1, XDATA, add(CFA_XSP16, literal(-9)))
          CFI (cfiCond112) V10 load(1, XDATA, add(CFA_XSP16, literal(-8)))
          CFI (cfiCond112) V11 load(1, XDATA, add(CFA_XSP16, literal(-7)))
          CFI (cfiCond112) R7 load(1, XDATA, add(CFA_XSP16, literal(-6)))
          CFI (cfiCond112) ?RET_LOW load(1, XDATA, add(CFA_XSP16, literal(-5)))
          CFI (cfiCond112) ?RET_HIGH load(1, XDATA, add(CFA_XSP16, literal(-4)))
          CFI (cfiCond112) ?BRET_EXT load(1, XDATA, add(CFA_XSP16, literal(-3)))
          CFI (cfiCond112) DPL0 load(1, XDATA, add(CFA_XSP16, literal(-2)))
          CFI (cfiCond112) DPH0 load(1, XDATA, add(CFA_XSP16, literal(-1)))
          CFI (cfiCond112) CFA_SP SP+-2
          CFI (cfiCond112) CFA_XSP16 add(XSP16, 32)
          CFI Block cfiCond113 Using cfiCommon0
          CFI (cfiCond113) Function gp_addPairedSinksToMsgQueue
          CFI (cfiCond113) Conditional ??CrossCallReturnLabel_57
          CFI (cfiCond113) R6 load(1, XDATA, add(CFA_XSP16, literal(-22)))
          CFI (cfiCond113) VB load(1, XDATA, add(CFA_XSP16, literal(-21)))
          CFI (cfiCond113) V0 load(1, XDATA, add(CFA_XSP16, literal(-20)))
          CFI (cfiCond113) V1 load(1, XDATA, add(CFA_XSP16, literal(-19)))
          CFI (cfiCond113) V2 load(1, XDATA, add(CFA_XSP16, literal(-18)))
          CFI (cfiCond113) V3 load(1, XDATA, add(CFA_XSP16, literal(-17)))
          CFI (cfiCond113) V4 load(1, XDATA, add(CFA_XSP16, literal(-16)))
          CFI (cfiCond113) V5 load(1, XDATA, add(CFA_XSP16, literal(-15)))
          CFI (cfiCond113) V6 load(1, XDATA, add(CFA_XSP16, literal(-14)))
          CFI (cfiCond113) V7 load(1, XDATA, add(CFA_XSP16, literal(-13)))
          CFI (cfiCond113) V8 load(1, XDATA, add(CFA_XSP16, literal(-12)))
          CFI (cfiCond113) V9 load(1, XDATA, add(CFA_XSP16, literal(-11)))
          CFI (cfiCond113) V10 load(1, XDATA, add(CFA_XSP16, literal(-10)))
          CFI (cfiCond113) V11 load(1, XDATA, add(CFA_XSP16, literal(-9)))
          CFI (cfiCond113) V12 load(1, XDATA, add(CFA_XSP16, literal(-8)))
          CFI (cfiCond113) V13 load(1, XDATA, add(CFA_XSP16, literal(-7)))
          CFI (cfiCond113) R7 load(1, XDATA, add(CFA_XSP16, literal(-6)))
          CFI (cfiCond113) ?RET_LOW load(1, XDATA, add(CFA_XSP16, literal(-5)))
          CFI (cfiCond113) ?RET_HIGH load(1, XDATA, add(CFA_XSP16, literal(-4)))
          CFI (cfiCond113) ?BRET_EXT load(1, XDATA, add(CFA_XSP16, literal(-3)))
          CFI (cfiCond113) DPL0 load(1, XDATA, add(CFA_XSP16, literal(-2)))
          CFI (cfiCond113) DPH0 load(1, XDATA, add(CFA_XSP16, literal(-1)))
          CFI (cfiCond113) CFA_SP SP+-2
          CFI (cfiCond113) CFA_XSP16 add(XSP16, 108)
          CFI Block cfiCond114 Using cfiCommon0
          CFI (cfiCond114) Function gp_AddNotificationMsgNode
          CFI (cfiCond114) Conditional ??CrossCallReturnLabel_58
          CFI (cfiCond114) R6 load(1, XDATA, add(CFA_XSP16, literal(-12)))
          CFI (cfiCond114) VB load(1, XDATA, add(CFA_XSP16, literal(-11)))
          CFI (cfiCond114) V0 load(1, XDATA, add(CFA_XSP16, literal(-10)))
          CFI (cfiCond114) V1 load(1, XDATA, add(CFA_XSP16, literal(-9)))
          CFI (cfiCond114) V2 load(1, XDATA, add(CFA_XSP16, literal(-8)))
          CFI (cfiCond114) V3 load(1, XDATA, add(CFA_XSP16, literal(-7)))
          CFI (cfiCond114) R7 load(1, XDATA, add(CFA_XSP16, literal(-6)))
          CFI (cfiCond114) ?RET_LOW load(1, XDATA, add(CFA_XSP16, literal(-5)))
          CFI (cfiCond114) ?RET_HIGH load(1, XDATA, add(CFA_XSP16, literal(-4)))
          CFI (cfiCond114) ?BRET_EXT load(1, XDATA, add(CFA_XSP16, literal(-3)))
          CFI (cfiCond114) DPL0 load(1, XDATA, add(CFA_XSP16, literal(-2)))
          CFI (cfiCond114) DPH0 load(1, XDATA, add(CFA_XSP16, literal(-1)))
          CFI (cfiCond114) CFA_SP SP+-2
          CFI (cfiCond114) CFA_XSP16 add(XSP16, 12)
          CFI Block cfiCond115 Using cfiCommon0
          CFI (cfiCond115) Function gp_AddCmdPayloadMsgNode
          CFI (cfiCond115) Conditional ??CrossCallReturnLabel_59
          CFI (cfiCond115) R6 load(1, XDATA, add(CFA_XSP16, literal(-14)))
          CFI (cfiCond115) VB load(1, XDATA, add(CFA_XSP16, literal(-13)))
          CFI (cfiCond115) V0 load(1, XDATA, add(CFA_XSP16, literal(-12)))
          CFI (cfiCond115) V1 load(1, XDATA, add(CFA_XSP16, literal(-11)))
          CFI (cfiCond115) V2 load(1, XDATA, add(CFA_XSP16, literal(-10)))
          CFI (cfiCond115) V3 load(1, XDATA, add(CFA_XSP16, literal(-9)))
          CFI (cfiCond115) V4 load(1, XDATA, add(CFA_XSP16, literal(-8)))
          CFI (cfiCond115) V5 load(1, XDATA, add(CFA_XSP16, literal(-7)))
          CFI (cfiCond115) R7 load(1, XDATA, add(CFA_XSP16, literal(-6)))
          CFI (cfiCond115) ?RET_LOW load(1, XDATA, add(CFA_XSP16, literal(-5)))
          CFI (cfiCond115) ?RET_HIGH load(1, XDATA, add(CFA_XSP16, literal(-4)))
          CFI (cfiCond115) ?BRET_EXT load(1, XDATA, add(CFA_XSP16, literal(-3)))
          CFI (cfiCond115) DPL0 load(1, XDATA, add(CFA_XSP16, literal(-2)))
          CFI (cfiCond115) DPH0 load(1, XDATA, add(CFA_XSP16, literal(-1)))
          CFI (cfiCond115) CFA_SP SP+-2
          CFI (cfiCond115) CFA_XSP16 add(XSP16, 14)
          CFI Block cfiCond116 Using cfiCommon0
          CFI (cfiCond116) Function gp_NotificationMsgClean
          CFI (cfiCond116) Conditional ??CrossCallReturnLabel_60
          CFI (cfiCond116) R6 load(1, XDATA, add(CFA_XSP16, literal(-12)))
          CFI (cfiCond116) VB load(1, XDATA, add(CFA_XSP16, literal(-11)))
          CFI (cfiCond116) V0 load(1, XDATA, add(CFA_XSP16, literal(-10)))
          CFI (cfiCond116) V1 load(1, XDATA, add(CFA_XSP16, literal(-9)))
          CFI (cfiCond116) V2 load(1, XDATA, add(CFA_XSP16, literal(-8)))
          CFI (cfiCond116) V3 load(1, XDATA, add(CFA_XSP16, literal(-7)))
          CFI (cfiCond116) R7 load(1, XDATA, add(CFA_XSP16, literal(-6)))
          CFI (cfiCond116) ?RET_LOW load(1, XDATA, add(CFA_XSP16, literal(-5)))
          CFI (cfiCond116) ?RET_HIGH load(1, XDATA, add(CFA_XSP16, literal(-4)))
          CFI (cfiCond116) ?BRET_EXT load(1, XDATA, add(CFA_XSP16, literal(-3)))
          CFI (cfiCond116) DPL0 load(1, XDATA, add(CFA_XSP16, literal(-2)))
          CFI (cfiCond116) DPH0 load(1, XDATA, add(CFA_XSP16, literal(-1)))
          CFI (cfiCond116) CFA_SP SP+-2
          CFI (cfiCond116) CFA_XSP16 add(XSP16, 12)
          CFI Block cfiCond117 Using cfiCommon0
          CFI (cfiCond117) Function gp_CreateNotificationMsgList
          CFI (cfiCond117) Conditional ??CrossCallReturnLabel_61
          CFI (cfiCond117) R6 load(1, XDATA, add(CFA_XSP16, literal(-10)))
          CFI (cfiCond117) VB load(1, XDATA, add(CFA_XSP16, literal(-9)))
          CFI (cfiCond117) V0 load(1, XDATA, add(CFA_XSP16, literal(-8)))
          CFI (cfiCond117) V1 load(1, XDATA, add(CFA_XSP16, literal(-7)))
          CFI (cfiCond117) R7 load(1, XDATA, add(CFA_XSP16, literal(-6)))
          CFI (cfiCond117) ?RET_LOW load(1, XDATA, add(CFA_XSP16, literal(-5)))
          CFI (cfiCond117) ?RET_HIGH load(1, XDATA, add(CFA_XSP16, literal(-4)))
          CFI (cfiCond117) ?BRET_EXT load(1, XDATA, add(CFA_XSP16, literal(-3)))
          CFI (cfiCond117) DPL0 load(1, XDATA, add(CFA_XSP16, literal(-2)))
          CFI (cfiCond117) DPH0 load(1, XDATA, add(CFA_XSP16, literal(-1)))
          CFI (cfiCond117) CFA_SP SP+-2
          CFI (cfiCond117) CFA_XSP16 add(XSP16, 10)
          CFI Block cfiCond118 Using cfiCommon0
          CFI (cfiCond118) Function gp_CreateCmdPayloadMsgList
          CFI (cfiCond118) Conditional ??CrossCallReturnLabel_62
          CFI (cfiCond118) R6 load(1, XDATA, add(CFA_XSP16, literal(-10)))
          CFI (cfiCond118) VB load(1, XDATA, add(CFA_XSP16, literal(-9)))
          CFI (cfiCond118) V0 load(1, XDATA, add(CFA_XSP16, literal(-8)))
          CFI (cfiCond118) V1 load(1, XDATA, add(CFA_XSP16, literal(-7)))
          CFI (cfiCond118) R7 load(1, XDATA, add(CFA_XSP16, literal(-6)))
          CFI (cfiCond118) ?RET_LOW load(1, XDATA, add(CFA_XSP16, literal(-5)))
          CFI (cfiCond118) ?RET_HIGH load(1, XDATA, add(CFA_XSP16, literal(-4)))
          CFI (cfiCond118) ?BRET_EXT load(1, XDATA, add(CFA_XSP16, literal(-3)))
          CFI (cfiCond118) DPL0 load(1, XDATA, add(CFA_XSP16, literal(-2)))
          CFI (cfiCond118) DPH0 load(1, XDATA, add(CFA_XSP16, literal(-1)))
          CFI (cfiCond118) CFA_SP SP+-2
          CFI (cfiCond118) CFA_XSP16 add(XSP16, 10)
          CFI Block cfiPicker119 Using cfiCommon1
          CFI (cfiPicker119) NoFunction
          CFI (cfiPicker119) Picker
        MOV     A,R0
        MOVX    @DPTR,A
        INC     DPTR
        MOV     A,R1
        MOVX    @DPTR,A
        RET
          CFI EndBlock cfiCond107
          CFI EndBlock cfiCond108
          CFI EndBlock cfiCond109
          CFI EndBlock cfiCond110
          CFI EndBlock cfiCond111
          CFI EndBlock cfiCond112
          CFI EndBlock cfiCond113
          CFI EndBlock cfiCond114
          CFI EndBlock cfiCond115
          CFI EndBlock cfiCond116
          CFI EndBlock cfiCond117
          CFI EndBlock cfiCond118
          CFI EndBlock cfiPicker119

        RSEG BANKED_CODE:CODE:NOROOT(0)
?Subroutine9:
          CFI Block cfiCond120 Using cfiCommon0
          CFI Function gp_AddNotificationMsgNode
          CFI Conditional ??CrossCallReturnLabel_66
          CFI R6 load(1, XDATA, add(CFA_XSP16, literal(-12)))
          CFI VB load(1, XDATA, add(CFA_XSP16, literal(-11)))
          CFI V0 load(1, XDATA, add(CFA_XSP16, literal(-10)))
          CFI V1 load(1, XDATA, add(CFA_XSP16, literal(-9)))
          CFI V2 load(1, XDATA, add(CFA_XSP16, literal(-8)))
          CFI V3 load(1, XDATA, add(CFA_XSP16, literal(-7)))
          CFI R7 load(1, XDATA, add(CFA_XSP16, literal(-6)))
          CFI ?RET_LOW load(1, XDATA, add(CFA_XSP16, literal(-5)))
          CFI ?RET_HIGH load(1, XDATA, add(CFA_XSP16, literal(-4)))
          CFI ?BRET_EXT load(1, XDATA, add(CFA_XSP16, literal(-3)))
          CFI DPL0 load(1, XDATA, add(CFA_XSP16, literal(-2)))
          CFI DPH0 load(1, XDATA, add(CFA_XSP16, literal(-1)))
          CFI CFA_SP SP+-2
          CFI CFA_XSP16 add(XSP16, 12)
          CFI Block cfiCond121 Using cfiCommon0
          CFI (cfiCond121) Function gp_AddCmdPayloadMsgNode
          CFI (cfiCond121) Conditional ??CrossCallReturnLabel_67
          CFI (cfiCond121) R6 load(1, XDATA, add(CFA_XSP16, literal(-14)))
          CFI (cfiCond121) VB load(1, XDATA, add(CFA_XSP16, literal(-13)))
          CFI (cfiCond121) V0 load(1, XDATA, add(CFA_XSP16, literal(-12)))
          CFI (cfiCond121) V1 load(1, XDATA, add(CFA_XSP16, literal(-11)))
          CFI (cfiCond121) V2 load(1, XDATA, add(CFA_XSP16, literal(-10)))
          CFI (cfiCond121) V3 load(1, XDATA, add(CFA_XSP16, literal(-9)))
          CFI (cfiCond121) V4 load(1, XDATA, add(CFA_XSP16, literal(-8)))
          CFI (cfiCond121) V5 load(1, XDATA, add(CFA_XSP16, literal(-7)))
          CFI (cfiCond121) R7 load(1, XDATA, add(CFA_XSP16, literal(-6)))
          CFI (cfiCond121) ?RET_LOW load(1, XDATA, add(CFA_XSP16, literal(-5)))
          CFI (cfiCond121) ?RET_HIGH load(1, XDATA, add(CFA_XSP16, literal(-4)))
          CFI (cfiCond121) ?BRET_EXT load(1, XDATA, add(CFA_XSP16, literal(-3)))
          CFI (cfiCond121) DPL0 load(1, XDATA, add(CFA_XSP16, literal(-2)))
          CFI (cfiCond121) DPH0 load(1, XDATA, add(CFA_XSP16, literal(-1)))
          CFI (cfiCond121) CFA_SP SP+-2
          CFI (cfiCond121) CFA_XSP16 add(XSP16, 14)
          CFI Block cfiPicker122 Using cfiCommon1
          CFI (cfiPicker122) NoFunction
          CFI (cfiPicker122) Picker
        MOV     DPL,R0
        MOV     DPH,R1
          CFI EndBlock cfiCond120
          CFI EndBlock cfiCond121
          CFI EndBlock cfiPicker122
        REQUIRE ??Subroutine36_0
        ; // Fall through to label ??Subroutine36_0

        RSEG BANKED_CODE:CODE:NOROOT(0)
??Subroutine36_0:
          CFI Block cfiCond123 Using cfiCommon0
          CFI Function zclGp_RegisterCmdCallbacks
          CFI Conditional ??CrossCallReturnLabel_63
          CFI R6 load(1, XDATA, add(CFA_XSP16, literal(-12)))
          CFI VB load(1, XDATA, add(CFA_XSP16, literal(-11)))
          CFI V0 load(1, XDATA, add(CFA_XSP16, literal(-10)))
          CFI V1 load(1, XDATA, add(CFA_XSP16, literal(-9)))
          CFI V2 load(1, XDATA, add(CFA_XSP16, literal(-8)))
          CFI V3 load(1, XDATA, add(CFA_XSP16, literal(-7)))
          CFI R7 load(1, XDATA, add(CFA_XSP16, literal(-6)))
          CFI ?RET_LOW load(1, XDATA, add(CFA_XSP16, literal(-5)))
          CFI ?RET_HIGH load(1, XDATA, add(CFA_XSP16, literal(-4)))
          CFI ?BRET_EXT load(1, XDATA, add(CFA_XSP16, literal(-3)))
          CFI DPL0 load(1, XDATA, add(CFA_XSP16, literal(-2)))
          CFI DPH0 load(1, XDATA, add(CFA_XSP16, literal(-1)))
          CFI CFA_SP SP+-2
          CFI CFA_XSP16 add(XSP16, 12)
          CFI Block cfiCond124 Using cfiCommon0
          CFI (cfiCond124) Function zclGp_RegisterCmdCallbacks
          CFI (cfiCond124) Conditional ??CrossCallReturnLabel_64
          CFI (cfiCond124) R6 load(1, XDATA, add(CFA_XSP16, literal(-12)))
          CFI (cfiCond124) VB load(1, XDATA, add(CFA_XSP16, literal(-11)))
          CFI (cfiCond124) V0 load(1, XDATA, add(CFA_XSP16, literal(-10)))
          CFI (cfiCond124) V1 load(1, XDATA, add(CFA_XSP16, literal(-9)))
          CFI (cfiCond124) V2 load(1, XDATA, add(CFA_XSP16, literal(-8)))
          CFI (cfiCond124) V3 load(1, XDATA, add(CFA_XSP16, literal(-7)))
          CFI (cfiCond124) R7 load(1, XDATA, add(CFA_XSP16, literal(-6)))
          CFI (cfiCond124) ?RET_LOW load(1, XDATA, add(CFA_XSP16, literal(-5)))
          CFI (cfiCond124) ?RET_HIGH load(1, XDATA, add(CFA_XSP16, literal(-4)))
          CFI (cfiCond124) ?BRET_EXT load(1, XDATA, add(CFA_XSP16, literal(-3)))
          CFI (cfiCond124) DPL0 load(1, XDATA, add(CFA_XSP16, literal(-2)))
          CFI (cfiCond124) DPH0 load(1, XDATA, add(CFA_XSP16, literal(-1)))
          CFI (cfiCond124) CFA_SP SP+-2
          CFI (cfiCond124) CFA_XSP16 add(XSP16, 12)
          CFI Block cfiCond125 Using cfiCommon0
          CFI (cfiCond125) Function zclGp_ProcessInGreenPowerClient
          CFI (cfiCond125) Conditional ??CrossCallReturnLabel_65
          CFI (cfiCond125) R6 load(1, XDATA, add(CFA_XSP16, literal(-19)))
          CFI (cfiCond125) VB load(1, XDATA, add(CFA_XSP16, literal(-18)))
          CFI (cfiCond125) V0 load(1, XDATA, add(CFA_XSP16, literal(-17)))
          CFI (cfiCond125) V1 load(1, XDATA, add(CFA_XSP16, literal(-16)))
          CFI (cfiCond125) V2 load(1, XDATA, add(CFA_XSP16, literal(-15)))
          CFI (cfiCond125) V3 load(1, XDATA, add(CFA_XSP16, literal(-14)))
          CFI (cfiCond125) V4 load(1, XDATA, add(CFA_XSP16, literal(-13)))
          CFI (cfiCond125) V5 load(1, XDATA, add(CFA_XSP16, literal(-12)))
          CFI (cfiCond125) V6 load(1, XDATA, add(CFA_XSP16, literal(-11)))
          CFI (cfiCond125) V7 load(1, XDATA, add(CFA_XSP16, literal(-10)))
          CFI (cfiCond125) V8 load(1, XDATA, add(CFA_XSP16, literal(-9)))
          CFI (cfiCond125) V9 load(1, XDATA, add(CFA_XSP16, literal(-8)))
          CFI (cfiCond125) V10 load(1, XDATA, add(CFA_XSP16, literal(-7)))
          CFI (cfiCond125) R7 load(1, XDATA, add(CFA_XSP16, literal(-6)))
          CFI (cfiCond125) ?RET_LOW load(1, XDATA, add(CFA_XSP16, literal(-5)))
          CFI (cfiCond125) ?RET_HIGH load(1, XDATA, add(CFA_XSP16, literal(-4)))
          CFI (cfiCond125) ?BRET_EXT load(1, XDATA, add(CFA_XSP16, literal(-3)))
          CFI (cfiCond125) DPL0 load(1, XDATA, add(CFA_XSP16, literal(-2)))
          CFI (cfiCond125) DPH0 load(1, XDATA, add(CFA_XSP16, literal(-1)))
          CFI (cfiCond125) CFA_SP SP+-2
          CFI (cfiCond125) CFA_XSP16 add(XSP16, 39)
          CFI Block cfiCond126 Using cfiCommon0
          CFI (cfiCond126) Function gp_AddNotificationMsgNode
          CFI (cfiCond126) Conditional ??CrossCallReturnLabel_66
          CFI (cfiCond126) R6 load(1, XDATA, add(CFA_XSP16, literal(-12)))
          CFI (cfiCond126) VB load(1, XDATA, add(CFA_XSP16, literal(-11)))
          CFI (cfiCond126) V0 load(1, XDATA, add(CFA_XSP16, literal(-10)))
          CFI (cfiCond126) V1 load(1, XDATA, add(CFA_XSP16, literal(-9)))
          CFI (cfiCond126) V2 load(1, XDATA, add(CFA_XSP16, literal(-8)))
          CFI (cfiCond126) V3 load(1, XDATA, add(CFA_XSP16, literal(-7)))
          CFI (cfiCond126) R7 load(1, XDATA, add(CFA_XSP16, literal(-6)))
          CFI (cfiCond126) ?RET_LOW load(1, XDATA, add(CFA_XSP16, literal(-5)))
          CFI (cfiCond126) ?RET_HIGH load(1, XDATA, add(CFA_XSP16, literal(-4)))
          CFI (cfiCond126) ?BRET_EXT load(1, XDATA, add(CFA_XSP16, literal(-3)))
          CFI (cfiCond126) DPL0 load(1, XDATA, add(CFA_XSP16, literal(-2)))
          CFI (cfiCond126) DPH0 load(1, XDATA, add(CFA_XSP16, literal(-1)))
          CFI (cfiCond126) CFA_SP SP+-2
          CFI (cfiCond126) CFA_XSP16 add(XSP16, 12)
          CFI Block cfiCond127 Using cfiCommon0
          CFI (cfiCond127) Function gp_AddCmdPayloadMsgNode
          CFI (cfiCond127) Conditional ??CrossCallReturnLabel_67
          CFI (cfiCond127) R6 load(1, XDATA, add(CFA_XSP16, literal(-14)))
          CFI (cfiCond127) VB load(1, XDATA, add(CFA_XSP16, literal(-13)))
          CFI (cfiCond127) V0 load(1, XDATA, add(CFA_XSP16, literal(-12)))
          CFI (cfiCond127) V1 load(1, XDATA, add(CFA_XSP16, literal(-11)))
          CFI (cfiCond127) V2 load(1, XDATA, add(CFA_XSP16, literal(-10)))
          CFI (cfiCond127) V3 load(1, XDATA, add(CFA_XSP16, literal(-9)))
          CFI (cfiCond127) V4 load(1, XDATA, add(CFA_XSP16, literal(-8)))
          CFI (cfiCond127) V5 load(1, XDATA, add(CFA_XSP16, literal(-7)))
          CFI (cfiCond127) R7 load(1, XDATA, add(CFA_XSP16, literal(-6)))
          CFI (cfiCond127) ?RET_LOW load(1, XDATA, add(CFA_XSP16, literal(-5)))
          CFI (cfiCond127) ?RET_HIGH load(1, XDATA, add(CFA_XSP16, literal(-4)))
          CFI (cfiCond127) ?BRET_EXT load(1, XDATA, add(CFA_XSP16, literal(-3)))
          CFI (cfiCond127) DPL0 load(1, XDATA, add(CFA_XSP16, literal(-2)))
          CFI (cfiCond127) DPH0 load(1, XDATA, add(CFA_XSP16, literal(-1)))
          CFI (cfiCond127) CFA_SP SP+-2
          CFI (cfiCond127) CFA_XSP16 add(XSP16, 14)
          CFI Block cfiPicker128 Using cfiCommon1
          CFI (cfiPicker128) NoFunction
          CFI (cfiPicker128) Picker
        MOVX    A,@DPTR
        MOV     R2,A
        INC     DPTR
        MOVX    A,@DPTR
        MOV     R3,A
        MOV     A,R2
        ORL     A,R3
        RET
          CFI EndBlock cfiCond123
          CFI EndBlock cfiCond124
          CFI EndBlock cfiCond125
          CFI EndBlock cfiCond126
          CFI EndBlock cfiCond127
          CFI EndBlock cfiPicker128
//  822 
//  823 /*********************************************************************
//  824  * @fn      gp_AddCmdPayloadMsgNode
//  825  *
//  826  * @brief   Add node to Notification Msg list
//  827  *
//  828  * @param   pHead - pointer to a pointer of the list head
//  829  *
//  830  * @return  pointer to new node
//  831  */

        RSEG BANKED_CODE:CODE:NOROOT(0)
//  832 gpCmdPayloadMsg_t* gp_AddCmdPayloadMsgNode( gpCmdPayloadMsg_t **pHead, uint8* pBuf, uint8 len )
gp_AddCmdPayloadMsgNode:
          CFI Block cfiBlock129 Using cfiCommon0
          CFI Function gp_AddCmdPayloadMsgNode
        CODE
//  833 {
        FUNCALL gp_AddCmdPayloadMsgNode, gp_CreateCmdPayloadMsgList
        LOCFRAME ISTACK, 0, STACK
        LOCFRAME PSTACK, 0, STACK
        LOCFRAME XSTACK, 14, STACK
        LOCFRAME IOVERLAY, 0, STATIC
        LOCFRAME DOVERLAY, 0, STATIC
        ARGFRAME ISTACK, 0, STACK
        ARGFRAME PSTACK, 0, STACK
        ARGFRAME XSTACK, 14, STACK
        ARGFRAME IOVERLAY, 0, STATIC
        ARGFRAME DOVERLAY, 0, STATIC
        FUNCALL gp_AddCmdPayloadMsgNode, osal_mem_alloc
        LOCFRAME ISTACK, 0, STACK
        LOCFRAME PSTACK, 0, STACK
        LOCFRAME XSTACK, 14, STACK
        LOCFRAME IOVERLAY, 0, STATIC
        LOCFRAME DOVERLAY, 0, STATIC
        ARGFRAME ISTACK, 0, STACK
        ARGFRAME PSTACK, 0, STACK
        ARGFRAME XSTACK, 14, STACK
        ARGFRAME IOVERLAY, 0, STATIC
        ARGFRAME DOVERLAY, 0, STATIC
        REQUIRE ?V0
        REQUIRE ?V1
        REQUIRE ?V2
        REQUIRE ?V4
        REQUIRE ?V5
        MOV     A,#-0xe
        LCALL   ?BANKED_ENTER_XDATA
          CFI DPH0 load(1, XDATA, add(CFA_XSP16, literal(-1)))
          CFI DPL0 load(1, XDATA, add(CFA_XSP16, literal(-2)))
          CFI ?BRET_EXT load(1, XDATA, add(CFA_XSP16, literal(-3)))
          CFI ?RET_HIGH load(1, XDATA, add(CFA_XSP16, literal(-4)))
          CFI ?RET_LOW load(1, XDATA, add(CFA_XSP16, literal(-5)))
          CFI R7 load(1, XDATA, add(CFA_XSP16, literal(-6)))
          CFI V5 load(1, XDATA, add(CFA_XSP16, literal(-7)))
          CFI V4 load(1, XDATA, add(CFA_XSP16, literal(-8)))
          CFI V3 load(1, XDATA, add(CFA_XSP16, literal(-9)))
          CFI V2 load(1, XDATA, add(CFA_XSP16, literal(-10)))
          CFI V1 load(1, XDATA, add(CFA_XSP16, literal(-11)))
          CFI V0 load(1, XDATA, add(CFA_XSP16, literal(-12)))
          CFI VB load(1, XDATA, add(CFA_XSP16, literal(-13)))
          CFI R6 load(1, XDATA, add(CFA_XSP16, literal(-14)))
          CFI CFA_SP SP+0
          CFI CFA_XSP16 add(XSP16, 14)
        ; Saved register size: 14
        ; Auto size: 0
        MOV     A,R2
        MOV     R6,A
        MOV     A,R3
        MOV     R7,A
        MOV     ?V0,R4
        MOV     ?V1,R5
        MOV     ?V2,R1
//  834   gpCmdPayloadMsg_t **pCurr;
//  835   
//  836     // Create respondent list if empty
//  837   if ( *pHead == NULL )
        LCALL   ??Subroutine38_0 & 0xFFFF
??CrossCallReturnLabel_81:
        JNZ     ??gp_AddCmdPayloadMsgNode_0
//  838   {
//  839     gp_CreateCmdPayloadMsgList( pHead );
        ; Setup parameters for call to function gp_CreateCmdPayloadMsgList
        LCALL   `??gp_CreateCmdPayloadMsgList::?relay`; Banked call to: gp_CreateCmdPayloadMsgList
//  840     
//  841     if ( pHead != NULL )
        MOV     A,R6
        ORL     A,R7
        JZ      ??gp_AddCmdPayloadMsgNode_1
//  842     {
//  843       ( ( ( gpCmdPayloadMsg_t* ) *pHead )->lenght ) = len;
        LCALL   ?Subroutine12 & 0xFFFF
//  844       ( ( ( gpCmdPayloadMsg_t* ) *pHead )->pMsg ) = ( uint8* )pBuf;
//  845     }
??CrossCallReturnLabel_6:
        MOV     R0,A
        INC     DPTR
        MOVX    A,@DPTR
        MOV     DPH,A
        MOV     DPL,R0
        INC     DPTR
        MOV     A,?V0
        MOVX    @DPTR,A
        INC     DPTR
        MOV     A,?V1
        MOVX    @DPTR,A
//  846     return *pHead;
??gp_AddCmdPayloadMsgNode_1:
        LCALL   ?Subroutine13 & 0xFFFF
//  847   }
??CrossCallReturnLabel_99:
        SJMP    ??gp_AddCmdPayloadMsgNode_2
//  848   
//  849   pCurr = &((*pHead)->pNext);
//  850   
//  851   while ( *pCurr != NULL )
//  852   {
//  853     pCurr = &((*pCurr)->pNext);
??gp_AddCmdPayloadMsgNode_0:
        MOV     A,R0
        ADD     A,#0x3
        MOV     R6,A
        CLR     A
        ADDC    A,R1
        LCALL   ??Subroutine37_0 & 0xFFFF
//  854   }
??CrossCallReturnLabel_72:
        JNZ     ??gp_AddCmdPayloadMsgNode_0
//  855 
//  856   *pCurr = ( gpCmdPayloadMsg_t* )osal_mem_alloc( sizeof( gpCmdPayloadMsg_t ) );
        ; Setup parameters for call to function osal_mem_alloc
        MOV     R2,#0x5
        MOV     R3,#0x0
        LCALL   `??osal_mem_alloc::?relay`; Banked call to: osal_mem_alloc
        MOV     ?V4,R2
        MOV     ?V5,R3
        MOV     R0,?V4
        MOV     R1,?V5
        LCALL   ??Subroutine34_0 & 0xFFFF
//  857     
//  858   if ( (*pCurr)->pNext != NULL )
??CrossCallReturnLabel_59:
        MOV     A,R0
        ADD     A,#0x3
        MOV     R0,A
        JNC     ??gp_AddCmdPayloadMsgNode_3
        INC     R1
??gp_AddCmdPayloadMsgNode_3:
        LCALL   ?Subroutine9 & 0xFFFF
??CrossCallReturnLabel_67:
        JZ      ??gp_AddCmdPayloadMsgNode_4
//  859   {
//  860     (*pCurr)->pNext = NULL;
        MOV     DPL,R0
        MOV     DPH,R1
        CLR     A
        MOVX    @DPTR,A
        INC     DPTR
        MOVX    @DPTR,A
//  861   }
//  862   ( ( ( gpCmdPayloadMsg_t* ) *pCurr )->lenght ) = len;
??gp_AddCmdPayloadMsgNode_4:
        LCALL   ?Subroutine12 & 0xFFFF
//  863   ( ( ( gpCmdPayloadMsg_t* ) *pCurr )->pMsg ) = ( uint8* )pBuf;
??CrossCallReturnLabel_7:
        MOV     R2,A
        INC     DPTR
        MOVX    A,@DPTR
        MOV     R3,A
        MOV     DPL,R2
        MOV     DPH,R3
        INC     DPTR
        MOV     A,?V0
        MOVX    @DPTR,A
        INC     DPTR
        MOV     A,?V1
        MOVX    @DPTR,A
//  864   
//  865   return *pCurr;
??gp_AddCmdPayloadMsgNode_2:
        MOV     R7,#0x6
        LJMP    ?BANKED_LEAVE_XDATA
//  866 }
          CFI EndBlock cfiBlock129

        RSEG BANKED_CODE:CODE:NOROOT(0)
?Subroutine12:
          CFI Block cfiCond130 Using cfiCommon0
          CFI Function gp_AddCmdPayloadMsgNode
          CFI Conditional ??CrossCallReturnLabel_6
          CFI R6 load(1, XDATA, add(CFA_XSP16, literal(-14)))
          CFI VB load(1, XDATA, add(CFA_XSP16, literal(-13)))
          CFI V0 load(1, XDATA, add(CFA_XSP16, literal(-12)))
          CFI V1 load(1, XDATA, add(CFA_XSP16, literal(-11)))
          CFI V2 load(1, XDATA, add(CFA_XSP16, literal(-10)))
          CFI V3 load(1, XDATA, add(CFA_XSP16, literal(-9)))
          CFI V4 load(1, XDATA, add(CFA_XSP16, literal(-8)))
          CFI V5 load(1, XDATA, add(CFA_XSP16, literal(-7)))
          CFI R7 load(1, XDATA, add(CFA_XSP16, literal(-6)))
          CFI ?RET_LOW load(1, XDATA, add(CFA_XSP16, literal(-5)))
          CFI ?RET_HIGH load(1, XDATA, add(CFA_XSP16, literal(-4)))
          CFI ?BRET_EXT load(1, XDATA, add(CFA_XSP16, literal(-3)))
          CFI DPL0 load(1, XDATA, add(CFA_XSP16, literal(-2)))
          CFI DPH0 load(1, XDATA, add(CFA_XSP16, literal(-1)))
          CFI CFA_SP SP+-2
          CFI CFA_XSP16 add(XSP16, 14)
          CFI Block cfiCond131 Using cfiCommon0
          CFI (cfiCond131) Function gp_AddCmdPayloadMsgNode
          CFI (cfiCond131) Conditional ??CrossCallReturnLabel_7
          CFI (cfiCond131) R6 load(1, XDATA, add(CFA_XSP16, literal(-14)))
          CFI (cfiCond131) VB load(1, XDATA, add(CFA_XSP16, literal(-13)))
          CFI (cfiCond131) V0 load(1, XDATA, add(CFA_XSP16, literal(-12)))
          CFI (cfiCond131) V1 load(1, XDATA, add(CFA_XSP16, literal(-11)))
          CFI (cfiCond131) V2 load(1, XDATA, add(CFA_XSP16, literal(-10)))
          CFI (cfiCond131) V3 load(1, XDATA, add(CFA_XSP16, literal(-9)))
          CFI (cfiCond131) V4 load(1, XDATA, add(CFA_XSP16, literal(-8)))
          CFI (cfiCond131) V5 load(1, XDATA, add(CFA_XSP16, literal(-7)))
          CFI (cfiCond131) R7 load(1, XDATA, add(CFA_XSP16, literal(-6)))
          CFI (cfiCond131) ?RET_LOW load(1, XDATA, add(CFA_XSP16, literal(-5)))
          CFI (cfiCond131) ?RET_HIGH load(1, XDATA, add(CFA_XSP16, literal(-4)))
          CFI (cfiCond131) ?BRET_EXT load(1, XDATA, add(CFA_XSP16, literal(-3)))
          CFI (cfiCond131) DPL0 load(1, XDATA, add(CFA_XSP16, literal(-2)))
          CFI (cfiCond131) DPH0 load(1, XDATA, add(CFA_XSP16, literal(-1)))
          CFI (cfiCond131) CFA_SP SP+-2
          CFI (cfiCond131) CFA_XSP16 add(XSP16, 14)
          CFI Block cfiPicker132 Using cfiCommon1
          CFI (cfiPicker132) NoFunction
          CFI (cfiPicker132) Picker
        MOV     DPL,R6
        MOV     DPH,R7
        LCALL   ?Subroutine26 & 0xFFFF
??CrossCallReturnLabel_30:
        MOV     A,?V2
        LCALL   ?Subroutine28 & 0xFFFF
??CrossCallReturnLabel_37:
        MOVX    A,@DPTR
        RET
          CFI EndBlock cfiCond130
          CFI EndBlock cfiCond131
          CFI EndBlock cfiPicker132

        RSEG BANKED_CODE:CODE:NOROOT(0)
?Subroutine26:
          CFI Block cfiCond133 Using cfiCommon0
          CFI Function zclGp_ProcessInGreenPowerClient
          CFI Conditional ??CrossCallReturnLabel_29
          CFI R6 load(1, XDATA, add(CFA_XSP16, literal(-19)))
          CFI VB load(1, XDATA, add(CFA_XSP16, literal(-18)))
          CFI V0 load(1, XDATA, add(CFA_XSP16, literal(-17)))
          CFI V1 load(1, XDATA, add(CFA_XSP16, literal(-16)))
          CFI V2 load(1, XDATA, add(CFA_XSP16, literal(-15)))
          CFI V3 load(1, XDATA, add(CFA_XSP16, literal(-14)))
          CFI V4 load(1, XDATA, add(CFA_XSP16, literal(-13)))
          CFI V5 load(1, XDATA, add(CFA_XSP16, literal(-12)))
          CFI V6 load(1, XDATA, add(CFA_XSP16, literal(-11)))
          CFI V7 load(1, XDATA, add(CFA_XSP16, literal(-10)))
          CFI V8 load(1, XDATA, add(CFA_XSP16, literal(-9)))
          CFI V9 load(1, XDATA, add(CFA_XSP16, literal(-8)))
          CFI V10 load(1, XDATA, add(CFA_XSP16, literal(-7)))
          CFI R7 load(1, XDATA, add(CFA_XSP16, literal(-6)))
          CFI ?RET_LOW load(1, XDATA, add(CFA_XSP16, literal(-5)))
          CFI ?RET_HIGH load(1, XDATA, add(CFA_XSP16, literal(-4)))
          CFI ?BRET_EXT load(1, XDATA, add(CFA_XSP16, literal(-3)))
          CFI DPL0 load(1, XDATA, add(CFA_XSP16, literal(-2)))
          CFI DPH0 load(1, XDATA, add(CFA_XSP16, literal(-1)))
          CFI CFA_SP SP+-2
          CFI CFA_XSP16 add(XSP16, 39)
          CFI Block cfiCond134 Using cfiCommon0
          CFI (cfiCond134) Function gp_AddCmdPayloadMsgNode
          CFI (cfiCond134) Conditional ??CrossCallReturnLabel_30, ??CrossCallReturnLabel_6
          CFI (cfiCond134) R6 load(1, XDATA, add(CFA_XSP16, literal(-14)))
          CFI (cfiCond134) VB load(1, XDATA, add(CFA_XSP16, literal(-13)))
          CFI (cfiCond134) V0 load(1, XDATA, add(CFA_XSP16, literal(-12)))
          CFI (cfiCond134) V1 load(1, XDATA, add(CFA_XSP16, literal(-11)))
          CFI (cfiCond134) V2 load(1, XDATA, add(CFA_XSP16, literal(-10)))
          CFI (cfiCond134) V3 load(1, XDATA, add(CFA_XSP16, literal(-9)))
          CFI (cfiCond134) V4 load(1, XDATA, add(CFA_XSP16, literal(-8)))
          CFI (cfiCond134) V5 load(1, XDATA, add(CFA_XSP16, literal(-7)))
          CFI (cfiCond134) R7 load(1, XDATA, add(CFA_XSP16, literal(-6)))
          CFI (cfiCond134) ?RET_LOW load(1, XDATA, add(CFA_XSP16, literal(-5)))
          CFI (cfiCond134) ?RET_HIGH load(1, XDATA, add(CFA_XSP16, literal(-4)))
          CFI (cfiCond134) ?BRET_EXT load(1, XDATA, add(CFA_XSP16, literal(-3)))
          CFI (cfiCond134) DPL0 load(1, XDATA, add(CFA_XSP16, literal(-2)))
          CFI (cfiCond134) DPH0 load(1, XDATA, add(CFA_XSP16, literal(-1)))
          CFI (cfiCond134) CFA_SP SP+-4
          CFI (cfiCond134) CFA_XSP16 add(XSP16, 14)
          CFI Block cfiCond135 Using cfiCommon0
          CFI (cfiCond135) Function gp_AddCmdPayloadMsgNode
          CFI (cfiCond135) Conditional ??CrossCallReturnLabel_30, ??CrossCallReturnLabel_7
          CFI (cfiCond135) R6 load(1, XDATA, add(CFA_XSP16, literal(-14)))
          CFI (cfiCond135) VB load(1, XDATA, add(CFA_XSP16, literal(-13)))
          CFI (cfiCond135) V0 load(1, XDATA, add(CFA_XSP16, literal(-12)))
          CFI (cfiCond135) V1 load(1, XDATA, add(CFA_XSP16, literal(-11)))
          CFI (cfiCond135) V2 load(1, XDATA, add(CFA_XSP16, literal(-10)))
          CFI (cfiCond135) V3 load(1, XDATA, add(CFA_XSP16, literal(-9)))
          CFI (cfiCond135) V4 load(1, XDATA, add(CFA_XSP16, literal(-8)))
          CFI (cfiCond135) V5 load(1, XDATA, add(CFA_XSP16, literal(-7)))
          CFI (cfiCond135) R7 load(1, XDATA, add(CFA_XSP16, literal(-6)))
          CFI (cfiCond135) ?RET_LOW load(1, XDATA, add(CFA_XSP16, literal(-5)))
          CFI (cfiCond135) ?RET_HIGH load(1, XDATA, add(CFA_XSP16, literal(-4)))
          CFI (cfiCond135) ?BRET_EXT load(1, XDATA, add(CFA_XSP16, literal(-3)))
          CFI (cfiCond135) DPL0 load(1, XDATA, add(CFA_XSP16, literal(-2)))
          CFI (cfiCond135) DPH0 load(1, XDATA, add(CFA_XSP16, literal(-1)))
          CFI (cfiCond135) CFA_SP SP+-4
          CFI (cfiCond135) CFA_XSP16 add(XSP16, 14)
          CFI Block cfiPicker136 Using cfiCommon1
          CFI (cfiPicker136) NoFunction
          CFI (cfiPicker136) Picker
        LCALL   ?Subroutine30 & 0xFFFF
??CrossCallReturnLabel_92:
        MOV     DPH,A
        MOV     DPL,R0
        RET
          CFI EndBlock cfiCond133
          CFI EndBlock cfiCond134
          CFI EndBlock cfiCond135
          CFI EndBlock cfiPicker136

        RSEG BANKED_CODE:CODE:NOROOT(0)
?Subroutine5:
          CFI Block cfiCond137 Using cfiCommon0
          CFI Function gp_CreateNotificationMsgList
          CFI Conditional ??CrossCallReturnLabel_68
          CFI R6 load(1, XDATA, add(CFA_XSP16, literal(-10)))
          CFI VB load(1, XDATA, add(CFA_XSP16, literal(-9)))
          CFI V0 load(1, XDATA, add(CFA_XSP16, literal(-8)))
          CFI V1 load(1, XDATA, add(CFA_XSP16, literal(-7)))
          CFI R7 load(1, XDATA, add(CFA_XSP16, literal(-6)))
          CFI ?RET_LOW load(1, XDATA, add(CFA_XSP16, literal(-5)))
          CFI ?RET_HIGH load(1, XDATA, add(CFA_XSP16, literal(-4)))
          CFI ?BRET_EXT load(1, XDATA, add(CFA_XSP16, literal(-3)))
          CFI DPL0 load(1, XDATA, add(CFA_XSP16, literal(-2)))
          CFI DPH0 load(1, XDATA, add(CFA_XSP16, literal(-1)))
          CFI CFA_SP SP+-2
          CFI CFA_XSP16 add(XSP16, 10)
          CFI Block cfiCond138 Using cfiCommon0
          CFI (cfiCond138) Function gp_CreateCmdPayloadMsgList
          CFI (cfiCond138) Conditional ??CrossCallReturnLabel_69
          CFI (cfiCond138) R6 load(1, XDATA, add(CFA_XSP16, literal(-10)))
          CFI (cfiCond138) VB load(1, XDATA, add(CFA_XSP16, literal(-9)))
          CFI (cfiCond138) V0 load(1, XDATA, add(CFA_XSP16, literal(-8)))
          CFI (cfiCond138) V1 load(1, XDATA, add(CFA_XSP16, literal(-7)))
          CFI (cfiCond138) R7 load(1, XDATA, add(CFA_XSP16, literal(-6)))
          CFI (cfiCond138) ?RET_LOW load(1, XDATA, add(CFA_XSP16, literal(-5)))
          CFI (cfiCond138) ?RET_HIGH load(1, XDATA, add(CFA_XSP16, literal(-4)))
          CFI (cfiCond138) ?BRET_EXT load(1, XDATA, add(CFA_XSP16, literal(-3)))
          CFI (cfiCond138) DPL0 load(1, XDATA, add(CFA_XSP16, literal(-2)))
          CFI (cfiCond138) DPH0 load(1, XDATA, add(CFA_XSP16, literal(-1)))
          CFI (cfiCond138) CFA_SP SP+-2
          CFI (cfiCond138) CFA_XSP16 add(XSP16, 10)
          CFI Block cfiCond139 Using cfiCommon0
          CFI (cfiCond139) Function gp_NotificationMsgClean
          CFI (cfiCond139) Conditional ??CrossCallReturnLabel_70
          CFI (cfiCond139) R6 load(1, XDATA, add(CFA_XSP16, literal(-12)))
          CFI (cfiCond139) VB load(1, XDATA, add(CFA_XSP16, literal(-11)))
          CFI (cfiCond139) V0 load(1, XDATA, add(CFA_XSP16, literal(-10)))
          CFI (cfiCond139) V1 load(1, XDATA, add(CFA_XSP16, literal(-9)))
          CFI (cfiCond139) V2 load(1, XDATA, add(CFA_XSP16, literal(-8)))
          CFI (cfiCond139) V3 load(1, XDATA, add(CFA_XSP16, literal(-7)))
          CFI (cfiCond139) R7 load(1, XDATA, add(CFA_XSP16, literal(-6)))
          CFI (cfiCond139) ?RET_LOW load(1, XDATA, add(CFA_XSP16, literal(-5)))
          CFI (cfiCond139) ?RET_HIGH load(1, XDATA, add(CFA_XSP16, literal(-4)))
          CFI (cfiCond139) ?BRET_EXT load(1, XDATA, add(CFA_XSP16, literal(-3)))
          CFI (cfiCond139) DPL0 load(1, XDATA, add(CFA_XSP16, literal(-2)))
          CFI (cfiCond139) DPH0 load(1, XDATA, add(CFA_XSP16, literal(-1)))
          CFI (cfiCond139) CFA_SP SP+-2
          CFI (cfiCond139) CFA_XSP16 add(XSP16, 12)
          CFI Block cfiPicker140 Using cfiCommon1
          CFI (cfiPicker140) NoFunction
          CFI (cfiPicker140) Picker
        MOV     A,R2
        MOV     R6,A
        MOV     A,R3
          CFI EndBlock cfiCond137
          CFI EndBlock cfiCond138
          CFI EndBlock cfiCond139
          CFI EndBlock cfiPicker140
        REQUIRE ??Subroutine37_0
        ; // Fall through to label ??Subroutine37_0

        RSEG BANKED_CODE:CODE:NOROOT(0)
??Subroutine37_0:
          CFI Block cfiCond141 Using cfiCommon0
          CFI Function gp_AddNotificationMsgNode
          CFI Conditional ??CrossCallReturnLabel_71
          CFI R6 load(1, XDATA, add(CFA_XSP16, literal(-12)))
          CFI VB load(1, XDATA, add(CFA_XSP16, literal(-11)))
          CFI V0 load(1, XDATA, add(CFA_XSP16, literal(-10)))
          CFI V1 load(1, XDATA, add(CFA_XSP16, literal(-9)))
          CFI V2 load(1, XDATA, add(CFA_XSP16, literal(-8)))
          CFI V3 load(1, XDATA, add(CFA_XSP16, literal(-7)))
          CFI R7 load(1, XDATA, add(CFA_XSP16, literal(-6)))
          CFI ?RET_LOW load(1, XDATA, add(CFA_XSP16, literal(-5)))
          CFI ?RET_HIGH load(1, XDATA, add(CFA_XSP16, literal(-4)))
          CFI ?BRET_EXT load(1, XDATA, add(CFA_XSP16, literal(-3)))
          CFI DPL0 load(1, XDATA, add(CFA_XSP16, literal(-2)))
          CFI DPH0 load(1, XDATA, add(CFA_XSP16, literal(-1)))
          CFI CFA_SP SP+-2
          CFI CFA_XSP16 add(XSP16, 12)
          CFI Block cfiCond142 Using cfiCommon0
          CFI (cfiCond142) Function gp_AddCmdPayloadMsgNode
          CFI (cfiCond142) Conditional ??CrossCallReturnLabel_72
          CFI (cfiCond142) R6 load(1, XDATA, add(CFA_XSP16, literal(-14)))
          CFI (cfiCond142) VB load(1, XDATA, add(CFA_XSP16, literal(-13)))
          CFI (cfiCond142) V0 load(1, XDATA, add(CFA_XSP16, literal(-12)))
          CFI (cfiCond142) V1 load(1, XDATA, add(CFA_XSP16, literal(-11)))
          CFI (cfiCond142) V2 load(1, XDATA, add(CFA_XSP16, literal(-10)))
          CFI (cfiCond142) V3 load(1, XDATA, add(CFA_XSP16, literal(-9)))
          CFI (cfiCond142) V4 load(1, XDATA, add(CFA_XSP16, literal(-8)))
          CFI (cfiCond142) V5 load(1, XDATA, add(CFA_XSP16, literal(-7)))
          CFI (cfiCond142) R7 load(1, XDATA, add(CFA_XSP16, literal(-6)))
          CFI (cfiCond142) ?RET_LOW load(1, XDATA, add(CFA_XSP16, literal(-5)))
          CFI (cfiCond142) ?RET_HIGH load(1, XDATA, add(CFA_XSP16, literal(-4)))
          CFI (cfiCond142) ?BRET_EXT load(1, XDATA, add(CFA_XSP16, literal(-3)))
          CFI (cfiCond142) DPL0 load(1, XDATA, add(CFA_XSP16, literal(-2)))
          CFI (cfiCond142) DPH0 load(1, XDATA, add(CFA_XSP16, literal(-1)))
          CFI (cfiCond142) CFA_SP SP+-2
          CFI (cfiCond142) CFA_XSP16 add(XSP16, 14)
          CFI Block cfiCond143 Using cfiCommon0
          CFI (cfiCond143) Function gp_CreateNotificationMsgList
          CFI (cfiCond143) Conditional ??CrossCallReturnLabel_68
          CFI (cfiCond143) R6 load(1, XDATA, add(CFA_XSP16, literal(-10)))
          CFI (cfiCond143) VB load(1, XDATA, add(CFA_XSP16, literal(-9)))
          CFI (cfiCond143) V0 load(1, XDATA, add(CFA_XSP16, literal(-8)))
          CFI (cfiCond143) V1 load(1, XDATA, add(CFA_XSP16, literal(-7)))
          CFI (cfiCond143) R7 load(1, XDATA, add(CFA_XSP16, literal(-6)))
          CFI (cfiCond143) ?RET_LOW load(1, XDATA, add(CFA_XSP16, literal(-5)))
          CFI (cfiCond143) ?RET_HIGH load(1, XDATA, add(CFA_XSP16, literal(-4)))
          CFI (cfiCond143) ?BRET_EXT load(1, XDATA, add(CFA_XSP16, literal(-3)))
          CFI (cfiCond143) DPL0 load(1, XDATA, add(CFA_XSP16, literal(-2)))
          CFI (cfiCond143) DPH0 load(1, XDATA, add(CFA_XSP16, literal(-1)))
          CFI (cfiCond143) CFA_SP SP+-2
          CFI (cfiCond143) CFA_XSP16 add(XSP16, 10)
          CFI Block cfiCond144 Using cfiCommon0
          CFI (cfiCond144) Function gp_CreateCmdPayloadMsgList
          CFI (cfiCond144) Conditional ??CrossCallReturnLabel_69
          CFI (cfiCond144) R6 load(1, XDATA, add(CFA_XSP16, literal(-10)))
          CFI (cfiCond144) VB load(1, XDATA, add(CFA_XSP16, literal(-9)))
          CFI (cfiCond144) V0 load(1, XDATA, add(CFA_XSP16, literal(-8)))
          CFI (cfiCond144) V1 load(1, XDATA, add(CFA_XSP16, literal(-7)))
          CFI (cfiCond144) R7 load(1, XDATA, add(CFA_XSP16, literal(-6)))
          CFI (cfiCond144) ?RET_LOW load(1, XDATA, add(CFA_XSP16, literal(-5)))
          CFI (cfiCond144) ?RET_HIGH load(1, XDATA, add(CFA_XSP16, literal(-4)))
          CFI (cfiCond144) ?BRET_EXT load(1, XDATA, add(CFA_XSP16, literal(-3)))
          CFI (cfiCond144) DPL0 load(1, XDATA, add(CFA_XSP16, literal(-2)))
          CFI (cfiCond144) DPH0 load(1, XDATA, add(CFA_XSP16, literal(-1)))
          CFI (cfiCond144) CFA_SP SP+-2
          CFI (cfiCond144) CFA_XSP16 add(XSP16, 10)
          CFI Block cfiCond145 Using cfiCommon0
          CFI (cfiCond145) Function gp_NotificationMsgClean
          CFI (cfiCond145) Conditional ??CrossCallReturnLabel_70
          CFI (cfiCond145) R6 load(1, XDATA, add(CFA_XSP16, literal(-12)))
          CFI (cfiCond145) VB load(1, XDATA, add(CFA_XSP16, literal(-11)))
          CFI (cfiCond145) V0 load(1, XDATA, add(CFA_XSP16, literal(-10)))
          CFI (cfiCond145) V1 load(1, XDATA, add(CFA_XSP16, literal(-9)))
          CFI (cfiCond145) V2 load(1, XDATA, add(CFA_XSP16, literal(-8)))
          CFI (cfiCond145) V3 load(1, XDATA, add(CFA_XSP16, literal(-7)))
          CFI (cfiCond145) R7 load(1, XDATA, add(CFA_XSP16, literal(-6)))
          CFI (cfiCond145) ?RET_LOW load(1, XDATA, add(CFA_XSP16, literal(-5)))
          CFI (cfiCond145) ?RET_HIGH load(1, XDATA, add(CFA_XSP16, literal(-4)))
          CFI (cfiCond145) ?BRET_EXT load(1, XDATA, add(CFA_XSP16, literal(-3)))
          CFI (cfiCond145) DPL0 load(1, XDATA, add(CFA_XSP16, literal(-2)))
          CFI (cfiCond145) DPH0 load(1, XDATA, add(CFA_XSP16, literal(-1)))
          CFI (cfiCond145) CFA_SP SP+-2
          CFI (cfiCond145) CFA_XSP16 add(XSP16, 12)
          CFI Block cfiPicker146 Using cfiCommon1
          CFI (cfiPicker146) NoFunction
          CFI (cfiPicker146) Picker
        MOV     R7,A
          CFI EndBlock cfiCond141
          CFI EndBlock cfiCond142
          CFI EndBlock cfiCond143
          CFI EndBlock cfiCond144
          CFI EndBlock cfiCond145
          CFI EndBlock cfiPicker146
        REQUIRE ??Subroutine38_0
        ; // Fall through to label ??Subroutine38_0

        RSEG BANKED_CODE:CODE:NOROOT(0)
??Subroutine38_0:
          CFI Block cfiCond147 Using cfiCommon0
          CFI Function gp_AddNotificationMsgNode
          CFI Conditional ??CrossCallReturnLabel_80
          CFI R6 load(1, XDATA, add(CFA_XSP16, literal(-12)))
          CFI VB load(1, XDATA, add(CFA_XSP16, literal(-11)))
          CFI V0 load(1, XDATA, add(CFA_XSP16, literal(-10)))
          CFI V1 load(1, XDATA, add(CFA_XSP16, literal(-9)))
          CFI V2 load(1, XDATA, add(CFA_XSP16, literal(-8)))
          CFI V3 load(1, XDATA, add(CFA_XSP16, literal(-7)))
          CFI R7 load(1, XDATA, add(CFA_XSP16, literal(-6)))
          CFI ?RET_LOW load(1, XDATA, add(CFA_XSP16, literal(-5)))
          CFI ?RET_HIGH load(1, XDATA, add(CFA_XSP16, literal(-4)))
          CFI ?BRET_EXT load(1, XDATA, add(CFA_XSP16, literal(-3)))
          CFI DPL0 load(1, XDATA, add(CFA_XSP16, literal(-2)))
          CFI DPH0 load(1, XDATA, add(CFA_XSP16, literal(-1)))
          CFI CFA_SP SP+-2
          CFI CFA_XSP16 add(XSP16, 12)
          CFI Block cfiCond148 Using cfiCommon0
          CFI (cfiCond148) Function gp_AddCmdPayloadMsgNode
          CFI (cfiCond148) Conditional ??CrossCallReturnLabel_81
          CFI (cfiCond148) R6 load(1, XDATA, add(CFA_XSP16, literal(-14)))
          CFI (cfiCond148) VB load(1, XDATA, add(CFA_XSP16, literal(-13)))
          CFI (cfiCond148) V0 load(1, XDATA, add(CFA_XSP16, literal(-12)))
          CFI (cfiCond148) V1 load(1, XDATA, add(CFA_XSP16, literal(-11)))
          CFI (cfiCond148) V2 load(1, XDATA, add(CFA_XSP16, literal(-10)))
          CFI (cfiCond148) V3 load(1, XDATA, add(CFA_XSP16, literal(-9)))
          CFI (cfiCond148) V4 load(1, XDATA, add(CFA_XSP16, literal(-8)))
          CFI (cfiCond148) V5 load(1, XDATA, add(CFA_XSP16, literal(-7)))
          CFI (cfiCond148) R7 load(1, XDATA, add(CFA_XSP16, literal(-6)))
          CFI (cfiCond148) ?RET_LOW load(1, XDATA, add(CFA_XSP16, literal(-5)))
          CFI (cfiCond148) ?RET_HIGH load(1, XDATA, add(CFA_XSP16, literal(-4)))
          CFI (cfiCond148) ?BRET_EXT load(1, XDATA, add(CFA_XSP16, literal(-3)))
          CFI (cfiCond148) DPL0 load(1, XDATA, add(CFA_XSP16, literal(-2)))
          CFI (cfiCond148) DPH0 load(1, XDATA, add(CFA_XSP16, literal(-1)))
          CFI (cfiCond148) CFA_SP SP+-2
          CFI (cfiCond148) CFA_XSP16 add(XSP16, 14)
          CFI Block cfiCond149 Using cfiCommon0
          CFI (cfiCond149) Function gp_AddNotificationMsgNode
          CFI (cfiCond149) Conditional ??CrossCallReturnLabel_71
          CFI (cfiCond149) R6 load(1, XDATA, add(CFA_XSP16, literal(-12)))
          CFI (cfiCond149) VB load(1, XDATA, add(CFA_XSP16, literal(-11)))
          CFI (cfiCond149) V0 load(1, XDATA, add(CFA_XSP16, literal(-10)))
          CFI (cfiCond149) V1 load(1, XDATA, add(CFA_XSP16, literal(-9)))
          CFI (cfiCond149) V2 load(1, XDATA, add(CFA_XSP16, literal(-8)))
          CFI (cfiCond149) V3 load(1, XDATA, add(CFA_XSP16, literal(-7)))
          CFI (cfiCond149) R7 load(1, XDATA, add(CFA_XSP16, literal(-6)))
          CFI (cfiCond149) ?RET_LOW load(1, XDATA, add(CFA_XSP16, literal(-5)))
          CFI (cfiCond149) ?RET_HIGH load(1, XDATA, add(CFA_XSP16, literal(-4)))
          CFI (cfiCond149) ?BRET_EXT load(1, XDATA, add(CFA_XSP16, literal(-3)))
          CFI (cfiCond149) DPL0 load(1, XDATA, add(CFA_XSP16, literal(-2)))
          CFI (cfiCond149) DPH0 load(1, XDATA, add(CFA_XSP16, literal(-1)))
          CFI (cfiCond149) CFA_SP SP+-2
          CFI (cfiCond149) CFA_XSP16 add(XSP16, 12)
          CFI Block cfiCond150 Using cfiCommon0
          CFI (cfiCond150) Function gp_AddCmdPayloadMsgNode
          CFI (cfiCond150) Conditional ??CrossCallReturnLabel_72
          CFI (cfiCond150) R6 load(1, XDATA, add(CFA_XSP16, literal(-14)))
          CFI (cfiCond150) VB load(1, XDATA, add(CFA_XSP16, literal(-13)))
          CFI (cfiCond150) V0 load(1, XDATA, add(CFA_XSP16, literal(-12)))
          CFI (cfiCond150) V1 load(1, XDATA, add(CFA_XSP16, literal(-11)))
          CFI (cfiCond150) V2 load(1, XDATA, add(CFA_XSP16, literal(-10)))
          CFI (cfiCond150) V3 load(1, XDATA, add(CFA_XSP16, literal(-9)))
          CFI (cfiCond150) V4 load(1, XDATA, add(CFA_XSP16, literal(-8)))
          CFI (cfiCond150) V5 load(1, XDATA, add(CFA_XSP16, literal(-7)))
          CFI (cfiCond150) R7 load(1, XDATA, add(CFA_XSP16, literal(-6)))
          CFI (cfiCond150) ?RET_LOW load(1, XDATA, add(CFA_XSP16, literal(-5)))
          CFI (cfiCond150) ?RET_HIGH load(1, XDATA, add(CFA_XSP16, literal(-4)))
          CFI (cfiCond150) ?BRET_EXT load(1, XDATA, add(CFA_XSP16, literal(-3)))
          CFI (cfiCond150) DPL0 load(1, XDATA, add(CFA_XSP16, literal(-2)))
          CFI (cfiCond150) DPH0 load(1, XDATA, add(CFA_XSP16, literal(-1)))
          CFI (cfiCond150) CFA_SP SP+-2
          CFI (cfiCond150) CFA_XSP16 add(XSP16, 14)
          CFI Block cfiCond151 Using cfiCommon0
          CFI (cfiCond151) Function gp_CreateNotificationMsgList
          CFI (cfiCond151) Conditional ??CrossCallReturnLabel_68
          CFI (cfiCond151) R6 load(1, XDATA, add(CFA_XSP16, literal(-10)))
          CFI (cfiCond151) VB load(1, XDATA, add(CFA_XSP16, literal(-9)))
          CFI (cfiCond151) V0 load(1, XDATA, add(CFA_XSP16, literal(-8)))
          CFI (cfiCond151) V1 load(1, XDATA, add(CFA_XSP16, literal(-7)))
          CFI (cfiCond151) R7 load(1, XDATA, add(CFA_XSP16, literal(-6)))
          CFI (cfiCond151) ?RET_LOW load(1, XDATA, add(CFA_XSP16, literal(-5)))
          CFI (cfiCond151) ?RET_HIGH load(1, XDATA, add(CFA_XSP16, literal(-4)))
          CFI (cfiCond151) ?BRET_EXT load(1, XDATA, add(CFA_XSP16, literal(-3)))
          CFI (cfiCond151) DPL0 load(1, XDATA, add(CFA_XSP16, literal(-2)))
          CFI (cfiCond151) DPH0 load(1, XDATA, add(CFA_XSP16, literal(-1)))
          CFI (cfiCond151) CFA_SP SP+-2
          CFI (cfiCond151) CFA_XSP16 add(XSP16, 10)
          CFI Block cfiCond152 Using cfiCommon0
          CFI (cfiCond152) Function gp_CreateCmdPayloadMsgList
          CFI (cfiCond152) Conditional ??CrossCallReturnLabel_69
          CFI (cfiCond152) R6 load(1, XDATA, add(CFA_XSP16, literal(-10)))
          CFI (cfiCond152) VB load(1, XDATA, add(CFA_XSP16, literal(-9)))
          CFI (cfiCond152) V0 load(1, XDATA, add(CFA_XSP16, literal(-8)))
          CFI (cfiCond152) V1 load(1, XDATA, add(CFA_XSP16, literal(-7)))
          CFI (cfiCond152) R7 load(1, XDATA, add(CFA_XSP16, literal(-6)))
          CFI (cfiCond152) ?RET_LOW load(1, XDATA, add(CFA_XSP16, literal(-5)))
          CFI (cfiCond152) ?RET_HIGH load(1, XDATA, add(CFA_XSP16, literal(-4)))
          CFI (cfiCond152) ?BRET_EXT load(1, XDATA, add(CFA_XSP16, literal(-3)))
          CFI (cfiCond152) DPL0 load(1, XDATA, add(CFA_XSP16, literal(-2)))
          CFI (cfiCond152) DPH0 load(1, XDATA, add(CFA_XSP16, literal(-1)))
          CFI (cfiCond152) CFA_SP SP+-2
          CFI (cfiCond152) CFA_XSP16 add(XSP16, 10)
          CFI Block cfiCond153 Using cfiCommon0
          CFI (cfiCond153) Function gp_NotificationMsgClean
          CFI (cfiCond153) Conditional ??CrossCallReturnLabel_70
          CFI (cfiCond153) R6 load(1, XDATA, add(CFA_XSP16, literal(-12)))
          CFI (cfiCond153) VB load(1, XDATA, add(CFA_XSP16, literal(-11)))
          CFI (cfiCond153) V0 load(1, XDATA, add(CFA_XSP16, literal(-10)))
          CFI (cfiCond153) V1 load(1, XDATA, add(CFA_XSP16, literal(-9)))
          CFI (cfiCond153) V2 load(1, XDATA, add(CFA_XSP16, literal(-8)))
          CFI (cfiCond153) V3 load(1, XDATA, add(CFA_XSP16, literal(-7)))
          CFI (cfiCond153) R7 load(1, XDATA, add(CFA_XSP16, literal(-6)))
          CFI (cfiCond153) ?RET_LOW load(1, XDATA, add(CFA_XSP16, literal(-5)))
          CFI (cfiCond153) ?RET_HIGH load(1, XDATA, add(CFA_XSP16, literal(-4)))
          CFI (cfiCond153) ?BRET_EXT load(1, XDATA, add(CFA_XSP16, literal(-3)))
          CFI (cfiCond153) DPL0 load(1, XDATA, add(CFA_XSP16, literal(-2)))
          CFI (cfiCond153) DPH0 load(1, XDATA, add(CFA_XSP16, literal(-1)))
          CFI (cfiCond153) CFA_SP SP+-2
          CFI (cfiCond153) CFA_XSP16 add(XSP16, 12)
          CFI Block cfiPicker154 Using cfiCommon1
          CFI (cfiPicker154) NoFunction
          CFI (cfiPicker154) Picker
        MOV     DPL,R6
        MOV     DPH,R7
          CFI EndBlock cfiCond147
          CFI EndBlock cfiCond148
          CFI EndBlock cfiCond149
          CFI EndBlock cfiCond150
          CFI EndBlock cfiCond151
          CFI EndBlock cfiCond152
          CFI EndBlock cfiCond153
          CFI EndBlock cfiPicker154
        REQUIRE ??Subroutine39_0
        ; // Fall through to label ??Subroutine39_0

        RSEG BANKED_CODE:CODE:NOROOT(0)
??Subroutine39_0:
          CFI Block cfiCond155 Using cfiCommon0
          CFI Function zclGp_HdlIncoming
          CFI Conditional ??CrossCallReturnLabel_73
          CFI R6 load(1, XDATA, add(CFA_XSP16, literal(-9)))
          CFI VB load(1, XDATA, add(CFA_XSP16, literal(-8)))
          CFI V0 load(1, XDATA, add(CFA_XSP16, literal(-7)))
          CFI R7 load(1, XDATA, add(CFA_XSP16, literal(-6)))
          CFI ?RET_LOW load(1, XDATA, add(CFA_XSP16, literal(-5)))
          CFI ?RET_HIGH load(1, XDATA, add(CFA_XSP16, literal(-4)))
          CFI ?BRET_EXT load(1, XDATA, add(CFA_XSP16, literal(-3)))
          CFI DPL0 load(1, XDATA, add(CFA_XSP16, literal(-2)))
          CFI DPH0 load(1, XDATA, add(CFA_XSP16, literal(-1)))
          CFI CFA_SP SP+-2
          CFI CFA_XSP16 add(XSP16, 9)
          CFI Block cfiCond156 Using cfiCommon0
          CFI (cfiCond156) Function zclGp_ProcessInGreenPowerClient
          CFI (cfiCond156) Conditional ??CrossCallReturnLabel_74
          CFI (cfiCond156) R6 load(1, XDATA, add(CFA_XSP16, literal(-19)))
          CFI (cfiCond156) VB load(1, XDATA, add(CFA_XSP16, literal(-18)))
          CFI (cfiCond156) V0 load(1, XDATA, add(CFA_XSP16, literal(-17)))
          CFI (cfiCond156) V1 load(1, XDATA, add(CFA_XSP16, literal(-16)))
          CFI (cfiCond156) V2 load(1, XDATA, add(CFA_XSP16, literal(-15)))
          CFI (cfiCond156) V3 load(1, XDATA, add(CFA_XSP16, literal(-14)))
          CFI (cfiCond156) V4 load(1, XDATA, add(CFA_XSP16, literal(-13)))
          CFI (cfiCond156) V5 load(1, XDATA, add(CFA_XSP16, literal(-12)))
          CFI (cfiCond156) V6 load(1, XDATA, add(CFA_XSP16, literal(-11)))
          CFI (cfiCond156) V7 load(1, XDATA, add(CFA_XSP16, literal(-10)))
          CFI (cfiCond156) V8 load(1, XDATA, add(CFA_XSP16, literal(-9)))
          CFI (cfiCond156) V9 load(1, XDATA, add(CFA_XSP16, literal(-8)))
          CFI (cfiCond156) V10 load(1, XDATA, add(CFA_XSP16, literal(-7)))
          CFI (cfiCond156) R7 load(1, XDATA, add(CFA_XSP16, literal(-6)))
          CFI (cfiCond156) ?RET_LOW load(1, XDATA, add(CFA_XSP16, literal(-5)))
          CFI (cfiCond156) ?RET_HIGH load(1, XDATA, add(CFA_XSP16, literal(-4)))
          CFI (cfiCond156) ?BRET_EXT load(1, XDATA, add(CFA_XSP16, literal(-3)))
          CFI (cfiCond156) DPL0 load(1, XDATA, add(CFA_XSP16, literal(-2)))
          CFI (cfiCond156) DPH0 load(1, XDATA, add(CFA_XSP16, literal(-1)))
          CFI (cfiCond156) CFA_SP SP+-2
          CFI (cfiCond156) CFA_XSP16 add(XSP16, 39)
          CFI Block cfiCond157 Using cfiCommon0
          CFI (cfiCond157) Function zclGp_ProcessInGreenPowerClient
          CFI (cfiCond157) Conditional ??CrossCallReturnLabel_75
          CFI (cfiCond157) R6 load(1, XDATA, add(CFA_XSP16, literal(-19)))
          CFI (cfiCond157) VB load(1, XDATA, add(CFA_XSP16, literal(-18)))
          CFI (cfiCond157) V0 load(1, XDATA, add(CFA_XSP16, literal(-17)))
          CFI (cfiCond157) V1 load(1, XDATA, add(CFA_XSP16, literal(-16)))
          CFI (cfiCond157) V2 load(1, XDATA, add(CFA_XSP16, literal(-15)))
          CFI (cfiCond157) V3 load(1, XDATA, add(CFA_XSP16, literal(-14)))
          CFI (cfiCond157) V4 load(1, XDATA, add(CFA_XSP16, literal(-13)))
          CFI (cfiCond157) V5 load(1, XDATA, add(CFA_XSP16, literal(-12)))
          CFI (cfiCond157) V6 load(1, XDATA, add(CFA_XSP16, literal(-11)))
          CFI (cfiCond157) V7 load(1, XDATA, add(CFA_XSP16, literal(-10)))
          CFI (cfiCond157) V8 load(1, XDATA, add(CFA_XSP16, literal(-9)))
          CFI (cfiCond157) V9 load(1, XDATA, add(CFA_XSP16, literal(-8)))
          CFI (cfiCond157) V10 load(1, XDATA, add(CFA_XSP16, literal(-7)))
          CFI (cfiCond157) R7 load(1, XDATA, add(CFA_XSP16, literal(-6)))
          CFI (cfiCond157) ?RET_LOW load(1, XDATA, add(CFA_XSP16, literal(-5)))
          CFI (cfiCond157) ?RET_HIGH load(1, XDATA, add(CFA_XSP16, literal(-4)))
          CFI (cfiCond157) ?BRET_EXT load(1, XDATA, add(CFA_XSP16, literal(-3)))
          CFI (cfiCond157) DPL0 load(1, XDATA, add(CFA_XSP16, literal(-2)))
          CFI (cfiCond157) DPH0 load(1, XDATA, add(CFA_XSP16, literal(-1)))
          CFI (cfiCond157) CFA_SP SP+-2
          CFI (cfiCond157) CFA_XSP16 add(XSP16, 39)
          CFI Block cfiCond158 Using cfiCommon0
          CFI (cfiCond158) Function zclGp_ProcessInGreenPowerClient
          CFI (cfiCond158) Conditional ??CrossCallReturnLabel_76
          CFI (cfiCond158) R6 load(1, XDATA, add(CFA_XSP16, literal(-19)))
          CFI (cfiCond158) VB load(1, XDATA, add(CFA_XSP16, literal(-18)))
          CFI (cfiCond158) V0 load(1, XDATA, add(CFA_XSP16, literal(-17)))
          CFI (cfiCond158) V1 load(1, XDATA, add(CFA_XSP16, literal(-16)))
          CFI (cfiCond158) V2 load(1, XDATA, add(CFA_XSP16, literal(-15)))
          CFI (cfiCond158) V3 load(1, XDATA, add(CFA_XSP16, literal(-14)))
          CFI (cfiCond158) V4 load(1, XDATA, add(CFA_XSP16, literal(-13)))
          CFI (cfiCond158) V5 load(1, XDATA, add(CFA_XSP16, literal(-12)))
          CFI (cfiCond158) V6 load(1, XDATA, add(CFA_XSP16, literal(-11)))
          CFI (cfiCond158) V7 load(1, XDATA, add(CFA_XSP16, literal(-10)))
          CFI (cfiCond158) V8 load(1, XDATA, add(CFA_XSP16, literal(-9)))
          CFI (cfiCond158) V9 load(1, XDATA, add(CFA_XSP16, literal(-8)))
          CFI (cfiCond158) V10 load(1, XDATA, add(CFA_XSP16, literal(-7)))
          CFI (cfiCond158) R7 load(1, XDATA, add(CFA_XSP16, literal(-6)))
          CFI (cfiCond158) ?RET_LOW load(1, XDATA, add(CFA_XSP16, literal(-5)))
          CFI (cfiCond158) ?RET_HIGH load(1, XDATA, add(CFA_XSP16, literal(-4)))
          CFI (cfiCond158) ?BRET_EXT load(1, XDATA, add(CFA_XSP16, literal(-3)))
          CFI (cfiCond158) DPL0 load(1, XDATA, add(CFA_XSP16, literal(-2)))
          CFI (cfiCond158) DPH0 load(1, XDATA, add(CFA_XSP16, literal(-1)))
          CFI (cfiCond158) CFA_SP SP+-2
          CFI (cfiCond158) CFA_XSP16 add(XSP16, 39)
          CFI Block cfiCond159 Using cfiCommon0
          CFI (cfiCond159) Function zclGp_ProcessInGreenPowerClient
          CFI (cfiCond159) Conditional ??CrossCallReturnLabel_77
          CFI (cfiCond159) R6 load(1, XDATA, add(CFA_XSP16, literal(-19)))
          CFI (cfiCond159) VB load(1, XDATA, add(CFA_XSP16, literal(-18)))
          CFI (cfiCond159) V0 load(1, XDATA, add(CFA_XSP16, literal(-17)))
          CFI (cfiCond159) V1 load(1, XDATA, add(CFA_XSP16, literal(-16)))
          CFI (cfiCond159) V2 load(1, XDATA, add(CFA_XSP16, literal(-15)))
          CFI (cfiCond159) V3 load(1, XDATA, add(CFA_XSP16, literal(-14)))
          CFI (cfiCond159) V4 load(1, XDATA, add(CFA_XSP16, literal(-13)))
          CFI (cfiCond159) V5 load(1, XDATA, add(CFA_XSP16, literal(-12)))
          CFI (cfiCond159) V6 load(1, XDATA, add(CFA_XSP16, literal(-11)))
          CFI (cfiCond159) V7 load(1, XDATA, add(CFA_XSP16, literal(-10)))
          CFI (cfiCond159) V8 load(1, XDATA, add(CFA_XSP16, literal(-9)))
          CFI (cfiCond159) V9 load(1, XDATA, add(CFA_XSP16, literal(-8)))
          CFI (cfiCond159) V10 load(1, XDATA, add(CFA_XSP16, literal(-7)))
          CFI (cfiCond159) R7 load(1, XDATA, add(CFA_XSP16, literal(-6)))
          CFI (cfiCond159) ?RET_LOW load(1, XDATA, add(CFA_XSP16, literal(-5)))
          CFI (cfiCond159) ?RET_HIGH load(1, XDATA, add(CFA_XSP16, literal(-4)))
          CFI (cfiCond159) ?BRET_EXT load(1, XDATA, add(CFA_XSP16, literal(-3)))
          CFI (cfiCond159) DPL0 load(1, XDATA, add(CFA_XSP16, literal(-2)))
          CFI (cfiCond159) DPH0 load(1, XDATA, add(CFA_XSP16, literal(-1)))
          CFI (cfiCond159) CFA_SP SP+-2
          CFI (cfiCond159) CFA_XSP16 add(XSP16, 39)
          CFI Block cfiCond160 Using cfiCommon0
          CFI (cfiCond160) Function zclGp_SendGpProxyTableResponse
          CFI (cfiCond160) Conditional ??CrossCallReturnLabel_78
          CFI (cfiCond160) R6 load(1, XDATA, add(CFA_XSP16, literal(-22)))
          CFI (cfiCond160) VB load(1, XDATA, add(CFA_XSP16, literal(-21)))
          CFI (cfiCond160) V0 load(1, XDATA, add(CFA_XSP16, literal(-20)))
          CFI (cfiCond160) V1 load(1, XDATA, add(CFA_XSP16, literal(-19)))
          CFI (cfiCond160) V2 load(1, XDATA, add(CFA_XSP16, literal(-18)))
          CFI (cfiCond160) V3 load(1, XDATA, add(CFA_XSP16, literal(-17)))
          CFI (cfiCond160) V4 load(1, XDATA, add(CFA_XSP16, literal(-16)))
          CFI (cfiCond160) V5 load(1, XDATA, add(CFA_XSP16, literal(-15)))
          CFI (cfiCond160) V6 load(1, XDATA, add(CFA_XSP16, literal(-14)))
          CFI (cfiCond160) V7 load(1, XDATA, add(CFA_XSP16, literal(-13)))
          CFI (cfiCond160) V8 load(1, XDATA, add(CFA_XSP16, literal(-12)))
          CFI (cfiCond160) V9 load(1, XDATA, add(CFA_XSP16, literal(-11)))
          CFI (cfiCond160) V10 load(1, XDATA, add(CFA_XSP16, literal(-10)))
          CFI (cfiCond160) V11 load(1, XDATA, add(CFA_XSP16, literal(-9)))
          CFI (cfiCond160) V12 load(1, XDATA, add(CFA_XSP16, literal(-8)))
          CFI (cfiCond160) V13 load(1, XDATA, add(CFA_XSP16, literal(-7)))
          CFI (cfiCond160) R7 load(1, XDATA, add(CFA_XSP16, literal(-6)))
          CFI (cfiCond160) ?RET_LOW load(1, XDATA, add(CFA_XSP16, literal(-5)))
          CFI (cfiCond160) ?RET_HIGH load(1, XDATA, add(CFA_XSP16, literal(-4)))
          CFI (cfiCond160) ?BRET_EXT load(1, XDATA, add(CFA_XSP16, literal(-3)))
          CFI (cfiCond160) DPL0 load(1, XDATA, add(CFA_XSP16, literal(-2)))
          CFI (cfiCond160) DPH0 load(1, XDATA, add(CFA_XSP16, literal(-1)))
          CFI (cfiCond160) CFA_SP SP+-2
          CFI (cfiCond160) CFA_XSP16 add(XSP16, 24)
          CFI Block cfiCond161 Using cfiCommon0
          CFI (cfiCond161) Function zclGp_SendGpProxyTableResponse
          CFI (cfiCond161) Conditional ??CrossCallReturnLabel_79
          CFI (cfiCond161) R6 load(1, XDATA, add(CFA_XSP16, literal(-22)))
          CFI (cfiCond161) VB load(1, XDATA, add(CFA_XSP16, literal(-21)))
          CFI (cfiCond161) V0 load(1, XDATA, add(CFA_XSP16, literal(-20)))
          CFI (cfiCond161) V1 load(1, XDATA, add(CFA_XSP16, literal(-19)))
          CFI (cfiCond161) V2 load(1, XDATA, add(CFA_XSP16, literal(-18)))
          CFI (cfiCond161) V3 load(1, XDATA, add(CFA_XSP16, literal(-17)))
          CFI (cfiCond161) V4 load(1, XDATA, add(CFA_XSP16, literal(-16)))
          CFI (cfiCond161) V5 load(1, XDATA, add(CFA_XSP16, literal(-15)))
          CFI (cfiCond161) V6 load(1, XDATA, add(CFA_XSP16, literal(-14)))
          CFI (cfiCond161) V7 load(1, XDATA, add(CFA_XSP16, literal(-13)))
          CFI (cfiCond161) V8 load(1, XDATA, add(CFA_XSP16, literal(-12)))
          CFI (cfiCond161) V9 load(1, XDATA, add(CFA_XSP16, literal(-11)))
          CFI (cfiCond161) V10 load(1, XDATA, add(CFA_XSP16, literal(-10)))
          CFI (cfiCond161) V11 load(1, XDATA, add(CFA_XSP16, literal(-9)))
          CFI (cfiCond161) V12 load(1, XDATA, add(CFA_XSP16, literal(-8)))
          CFI (cfiCond161) V13 load(1, XDATA, add(CFA_XSP16, literal(-7)))
          CFI (cfiCond161) R7 load(1, XDATA, add(CFA_XSP16, literal(-6)))
          CFI (cfiCond161) ?RET_LOW load(1, XDATA, add(CFA_XSP16, literal(-5)))
          CFI (cfiCond161) ?RET_HIGH load(1, XDATA, add(CFA_XSP16, literal(-4)))
          CFI (cfiCond161) ?BRET_EXT load(1, XDATA, add(CFA_XSP16, literal(-3)))
          CFI (cfiCond161) DPL0 load(1, XDATA, add(CFA_XSP16, literal(-2)))
          CFI (cfiCond161) DPH0 load(1, XDATA, add(CFA_XSP16, literal(-1)))
          CFI (cfiCond161) CFA_SP SP+-2
          CFI (cfiCond161) CFA_XSP16 add(XSP16, 24)
          CFI Block cfiCond162 Using cfiCommon0
          CFI (cfiCond162) Function gp_AddNotificationMsgNode
          CFI (cfiCond162) Conditional ??CrossCallReturnLabel_80
          CFI (cfiCond162) R6 load(1, XDATA, add(CFA_XSP16, literal(-12)))
          CFI (cfiCond162) VB load(1, XDATA, add(CFA_XSP16, literal(-11)))
          CFI (cfiCond162) V0 load(1, XDATA, add(CFA_XSP16, literal(-10)))
          CFI (cfiCond162) V1 load(1, XDATA, add(CFA_XSP16, literal(-9)))
          CFI (cfiCond162) V2 load(1, XDATA, add(CFA_XSP16, literal(-8)))
          CFI (cfiCond162) V3 load(1, XDATA, add(CFA_XSP16, literal(-7)))
          CFI (cfiCond162) R7 load(1, XDATA, add(CFA_XSP16, literal(-6)))
          CFI (cfiCond162) ?RET_LOW load(1, XDATA, add(CFA_XSP16, literal(-5)))
          CFI (cfiCond162) ?RET_HIGH load(1, XDATA, add(CFA_XSP16, literal(-4)))
          CFI (cfiCond162) ?BRET_EXT load(1, XDATA, add(CFA_XSP16, literal(-3)))
          CFI (cfiCond162) DPL0 load(1, XDATA, add(CFA_XSP16, literal(-2)))
          CFI (cfiCond162) DPH0 load(1, XDATA, add(CFA_XSP16, literal(-1)))
          CFI (cfiCond162) CFA_SP SP+-2
          CFI (cfiCond162) CFA_XSP16 add(XSP16, 12)
          CFI Block cfiCond163 Using cfiCommon0
          CFI (cfiCond163) Function gp_AddCmdPayloadMsgNode
          CFI (cfiCond163) Conditional ??CrossCallReturnLabel_81
          CFI (cfiCond163) R6 load(1, XDATA, add(CFA_XSP16, literal(-14)))
          CFI (cfiCond163) VB load(1, XDATA, add(CFA_XSP16, literal(-13)))
          CFI (cfiCond163) V0 load(1, XDATA, add(CFA_XSP16, literal(-12)))
          CFI (cfiCond163) V1 load(1, XDATA, add(CFA_XSP16, literal(-11)))
          CFI (cfiCond163) V2 load(1, XDATA, add(CFA_XSP16, literal(-10)))
          CFI (cfiCond163) V3 load(1, XDATA, add(CFA_XSP16, literal(-9)))
          CFI (cfiCond163) V4 load(1, XDATA, add(CFA_XSP16, literal(-8)))
          CFI (cfiCond163) V5 load(1, XDATA, add(CFA_XSP16, literal(-7)))
          CFI (cfiCond163) R7 load(1, XDATA, add(CFA_XSP16, literal(-6)))
          CFI (cfiCond163) ?RET_LOW load(1, XDATA, add(CFA_XSP16, literal(-5)))
          CFI (cfiCond163) ?RET_HIGH load(1, XDATA, add(CFA_XSP16, literal(-4)))
          CFI (cfiCond163) ?BRET_EXT load(1, XDATA, add(CFA_XSP16, literal(-3)))
          CFI (cfiCond163) DPL0 load(1, XDATA, add(CFA_XSP16, literal(-2)))
          CFI (cfiCond163) DPH0 load(1, XDATA, add(CFA_XSP16, literal(-1)))
          CFI (cfiCond163) CFA_SP SP+-2
          CFI (cfiCond163) CFA_XSP16 add(XSP16, 14)
          CFI Block cfiCond164 Using cfiCommon0
          CFI (cfiCond164) Function gp_AddNotificationMsgNode
          CFI (cfiCond164) Conditional ??CrossCallReturnLabel_71
          CFI (cfiCond164) R6 load(1, XDATA, add(CFA_XSP16, literal(-12)))
          CFI (cfiCond164) VB load(1, XDATA, add(CFA_XSP16, literal(-11)))
          CFI (cfiCond164) V0 load(1, XDATA, add(CFA_XSP16, literal(-10)))
          CFI (cfiCond164) V1 load(1, XDATA, add(CFA_XSP16, literal(-9)))
          CFI (cfiCond164) V2 load(1, XDATA, add(CFA_XSP16, literal(-8)))
          CFI (cfiCond164) V3 load(1, XDATA, add(CFA_XSP16, literal(-7)))
          CFI (cfiCond164) R7 load(1, XDATA, add(CFA_XSP16, literal(-6)))
          CFI (cfiCond164) ?RET_LOW load(1, XDATA, add(CFA_XSP16, literal(-5)))
          CFI (cfiCond164) ?RET_HIGH load(1, XDATA, add(CFA_XSP16, literal(-4)))
          CFI (cfiCond164) ?BRET_EXT load(1, XDATA, add(CFA_XSP16, literal(-3)))
          CFI (cfiCond164) DPL0 load(1, XDATA, add(CFA_XSP16, literal(-2)))
          CFI (cfiCond164) DPH0 load(1, XDATA, add(CFA_XSP16, literal(-1)))
          CFI (cfiCond164) CFA_SP SP+-2
          CFI (cfiCond164) CFA_XSP16 add(XSP16, 12)
          CFI Block cfiCond165 Using cfiCommon0
          CFI (cfiCond165) Function gp_AddCmdPayloadMsgNode
          CFI (cfiCond165) Conditional ??CrossCallReturnLabel_72
          CFI (cfiCond165) R6 load(1, XDATA, add(CFA_XSP16, literal(-14)))
          CFI (cfiCond165) VB load(1, XDATA, add(CFA_XSP16, literal(-13)))
          CFI (cfiCond165) V0 load(1, XDATA, add(CFA_XSP16, literal(-12)))
          CFI (cfiCond165) V1 load(1, XDATA, add(CFA_XSP16, literal(-11)))
          CFI (cfiCond165) V2 load(1, XDATA, add(CFA_XSP16, literal(-10)))
          CFI (cfiCond165) V3 load(1, XDATA, add(CFA_XSP16, literal(-9)))
          CFI (cfiCond165) V4 load(1, XDATA, add(CFA_XSP16, literal(-8)))
          CFI (cfiCond165) V5 load(1, XDATA, add(CFA_XSP16, literal(-7)))
          CFI (cfiCond165) R7 load(1, XDATA, add(CFA_XSP16, literal(-6)))
          CFI (cfiCond165) ?RET_LOW load(1, XDATA, add(CFA_XSP16, literal(-5)))
          CFI (cfiCond165) ?RET_HIGH load(1, XDATA, add(CFA_XSP16, literal(-4)))
          CFI (cfiCond165) ?BRET_EXT load(1, XDATA, add(CFA_XSP16, literal(-3)))
          CFI (cfiCond165) DPL0 load(1, XDATA, add(CFA_XSP16, literal(-2)))
          CFI (cfiCond165) DPH0 load(1, XDATA, add(CFA_XSP16, literal(-1)))
          CFI (cfiCond165) CFA_SP SP+-2
          CFI (cfiCond165) CFA_XSP16 add(XSP16, 14)
          CFI Block cfiCond166 Using cfiCommon0
          CFI (cfiCond166) Function gp_CreateNotificationMsgList
          CFI (cfiCond166) Conditional ??CrossCallReturnLabel_68
          CFI (cfiCond166) R6 load(1, XDATA, add(CFA_XSP16, literal(-10)))
          CFI (cfiCond166) VB load(1, XDATA, add(CFA_XSP16, literal(-9)))
          CFI (cfiCond166) V0 load(1, XDATA, add(CFA_XSP16, literal(-8)))
          CFI (cfiCond166) V1 load(1, XDATA, add(CFA_XSP16, literal(-7)))
          CFI (cfiCond166) R7 load(1, XDATA, add(CFA_XSP16, literal(-6)))
          CFI (cfiCond166) ?RET_LOW load(1, XDATA, add(CFA_XSP16, literal(-5)))
          CFI (cfiCond166) ?RET_HIGH load(1, XDATA, add(CFA_XSP16, literal(-4)))
          CFI (cfiCond166) ?BRET_EXT load(1, XDATA, add(CFA_XSP16, literal(-3)))
          CFI (cfiCond166) DPL0 load(1, XDATA, add(CFA_XSP16, literal(-2)))
          CFI (cfiCond166) DPH0 load(1, XDATA, add(CFA_XSP16, literal(-1)))
          CFI (cfiCond166) CFA_SP SP+-2
          CFI (cfiCond166) CFA_XSP16 add(XSP16, 10)
          CFI Block cfiCond167 Using cfiCommon0
          CFI (cfiCond167) Function gp_CreateCmdPayloadMsgList
          CFI (cfiCond167) Conditional ??CrossCallReturnLabel_69
          CFI (cfiCond167) R6 load(1, XDATA, add(CFA_XSP16, literal(-10)))
          CFI (cfiCond167) VB load(1, XDATA, add(CFA_XSP16, literal(-9)))
          CFI (cfiCond167) V0 load(1, XDATA, add(CFA_XSP16, literal(-8)))
          CFI (cfiCond167) V1 load(1, XDATA, add(CFA_XSP16, literal(-7)))
          CFI (cfiCond167) R7 load(1, XDATA, add(CFA_XSP16, literal(-6)))
          CFI (cfiCond167) ?RET_LOW load(1, XDATA, add(CFA_XSP16, literal(-5)))
          CFI (cfiCond167) ?RET_HIGH load(1, XDATA, add(CFA_XSP16, literal(-4)))
          CFI (cfiCond167) ?BRET_EXT load(1, XDATA, add(CFA_XSP16, literal(-3)))
          CFI (cfiCond167) DPL0 load(1, XDATA, add(CFA_XSP16, literal(-2)))
          CFI (cfiCond167) DPH0 load(1, XDATA, add(CFA_XSP16, literal(-1)))
          CFI (cfiCond167) CFA_SP SP+-2
          CFI (cfiCond167) CFA_XSP16 add(XSP16, 10)
          CFI Block cfiCond168 Using cfiCommon0
          CFI (cfiCond168) Function gp_NotificationMsgClean
          CFI (cfiCond168) Conditional ??CrossCallReturnLabel_70
          CFI (cfiCond168) R6 load(1, XDATA, add(CFA_XSP16, literal(-12)))
          CFI (cfiCond168) VB load(1, XDATA, add(CFA_XSP16, literal(-11)))
          CFI (cfiCond168) V0 load(1, XDATA, add(CFA_XSP16, literal(-10)))
          CFI (cfiCond168) V1 load(1, XDATA, add(CFA_XSP16, literal(-9)))
          CFI (cfiCond168) V2 load(1, XDATA, add(CFA_XSP16, literal(-8)))
          CFI (cfiCond168) V3 load(1, XDATA, add(CFA_XSP16, literal(-7)))
          CFI (cfiCond168) R7 load(1, XDATA, add(CFA_XSP16, literal(-6)))
          CFI (cfiCond168) ?RET_LOW load(1, XDATA, add(CFA_XSP16, literal(-5)))
          CFI (cfiCond168) ?RET_HIGH load(1, XDATA, add(CFA_XSP16, literal(-4)))
          CFI (cfiCond168) ?BRET_EXT load(1, XDATA, add(CFA_XSP16, literal(-3)))
          CFI (cfiCond168) DPL0 load(1, XDATA, add(CFA_XSP16, literal(-2)))
          CFI (cfiCond168) DPH0 load(1, XDATA, add(CFA_XSP16, literal(-1)))
          CFI (cfiCond168) CFA_SP SP+-2
          CFI (cfiCond168) CFA_XSP16 add(XSP16, 12)
          CFI Block cfiPicker169 Using cfiCommon1
          CFI (cfiPicker169) NoFunction
          CFI (cfiPicker169) Picker
        LCALL   ?Subroutine30 & 0xFFFF
??CrossCallReturnLabel_93:
        MOV     R1,A
        MOV     A,R0
        ORL     A,R1
        RET
          CFI EndBlock cfiCond155
          CFI EndBlock cfiCond156
          CFI EndBlock cfiCond157
          CFI EndBlock cfiCond158
          CFI EndBlock cfiCond159
          CFI EndBlock cfiCond160
          CFI EndBlock cfiCond161
          CFI EndBlock cfiCond162
          CFI EndBlock cfiCond163
          CFI EndBlock cfiCond164
          CFI EndBlock cfiCond165
          CFI EndBlock cfiCond166
          CFI EndBlock cfiCond167
          CFI EndBlock cfiCond168
          CFI EndBlock cfiPicker169

        RSEG BANKED_CODE:CODE:NOROOT(0)
?Subroutine30:
          CFI Block cfiCond170 Using cfiCommon0
          CFI Function zclGp_ProcessInGreenPowerClient
          CFI Conditional ??CrossCallReturnLabel_89
          CFI R6 load(1, XDATA, add(CFA_XSP16, literal(-19)))
          CFI VB load(1, XDATA, add(CFA_XSP16, literal(-18)))
          CFI V0 load(1, XDATA, add(CFA_XSP16, literal(-17)))
          CFI V1 load(1, XDATA, add(CFA_XSP16, literal(-16)))
          CFI V2 load(1, XDATA, add(CFA_XSP16, literal(-15)))
          CFI V3 load(1, XDATA, add(CFA_XSP16, literal(-14)))
          CFI V4 load(1, XDATA, add(CFA_XSP16, literal(-13)))
          CFI V5 load(1, XDATA, add(CFA_XSP16, literal(-12)))
          CFI V6 load(1, XDATA, add(CFA_XSP16, literal(-11)))
          CFI V7 load(1, XDATA, add(CFA_XSP16, literal(-10)))
          CFI V8 load(1, XDATA, add(CFA_XSP16, literal(-9)))
          CFI V9 load(1, XDATA, add(CFA_XSP16, literal(-8)))
          CFI V10 load(1, XDATA, add(CFA_XSP16, literal(-7)))
          CFI R7 load(1, XDATA, add(CFA_XSP16, literal(-6)))
          CFI ?RET_LOW load(1, XDATA, add(CFA_XSP16, literal(-5)))
          CFI ?RET_HIGH load(1, XDATA, add(CFA_XSP16, literal(-4)))
          CFI ?BRET_EXT load(1, XDATA, add(CFA_XSP16, literal(-3)))
          CFI DPL0 load(1, XDATA, add(CFA_XSP16, literal(-2)))
          CFI DPH0 load(1, XDATA, add(CFA_XSP16, literal(-1)))
          CFI CFA_SP SP+-2
          CFI CFA_XSP16 add(XSP16, 39)
          CFI Block cfiCond171 Using cfiCommon0
          CFI (cfiCond171) Function zclGp_ProcessInGreenPowerClient
          CFI (cfiCond171) Conditional ??CrossCallReturnLabel_91, ??CrossCallReturnLabel_8
          CFI (cfiCond171) R6 load(1, XDATA, add(CFA_XSP16, literal(-19)))
          CFI (cfiCond171) VB load(1, XDATA, add(CFA_XSP16, literal(-18)))
          CFI (cfiCond171) V0 load(1, XDATA, add(CFA_XSP16, literal(-17)))
          CFI (cfiCond171) V1 load(1, XDATA, add(CFA_XSP16, literal(-16)))
          CFI (cfiCond171) V2 load(1, XDATA, add(CFA_XSP16, literal(-15)))
          CFI (cfiCond171) V3 load(1, XDATA, add(CFA_XSP16, literal(-14)))
          CFI (cfiCond171) V4 load(1, XDATA, add(CFA_XSP16, literal(-13)))
          CFI (cfiCond171) V5 load(1, XDATA, add(CFA_XSP16, literal(-12)))
          CFI (cfiCond171) V6 load(1, XDATA, add(CFA_XSP16, literal(-11)))
          CFI (cfiCond171) V7 load(1, XDATA, add(CFA_XSP16, literal(-10)))
          CFI (cfiCond171) V8 load(1, XDATA, add(CFA_XSP16, literal(-9)))
          CFI (cfiCond171) V9 load(1, XDATA, add(CFA_XSP16, literal(-8)))
          CFI (cfiCond171) V10 load(1, XDATA, add(CFA_XSP16, literal(-7)))
          CFI (cfiCond171) R7 load(1, XDATA, add(CFA_XSP16, literal(-6)))
          CFI (cfiCond171) ?RET_LOW load(1, XDATA, add(CFA_XSP16, literal(-5)))
          CFI (cfiCond171) ?RET_HIGH load(1, XDATA, add(CFA_XSP16, literal(-4)))
          CFI (cfiCond171) ?BRET_EXT load(1, XDATA, add(CFA_XSP16, literal(-3)))
          CFI (cfiCond171) DPL0 load(1, XDATA, add(CFA_XSP16, literal(-2)))
          CFI (cfiCond171) DPH0 load(1, XDATA, add(CFA_XSP16, literal(-1)))
          CFI (cfiCond171) CFA_SP SP+-4
          CFI (cfiCond171) CFA_XSP16 add(XSP16, 39)
          CFI Block cfiCond172 Using cfiCommon0
          CFI (cfiCond172) Function zclGp_SendGpCommissioningNotificationCommand
          CFI (cfiCond172) Conditional ??CrossCallReturnLabel_91, ??CrossCallReturnLabel_9
          CFI (cfiCond172) R6 load(1, XDATA, add(CFA_XSP16, literal(-20)))
          CFI (cfiCond172) VB load(1, XDATA, add(CFA_XSP16, literal(-19)))
          CFI (cfiCond172) V0 load(1, XDATA, add(CFA_XSP16, literal(-18)))
          CFI (cfiCond172) V1 load(1, XDATA, add(CFA_XSP16, literal(-17)))
          CFI (cfiCond172) V2 load(1, XDATA, add(CFA_XSP16, literal(-16)))
          CFI (cfiCond172) V3 load(1, XDATA, add(CFA_XSP16, literal(-15)))
          CFI (cfiCond172) V4 load(1, XDATA, add(CFA_XSP16, literal(-14)))
          CFI (cfiCond172) V5 load(1, XDATA, add(CFA_XSP16, literal(-13)))
          CFI (cfiCond172) V6 load(1, XDATA, add(CFA_XSP16, literal(-12)))
          CFI (cfiCond172) V7 load(1, XDATA, add(CFA_XSP16, literal(-11)))
          CFI (cfiCond172) V8 load(1, XDATA, add(CFA_XSP16, literal(-10)))
          CFI (cfiCond172) V9 load(1, XDATA, add(CFA_XSP16, literal(-9)))
          CFI (cfiCond172) V10 load(1, XDATA, add(CFA_XSP16, literal(-8)))
          CFI (cfiCond172) V11 load(1, XDATA, add(CFA_XSP16, literal(-7)))
          CFI (cfiCond172) R7 load(1, XDATA, add(CFA_XSP16, literal(-6)))
          CFI (cfiCond172) ?RET_LOW load(1, XDATA, add(CFA_XSP16, literal(-5)))
          CFI (cfiCond172) ?RET_HIGH load(1, XDATA, add(CFA_XSP16, literal(-4)))
          CFI (cfiCond172) ?BRET_EXT load(1, XDATA, add(CFA_XSP16, literal(-3)))
          CFI (cfiCond172) DPL0 load(1, XDATA, add(CFA_XSP16, literal(-2)))
          CFI (cfiCond172) DPH0 load(1, XDATA, add(CFA_XSP16, literal(-1)))
          CFI (cfiCond172) CFA_SP SP+-4
          CFI (cfiCond172) CFA_XSP16 add(XSP16, 32)
          CFI Block cfiCond173 Using cfiCommon0
          CFI (cfiCond173) Function zclGp_ProcessInGreenPowerClient
          CFI (cfiCond173) Conditional ??CrossCallReturnLabel_92, ??CrossCallReturnLabel_29
          CFI (cfiCond173) R6 load(1, XDATA, add(CFA_XSP16, literal(-19)))
          CFI (cfiCond173) VB load(1, XDATA, add(CFA_XSP16, literal(-18)))
          CFI (cfiCond173) V0 load(1, XDATA, add(CFA_XSP16, literal(-17)))
          CFI (cfiCond173) V1 load(1, XDATA, add(CFA_XSP16, literal(-16)))
          CFI (cfiCond173) V2 load(1, XDATA, add(CFA_XSP16, literal(-15)))
          CFI (cfiCond173) V3 load(1, XDATA, add(CFA_XSP16, literal(-14)))
          CFI (cfiCond173) V4 load(1, XDATA, add(CFA_XSP16, literal(-13)))
          CFI (cfiCond173) V5 load(1, XDATA, add(CFA_XSP16, literal(-12)))
          CFI (cfiCond173) V6 load(1, XDATA, add(CFA_XSP16, literal(-11)))
          CFI (cfiCond173) V7 load(1, XDATA, add(CFA_XSP16, literal(-10)))
          CFI (cfiCond173) V8 load(1, XDATA, add(CFA_XSP16, literal(-9)))
          CFI (cfiCond173) V9 load(1, XDATA, add(CFA_XSP16, literal(-8)))
          CFI (cfiCond173) V10 load(1, XDATA, add(CFA_XSP16, literal(-7)))
          CFI (cfiCond173) R7 load(1, XDATA, add(CFA_XSP16, literal(-6)))
          CFI (cfiCond173) ?RET_LOW load(1, XDATA, add(CFA_XSP16, literal(-5)))
          CFI (cfiCond173) ?RET_HIGH load(1, XDATA, add(CFA_XSP16, literal(-4)))
          CFI (cfiCond173) ?BRET_EXT load(1, XDATA, add(CFA_XSP16, literal(-3)))
          CFI (cfiCond173) DPL0 load(1, XDATA, add(CFA_XSP16, literal(-2)))
          CFI (cfiCond173) DPH0 load(1, XDATA, add(CFA_XSP16, literal(-1)))
          CFI (cfiCond173) CFA_SP SP+-4
          CFI (cfiCond173) CFA_XSP16 add(XSP16, 39)
          CFI Block cfiCond174 Using cfiCommon0
          CFI (cfiCond174) Function gp_AddCmdPayloadMsgNode
          CFI (cfiCond174) Conditional ??CrossCallReturnLabel_92, ??CrossCallReturnLabel_30, ??CrossCallReturnLabel_6
          CFI (cfiCond174) R6 load(1, XDATA, add(CFA_XSP16, literal(-14)))
          CFI (cfiCond174) VB load(1, XDATA, add(CFA_XSP16, literal(-13)))
          CFI (cfiCond174) V0 load(1, XDATA, add(CFA_XSP16, literal(-12)))
          CFI (cfiCond174) V1 load(1, XDATA, add(CFA_XSP16, literal(-11)))
          CFI (cfiCond174) V2 load(1, XDATA, add(CFA_XSP16, literal(-10)))
          CFI (cfiCond174) V3 load(1, XDATA, add(CFA_XSP16, literal(-9)))
          CFI (cfiCond174) V4 load(1, XDATA, add(CFA_XSP16, literal(-8)))
          CFI (cfiCond174) V5 load(1, XDATA, add(CFA_XSP16, literal(-7)))
          CFI (cfiCond174) R7 load(1, XDATA, add(CFA_XSP16, literal(-6)))
          CFI (cfiCond174) ?RET_LOW load(1, XDATA, add(CFA_XSP16, literal(-5)))
          CFI (cfiCond174) ?RET_HIGH load(1, XDATA, add(CFA_XSP16, literal(-4)))
          CFI (cfiCond174) ?BRET_EXT load(1, XDATA, add(CFA_XSP16, literal(-3)))
          CFI (cfiCond174) DPL0 load(1, XDATA, add(CFA_XSP16, literal(-2)))
          CFI (cfiCond174) DPH0 load(1, XDATA, add(CFA_XSP16, literal(-1)))
          CFI (cfiCond174) CFA_SP SP+-6
          CFI (cfiCond174) CFA_XSP16 add(XSP16, 14)
          CFI Block cfiCond175 Using cfiCommon0
          CFI (cfiCond175) Function gp_AddCmdPayloadMsgNode
          CFI (cfiCond175) Conditional ??CrossCallReturnLabel_92, ??CrossCallReturnLabel_30, ??CrossCallReturnLabel_7
          CFI (cfiCond175) R6 load(1, XDATA, add(CFA_XSP16, literal(-14)))
          CFI (cfiCond175) VB load(1, XDATA, add(CFA_XSP16, literal(-13)))
          CFI (cfiCond175) V0 load(1, XDATA, add(CFA_XSP16, literal(-12)))
          CFI (cfiCond175) V1 load(1, XDATA, add(CFA_XSP16, literal(-11)))
          CFI (cfiCond175) V2 load(1, XDATA, add(CFA_XSP16, literal(-10)))
          CFI (cfiCond175) V3 load(1, XDATA, add(CFA_XSP16, literal(-9)))
          CFI (cfiCond175) V4 load(1, XDATA, add(CFA_XSP16, literal(-8)))
          CFI (cfiCond175) V5 load(1, XDATA, add(CFA_XSP16, literal(-7)))
          CFI (cfiCond175) R7 load(1, XDATA, add(CFA_XSP16, literal(-6)))
          CFI (cfiCond175) ?RET_LOW load(1, XDATA, add(CFA_XSP16, literal(-5)))
          CFI (cfiCond175) ?RET_HIGH load(1, XDATA, add(CFA_XSP16, literal(-4)))
          CFI (cfiCond175) ?BRET_EXT load(1, XDATA, add(CFA_XSP16, literal(-3)))
          CFI (cfiCond175) DPL0 load(1, XDATA, add(CFA_XSP16, literal(-2)))
          CFI (cfiCond175) DPH0 load(1, XDATA, add(CFA_XSP16, literal(-1)))
          CFI (cfiCond175) CFA_SP SP+-6
          CFI (cfiCond175) CFA_XSP16 add(XSP16, 14)
          CFI Block cfiCond176 Using cfiCommon0
          CFI (cfiCond176) Function gp_CreateNotificationMsgList
          CFI (cfiCond176) Conditional ??CrossCallReturnLabel_93, ??CrossCallReturnLabel_68
          CFI (cfiCond176) R6 load(1, XDATA, add(CFA_XSP16, literal(-10)))
          CFI (cfiCond176) VB load(1, XDATA, add(CFA_XSP16, literal(-9)))
          CFI (cfiCond176) V0 load(1, XDATA, add(CFA_XSP16, literal(-8)))
          CFI (cfiCond176) V1 load(1, XDATA, add(CFA_XSP16, literal(-7)))
          CFI (cfiCond176) R7 load(1, XDATA, add(CFA_XSP16, literal(-6)))
          CFI (cfiCond176) ?RET_LOW load(1, XDATA, add(CFA_XSP16, literal(-5)))
          CFI (cfiCond176) ?RET_HIGH load(1, XDATA, add(CFA_XSP16, literal(-4)))
          CFI (cfiCond176) ?BRET_EXT load(1, XDATA, add(CFA_XSP16, literal(-3)))
          CFI (cfiCond176) DPL0 load(1, XDATA, add(CFA_XSP16, literal(-2)))
          CFI (cfiCond176) DPH0 load(1, XDATA, add(CFA_XSP16, literal(-1)))
          CFI (cfiCond176) CFA_SP SP+-4
          CFI (cfiCond176) CFA_XSP16 add(XSP16, 10)
          CFI Block cfiCond177 Using cfiCommon0
          CFI (cfiCond177) Function gp_CreateCmdPayloadMsgList
          CFI (cfiCond177) Conditional ??CrossCallReturnLabel_93, ??CrossCallReturnLabel_69
          CFI (cfiCond177) R6 load(1, XDATA, add(CFA_XSP16, literal(-10)))
          CFI (cfiCond177) VB load(1, XDATA, add(CFA_XSP16, literal(-9)))
          CFI (cfiCond177) V0 load(1, XDATA, add(CFA_XSP16, literal(-8)))
          CFI (cfiCond177) V1 load(1, XDATA, add(CFA_XSP16, literal(-7)))
          CFI (cfiCond177) R7 load(1, XDATA, add(CFA_XSP16, literal(-6)))
          CFI (cfiCond177) ?RET_LOW load(1, XDATA, add(CFA_XSP16, literal(-5)))
          CFI (cfiCond177) ?RET_HIGH load(1, XDATA, add(CFA_XSP16, literal(-4)))
          CFI (cfiCond177) ?BRET_EXT load(1, XDATA, add(CFA_XSP16, literal(-3)))
          CFI (cfiCond177) DPL0 load(1, XDATA, add(CFA_XSP16, literal(-2)))
          CFI (cfiCond177) DPH0 load(1, XDATA, add(CFA_XSP16, literal(-1)))
          CFI (cfiCond177) CFA_SP SP+-4
          CFI (cfiCond177) CFA_XSP16 add(XSP16, 10)
          CFI Block cfiCond178 Using cfiCommon0
          CFI (cfiCond178) Function gp_NotificationMsgClean
          CFI (cfiCond178) Conditional ??CrossCallReturnLabel_93, ??CrossCallReturnLabel_70
          CFI (cfiCond178) R6 load(1, XDATA, add(CFA_XSP16, literal(-12)))
          CFI (cfiCond178) VB load(1, XDATA, add(CFA_XSP16, literal(-11)))
          CFI (cfiCond178) V0 load(1, XDATA, add(CFA_XSP16, literal(-10)))
          CFI (cfiCond178) V1 load(1, XDATA, add(CFA_XSP16, literal(-9)))
          CFI (cfiCond178) V2 load(1, XDATA, add(CFA_XSP16, literal(-8)))
          CFI (cfiCond178) V3 load(1, XDATA, add(CFA_XSP16, literal(-7)))
          CFI (cfiCond178) R7 load(1, XDATA, add(CFA_XSP16, literal(-6)))
          CFI (cfiCond178) ?RET_LOW load(1, XDATA, add(CFA_XSP16, literal(-5)))
          CFI (cfiCond178) ?RET_HIGH load(1, XDATA, add(CFA_XSP16, literal(-4)))
          CFI (cfiCond178) ?BRET_EXT load(1, XDATA, add(CFA_XSP16, literal(-3)))
          CFI (cfiCond178) DPL0 load(1, XDATA, add(CFA_XSP16, literal(-2)))
          CFI (cfiCond178) DPH0 load(1, XDATA, add(CFA_XSP16, literal(-1)))
          CFI (cfiCond178) CFA_SP SP+-4
          CFI (cfiCond178) CFA_XSP16 add(XSP16, 12)
          CFI Block cfiCond179 Using cfiCommon0
          CFI (cfiCond179) Function gp_AddNotificationMsgNode
          CFI (cfiCond179) Conditional ??CrossCallReturnLabel_93, ??CrossCallReturnLabel_71
          CFI (cfiCond179) R6 load(1, XDATA, add(CFA_XSP16, literal(-12)))
          CFI (cfiCond179) VB load(1, XDATA, add(CFA_XSP16, literal(-11)))
          CFI (cfiCond179) V0 load(1, XDATA, add(CFA_XSP16, literal(-10)))
          CFI (cfiCond179) V1 load(1, XDATA, add(CFA_XSP16, literal(-9)))
          CFI (cfiCond179) V2 load(1, XDATA, add(CFA_XSP16, literal(-8)))
          CFI (cfiCond179) V3 load(1, XDATA, add(CFA_XSP16, literal(-7)))
          CFI (cfiCond179) R7 load(1, XDATA, add(CFA_XSP16, literal(-6)))
          CFI (cfiCond179) ?RET_LOW load(1, XDATA, add(CFA_XSP16, literal(-5)))
          CFI (cfiCond179) ?RET_HIGH load(1, XDATA, add(CFA_XSP16, literal(-4)))
          CFI (cfiCond179) ?BRET_EXT load(1, XDATA, add(CFA_XSP16, literal(-3)))
          CFI (cfiCond179) DPL0 load(1, XDATA, add(CFA_XSP16, literal(-2)))
          CFI (cfiCond179) DPH0 load(1, XDATA, add(CFA_XSP16, literal(-1)))
          CFI (cfiCond179) CFA_SP SP+-4
          CFI (cfiCond179) CFA_XSP16 add(XSP16, 12)
          CFI Block cfiCond180 Using cfiCommon0
          CFI (cfiCond180) Function gp_AddCmdPayloadMsgNode
          CFI (cfiCond180) Conditional ??CrossCallReturnLabel_93, ??CrossCallReturnLabel_72
          CFI (cfiCond180) R6 load(1, XDATA, add(CFA_XSP16, literal(-14)))
          CFI (cfiCond180) VB load(1, XDATA, add(CFA_XSP16, literal(-13)))
          CFI (cfiCond180) V0 load(1, XDATA, add(CFA_XSP16, literal(-12)))
          CFI (cfiCond180) V1 load(1, XDATA, add(CFA_XSP16, literal(-11)))
          CFI (cfiCond180) V2 load(1, XDATA, add(CFA_XSP16, literal(-10)))
          CFI (cfiCond180) V3 load(1, XDATA, add(CFA_XSP16, literal(-9)))
          CFI (cfiCond180) V4 load(1, XDATA, add(CFA_XSP16, literal(-8)))
          CFI (cfiCond180) V5 load(1, XDATA, add(CFA_XSP16, literal(-7)))
          CFI (cfiCond180) R7 load(1, XDATA, add(CFA_XSP16, literal(-6)))
          CFI (cfiCond180) ?RET_LOW load(1, XDATA, add(CFA_XSP16, literal(-5)))
          CFI (cfiCond180) ?RET_HIGH load(1, XDATA, add(CFA_XSP16, literal(-4)))
          CFI (cfiCond180) ?BRET_EXT load(1, XDATA, add(CFA_XSP16, literal(-3)))
          CFI (cfiCond180) DPL0 load(1, XDATA, add(CFA_XSP16, literal(-2)))
          CFI (cfiCond180) DPH0 load(1, XDATA, add(CFA_XSP16, literal(-1)))
          CFI (cfiCond180) CFA_SP SP+-4
          CFI (cfiCond180) CFA_XSP16 add(XSP16, 14)
          CFI Block cfiCond181 Using cfiCommon0
          CFI (cfiCond181) Function gp_AddNotificationMsgNode
          CFI (cfiCond181) Conditional ??CrossCallReturnLabel_93, ??CrossCallReturnLabel_80
          CFI (cfiCond181) R6 load(1, XDATA, add(CFA_XSP16, literal(-12)))
          CFI (cfiCond181) VB load(1, XDATA, add(CFA_XSP16, literal(-11)))
          CFI (cfiCond181) V0 load(1, XDATA, add(CFA_XSP16, literal(-10)))
          CFI (cfiCond181) V1 load(1, XDATA, add(CFA_XSP16, literal(-9)))
          CFI (cfiCond181) V2 load(1, XDATA, add(CFA_XSP16, literal(-8)))
          CFI (cfiCond181) V3 load(1, XDATA, add(CFA_XSP16, literal(-7)))
          CFI (cfiCond181) R7 load(1, XDATA, add(CFA_XSP16, literal(-6)))
          CFI (cfiCond181) ?RET_LOW load(1, XDATA, add(CFA_XSP16, literal(-5)))
          CFI (cfiCond181) ?RET_HIGH load(1, XDATA, add(CFA_XSP16, literal(-4)))
          CFI (cfiCond181) ?BRET_EXT load(1, XDATA, add(CFA_XSP16, literal(-3)))
          CFI (cfiCond181) DPL0 load(1, XDATA, add(CFA_XSP16, literal(-2)))
          CFI (cfiCond181) DPH0 load(1, XDATA, add(CFA_XSP16, literal(-1)))
          CFI (cfiCond181) CFA_SP SP+-4
          CFI (cfiCond181) CFA_XSP16 add(XSP16, 12)
          CFI Block cfiCond182 Using cfiCommon0
          CFI (cfiCond182) Function gp_AddCmdPayloadMsgNode
          CFI (cfiCond182) Conditional ??CrossCallReturnLabel_93, ??CrossCallReturnLabel_81
          CFI (cfiCond182) R6 load(1, XDATA, add(CFA_XSP16, literal(-14)))
          CFI (cfiCond182) VB load(1, XDATA, add(CFA_XSP16, literal(-13)))
          CFI (cfiCond182) V0 load(1, XDATA, add(CFA_XSP16, literal(-12)))
          CFI (cfiCond182) V1 load(1, XDATA, add(CFA_XSP16, literal(-11)))
          CFI (cfiCond182) V2 load(1, XDATA, add(CFA_XSP16, literal(-10)))
          CFI (cfiCond182) V3 load(1, XDATA, add(CFA_XSP16, literal(-9)))
          CFI (cfiCond182) V4 load(1, XDATA, add(CFA_XSP16, literal(-8)))
          CFI (cfiCond182) V5 load(1, XDATA, add(CFA_XSP16, literal(-7)))
          CFI (cfiCond182) R7 load(1, XDATA, add(CFA_XSP16, literal(-6)))
          CFI (cfiCond182) ?RET_LOW load(1, XDATA, add(CFA_XSP16, literal(-5)))
          CFI (cfiCond182) ?RET_HIGH load(1, XDATA, add(CFA_XSP16, literal(-4)))
          CFI (cfiCond182) ?BRET_EXT load(1, XDATA, add(CFA_XSP16, literal(-3)))
          CFI (cfiCond182) DPL0 load(1, XDATA, add(CFA_XSP16, literal(-2)))
          CFI (cfiCond182) DPH0 load(1, XDATA, add(CFA_XSP16, literal(-1)))
          CFI (cfiCond182) CFA_SP SP+-4
          CFI (cfiCond182) CFA_XSP16 add(XSP16, 14)
          CFI Block cfiCond183 Using cfiCommon0
          CFI (cfiCond183) Function zclGp_HdlIncoming
          CFI (cfiCond183) Conditional ??CrossCallReturnLabel_93, ??CrossCallReturnLabel_73
          CFI (cfiCond183) R6 load(1, XDATA, add(CFA_XSP16, literal(-9)))
          CFI (cfiCond183) VB load(1, XDATA, add(CFA_XSP16, literal(-8)))
          CFI (cfiCond183) V0 load(1, XDATA, add(CFA_XSP16, literal(-7)))
          CFI (cfiCond183) R7 load(1, XDATA, add(CFA_XSP16, literal(-6)))
          CFI (cfiCond183) ?RET_LOW load(1, XDATA, add(CFA_XSP16, literal(-5)))
          CFI (cfiCond183) ?RET_HIGH load(1, XDATA, add(CFA_XSP16, literal(-4)))
          CFI (cfiCond183) ?BRET_EXT load(1, XDATA, add(CFA_XSP16, literal(-3)))
          CFI (cfiCond183) DPL0 load(1, XDATA, add(CFA_XSP16, literal(-2)))
          CFI (cfiCond183) DPH0 load(1, XDATA, add(CFA_XSP16, literal(-1)))
          CFI (cfiCond183) CFA_SP SP+-4
          CFI (cfiCond183) CFA_XSP16 add(XSP16, 9)
          CFI Block cfiCond184 Using cfiCommon0
          CFI (cfiCond184) Function zclGp_ProcessInGreenPowerClient
          CFI (cfiCond184) Conditional ??CrossCallReturnLabel_93, ??CrossCallReturnLabel_74
          CFI (cfiCond184) R6 load(1, XDATA, add(CFA_XSP16, literal(-19)))
          CFI (cfiCond184) VB load(1, XDATA, add(CFA_XSP16, literal(-18)))
          CFI (cfiCond184) V0 load(1, XDATA, add(CFA_XSP16, literal(-17)))
          CFI (cfiCond184) V1 load(1, XDATA, add(CFA_XSP16, literal(-16)))
          CFI (cfiCond184) V2 load(1, XDATA, add(CFA_XSP16, literal(-15)))
          CFI (cfiCond184) V3 load(1, XDATA, add(CFA_XSP16, literal(-14)))
          CFI (cfiCond184) V4 load(1, XDATA, add(CFA_XSP16, literal(-13)))
          CFI (cfiCond184) V5 load(1, XDATA, add(CFA_XSP16, literal(-12)))
          CFI (cfiCond184) V6 load(1, XDATA, add(CFA_XSP16, literal(-11)))
          CFI (cfiCond184) V7 load(1, XDATA, add(CFA_XSP16, literal(-10)))
          CFI (cfiCond184) V8 load(1, XDATA, add(CFA_XSP16, literal(-9)))
          CFI (cfiCond184) V9 load(1, XDATA, add(CFA_XSP16, literal(-8)))
          CFI (cfiCond184) V10 load(1, XDATA, add(CFA_XSP16, literal(-7)))
          CFI (cfiCond184) R7 load(1, XDATA, add(CFA_XSP16, literal(-6)))
          CFI (cfiCond184) ?RET_LOW load(1, XDATA, add(CFA_XSP16, literal(-5)))
          CFI (cfiCond184) ?RET_HIGH load(1, XDATA, add(CFA_XSP16, literal(-4)))
          CFI (cfiCond184) ?BRET_EXT load(1, XDATA, add(CFA_XSP16, literal(-3)))
          CFI (cfiCond184) DPL0 load(1, XDATA, add(CFA_XSP16, literal(-2)))
          CFI (cfiCond184) DPH0 load(1, XDATA, add(CFA_XSP16, literal(-1)))
          CFI (cfiCond184) CFA_SP SP+-4
          CFI (cfiCond184) CFA_XSP16 add(XSP16, 39)
          CFI Block cfiCond185 Using cfiCommon0
          CFI (cfiCond185) Function zclGp_ProcessInGreenPowerClient
          CFI (cfiCond185) Conditional ??CrossCallReturnLabel_93, ??CrossCallReturnLabel_75
          CFI (cfiCond185) R6 load(1, XDATA, add(CFA_XSP16, literal(-19)))
          CFI (cfiCond185) VB load(1, XDATA, add(CFA_XSP16, literal(-18)))
          CFI (cfiCond185) V0 load(1, XDATA, add(CFA_XSP16, literal(-17)))
          CFI (cfiCond185) V1 load(1, XDATA, add(CFA_XSP16, literal(-16)))
          CFI (cfiCond185) V2 load(1, XDATA, add(CFA_XSP16, literal(-15)))
          CFI (cfiCond185) V3 load(1, XDATA, add(CFA_XSP16, literal(-14)))
          CFI (cfiCond185) V4 load(1, XDATA, add(CFA_XSP16, literal(-13)))
          CFI (cfiCond185) V5 load(1, XDATA, add(CFA_XSP16, literal(-12)))
          CFI (cfiCond185) V6 load(1, XDATA, add(CFA_XSP16, literal(-11)))
          CFI (cfiCond185) V7 load(1, XDATA, add(CFA_XSP16, literal(-10)))
          CFI (cfiCond185) V8 load(1, XDATA, add(CFA_XSP16, literal(-9)))
          CFI (cfiCond185) V9 load(1, XDATA, add(CFA_XSP16, literal(-8)))
          CFI (cfiCond185) V10 load(1, XDATA, add(CFA_XSP16, literal(-7)))
          CFI (cfiCond185) R7 load(1, XDATA, add(CFA_XSP16, literal(-6)))
          CFI (cfiCond185) ?RET_LOW load(1, XDATA, add(CFA_XSP16, literal(-5)))
          CFI (cfiCond185) ?RET_HIGH load(1, XDATA, add(CFA_XSP16, literal(-4)))
          CFI (cfiCond185) ?BRET_EXT load(1, XDATA, add(CFA_XSP16, literal(-3)))
          CFI (cfiCond185) DPL0 load(1, XDATA, add(CFA_XSP16, literal(-2)))
          CFI (cfiCond185) DPH0 load(1, XDATA, add(CFA_XSP16, literal(-1)))
          CFI (cfiCond185) CFA_SP SP+-4
          CFI (cfiCond185) CFA_XSP16 add(XSP16, 39)
          CFI Block cfiCond186 Using cfiCommon0
          CFI (cfiCond186) Function zclGp_ProcessInGreenPowerClient
          CFI (cfiCond186) Conditional ??CrossCallReturnLabel_93, ??CrossCallReturnLabel_76
          CFI (cfiCond186) R6 load(1, XDATA, add(CFA_XSP16, literal(-19)))
          CFI (cfiCond186) VB load(1, XDATA, add(CFA_XSP16, literal(-18)))
          CFI (cfiCond186) V0 load(1, XDATA, add(CFA_XSP16, literal(-17)))
          CFI (cfiCond186) V1 load(1, XDATA, add(CFA_XSP16, literal(-16)))
          CFI (cfiCond186) V2 load(1, XDATA, add(CFA_XSP16, literal(-15)))
          CFI (cfiCond186) V3 load(1, XDATA, add(CFA_XSP16, literal(-14)))
          CFI (cfiCond186) V4 load(1, XDATA, add(CFA_XSP16, literal(-13)))
          CFI (cfiCond186) V5 load(1, XDATA, add(CFA_XSP16, literal(-12)))
          CFI (cfiCond186) V6 load(1, XDATA, add(CFA_XSP16, literal(-11)))
          CFI (cfiCond186) V7 load(1, XDATA, add(CFA_XSP16, literal(-10)))
          CFI (cfiCond186) V8 load(1, XDATA, add(CFA_XSP16, literal(-9)))
          CFI (cfiCond186) V9 load(1, XDATA, add(CFA_XSP16, literal(-8)))
          CFI (cfiCond186) V10 load(1, XDATA, add(CFA_XSP16, literal(-7)))
          CFI (cfiCond186) R7 load(1, XDATA, add(CFA_XSP16, literal(-6)))
          CFI (cfiCond186) ?RET_LOW load(1, XDATA, add(CFA_XSP16, literal(-5)))
          CFI (cfiCond186) ?RET_HIGH load(1, XDATA, add(CFA_XSP16, literal(-4)))
          CFI (cfiCond186) ?BRET_EXT load(1, XDATA, add(CFA_XSP16, literal(-3)))
          CFI (cfiCond186) DPL0 load(1, XDATA, add(CFA_XSP16, literal(-2)))
          CFI (cfiCond186) DPH0 load(1, XDATA, add(CFA_XSP16, literal(-1)))
          CFI (cfiCond186) CFA_SP SP+-4
          CFI (cfiCond186) CFA_XSP16 add(XSP16, 39)
          CFI Block cfiCond187 Using cfiCommon0
          CFI (cfiCond187) Function zclGp_ProcessInGreenPowerClient
          CFI (cfiCond187) Conditional ??CrossCallReturnLabel_93, ??CrossCallReturnLabel_77
          CFI (cfiCond187) R6 load(1, XDATA, add(CFA_XSP16, literal(-19)))
          CFI (cfiCond187) VB load(1, XDATA, add(CFA_XSP16, literal(-18)))
          CFI (cfiCond187) V0 load(1, XDATA, add(CFA_XSP16, literal(-17)))
          CFI (cfiCond187) V1 load(1, XDATA, add(CFA_XSP16, literal(-16)))
          CFI (cfiCond187) V2 load(1, XDATA, add(CFA_XSP16, literal(-15)))
          CFI (cfiCond187) V3 load(1, XDATA, add(CFA_XSP16, literal(-14)))
          CFI (cfiCond187) V4 load(1, XDATA, add(CFA_XSP16, literal(-13)))
          CFI (cfiCond187) V5 load(1, XDATA, add(CFA_XSP16, literal(-12)))
          CFI (cfiCond187) V6 load(1, XDATA, add(CFA_XSP16, literal(-11)))
          CFI (cfiCond187) V7 load(1, XDATA, add(CFA_XSP16, literal(-10)))
          CFI (cfiCond187) V8 load(1, XDATA, add(CFA_XSP16, literal(-9)))
          CFI (cfiCond187) V9 load(1, XDATA, add(CFA_XSP16, literal(-8)))
          CFI (cfiCond187) V10 load(1, XDATA, add(CFA_XSP16, literal(-7)))
          CFI (cfiCond187) R7 load(1, XDATA, add(CFA_XSP16, literal(-6)))
          CFI (cfiCond187) ?RET_LOW load(1, XDATA, add(CFA_XSP16, literal(-5)))
          CFI (cfiCond187) ?RET_HIGH load(1, XDATA, add(CFA_XSP16, literal(-4)))
          CFI (cfiCond187) ?BRET_EXT load(1, XDATA, add(CFA_XSP16, literal(-3)))
          CFI (cfiCond187) DPL0 load(1, XDATA, add(CFA_XSP16, literal(-2)))
          CFI (cfiCond187) DPH0 load(1, XDATA, add(CFA_XSP16, literal(-1)))
          CFI (cfiCond187) CFA_SP SP+-4
          CFI (cfiCond187) CFA_XSP16 add(XSP16, 39)
          CFI Block cfiCond188 Using cfiCommon0
          CFI (cfiCond188) Function zclGp_SendGpProxyTableResponse
          CFI (cfiCond188) Conditional ??CrossCallReturnLabel_93, ??CrossCallReturnLabel_78
          CFI (cfiCond188) R6 load(1, XDATA, add(CFA_XSP16, literal(-22)))
          CFI (cfiCond188) VB load(1, XDATA, add(CFA_XSP16, literal(-21)))
          CFI (cfiCond188) V0 load(1, XDATA, add(CFA_XSP16, literal(-20)))
          CFI (cfiCond188) V1 load(1, XDATA, add(CFA_XSP16, literal(-19)))
          CFI (cfiCond188) V2 load(1, XDATA, add(CFA_XSP16, literal(-18)))
          CFI (cfiCond188) V3 load(1, XDATA, add(CFA_XSP16, literal(-17)))
          CFI (cfiCond188) V4 load(1, XDATA, add(CFA_XSP16, literal(-16)))
          CFI (cfiCond188) V5 load(1, XDATA, add(CFA_XSP16, literal(-15)))
          CFI (cfiCond188) V6 load(1, XDATA, add(CFA_XSP16, literal(-14)))
          CFI (cfiCond188) V7 load(1, XDATA, add(CFA_XSP16, literal(-13)))
          CFI (cfiCond188) V8 load(1, XDATA, add(CFA_XSP16, literal(-12)))
          CFI (cfiCond188) V9 load(1, XDATA, add(CFA_XSP16, literal(-11)))
          CFI (cfiCond188) V10 load(1, XDATA, add(CFA_XSP16, literal(-10)))
          CFI (cfiCond188) V11 load(1, XDATA, add(CFA_XSP16, literal(-9)))
          CFI (cfiCond188) V12 load(1, XDATA, add(CFA_XSP16, literal(-8)))
          CFI (cfiCond188) V13 load(1, XDATA, add(CFA_XSP16, literal(-7)))
          CFI (cfiCond188) R7 load(1, XDATA, add(CFA_XSP16, literal(-6)))
          CFI (cfiCond188) ?RET_LOW load(1, XDATA, add(CFA_XSP16, literal(-5)))
          CFI (cfiCond188) ?RET_HIGH load(1, XDATA, add(CFA_XSP16, literal(-4)))
          CFI (cfiCond188) ?BRET_EXT load(1, XDATA, add(CFA_XSP16, literal(-3)))
          CFI (cfiCond188) DPL0 load(1, XDATA, add(CFA_XSP16, literal(-2)))
          CFI (cfiCond188) DPH0 load(1, XDATA, add(CFA_XSP16, literal(-1)))
          CFI (cfiCond188) CFA_SP SP+-4
          CFI (cfiCond188) CFA_XSP16 add(XSP16, 24)
          CFI Block cfiCond189 Using cfiCommon0
          CFI (cfiCond189) Function zclGp_SendGpProxyTableResponse
          CFI (cfiCond189) Conditional ??CrossCallReturnLabel_93, ??CrossCallReturnLabel_79
          CFI (cfiCond189) R6 load(1, XDATA, add(CFA_XSP16, literal(-22)))
          CFI (cfiCond189) VB load(1, XDATA, add(CFA_XSP16, literal(-21)))
          CFI (cfiCond189) V0 load(1, XDATA, add(CFA_XSP16, literal(-20)))
          CFI (cfiCond189) V1 load(1, XDATA, add(CFA_XSP16, literal(-19)))
          CFI (cfiCond189) V2 load(1, XDATA, add(CFA_XSP16, literal(-18)))
          CFI (cfiCond189) V3 load(1, XDATA, add(CFA_XSP16, literal(-17)))
          CFI (cfiCond189) V4 load(1, XDATA, add(CFA_XSP16, literal(-16)))
          CFI (cfiCond189) V5 load(1, XDATA, add(CFA_XSP16, literal(-15)))
          CFI (cfiCond189) V6 load(1, XDATA, add(CFA_XSP16, literal(-14)))
          CFI (cfiCond189) V7 load(1, XDATA, add(CFA_XSP16, literal(-13)))
          CFI (cfiCond189) V8 load(1, XDATA, add(CFA_XSP16, literal(-12)))
          CFI (cfiCond189) V9 load(1, XDATA, add(CFA_XSP16, literal(-11)))
          CFI (cfiCond189) V10 load(1, XDATA, add(CFA_XSP16, literal(-10)))
          CFI (cfiCond189) V11 load(1, XDATA, add(CFA_XSP16, literal(-9)))
          CFI (cfiCond189) V12 load(1, XDATA, add(CFA_XSP16, literal(-8)))
          CFI (cfiCond189) V13 load(1, XDATA, add(CFA_XSP16, literal(-7)))
          CFI (cfiCond189) R7 load(1, XDATA, add(CFA_XSP16, literal(-6)))
          CFI (cfiCond189) ?RET_LOW load(1, XDATA, add(CFA_XSP16, literal(-5)))
          CFI (cfiCond189) ?RET_HIGH load(1, XDATA, add(CFA_XSP16, literal(-4)))
          CFI (cfiCond189) ?BRET_EXT load(1, XDATA, add(CFA_XSP16, literal(-3)))
          CFI (cfiCond189) DPL0 load(1, XDATA, add(CFA_XSP16, literal(-2)))
          CFI (cfiCond189) DPH0 load(1, XDATA, add(CFA_XSP16, literal(-1)))
          CFI (cfiCond189) CFA_SP SP+-4
          CFI (cfiCond189) CFA_XSP16 add(XSP16, 24)
          CFI Block cfiCond190 Using cfiCommon0
          CFI (cfiCond190) Function gp_NotificationMsgClean
          CFI (cfiCond190) Conditional ??CrossCallReturnLabel_90
          CFI (cfiCond190) R6 load(1, XDATA, add(CFA_XSP16, literal(-12)))
          CFI (cfiCond190) VB load(1, XDATA, add(CFA_XSP16, literal(-11)))
          CFI (cfiCond190) V0 load(1, XDATA, add(CFA_XSP16, literal(-10)))
          CFI (cfiCond190) V1 load(1, XDATA, add(CFA_XSP16, literal(-9)))
          CFI (cfiCond190) V2 load(1, XDATA, add(CFA_XSP16, literal(-8)))
          CFI (cfiCond190) V3 load(1, XDATA, add(CFA_XSP16, literal(-7)))
          CFI (cfiCond190) R7 load(1, XDATA, add(CFA_XSP16, literal(-6)))
          CFI (cfiCond190) ?RET_LOW load(1, XDATA, add(CFA_XSP16, literal(-5)))
          CFI (cfiCond190) ?RET_HIGH load(1, XDATA, add(CFA_XSP16, literal(-4)))
          CFI (cfiCond190) ?BRET_EXT load(1, XDATA, add(CFA_XSP16, literal(-3)))
          CFI (cfiCond190) DPL0 load(1, XDATA, add(CFA_XSP16, literal(-2)))
          CFI (cfiCond190) DPH0 load(1, XDATA, add(CFA_XSP16, literal(-1)))
          CFI (cfiCond190) CFA_SP SP+-2
          CFI (cfiCond190) CFA_XSP16 add(XSP16, 12)
          CFI Block cfiCond191 Using cfiCommon0
          CFI (cfiCond191) Function zclGp_SendGpCommissioningNotificationCommand
          CFI (cfiCond191) Conditional ??CrossCallReturnLabel_94, ??CrossCallReturnLabel_82
          CFI (cfiCond191) R6 load(1, XDATA, add(CFA_XSP16, literal(-20)))
          CFI (cfiCond191) VB load(1, XDATA, add(CFA_XSP16, literal(-19)))
          CFI (cfiCond191) V0 load(1, XDATA, add(CFA_XSP16, literal(-18)))
          CFI (cfiCond191) V1 load(1, XDATA, add(CFA_XSP16, literal(-17)))
          CFI (cfiCond191) V2 load(1, XDATA, add(CFA_XSP16, literal(-16)))
          CFI (cfiCond191) V3 load(1, XDATA, add(CFA_XSP16, literal(-15)))
          CFI (cfiCond191) V4 load(1, XDATA, add(CFA_XSP16, literal(-14)))
          CFI (cfiCond191) V5 load(1, XDATA, add(CFA_XSP16, literal(-13)))
          CFI (cfiCond191) V6 load(1, XDATA, add(CFA_XSP16, literal(-12)))
          CFI (cfiCond191) V7 load(1, XDATA, add(CFA_XSP16, literal(-11)))
          CFI (cfiCond191) V8 load(1, XDATA, add(CFA_XSP16, literal(-10)))
          CFI (cfiCond191) V9 load(1, XDATA, add(CFA_XSP16, literal(-9)))
          CFI (cfiCond191) V10 load(1, XDATA, add(CFA_XSP16, literal(-8)))
          CFI (cfiCond191) V11 load(1, XDATA, add(CFA_XSP16, literal(-7)))
          CFI (cfiCond191) R7 load(1, XDATA, add(CFA_XSP16, literal(-6)))
          CFI (cfiCond191) ?RET_LOW load(1, XDATA, add(CFA_XSP16, literal(-5)))
          CFI (cfiCond191) ?RET_HIGH load(1, XDATA, add(CFA_XSP16, literal(-4)))
          CFI (cfiCond191) ?BRET_EXT load(1, XDATA, add(CFA_XSP16, literal(-3)))
          CFI (cfiCond191) DPL0 load(1, XDATA, add(CFA_XSP16, literal(-2)))
          CFI (cfiCond191) DPH0 load(1, XDATA, add(CFA_XSP16, literal(-1)))
          CFI (cfiCond191) CFA_SP SP+-4
          CFI (cfiCond191) CFA_XSP16 add(XSP16, 32)
          CFI Block cfiCond192 Using cfiCommon0
          CFI (cfiCond192) Function gp_addPairedSinksToMsgQueue
          CFI (cfiCond192) Conditional ??CrossCallReturnLabel_94, ??CrossCallReturnLabel_83
          CFI (cfiCond192) R6 load(1, XDATA, add(CFA_XSP16, literal(-22)))
          CFI (cfiCond192) VB load(1, XDATA, add(CFA_XSP16, literal(-21)))
          CFI (cfiCond192) V0 load(1, XDATA, add(CFA_XSP16, literal(-20)))
          CFI (cfiCond192) V1 load(1, XDATA, add(CFA_XSP16, literal(-19)))
          CFI (cfiCond192) V2 load(1, XDATA, add(CFA_XSP16, literal(-18)))
          CFI (cfiCond192) V3 load(1, XDATA, add(CFA_XSP16, literal(-17)))
          CFI (cfiCond192) V4 load(1, XDATA, add(CFA_XSP16, literal(-16)))
          CFI (cfiCond192) V5 load(1, XDATA, add(CFA_XSP16, literal(-15)))
          CFI (cfiCond192) V6 load(1, XDATA, add(CFA_XSP16, literal(-14)))
          CFI (cfiCond192) V7 load(1, XDATA, add(CFA_XSP16, literal(-13)))
          CFI (cfiCond192) V8 load(1, XDATA, add(CFA_XSP16, literal(-12)))
          CFI (cfiCond192) V9 load(1, XDATA, add(CFA_XSP16, literal(-11)))
          CFI (cfiCond192) V10 load(1, XDATA, add(CFA_XSP16, literal(-10)))
          CFI (cfiCond192) V11 load(1, XDATA, add(CFA_XSP16, literal(-9)))
          CFI (cfiCond192) V12 load(1, XDATA, add(CFA_XSP16, literal(-8)))
          CFI (cfiCond192) V13 load(1, XDATA, add(CFA_XSP16, literal(-7)))
          CFI (cfiCond192) R7 load(1, XDATA, add(CFA_XSP16, literal(-6)))
          CFI (cfiCond192) ?RET_LOW load(1, XDATA, add(CFA_XSP16, literal(-5)))
          CFI (cfiCond192) ?RET_HIGH load(1, XDATA, add(CFA_XSP16, literal(-4)))
          CFI (cfiCond192) ?BRET_EXT load(1, XDATA, add(CFA_XSP16, literal(-3)))
          CFI (cfiCond192) DPL0 load(1, XDATA, add(CFA_XSP16, literal(-2)))
          CFI (cfiCond192) DPH0 load(1, XDATA, add(CFA_XSP16, literal(-1)))
          CFI (cfiCond192) CFA_SP SP+-4
          CFI (cfiCond192) CFA_XSP16 add(XSP16, 108)
          CFI Block cfiCond193 Using cfiCommon0
          CFI (cfiCond193) Function zclGp_HdlIncoming
          CFI (cfiCond193) Conditional ??CrossCallReturnLabel_94, ??CrossCallReturnLabel_84
          CFI (cfiCond193) R6 load(1, XDATA, add(CFA_XSP16, literal(-9)))
          CFI (cfiCond193) VB load(1, XDATA, add(CFA_XSP16, literal(-8)))
          CFI (cfiCond193) V0 load(1, XDATA, add(CFA_XSP16, literal(-7)))
          CFI (cfiCond193) R7 load(1, XDATA, add(CFA_XSP16, literal(-6)))
          CFI (cfiCond193) ?RET_LOW load(1, XDATA, add(CFA_XSP16, literal(-5)))
          CFI (cfiCond193) ?RET_HIGH load(1, XDATA, add(CFA_XSP16, literal(-4)))
          CFI (cfiCond193) ?BRET_EXT load(1, XDATA, add(CFA_XSP16, literal(-3)))
          CFI (cfiCond193) DPL0 load(1, XDATA, add(CFA_XSP16, literal(-2)))
          CFI (cfiCond193) DPH0 load(1, XDATA, add(CFA_XSP16, literal(-1)))
          CFI (cfiCond193) CFA_SP SP+-4
          CFI (cfiCond193) CFA_XSP16 add(XSP16, 9)
          CFI Block cfiCond194 Using cfiCommon0
          CFI (cfiCond194) Function zclGp_ProcessInGreenPowerClient
          CFI (cfiCond194) Conditional ??CrossCallReturnLabel_94, ??CrossCallReturnLabel_85
          CFI (cfiCond194) R6 load(1, XDATA, add(CFA_XSP16, literal(-19)))
          CFI (cfiCond194) VB load(1, XDATA, add(CFA_XSP16, literal(-18)))
          CFI (cfiCond194) V0 load(1, XDATA, add(CFA_XSP16, literal(-17)))
          CFI (cfiCond194) V1 load(1, XDATA, add(CFA_XSP16, literal(-16)))
          CFI (cfiCond194) V2 load(1, XDATA, add(CFA_XSP16, literal(-15)))
          CFI (cfiCond194) V3 load(1, XDATA, add(CFA_XSP16, literal(-14)))
          CFI (cfiCond194) V4 load(1, XDATA, add(CFA_XSP16, literal(-13)))
          CFI (cfiCond194) V5 load(1, XDATA, add(CFA_XSP16, literal(-12)))
          CFI (cfiCond194) V6 load(1, XDATA, add(CFA_XSP16, literal(-11)))
          CFI (cfiCond194) V7 load(1, XDATA, add(CFA_XSP16, literal(-10)))
          CFI (cfiCond194) V8 load(1, XDATA, add(CFA_XSP16, literal(-9)))
          CFI (cfiCond194) V9 load(1, XDATA, add(CFA_XSP16, literal(-8)))
          CFI (cfiCond194) V10 load(1, XDATA, add(CFA_XSP16, literal(-7)))
          CFI (cfiCond194) R7 load(1, XDATA, add(CFA_XSP16, literal(-6)))
          CFI (cfiCond194) ?RET_LOW load(1, XDATA, add(CFA_XSP16, literal(-5)))
          CFI (cfiCond194) ?RET_HIGH load(1, XDATA, add(CFA_XSP16, literal(-4)))
          CFI (cfiCond194) ?BRET_EXT load(1, XDATA, add(CFA_XSP16, literal(-3)))
          CFI (cfiCond194) DPL0 load(1, XDATA, add(CFA_XSP16, literal(-2)))
          CFI (cfiCond194) DPH0 load(1, XDATA, add(CFA_XSP16, literal(-1)))
          CFI (cfiCond194) CFA_SP SP+-4
          CFI (cfiCond194) CFA_XSP16 add(XSP16, 39)
          CFI Block cfiCond195 Using cfiCommon0
          CFI (cfiCond195) Function zclGp_ProcessInGreenPowerClient
          CFI (cfiCond195) Conditional ??CrossCallReturnLabel_94, ??CrossCallReturnLabel_86
          CFI (cfiCond195) R6 load(1, XDATA, add(CFA_XSP16, literal(-19)))
          CFI (cfiCond195) VB load(1, XDATA, add(CFA_XSP16, literal(-18)))
          CFI (cfiCond195) V0 load(1, XDATA, add(CFA_XSP16, literal(-17)))
          CFI (cfiCond195) V1 load(1, XDATA, add(CFA_XSP16, literal(-16)))
          CFI (cfiCond195) V2 load(1, XDATA, add(CFA_XSP16, literal(-15)))
          CFI (cfiCond195) V3 load(1, XDATA, add(CFA_XSP16, literal(-14)))
          CFI (cfiCond195) V4 load(1, XDATA, add(CFA_XSP16, literal(-13)))
          CFI (cfiCond195) V5 load(1, XDATA, add(CFA_XSP16, literal(-12)))
          CFI (cfiCond195) V6 load(1, XDATA, add(CFA_XSP16, literal(-11)))
          CFI (cfiCond195) V7 load(1, XDATA, add(CFA_XSP16, literal(-10)))
          CFI (cfiCond195) V8 load(1, XDATA, add(CFA_XSP16, literal(-9)))
          CFI (cfiCond195) V9 load(1, XDATA, add(CFA_XSP16, literal(-8)))
          CFI (cfiCond195) V10 load(1, XDATA, add(CFA_XSP16, literal(-7)))
          CFI (cfiCond195) R7 load(1, XDATA, add(CFA_XSP16, literal(-6)))
          CFI (cfiCond195) ?RET_LOW load(1, XDATA, add(CFA_XSP16, literal(-5)))
          CFI (cfiCond195) ?RET_HIGH load(1, XDATA, add(CFA_XSP16, literal(-4)))
          CFI (cfiCond195) ?BRET_EXT load(1, XDATA, add(CFA_XSP16, literal(-3)))
          CFI (cfiCond195) DPL0 load(1, XDATA, add(CFA_XSP16, literal(-2)))
          CFI (cfiCond195) DPH0 load(1, XDATA, add(CFA_XSP16, literal(-1)))
          CFI (cfiCond195) CFA_SP SP+-4
          CFI (cfiCond195) CFA_XSP16 add(XSP16, 39)
          CFI Block cfiCond196 Using cfiCommon0
          CFI (cfiCond196) Function gp_NotificationMsgClean
          CFI (cfiCond196) Conditional ??CrossCallReturnLabel_94, ??CrossCallReturnLabel_87
          CFI (cfiCond196) R6 load(1, XDATA, add(CFA_XSP16, literal(-12)))
          CFI (cfiCond196) VB load(1, XDATA, add(CFA_XSP16, literal(-11)))
          CFI (cfiCond196) V0 load(1, XDATA, add(CFA_XSP16, literal(-10)))
          CFI (cfiCond196) V1 load(1, XDATA, add(CFA_XSP16, literal(-9)))
          CFI (cfiCond196) V2 load(1, XDATA, add(CFA_XSP16, literal(-8)))
          CFI (cfiCond196) V3 load(1, XDATA, add(CFA_XSP16, literal(-7)))
          CFI (cfiCond196) R7 load(1, XDATA, add(CFA_XSP16, literal(-6)))
          CFI (cfiCond196) ?RET_LOW load(1, XDATA, add(CFA_XSP16, literal(-5)))
          CFI (cfiCond196) ?RET_HIGH load(1, XDATA, add(CFA_XSP16, literal(-4)))
          CFI (cfiCond196) ?BRET_EXT load(1, XDATA, add(CFA_XSP16, literal(-3)))
          CFI (cfiCond196) DPL0 load(1, XDATA, add(CFA_XSP16, literal(-2)))
          CFI (cfiCond196) DPH0 load(1, XDATA, add(CFA_XSP16, literal(-1)))
          CFI (cfiCond196) CFA_SP SP+-4
          CFI (cfiCond196) CFA_XSP16 add(XSP16, 12)
          CFI Block cfiCond197 Using cfiCommon0
          CFI (cfiCond197) Function gp_CmdPayloadMsgClean
          CFI (cfiCond197) Conditional ??CrossCallReturnLabel_94, ??CrossCallReturnLabel_88
          CFI (cfiCond197) R6 load(1, XDATA, add(CFA_XSP16, literal(-9)))
          CFI (cfiCond197) VB load(1, XDATA, add(CFA_XSP16, literal(-8)))
          CFI (cfiCond197) V0 load(1, XDATA, add(CFA_XSP16, literal(-7)))
          CFI (cfiCond197) R7 load(1, XDATA, add(CFA_XSP16, literal(-6)))
          CFI (cfiCond197) ?RET_LOW load(1, XDATA, add(CFA_XSP16, literal(-5)))
          CFI (cfiCond197) ?RET_HIGH load(1, XDATA, add(CFA_XSP16, literal(-4)))
          CFI (cfiCond197) ?BRET_EXT load(1, XDATA, add(CFA_XSP16, literal(-3)))
          CFI (cfiCond197) DPL0 load(1, XDATA, add(CFA_XSP16, literal(-2)))
          CFI (cfiCond197) DPH0 load(1, XDATA, add(CFA_XSP16, literal(-1)))
          CFI (cfiCond197) CFA_SP SP+-4
          CFI (cfiCond197) CFA_XSP16 add(XSP16, 9)
          CFI Block cfiPicker198 Using cfiCommon1
          CFI (cfiPicker198) NoFunction
          CFI (cfiPicker198) Picker
        MOVX    A,@DPTR
        MOV     R0,A
        INC     DPTR
        MOVX    A,@DPTR
        RET
          CFI EndBlock cfiCond170
          CFI EndBlock cfiCond171
          CFI EndBlock cfiCond172
          CFI EndBlock cfiCond173
          CFI EndBlock cfiCond174
          CFI EndBlock cfiCond175
          CFI EndBlock cfiCond176
          CFI EndBlock cfiCond177
          CFI EndBlock cfiCond178
          CFI EndBlock cfiCond179
          CFI EndBlock cfiCond180
          CFI EndBlock cfiCond181
          CFI EndBlock cfiCond182
          CFI EndBlock cfiCond183
          CFI EndBlock cfiCond184
          CFI EndBlock cfiCond185
          CFI EndBlock cfiCond186
          CFI EndBlock cfiCond187
          CFI EndBlock cfiCond188
          CFI EndBlock cfiCond189
          CFI EndBlock cfiCond190
          CFI EndBlock cfiCond191
          CFI EndBlock cfiCond192
          CFI EndBlock cfiCond193
          CFI EndBlock cfiCond194
          CFI EndBlock cfiCond195
          CFI EndBlock cfiCond196
          CFI EndBlock cfiCond197
          CFI EndBlock cfiPicker198
//  867 
//  868 /*********************************************************************
//  869  * @fn      gp_GetHeadNotificationMsg
//  870  *
//  871  * @brief   Returns head pointer for  finding and binding respondent list
//  872  *
//  873  * @param   none
//  874  *
//  875  * @return  pointer to head
//  876  */

        RSEG BANKED_CODE:CODE:NOROOT(0)
//  877 gpNotificationMsg_t* gp_GetHeadNotificationMsg(void)
gp_GetHeadNotificationMsg:
          CFI Block cfiBlock199 Using cfiCommon0
          CFI Function gp_GetHeadNotificationMsg
        CODE
//  878 {
        PUSH    DPL
          CFI DPL0 Frame(CFA_SP, 4)
          CFI CFA_SP SP+-4
        PUSH    DPH
          CFI DPH0 Frame(CFA_SP, 5)
          CFI CFA_SP SP+-5
        ; Saved register size: 2
        ; Auto size: 0
//  879   return ( pNotificationMsgHead );
        MOV     DPTR,#pNotificationMsgHead
          CFI EndBlock cfiBlock199
        REQUIRE ?Subroutine4
        ; // Fall through to label ?Subroutine4
//  880 }

        RSEG BANKED_CODE:CODE:NOROOT(0)
?Subroutine4:
          CFI Block cfiBlock200 Using cfiCommon0
          CFI NoFunction
          CFI CFA_SP SP+-5
          CFI DPL0 Frame(CFA_SP, 4)
          CFI DPH0 Frame(CFA_SP, 5)
        LCALL   ??Subroutine41_0 & 0xFFFF
??CrossCallReturnLabel_97:
        POP     DPH
          CFI CFA_SP SP+-4
          CFI DPH0 SameValue
        POP     DPL
          CFI CFA_SP SP+-3
          CFI DPL0 SameValue
        LJMP    ?BRET
          CFI EndBlock cfiBlock200
//  881 
//  882 /*********************************************************************
//  883  * @fn      gp_GetPHeadNotification
//  884  *
//  885  * @brief   Returns head pointer for  finding and binding respondent list
//  886  *
//  887  * @param   none
//  888  *
//  889  * @return  pointer to head
//  890  */

        RSEG BANKED_CODE:CODE:NOROOT(0)
//  891 gpNotificationMsg_t** gp_GetPHeadNotification(void)
gp_GetPHeadNotification:
          CFI Block cfiBlock201 Using cfiCommon0
          CFI Function gp_GetPHeadNotification
        CODE
//  892 {
        ; Saved register size: 0
        ; Auto size: 0
//  893   return ( &pNotificationMsgHead );
        MOV     R2,#pNotificationMsgHead & 0xff
        MOV     R3,#(pNotificationMsgHead >> 8) & 0xff
        LJMP    ?BRET
//  894 }
          CFI EndBlock cfiBlock201
//  895 
//  896 /*********************************************************************
//  897  * @fn      gp_GetHeadCmdPayloadMsg
//  898  *
//  899  * @brief   Returns head pointer for  finding and binding respondent list
//  900  *
//  901  * @param   none
//  902  *
//  903  * @return  pointer to head
//  904  */

        RSEG BANKED_CODE:CODE:NOROOT(0)
//  905 gpCmdPayloadMsg_t* gp_GetHeadCmdPayloadMsg(void)
gp_GetHeadCmdPayloadMsg:
          CFI Block cfiBlock202 Using cfiCommon0
          CFI Function gp_GetHeadCmdPayloadMsg
        CODE
//  906 {
        PUSH    DPL
          CFI DPL0 Frame(CFA_SP, 4)
          CFI CFA_SP SP+-4
        PUSH    DPH
          CFI DPH0 Frame(CFA_SP, 5)
          CFI CFA_SP SP+-5
        ; Saved register size: 2
        ; Auto size: 0
//  907   return ( pCmdPayloadMsgHead );
        MOV     DPTR,#pCmdPayloadMsgHead
        SJMP    ?Subroutine4
//  908 }
          CFI EndBlock cfiBlock202
//  909 
//  910 /*********************************************************************
//  911  * @fn      gp_GetHeadCmdPayloadMsg
//  912  *
//  913  * @brief   Returns head pointer for  finding and binding respondent list
//  914  *
//  915  * @param   none
//  916  *
//  917  * @return  pointer to head
//  918  */

        RSEG BANKED_CODE:CODE:NOROOT(0)
//  919 gpCmdPayloadMsg_t** gp_GetPHeadCmdPayload(void)
gp_GetPHeadCmdPayload:
          CFI Block cfiBlock203 Using cfiCommon0
          CFI Function gp_GetPHeadCmdPayload
        CODE
//  920 {
        ; Saved register size: 0
        ; Auto size: 0
//  921   return ( &pCmdPayloadMsgHead );
        MOV     R2,#pCmdPayloadMsgHead & 0xff
        MOV     R3,#(pCmdPayloadMsgHead >> 8) & 0xff
        LJMP    ?BRET
//  922 }
          CFI EndBlock cfiBlock203
//  923 
//  924 /*********************************************************************
//  925  * @fn      gp_NotificationMsgClean
//  926  *
//  927  * @brief   This function free reserved memory for respondent list
//  928  *
//  929  * @param   pHead - begin of the Notification Msg list
//  930  *
//  931  * @return  status
//  932  */

        RSEG BANKED_CODE:CODE:NOROOT(0)
//  933 void gp_NotificationMsgClean( gpNotificationMsg_t **pHead )
gp_NotificationMsgClean:
          CFI Block cfiBlock204 Using cfiCommon0
          CFI Function gp_NotificationMsgClean
        CODE
//  934 {
        FUNCALL gp_NotificationMsgClean, gp_CmdPayloadMsgClean
        LOCFRAME ISTACK, 0, STACK
        LOCFRAME PSTACK, 0, STACK
        LOCFRAME XSTACK, 12, STACK
        LOCFRAME IOVERLAY, 0, STATIC
        LOCFRAME DOVERLAY, 0, STATIC
        ARGFRAME ISTACK, 0, STACK
        ARGFRAME PSTACK, 0, STACK
        ARGFRAME XSTACK, 12, STACK
        ARGFRAME IOVERLAY, 0, STATIC
        ARGFRAME DOVERLAY, 0, STATIC
        FUNCALL gp_NotificationMsgClean, osal_mem_free
        LOCFRAME ISTACK, 0, STACK
        LOCFRAME PSTACK, 0, STACK
        LOCFRAME XSTACK, 12, STACK
        LOCFRAME IOVERLAY, 0, STATIC
        LOCFRAME DOVERLAY, 0, STATIC
        ARGFRAME ISTACK, 0, STACK
        ARGFRAME PSTACK, 0, STACK
        ARGFRAME XSTACK, 12, STACK
        ARGFRAME IOVERLAY, 0, STATIC
        ARGFRAME DOVERLAY, 0, STATIC
        REQUIRE ?V0
        REQUIRE ?V1
        REQUIRE ?V2
        REQUIRE ?V3
        MOV     A,#-0xc
        LCALL   ?BANKED_ENTER_XDATA
          CFI DPH0 load(1, XDATA, add(CFA_XSP16, literal(-1)))
          CFI DPL0 load(1, XDATA, add(CFA_XSP16, literal(-2)))
          CFI ?BRET_EXT load(1, XDATA, add(CFA_XSP16, literal(-3)))
          CFI ?RET_HIGH load(1, XDATA, add(CFA_XSP16, literal(-4)))
          CFI ?RET_LOW load(1, XDATA, add(CFA_XSP16, literal(-5)))
          CFI R7 load(1, XDATA, add(CFA_XSP16, literal(-6)))
          CFI V3 load(1, XDATA, add(CFA_XSP16, literal(-7)))
          CFI V2 load(1, XDATA, add(CFA_XSP16, literal(-8)))
          CFI V1 load(1, XDATA, add(CFA_XSP16, literal(-9)))
          CFI V0 load(1, XDATA, add(CFA_XSP16, literal(-10)))
          CFI VB load(1, XDATA, add(CFA_XSP16, literal(-11)))
          CFI R6 load(1, XDATA, add(CFA_XSP16, literal(-12)))
          CFI CFA_SP SP+0
          CFI CFA_XSP16 add(XSP16, 12)
        ; Saved register size: 12
        ; Auto size: 0
        LCALL   ?Subroutine5 & 0xFFFF
//  935   gpNotificationMsg_t **pCurr;
//  936   gpNotificationMsg_t **pNext;
//  937   
//  938   if ( *pHead == NULL )
??CrossCallReturnLabel_70:
        JZ      ??CrossCallReturnLabel_60
//  939   {
//  940     return;
//  941   }
//  942   
//  943   pCurr = pHead;
        MOV     ?V0,R6
        MOV     ?V1,R7
//  944   
//  945   if( *pCurr != NULL )
        MOV     A,R0
        ORL     A,R1
        JZ      ??gp_NotificationMsgClean_0
//  946   {
//  947     pNext = &((*pCurr)->pNext);
        MOV     A,R0
        ADD     A,#0xe
        MOV     ?V2,A
        CLR     A
        ADDC    A,R1
        MOV     ?V3,A
//  948     if ( ( ( gpNotificationMsg_t* ) *pCurr )->pMsg != ( ( gpNotificationMsg_t* ) *pNext )->pMsg )
        MOV     A,R0
        ADD     A,#0xc
        MOV     DPL,A
        CLR     A
        ADDC    A,R1
        MOV     DPH,A
        LCALL   ??Subroutine41_0 & 0xFFFF
??CrossCallReturnLabel_95:
        MOV     DPL,?V2
        MOV     DPH,?V3
        LCALL   ?Subroutine30 & 0xFFFF
??CrossCallReturnLabel_90:
        XCH     A,R0
        ADD     A,#0xc
        MOV     DPL,A
        CLR     A
        ADDC    A,R0
        MOV     DPH,A
        MOVX    A,@DPTR
        XRL     A,R2
        JNZ     ??gp_NotificationMsgClean_1
        INC     DPTR
        MOVX    A,@DPTR
        XRL     A,R3
??gp_NotificationMsgClean_1:
        JZ      ??gp_NotificationMsgClean_2
//  949     {
//  950       gp_CmdPayloadMsgClean( gp_GetPHeadCmdPayload( ) );
        ; Setup parameters for call to function gp_CmdPayloadMsgClean
        MOV     R2,#pCmdPayloadMsgHead & 0xff
        MOV     R3,#(pCmdPayloadMsgHead >> 8) & 0xff
        LCALL   `??gp_CmdPayloadMsgClean::?relay`; Banked call to: gp_CmdPayloadMsgClean
//  951     }
//  952     osal_mem_free( *pCurr );
??gp_NotificationMsgClean_2:
        ; Setup parameters for call to function osal_mem_free
        LCALL   ?Subroutine13 & 0xFFFF
??CrossCallReturnLabel_100:
        LCALL   `??osal_mem_free::?relay`; Banked call to: osal_mem_free
//  953     *pCurr = ( gpNotificationMsg_t* )NULL;
        MOV     DPL,R6
        MOV     DPH,R7
        CLR     A
        MOVX    @DPTR,A
        INC     DPTR
        MOVX    @DPTR,A
//  954     pCurr = pNext;
        MOV     ?V0,?V2
        MOV     ?V1,?V3
//  955   }
//  956   *pHead = *pCurr;
??gp_NotificationMsgClean_0:
        MOV     DPL,?V0
        MOV     DPH,?V1
        LCALL   ??Subroutine40_0 & 0xFFFF
??CrossCallReturnLabel_87:
        LCALL   ??Subroutine34_0 & 0xFFFF
//  957 }
??CrossCallReturnLabel_60:
        LJMP    ?Subroutine0 & 0xFFFF
          CFI EndBlock cfiBlock204
//  958 
//  959 /*********************************************************************
//  960  * @fn      gp_NotificationMsgClean
//  961  *
//  962  * @brief   This function free reserved memory for respondent list
//  963  *
//  964  * @param   pHead - begin of the Notification Msg list
//  965  *
//  966  * @return  status
//  967  */

        RSEG BANKED_CODE:CODE:NOROOT(0)
//  968 void gp_CmdPayloadMsgClean( gpCmdPayloadMsg_t **pHead )
gp_CmdPayloadMsgClean:
          CFI Block cfiBlock205 Using cfiCommon0
          CFI Function gp_CmdPayloadMsgClean
        CODE
//  969 {
        FUNCALL gp_CmdPayloadMsgClean, osal_mem_free
        LOCFRAME ISTACK, 0, STACK
        LOCFRAME PSTACK, 0, STACK
        LOCFRAME XSTACK, 9, STACK
        LOCFRAME IOVERLAY, 0, STATIC
        LOCFRAME DOVERLAY, 0, STATIC
        ARGFRAME ISTACK, 0, STACK
        ARGFRAME PSTACK, 0, STACK
        ARGFRAME XSTACK, 9, STACK
        ARGFRAME IOVERLAY, 0, STATIC
        ARGFRAME DOVERLAY, 0, STATIC
        FUNCALL gp_CmdPayloadMsgClean, osal_mem_free
        LOCFRAME ISTACK, 0, STACK
        LOCFRAME PSTACK, 0, STACK
        LOCFRAME XSTACK, 9, STACK
        LOCFRAME IOVERLAY, 0, STATIC
        LOCFRAME DOVERLAY, 0, STATIC
        ARGFRAME ISTACK, 0, STACK
        ARGFRAME PSTACK, 0, STACK
        ARGFRAME XSTACK, 9, STACK
        ARGFRAME IOVERLAY, 0, STATIC
        ARGFRAME DOVERLAY, 0, STATIC
        MOV     A,#-0x9
        LCALL   ?BANKED_ENTER_XDATA
          CFI DPH0 load(1, XDATA, add(CFA_XSP16, literal(-1)))
          CFI DPL0 load(1, XDATA, add(CFA_XSP16, literal(-2)))
          CFI ?BRET_EXT load(1, XDATA, add(CFA_XSP16, literal(-3)))
          CFI ?RET_HIGH load(1, XDATA, add(CFA_XSP16, literal(-4)))
          CFI ?RET_LOW load(1, XDATA, add(CFA_XSP16, literal(-5)))
          CFI R7 load(1, XDATA, add(CFA_XSP16, literal(-6)))
          CFI V0 load(1, XDATA, add(CFA_XSP16, literal(-7)))
          CFI VB load(1, XDATA, add(CFA_XSP16, literal(-8)))
          CFI R6 load(1, XDATA, add(CFA_XSP16, literal(-9)))
          CFI CFA_SP SP+0
          CFI CFA_XSP16 add(XSP16, 9)
        ; Saved register size: 9
        ; Auto size: 0
        MOV     A,R2
        MOV     R6,A
        MOV     A,R3
        MOV     R7,A
//  970   gpCmdPayloadMsg_t **pCurr;
//  971   gpCmdPayloadMsg_t **pNext;
//  972   
//  973   if ( *pHead == NULL )
        MOV     DPL,R6
        MOV     DPH,R7
        LCALL   ??Subroutine40_0 & 0xFFFF
??CrossCallReturnLabel_88:
        MOV     DPL,R0
        MOV     DPH,R1
        MOV     A,DPL
        ORL     A,DPH
        JZ      ??gp_CmdPayloadMsgClean_0
//  974   {
//  975     return;
//  976   }
//  977   
//  978   pCurr = pHead;
//  979   
//  980   if( *pCurr != NULL )
//  981   {
//  982     pNext = &((*pCurr)->pNext);
//  983     osal_mem_free ( ( ( gpCmdPayloadMsg_t* ) *pCurr )->pMsg );
        ; Setup parameters for call to function osal_mem_free
        INC     DPTR
        LCALL   ??Subroutine41_0 & 0xFFFF
??CrossCallReturnLabel_96:
        LCALL   `??osal_mem_free::?relay`; Banked call to: osal_mem_free
//  984     ( ( gpCmdPayloadMsg_t* ) *pCurr )->pMsg = NULL;
        LCALL   ?Subroutine13 & 0xFFFF
??CrossCallReturnLabel_101:
        MOV     DPL,R2
        MOV     DPH,R3
        INC     DPTR
        CLR     A
        MOVX    @DPTR,A
        INC     DPTR
        MOVX    @DPTR,A
//  985     osal_mem_free( *pCurr );
        ; Setup parameters for call to function osal_mem_free
        LCALL   `??osal_mem_free::?relay`; Banked call to: osal_mem_free
//  986     *pCurr = ( gpCmdPayloadMsg_t* )NULL;
        MOV     DPL,R6
        MOV     DPH,R7
        CLR     A
        MOVX    @DPTR,A
        INC     DPTR
        MOVX    @DPTR,A
//  987     pCurr = pNext;
//  988   }
//  989   pHead = pCurr;
//  990 }
??gp_CmdPayloadMsgClean_0:
        LJMP    ?Subroutine1 & 0xFFFF
          CFI EndBlock cfiBlock205

        RSEG BANKED_CODE:CODE:NOROOT(0)
?Subroutine15:
          CFI Block cfiCond206 Using cfiCommon0
          CFI Function zclGp_SendGpCommissioningNotificationCommand
          CFI Conditional ??CrossCallReturnLabel_82
          CFI R6 load(1, XDATA, add(CFA_XSP16, literal(-20)))
          CFI VB load(1, XDATA, add(CFA_XSP16, literal(-19)))
          CFI V0 load(1, XDATA, add(CFA_XSP16, literal(-18)))
          CFI V1 load(1, XDATA, add(CFA_XSP16, literal(-17)))
          CFI V2 load(1, XDATA, add(CFA_XSP16, literal(-16)))
          CFI V3 load(1, XDATA, add(CFA_XSP16, literal(-15)))
          CFI V4 load(1, XDATA, add(CFA_XSP16, literal(-14)))
          CFI V5 load(1, XDATA, add(CFA_XSP16, literal(-13)))
          CFI V6 load(1, XDATA, add(CFA_XSP16, literal(-12)))
          CFI V7 load(1, XDATA, add(CFA_XSP16, literal(-11)))
          CFI V8 load(1, XDATA, add(CFA_XSP16, literal(-10)))
          CFI V9 load(1, XDATA, add(CFA_XSP16, literal(-9)))
          CFI V10 load(1, XDATA, add(CFA_XSP16, literal(-8)))
          CFI V11 load(1, XDATA, add(CFA_XSP16, literal(-7)))
          CFI R7 load(1, XDATA, add(CFA_XSP16, literal(-6)))
          CFI ?RET_LOW load(1, XDATA, add(CFA_XSP16, literal(-5)))
          CFI ?RET_HIGH load(1, XDATA, add(CFA_XSP16, literal(-4)))
          CFI ?BRET_EXT load(1, XDATA, add(CFA_XSP16, literal(-3)))
          CFI DPL0 load(1, XDATA, add(CFA_XSP16, literal(-2)))
          CFI DPH0 load(1, XDATA, add(CFA_XSP16, literal(-1)))
          CFI CFA_SP SP+-2
          CFI CFA_XSP16 add(XSP16, 32)
          CFI Block cfiCond207 Using cfiCommon0
          CFI (cfiCond207) Function gp_addPairedSinksToMsgQueue
          CFI (cfiCond207) Conditional ??CrossCallReturnLabel_83
          CFI (cfiCond207) R6 load(1, XDATA, add(CFA_XSP16, literal(-22)))
          CFI (cfiCond207) VB load(1, XDATA, add(CFA_XSP16, literal(-21)))
          CFI (cfiCond207) V0 load(1, XDATA, add(CFA_XSP16, literal(-20)))
          CFI (cfiCond207) V1 load(1, XDATA, add(CFA_XSP16, literal(-19)))
          CFI (cfiCond207) V2 load(1, XDATA, add(CFA_XSP16, literal(-18)))
          CFI (cfiCond207) V3 load(1, XDATA, add(CFA_XSP16, literal(-17)))
          CFI (cfiCond207) V4 load(1, XDATA, add(CFA_XSP16, literal(-16)))
          CFI (cfiCond207) V5 load(1, XDATA, add(CFA_XSP16, literal(-15)))
          CFI (cfiCond207) V6 load(1, XDATA, add(CFA_XSP16, literal(-14)))
          CFI (cfiCond207) V7 load(1, XDATA, add(CFA_XSP16, literal(-13)))
          CFI (cfiCond207) V8 load(1, XDATA, add(CFA_XSP16, literal(-12)))
          CFI (cfiCond207) V9 load(1, XDATA, add(CFA_XSP16, literal(-11)))
          CFI (cfiCond207) V10 load(1, XDATA, add(CFA_XSP16, literal(-10)))
          CFI (cfiCond207) V11 load(1, XDATA, add(CFA_XSP16, literal(-9)))
          CFI (cfiCond207) V12 load(1, XDATA, add(CFA_XSP16, literal(-8)))
          CFI (cfiCond207) V13 load(1, XDATA, add(CFA_XSP16, literal(-7)))
          CFI (cfiCond207) R7 load(1, XDATA, add(CFA_XSP16, literal(-6)))
          CFI (cfiCond207) ?RET_LOW load(1, XDATA, add(CFA_XSP16, literal(-5)))
          CFI (cfiCond207) ?RET_HIGH load(1, XDATA, add(CFA_XSP16, literal(-4)))
          CFI (cfiCond207) ?BRET_EXT load(1, XDATA, add(CFA_XSP16, literal(-3)))
          CFI (cfiCond207) DPL0 load(1, XDATA, add(CFA_XSP16, literal(-2)))
          CFI (cfiCond207) DPH0 load(1, XDATA, add(CFA_XSP16, literal(-1)))
          CFI (cfiCond207) CFA_SP SP+-2
          CFI (cfiCond207) CFA_XSP16 add(XSP16, 108)
          CFI Block cfiPicker208 Using cfiCommon1
          CFI (cfiPicker208) NoFunction
          CFI (cfiPicker208) Picker
        MOV     A,#-0xe
        MOVX    @DPTR,A
        MOV     DPTR,#_NIB + 33
          CFI EndBlock cfiCond206
          CFI EndBlock cfiCond207
          CFI EndBlock cfiPicker208
        REQUIRE ??Subroutine40_0
        ; // Fall through to label ??Subroutine40_0

        RSEG BANKED_CODE:CODE:NOROOT(0)
??Subroutine40_0:
          CFI Block cfiCond209 Using cfiCommon0
          CFI Function zclGp_HdlIncoming
          CFI Conditional ??CrossCallReturnLabel_84
          CFI R6 load(1, XDATA, add(CFA_XSP16, literal(-9)))
          CFI VB load(1, XDATA, add(CFA_XSP16, literal(-8)))
          CFI V0 load(1, XDATA, add(CFA_XSP16, literal(-7)))
          CFI R7 load(1, XDATA, add(CFA_XSP16, literal(-6)))
          CFI ?RET_LOW load(1, XDATA, add(CFA_XSP16, literal(-5)))
          CFI ?RET_HIGH load(1, XDATA, add(CFA_XSP16, literal(-4)))
          CFI ?BRET_EXT load(1, XDATA, add(CFA_XSP16, literal(-3)))
          CFI DPL0 load(1, XDATA, add(CFA_XSP16, literal(-2)))
          CFI DPH0 load(1, XDATA, add(CFA_XSP16, literal(-1)))
          CFI CFA_SP SP+-2
          CFI CFA_XSP16 add(XSP16, 9)
          CFI Block cfiCond210 Using cfiCommon0
          CFI (cfiCond210) Function zclGp_ProcessInGreenPowerClient
          CFI (cfiCond210) Conditional ??CrossCallReturnLabel_85
          CFI (cfiCond210) R6 load(1, XDATA, add(CFA_XSP16, literal(-19)))
          CFI (cfiCond210) VB load(1, XDATA, add(CFA_XSP16, literal(-18)))
          CFI (cfiCond210) V0 load(1, XDATA, add(CFA_XSP16, literal(-17)))
          CFI (cfiCond210) V1 load(1, XDATA, add(CFA_XSP16, literal(-16)))
          CFI (cfiCond210) V2 load(1, XDATA, add(CFA_XSP16, literal(-15)))
          CFI (cfiCond210) V3 load(1, XDATA, add(CFA_XSP16, literal(-14)))
          CFI (cfiCond210) V4 load(1, XDATA, add(CFA_XSP16, literal(-13)))
          CFI (cfiCond210) V5 load(1, XDATA, add(CFA_XSP16, literal(-12)))
          CFI (cfiCond210) V6 load(1, XDATA, add(CFA_XSP16, literal(-11)))
          CFI (cfiCond210) V7 load(1, XDATA, add(CFA_XSP16, literal(-10)))
          CFI (cfiCond210) V8 load(1, XDATA, add(CFA_XSP16, literal(-9)))
          CFI (cfiCond210) V9 load(1, XDATA, add(CFA_XSP16, literal(-8)))
          CFI (cfiCond210) V10 load(1, XDATA, add(CFA_XSP16, literal(-7)))
          CFI (cfiCond210) R7 load(1, XDATA, add(CFA_XSP16, literal(-6)))
          CFI (cfiCond210) ?RET_LOW load(1, XDATA, add(CFA_XSP16, literal(-5)))
          CFI (cfiCond210) ?RET_HIGH load(1, XDATA, add(CFA_XSP16, literal(-4)))
          CFI (cfiCond210) ?BRET_EXT load(1, XDATA, add(CFA_XSP16, literal(-3)))
          CFI (cfiCond210) DPL0 load(1, XDATA, add(CFA_XSP16, literal(-2)))
          CFI (cfiCond210) DPH0 load(1, XDATA, add(CFA_XSP16, literal(-1)))
          CFI (cfiCond210) CFA_SP SP+-2
          CFI (cfiCond210) CFA_XSP16 add(XSP16, 39)
          CFI Block cfiCond211 Using cfiCommon0
          CFI (cfiCond211) Function zclGp_ProcessInGreenPowerClient
          CFI (cfiCond211) Conditional ??CrossCallReturnLabel_86
          CFI (cfiCond211) R6 load(1, XDATA, add(CFA_XSP16, literal(-19)))
          CFI (cfiCond211) VB load(1, XDATA, add(CFA_XSP16, literal(-18)))
          CFI (cfiCond211) V0 load(1, XDATA, add(CFA_XSP16, literal(-17)))
          CFI (cfiCond211) V1 load(1, XDATA, add(CFA_XSP16, literal(-16)))
          CFI (cfiCond211) V2 load(1, XDATA, add(CFA_XSP16, literal(-15)))
          CFI (cfiCond211) V3 load(1, XDATA, add(CFA_XSP16, literal(-14)))
          CFI (cfiCond211) V4 load(1, XDATA, add(CFA_XSP16, literal(-13)))
          CFI (cfiCond211) V5 load(1, XDATA, add(CFA_XSP16, literal(-12)))
          CFI (cfiCond211) V6 load(1, XDATA, add(CFA_XSP16, literal(-11)))
          CFI (cfiCond211) V7 load(1, XDATA, add(CFA_XSP16, literal(-10)))
          CFI (cfiCond211) V8 load(1, XDATA, add(CFA_XSP16, literal(-9)))
          CFI (cfiCond211) V9 load(1, XDATA, add(CFA_XSP16, literal(-8)))
          CFI (cfiCond211) V10 load(1, XDATA, add(CFA_XSP16, literal(-7)))
          CFI (cfiCond211) R7 load(1, XDATA, add(CFA_XSP16, literal(-6)))
          CFI (cfiCond211) ?RET_LOW load(1, XDATA, add(CFA_XSP16, literal(-5)))
          CFI (cfiCond211) ?RET_HIGH load(1, XDATA, add(CFA_XSP16, literal(-4)))
          CFI (cfiCond211) ?BRET_EXT load(1, XDATA, add(CFA_XSP16, literal(-3)))
          CFI (cfiCond211) DPL0 load(1, XDATA, add(CFA_XSP16, literal(-2)))
          CFI (cfiCond211) DPH0 load(1, XDATA, add(CFA_XSP16, literal(-1)))
          CFI (cfiCond211) CFA_SP SP+-2
          CFI (cfiCond211) CFA_XSP16 add(XSP16, 39)
          CFI Block cfiCond212 Using cfiCommon0
          CFI (cfiCond212) Function gp_NotificationMsgClean
          CFI (cfiCond212) Conditional ??CrossCallReturnLabel_87
          CFI (cfiCond212) R6 load(1, XDATA, add(CFA_XSP16, literal(-12)))
          CFI (cfiCond212) VB load(1, XDATA, add(CFA_XSP16, literal(-11)))
          CFI (cfiCond212) V0 load(1, XDATA, add(CFA_XSP16, literal(-10)))
          CFI (cfiCond212) V1 load(1, XDATA, add(CFA_XSP16, literal(-9)))
          CFI (cfiCond212) V2 load(1, XDATA, add(CFA_XSP16, literal(-8)))
          CFI (cfiCond212) V3 load(1, XDATA, add(CFA_XSP16, literal(-7)))
          CFI (cfiCond212) R7 load(1, XDATA, add(CFA_XSP16, literal(-6)))
          CFI (cfiCond212) ?RET_LOW load(1, XDATA, add(CFA_XSP16, literal(-5)))
          CFI (cfiCond212) ?RET_HIGH load(1, XDATA, add(CFA_XSP16, literal(-4)))
          CFI (cfiCond212) ?BRET_EXT load(1, XDATA, add(CFA_XSP16, literal(-3)))
          CFI (cfiCond212) DPL0 load(1, XDATA, add(CFA_XSP16, literal(-2)))
          CFI (cfiCond212) DPH0 load(1, XDATA, add(CFA_XSP16, literal(-1)))
          CFI (cfiCond212) CFA_SP SP+-2
          CFI (cfiCond212) CFA_XSP16 add(XSP16, 12)
          CFI Block cfiCond213 Using cfiCommon0
          CFI (cfiCond213) Function gp_CmdPayloadMsgClean
          CFI (cfiCond213) Conditional ??CrossCallReturnLabel_88
          CFI (cfiCond213) R6 load(1, XDATA, add(CFA_XSP16, literal(-9)))
          CFI (cfiCond213) VB load(1, XDATA, add(CFA_XSP16, literal(-8)))
          CFI (cfiCond213) V0 load(1, XDATA, add(CFA_XSP16, literal(-7)))
          CFI (cfiCond213) R7 load(1, XDATA, add(CFA_XSP16, literal(-6)))
          CFI (cfiCond213) ?RET_LOW load(1, XDATA, add(CFA_XSP16, literal(-5)))
          CFI (cfiCond213) ?RET_HIGH load(1, XDATA, add(CFA_XSP16, literal(-4)))
          CFI (cfiCond213) ?BRET_EXT load(1, XDATA, add(CFA_XSP16, literal(-3)))
          CFI (cfiCond213) DPL0 load(1, XDATA, add(CFA_XSP16, literal(-2)))
          CFI (cfiCond213) DPH0 load(1, XDATA, add(CFA_XSP16, literal(-1)))
          CFI (cfiCond213) CFA_SP SP+-2
          CFI (cfiCond213) CFA_XSP16 add(XSP16, 9)
          CFI Block cfiCond214 Using cfiCommon0
          CFI (cfiCond214) Function zclGp_SendGpCommissioningNotificationCommand
          CFI (cfiCond214) Conditional ??CrossCallReturnLabel_82
          CFI (cfiCond214) R6 load(1, XDATA, add(CFA_XSP16, literal(-20)))
          CFI (cfiCond214) VB load(1, XDATA, add(CFA_XSP16, literal(-19)))
          CFI (cfiCond214) V0 load(1, XDATA, add(CFA_XSP16, literal(-18)))
          CFI (cfiCond214) V1 load(1, XDATA, add(CFA_XSP16, literal(-17)))
          CFI (cfiCond214) V2 load(1, XDATA, add(CFA_XSP16, literal(-16)))
          CFI (cfiCond214) V3 load(1, XDATA, add(CFA_XSP16, literal(-15)))
          CFI (cfiCond214) V4 load(1, XDATA, add(CFA_XSP16, literal(-14)))
          CFI (cfiCond214) V5 load(1, XDATA, add(CFA_XSP16, literal(-13)))
          CFI (cfiCond214) V6 load(1, XDATA, add(CFA_XSP16, literal(-12)))
          CFI (cfiCond214) V7 load(1, XDATA, add(CFA_XSP16, literal(-11)))
          CFI (cfiCond214) V8 load(1, XDATA, add(CFA_XSP16, literal(-10)))
          CFI (cfiCond214) V9 load(1, XDATA, add(CFA_XSP16, literal(-9)))
          CFI (cfiCond214) V10 load(1, XDATA, add(CFA_XSP16, literal(-8)))
          CFI (cfiCond214) V11 load(1, XDATA, add(CFA_XSP16, literal(-7)))
          CFI (cfiCond214) R7 load(1, XDATA, add(CFA_XSP16, literal(-6)))
          CFI (cfiCond214) ?RET_LOW load(1, XDATA, add(CFA_XSP16, literal(-5)))
          CFI (cfiCond214) ?RET_HIGH load(1, XDATA, add(CFA_XSP16, literal(-4)))
          CFI (cfiCond214) ?BRET_EXT load(1, XDATA, add(CFA_XSP16, literal(-3)))
          CFI (cfiCond214) DPL0 load(1, XDATA, add(CFA_XSP16, literal(-2)))
          CFI (cfiCond214) DPH0 load(1, XDATA, add(CFA_XSP16, literal(-1)))
          CFI (cfiCond214) CFA_SP SP+-2
          CFI (cfiCond214) CFA_XSP16 add(XSP16, 32)
          CFI Block cfiCond215 Using cfiCommon0
          CFI (cfiCond215) Function gp_addPairedSinksToMsgQueue
          CFI (cfiCond215) Conditional ??CrossCallReturnLabel_83
          CFI (cfiCond215) R6 load(1, XDATA, add(CFA_XSP16, literal(-22)))
          CFI (cfiCond215) VB load(1, XDATA, add(CFA_XSP16, literal(-21)))
          CFI (cfiCond215) V0 load(1, XDATA, add(CFA_XSP16, literal(-20)))
          CFI (cfiCond215) V1 load(1, XDATA, add(CFA_XSP16, literal(-19)))
          CFI (cfiCond215) V2 load(1, XDATA, add(CFA_XSP16, literal(-18)))
          CFI (cfiCond215) V3 load(1, XDATA, add(CFA_XSP16, literal(-17)))
          CFI (cfiCond215) V4 load(1, XDATA, add(CFA_XSP16, literal(-16)))
          CFI (cfiCond215) V5 load(1, XDATA, add(CFA_XSP16, literal(-15)))
          CFI (cfiCond215) V6 load(1, XDATA, add(CFA_XSP16, literal(-14)))
          CFI (cfiCond215) V7 load(1, XDATA, add(CFA_XSP16, literal(-13)))
          CFI (cfiCond215) V8 load(1, XDATA, add(CFA_XSP16, literal(-12)))
          CFI (cfiCond215) V9 load(1, XDATA, add(CFA_XSP16, literal(-11)))
          CFI (cfiCond215) V10 load(1, XDATA, add(CFA_XSP16, literal(-10)))
          CFI (cfiCond215) V11 load(1, XDATA, add(CFA_XSP16, literal(-9)))
          CFI (cfiCond215) V12 load(1, XDATA, add(CFA_XSP16, literal(-8)))
          CFI (cfiCond215) V13 load(1, XDATA, add(CFA_XSP16, literal(-7)))
          CFI (cfiCond215) R7 load(1, XDATA, add(CFA_XSP16, literal(-6)))
          CFI (cfiCond215) ?RET_LOW load(1, XDATA, add(CFA_XSP16, literal(-5)))
          CFI (cfiCond215) ?RET_HIGH load(1, XDATA, add(CFA_XSP16, literal(-4)))
          CFI (cfiCond215) ?BRET_EXT load(1, XDATA, add(CFA_XSP16, literal(-3)))
          CFI (cfiCond215) DPL0 load(1, XDATA, add(CFA_XSP16, literal(-2)))
          CFI (cfiCond215) DPH0 load(1, XDATA, add(CFA_XSP16, literal(-1)))
          CFI (cfiCond215) CFA_SP SP+-2
          CFI (cfiCond215) CFA_XSP16 add(XSP16, 108)
          CFI Block cfiPicker216 Using cfiCommon1
          CFI (cfiPicker216) NoFunction
          CFI (cfiPicker216) Picker
        LCALL   ?Subroutine30 & 0xFFFF
??CrossCallReturnLabel_94:
        MOV     R1,A
        RET
          CFI EndBlock cfiCond209
          CFI EndBlock cfiCond210
          CFI EndBlock cfiCond211
          CFI EndBlock cfiCond212
          CFI EndBlock cfiCond213
          CFI EndBlock cfiCond214
          CFI EndBlock cfiCond215
          CFI EndBlock cfiPicker216

        RSEG BANKED_CODE:CODE:NOROOT(0)
?Subroutine13:
          CFI Block cfiCond217 Using cfiCommon0
          CFI Function gp_AddNotificationMsgNode
          CFI Conditional ??CrossCallReturnLabel_98
          CFI R6 load(1, XDATA, add(CFA_XSP16, literal(-12)))
          CFI VB load(1, XDATA, add(CFA_XSP16, literal(-11)))
          CFI V0 load(1, XDATA, add(CFA_XSP16, literal(-10)))
          CFI V1 load(1, XDATA, add(CFA_XSP16, literal(-9)))
          CFI V2 load(1, XDATA, add(CFA_XSP16, literal(-8)))
          CFI V3 load(1, XDATA, add(CFA_XSP16, literal(-7)))
          CFI R7 load(1, XDATA, add(CFA_XSP16, literal(-6)))
          CFI ?RET_LOW load(1, XDATA, add(CFA_XSP16, literal(-5)))
          CFI ?RET_HIGH load(1, XDATA, add(CFA_XSP16, literal(-4)))
          CFI ?BRET_EXT load(1, XDATA, add(CFA_XSP16, literal(-3)))
          CFI DPL0 load(1, XDATA, add(CFA_XSP16, literal(-2)))
          CFI DPH0 load(1, XDATA, add(CFA_XSP16, literal(-1)))
          CFI CFA_SP SP+-2
          CFI CFA_XSP16 add(XSP16, 12)
          CFI Block cfiCond218 Using cfiCommon0
          CFI (cfiCond218) Function gp_AddCmdPayloadMsgNode
          CFI (cfiCond218) Conditional ??CrossCallReturnLabel_99
          CFI (cfiCond218) R6 load(1, XDATA, add(CFA_XSP16, literal(-14)))
          CFI (cfiCond218) VB load(1, XDATA, add(CFA_XSP16, literal(-13)))
          CFI (cfiCond218) V0 load(1, XDATA, add(CFA_XSP16, literal(-12)))
          CFI (cfiCond218) V1 load(1, XDATA, add(CFA_XSP16, literal(-11)))
          CFI (cfiCond218) V2 load(1, XDATA, add(CFA_XSP16, literal(-10)))
          CFI (cfiCond218) V3 load(1, XDATA, add(CFA_XSP16, literal(-9)))
          CFI (cfiCond218) V4 load(1, XDATA, add(CFA_XSP16, literal(-8)))
          CFI (cfiCond218) V5 load(1, XDATA, add(CFA_XSP16, literal(-7)))
          CFI (cfiCond218) R7 load(1, XDATA, add(CFA_XSP16, literal(-6)))
          CFI (cfiCond218) ?RET_LOW load(1, XDATA, add(CFA_XSP16, literal(-5)))
          CFI (cfiCond218) ?RET_HIGH load(1, XDATA, add(CFA_XSP16, literal(-4)))
          CFI (cfiCond218) ?BRET_EXT load(1, XDATA, add(CFA_XSP16, literal(-3)))
          CFI (cfiCond218) DPL0 load(1, XDATA, add(CFA_XSP16, literal(-2)))
          CFI (cfiCond218) DPH0 load(1, XDATA, add(CFA_XSP16, literal(-1)))
          CFI (cfiCond218) CFA_SP SP+-2
          CFI (cfiCond218) CFA_XSP16 add(XSP16, 14)
          CFI Block cfiCond219 Using cfiCommon0
          CFI (cfiCond219) Function gp_NotificationMsgClean
          CFI (cfiCond219) Conditional ??CrossCallReturnLabel_100
          CFI (cfiCond219) R6 load(1, XDATA, add(CFA_XSP16, literal(-12)))
          CFI (cfiCond219) VB load(1, XDATA, add(CFA_XSP16, literal(-11)))
          CFI (cfiCond219) V0 load(1, XDATA, add(CFA_XSP16, literal(-10)))
          CFI (cfiCond219) V1 load(1, XDATA, add(CFA_XSP16, literal(-9)))
          CFI (cfiCond219) V2 load(1, XDATA, add(CFA_XSP16, literal(-8)))
          CFI (cfiCond219) V3 load(1, XDATA, add(CFA_XSP16, literal(-7)))
          CFI (cfiCond219) R7 load(1, XDATA, add(CFA_XSP16, literal(-6)))
          CFI (cfiCond219) ?RET_LOW load(1, XDATA, add(CFA_XSP16, literal(-5)))
          CFI (cfiCond219) ?RET_HIGH load(1, XDATA, add(CFA_XSP16, literal(-4)))
          CFI (cfiCond219) ?BRET_EXT load(1, XDATA, add(CFA_XSP16, literal(-3)))
          CFI (cfiCond219) DPL0 load(1, XDATA, add(CFA_XSP16, literal(-2)))
          CFI (cfiCond219) DPH0 load(1, XDATA, add(CFA_XSP16, literal(-1)))
          CFI (cfiCond219) CFA_SP SP+-2
          CFI (cfiCond219) CFA_XSP16 add(XSP16, 12)
          CFI Block cfiCond220 Using cfiCommon0
          CFI (cfiCond220) Function gp_CmdPayloadMsgClean
          CFI (cfiCond220) Conditional ??CrossCallReturnLabel_101
          CFI (cfiCond220) R6 load(1, XDATA, add(CFA_XSP16, literal(-9)))
          CFI (cfiCond220) VB load(1, XDATA, add(CFA_XSP16, literal(-8)))
          CFI (cfiCond220) V0 load(1, XDATA, add(CFA_XSP16, literal(-7)))
          CFI (cfiCond220) R7 load(1, XDATA, add(CFA_XSP16, literal(-6)))
          CFI (cfiCond220) ?RET_LOW load(1, XDATA, add(CFA_XSP16, literal(-5)))
          CFI (cfiCond220) ?RET_HIGH load(1, XDATA, add(CFA_XSP16, literal(-4)))
          CFI (cfiCond220) ?BRET_EXT load(1, XDATA, add(CFA_XSP16, literal(-3)))
          CFI (cfiCond220) DPL0 load(1, XDATA, add(CFA_XSP16, literal(-2)))
          CFI (cfiCond220) DPH0 load(1, XDATA, add(CFA_XSP16, literal(-1)))
          CFI (cfiCond220) CFA_SP SP+-2
          CFI (cfiCond220) CFA_XSP16 add(XSP16, 9)
          CFI Block cfiPicker221 Using cfiCommon1
          CFI (cfiPicker221) NoFunction
          CFI (cfiPicker221) Picker
        MOV     DPL,R6
        MOV     DPH,R7
          CFI EndBlock cfiCond217
          CFI EndBlock cfiCond218
          CFI EndBlock cfiCond219
          CFI EndBlock cfiCond220
          CFI EndBlock cfiPicker221
        REQUIRE ??Subroutine41_0
        ; // Fall through to label ??Subroutine41_0

        RSEG BANKED_CODE:CODE:NOROOT(0)
??Subroutine41_0:
          CFI Block cfiCond222 Using cfiCommon0
          CFI Function gp_GetHeadNotificationMsg
          CFI Conditional ??CrossCallReturnLabel_97
          CFI DPL0 Frame(CFA_SP, 4)
          CFI DPH0 Frame(CFA_SP, 5)
          CFI CFA_SP SP+-7
          CFI Block cfiCond223 Using cfiCommon0
          CFI (cfiCond223) Function gp_GetHeadCmdPayloadMsg
          CFI (cfiCond223) Conditional ??CrossCallReturnLabel_97
          CFI (cfiCond223) DPL0 Frame(CFA_SP, 4)
          CFI (cfiCond223) DPH0 Frame(CFA_SP, 5)
          CFI (cfiCond223) CFA_SP SP+-7
          CFI Block cfiCond224 Using cfiCommon0
          CFI (cfiCond224) Function gp_NotificationMsgClean
          CFI (cfiCond224) Conditional ??CrossCallReturnLabel_95
          CFI (cfiCond224) R6 load(1, XDATA, add(CFA_XSP16, literal(-12)))
          CFI (cfiCond224) VB load(1, XDATA, add(CFA_XSP16, literal(-11)))
          CFI (cfiCond224) V0 load(1, XDATA, add(CFA_XSP16, literal(-10)))
          CFI (cfiCond224) V1 load(1, XDATA, add(CFA_XSP16, literal(-9)))
          CFI (cfiCond224) V2 load(1, XDATA, add(CFA_XSP16, literal(-8)))
          CFI (cfiCond224) V3 load(1, XDATA, add(CFA_XSP16, literal(-7)))
          CFI (cfiCond224) R7 load(1, XDATA, add(CFA_XSP16, literal(-6)))
          CFI (cfiCond224) ?RET_LOW load(1, XDATA, add(CFA_XSP16, literal(-5)))
          CFI (cfiCond224) ?RET_HIGH load(1, XDATA, add(CFA_XSP16, literal(-4)))
          CFI (cfiCond224) ?BRET_EXT load(1, XDATA, add(CFA_XSP16, literal(-3)))
          CFI (cfiCond224) DPL0 load(1, XDATA, add(CFA_XSP16, literal(-2)))
          CFI (cfiCond224) DPH0 load(1, XDATA, add(CFA_XSP16, literal(-1)))
          CFI (cfiCond224) CFA_SP SP+-2
          CFI (cfiCond224) CFA_XSP16 add(XSP16, 12)
          CFI Block cfiCond225 Using cfiCommon0
          CFI (cfiCond225) Function gp_CmdPayloadMsgClean
          CFI (cfiCond225) Conditional ??CrossCallReturnLabel_96
          CFI (cfiCond225) R6 load(1, XDATA, add(CFA_XSP16, literal(-9)))
          CFI (cfiCond225) VB load(1, XDATA, add(CFA_XSP16, literal(-8)))
          CFI (cfiCond225) V0 load(1, XDATA, add(CFA_XSP16, literal(-7)))
          CFI (cfiCond225) R7 load(1, XDATA, add(CFA_XSP16, literal(-6)))
          CFI (cfiCond225) ?RET_LOW load(1, XDATA, add(CFA_XSP16, literal(-5)))
          CFI (cfiCond225) ?RET_HIGH load(1, XDATA, add(CFA_XSP16, literal(-4)))
          CFI (cfiCond225) ?BRET_EXT load(1, XDATA, add(CFA_XSP16, literal(-3)))
          CFI (cfiCond225) DPL0 load(1, XDATA, add(CFA_XSP16, literal(-2)))
          CFI (cfiCond225) DPH0 load(1, XDATA, add(CFA_XSP16, literal(-1)))
          CFI (cfiCond225) CFA_SP SP+-2
          CFI (cfiCond225) CFA_XSP16 add(XSP16, 9)
          CFI Block cfiCond226 Using cfiCommon0
          CFI (cfiCond226) Function gp_AddNotificationMsgNode
          CFI (cfiCond226) Conditional ??CrossCallReturnLabel_98
          CFI (cfiCond226) R6 load(1, XDATA, add(CFA_XSP16, literal(-12)))
          CFI (cfiCond226) VB load(1, XDATA, add(CFA_XSP16, literal(-11)))
          CFI (cfiCond226) V0 load(1, XDATA, add(CFA_XSP16, literal(-10)))
          CFI (cfiCond226) V1 load(1, XDATA, add(CFA_XSP16, literal(-9)))
          CFI (cfiCond226) V2 load(1, XDATA, add(CFA_XSP16, literal(-8)))
          CFI (cfiCond226) V3 load(1, XDATA, add(CFA_XSP16, literal(-7)))
          CFI (cfiCond226) R7 load(1, XDATA, add(CFA_XSP16, literal(-6)))
          CFI (cfiCond226) ?RET_LOW load(1, XDATA, add(CFA_XSP16, literal(-5)))
          CFI (cfiCond226) ?RET_HIGH load(1, XDATA, add(CFA_XSP16, literal(-4)))
          CFI (cfiCond226) ?BRET_EXT load(1, XDATA, add(CFA_XSP16, literal(-3)))
          CFI (cfiCond226) DPL0 load(1, XDATA, add(CFA_XSP16, literal(-2)))
          CFI (cfiCond226) DPH0 load(1, XDATA, add(CFA_XSP16, literal(-1)))
          CFI (cfiCond226) CFA_SP SP+-2
          CFI (cfiCond226) CFA_XSP16 add(XSP16, 12)
          CFI Block cfiCond227 Using cfiCommon0
          CFI (cfiCond227) Function gp_AddCmdPayloadMsgNode
          CFI (cfiCond227) Conditional ??CrossCallReturnLabel_99
          CFI (cfiCond227) R6 load(1, XDATA, add(CFA_XSP16, literal(-14)))
          CFI (cfiCond227) VB load(1, XDATA, add(CFA_XSP16, literal(-13)))
          CFI (cfiCond227) V0 load(1, XDATA, add(CFA_XSP16, literal(-12)))
          CFI (cfiCond227) V1 load(1, XDATA, add(CFA_XSP16, literal(-11)))
          CFI (cfiCond227) V2 load(1, XDATA, add(CFA_XSP16, literal(-10)))
          CFI (cfiCond227) V3 load(1, XDATA, add(CFA_XSP16, literal(-9)))
          CFI (cfiCond227) V4 load(1, XDATA, add(CFA_XSP16, literal(-8)))
          CFI (cfiCond227) V5 load(1, XDATA, add(CFA_XSP16, literal(-7)))
          CFI (cfiCond227) R7 load(1, XDATA, add(CFA_XSP16, literal(-6)))
          CFI (cfiCond227) ?RET_LOW load(1, XDATA, add(CFA_XSP16, literal(-5)))
          CFI (cfiCond227) ?RET_HIGH load(1, XDATA, add(CFA_XSP16, literal(-4)))
          CFI (cfiCond227) ?BRET_EXT load(1, XDATA, add(CFA_XSP16, literal(-3)))
          CFI (cfiCond227) DPL0 load(1, XDATA, add(CFA_XSP16, literal(-2)))
          CFI (cfiCond227) DPH0 load(1, XDATA, add(CFA_XSP16, literal(-1)))
          CFI (cfiCond227) CFA_SP SP+-2
          CFI (cfiCond227) CFA_XSP16 add(XSP16, 14)
          CFI Block cfiCond228 Using cfiCommon0
          CFI (cfiCond228) Function gp_NotificationMsgClean
          CFI (cfiCond228) Conditional ??CrossCallReturnLabel_100
          CFI (cfiCond228) R6 load(1, XDATA, add(CFA_XSP16, literal(-12)))
          CFI (cfiCond228) VB load(1, XDATA, add(CFA_XSP16, literal(-11)))
          CFI (cfiCond228) V0 load(1, XDATA, add(CFA_XSP16, literal(-10)))
          CFI (cfiCond228) V1 load(1, XDATA, add(CFA_XSP16, literal(-9)))
          CFI (cfiCond228) V2 load(1, XDATA, add(CFA_XSP16, literal(-8)))
          CFI (cfiCond228) V3 load(1, XDATA, add(CFA_XSP16, literal(-7)))
          CFI (cfiCond228) R7 load(1, XDATA, add(CFA_XSP16, literal(-6)))
          CFI (cfiCond228) ?RET_LOW load(1, XDATA, add(CFA_XSP16, literal(-5)))
          CFI (cfiCond228) ?RET_HIGH load(1, XDATA, add(CFA_XSP16, literal(-4)))
          CFI (cfiCond228) ?BRET_EXT load(1, XDATA, add(CFA_XSP16, literal(-3)))
          CFI (cfiCond228) DPL0 load(1, XDATA, add(CFA_XSP16, literal(-2)))
          CFI (cfiCond228) DPH0 load(1, XDATA, add(CFA_XSP16, literal(-1)))
          CFI (cfiCond228) CFA_SP SP+-2
          CFI (cfiCond228) CFA_XSP16 add(XSP16, 12)
          CFI Block cfiCond229 Using cfiCommon0
          CFI (cfiCond229) Function gp_CmdPayloadMsgClean
          CFI (cfiCond229) Conditional ??CrossCallReturnLabel_101
          CFI (cfiCond229) R6 load(1, XDATA, add(CFA_XSP16, literal(-9)))
          CFI (cfiCond229) VB load(1, XDATA, add(CFA_XSP16, literal(-8)))
          CFI (cfiCond229) V0 load(1, XDATA, add(CFA_XSP16, literal(-7)))
          CFI (cfiCond229) R7 load(1, XDATA, add(CFA_XSP16, literal(-6)))
          CFI (cfiCond229) ?RET_LOW load(1, XDATA, add(CFA_XSP16, literal(-5)))
          CFI (cfiCond229) ?RET_HIGH load(1, XDATA, add(CFA_XSP16, literal(-4)))
          CFI (cfiCond229) ?BRET_EXT load(1, XDATA, add(CFA_XSP16, literal(-3)))
          CFI (cfiCond229) DPL0 load(1, XDATA, add(CFA_XSP16, literal(-2)))
          CFI (cfiCond229) DPH0 load(1, XDATA, add(CFA_XSP16, literal(-1)))
          CFI (cfiCond229) CFA_SP SP+-2
          CFI (cfiCond229) CFA_XSP16 add(XSP16, 9)
          CFI Block cfiPicker230 Using cfiCommon1
          CFI (cfiPicker230) NoFunction
          CFI (cfiPicker230) Picker
        MOVX    A,@DPTR
        MOV     R2,A
        INC     DPTR
        MOVX    A,@DPTR
        MOV     R3,A
        RET
          CFI EndBlock cfiCond222
          CFI EndBlock cfiCond223
          CFI EndBlock cfiCond224
          CFI EndBlock cfiCond225
          CFI EndBlock cfiCond226
          CFI EndBlock cfiCond227
          CFI EndBlock cfiCond228
          CFI EndBlock cfiCond229
          CFI EndBlock cfiPicker230

        RSEG BANK_RELAYS:CODE:REORDER:NOROOT(0)
`??zclGp_RegisterCmdCallbacks::?relay`:
        CODE
        LCALL   ?BDISPATCH
        DATA24
        DC24    zclGp_RegisterCmdCallbacks

        RSEG BANK_RELAYS:CODE:REORDER:NOROOT(0)
`??zclGp_HdlIncoming::?relay`:
        CODE
        LCALL   ?BDISPATCH
        DATA24
        DC24    zclGp_HdlIncoming

        RSEG BANK_RELAYS:CODE:REORDER:NOROOT(0)
`??zclGp_ProcessInGreenPowerClient::?relay`:
        CODE
        LCALL   ?BDISPATCH
        DATA24
        DC24    zclGp_ProcessInGreenPowerClient

        RSEG BANK_RELAYS:CODE:REORDER:NOROOT(0)
`??zclGp_SendGpNotificationCommand::?relay`:
        CODE
        LCALL   ?BDISPATCH
        DATA24
        DC24    zclGp_SendGpNotificationCommand

        RSEG BANK_RELAYS:CODE:REORDER:NOROOT(0)
`??zclGp_SendGpCommissioningNotificationCommand:`:
        CODE
        LCALL   ?BDISPATCH
        DATA24
        DC24    zclGp_SendGpCommissioningNotificationCommand

        RSEG BANK_RELAYS:CODE:REORDER:NOROOT(0)
`??zclGp_SendGpProxyTableResponse::?relay`:
        CODE
        LCALL   ?BDISPATCH
        DATA24
        DC24    zclGp_SendGpProxyTableResponse

        RSEG BANK_RELAYS:CODE:REORDER:NOROOT(0)
`??gp_addPairedSinksToMsgQueue::?relay`:
        CODE
        LCALL   ?BDISPATCH
        DATA24
        DC24    gp_addPairedSinksToMsgQueue

        RSEG BANK_RELAYS:CODE:REORDER:NOROOT(0)
`??gp_CreateNotificationMsgList::?relay`:
        CODE
        LCALL   ?BDISPATCH
        DATA24
        DC24    gp_CreateNotificationMsgList

        RSEG BANK_RELAYS:CODE:REORDER:NOROOT(0)
`??gp_CreateCmdPayloadMsgList::?relay`:
        CODE
        LCALL   ?BDISPATCH
        DATA24
        DC24    gp_CreateCmdPayloadMsgList

        RSEG BANK_RELAYS:CODE:REORDER:NOROOT(0)
`??gp_AddNotificationMsgNode::?relay`:
        CODE
        LCALL   ?BDISPATCH
        DATA24
        DC24    gp_AddNotificationMsgNode

        RSEG BANK_RELAYS:CODE:REORDER:NOROOT(0)
`??gp_AddCmdPayloadMsgNode::?relay`:
        CODE
        LCALL   ?BDISPATCH
        DATA24
        DC24    gp_AddCmdPayloadMsgNode

        RSEG BANK_RELAYS:CODE:REORDER:NOROOT(0)
`??gp_GetHeadNotificationMsg::?relay`:
        CODE
        LCALL   ?BDISPATCH
        DATA24
        DC24    gp_GetHeadNotificationMsg

        RSEG BANK_RELAYS:CODE:REORDER:NOROOT(0)
`??gp_GetPHeadNotification::?relay`:
        CODE
        LCALL   ?BDISPATCH
        DATA24
        DC24    gp_GetPHeadNotification

        RSEG BANK_RELAYS:CODE:REORDER:NOROOT(0)
`??gp_GetHeadCmdPayloadMsg::?relay`:
        CODE
        LCALL   ?BDISPATCH
        DATA24
        DC24    gp_GetHeadCmdPayloadMsg

        RSEG BANK_RELAYS:CODE:REORDER:NOROOT(0)
`??gp_GetPHeadCmdPayload::?relay`:
        CODE
        LCALL   ?BDISPATCH
        DATA24
        DC24    gp_GetPHeadCmdPayload

        RSEG BANK_RELAYS:CODE:REORDER:NOROOT(0)
`??gp_NotificationMsgClean::?relay`:
        CODE
        LCALL   ?BDISPATCH
        DATA24
        DC24    gp_NotificationMsgClean

        RSEG BANK_RELAYS:CODE:REORDER:NOROOT(0)
`??gp_CmdPayloadMsgClean::?relay`:
        CODE
        LCALL   ?BDISPATCH
        DATA24
        DC24    gp_CmdPayloadMsgClean

        RSEG XDATA_ROM_C:CONST:REORDER:NOROOT(0)
        DATA8
`?<Constant {255, 255, 255, 255, 255, 255, 255,`:
        DB 255
        DB 255
        DB 255
        DB 255
        DB 255
        DB 255
        DB 255
        DB 255
        DB 255
        DB 255

        RSEG XDATA_ROM_C:CONST:REORDER:NOROOT(0)
        DATA8
`?<Constant {0, 0, 0, 0, 0, 0, 0, 0, 0, 0, 0, 0`:
        DB 0
        DB 0
        DB 0
        DB 0
        DB 0
        DB 0
        DB 0
        DB 0
        DB 0
        DB 0
        DB 0
        DB 0
        DB 0
        DB 0
        DB 0
        DB 0
        DB 0
        DB 0
        DB 0
        DB 0
        DB 0
        DB 0
        DB 0
        DB 0
        DB 0
        DB 0
        DB 0
        DB 0
        DB 0
        DB 0
        DB 0
        DB 0
        DB 0
        DB 0
        DB 0
        DB 0
        DB 0
        DB 0
        DB 0
        DB 0
        DB 0
        DB 0
        DB 0
        DB 0
        DB 0
        DB 0
        DB 0
        DB 0
        DB 0
        DB 0
        DB 0
        DB 0
        DB 0
        DB 0
        DB 0
        DB 0
        DB 0
        DB 0
        DB 0
        DB 0
        DB 0
        DB 0
        DB 0
        DB 0

        RSEG XDATA_ROM_C:CONST:REORDER:NOROOT(0)
        DATA32
__Constant_32:
        DD 50

        END
//  991 
//  992 
//  993 /***************************************************************************
//  994 ****************************************************************************/
// 
// 3 674 bytes in segment BANKED_CODE
//   102 bytes in segment BANK_RELAYS
//    90 bytes in segment XDATA_ROM_C
//     7 bytes in segment XDATA_Z
// 
// 3 776 bytes of CODE  memory
//    86 bytes of CONST memory (+ 4 bytes shared)
//     7 bytes of XDATA memory
//
//Errors: none
//Warnings: none
