///////////////////////////////////////////////////////////////////////////////
//
// IAR C/C++ Compiler V9.30.1.3056 for 8051               26/Oct/2017  13:47:11
// Copyright 2004-2015 IAR Systems AB.
// Standalone license - IAR Embedded Workbench for 8051
//
//    Core               =  plain
//    Code model         =  banked
//    Data model         =  large
//    Calling convention =  xdata reentrant
//    Constant location  =  data_rom
//    Dptr setup         =  1,16
//                          
//    Source file        =  
//        C:\Texas Instruments\Z-Stack 3.0.0\Components\stack\bdb\bdb.c
//    Command line       =  
//        -f "C:\Texas Instruments\Z-Stack
//        3.0.0\Projects\zstack\HomeAutomation\SampleLight\CC2530DB\..\..\..\Tools\CC2530DB\f8wCoord.cfg"
//        (-DCPU32MHZ -DROOT=__near_func -DMAC_CFG_APP_PENDING_QUEUE=TRUE
//        -DMAC_CFG_TX_DATA_MAX=5 -DMAC_CFG_TX_MAX=8 -DMAC_CFG_RX_MAX=5
//        -DZDO_COORDINATOR -DRTR_NWK) -f "C:\Texas Instruments\Z-Stack
//        3.0.0\Projects\zstack\HomeAutomation\SampleLight\CC2530DB\..\..\..\Tools\CC2530DB\f8wConfig.cfg"
//        (-DZIGBEEPRO -DSECURE=1 -DZG_SECURE_DYNAMIC=0 -DREFLECTOR
//        -DDEFAULT_CHANLIST=0x00000800 -DZDAPP_CONFIG_PAN_ID=0xFFFF
//        -DNWK_START_DELAY=100 -DEXTENDED_JOINING_RANDOM_MASK=0x007F
//        -DBEACON_REQUEST_DELAY=100 -DBEACON_REQ_DELAY_MASK=0x00FF
//        -DLINK_STATUS_JITTER_MASK=0x007F -DROUTE_EXPIRY_TIME=30
//        -DAPSC_ACK_WAIT_DURATION_POLLED=3000 -DNWK_INDIRECT_MSG_TIMEOUT=7
//        -DMAX_RREQ_ENTRIES=8 -DAPSC_MAX_FRAME_RETRIES=3
//        -DNWK_MAX_DATA_RETRIES=2 -DMAX_POLL_FAILURE_RETRIES=2 -DMAX_BCAST=9
//        -DAPS_MAX_GROUPS=16 -DMAX_RTG_ENTRIES=40 -DNWK_MAX_BINDING_ENTRIES=4
//        -DMAX_BINDING_CLUSTER_IDS=4 -DDEFAULT_KEY={0}
//        -DMAC_MAX_FRAME_SIZE=116 -DZDNWKMGR_MIN_TRANSMISSIONS=20
//        "-DCONST=const __code" -DGENERIC=__generic -DRFD_RCVC_ALWAYS_ON=FALSE
//        -DPOLL_RATE=1000 -DQUEUED_POLL_RATE=100 -DRESPONSE_POLL_RATE=100
//        -DREJOIN_POLL_RATE=440 -DREJOIN_BACKOFF=900000 -DREJOIN_SCAN=900000
//        -DENABLE_LED4_DISABLE_S1) -f "C:\Texas Instruments\Z-Stack
//        3.0.0\Projects\zstack\HomeAutomation\SampleLight\CC2530DB\..\..\..\Tools\CC2530DB\f8wZCL.cfg"
//        "C:\Texas Instruments\Z-Stack 3.0.0\Components\stack\bdb\bdb.c" -D
//        BDB_REPORTING -D SECURE=1 -D TC_LINKKEY_JOIN -D NV_INIT -D NV_RESTORE
//        -D xZTOOL_P1 -D xMT_TASK -D xMT_APP_FUNC -D xMT_SYS_FUNC -D
//        xMT_ZDO_FUNC -D xMT_ZDO_MGMT -D xMT_APP_CNF_FUNC -D
//        LCD_SUPPORTED=DEBUG -D MULTICAST_ENABLED=FALSE -D ZCL_READ -D
//        ZCL_WRITE -D ZCL_BASIC -D ZCL_IDENTIFY -D ZCL_ON_OFF -D ZCL_SCENES -D
//        ZCL_GROUPS -D xZCL_LEVEL_CTRL -lC "C:\Texas Instruments\Z-Stack
//        3.0.0\Projects\zstack\HomeAutomation\SampleLight\CC2530DB\CoordinatorEB\List"
//        -lA "C:\Texas Instruments\Z-Stack
//        3.0.0\Projects\zstack\HomeAutomation\SampleLight\CC2530DB\CoordinatorEB\List"
//        --diag_suppress Pe001,Pa010 -o "C:\Texas Instruments\Z-Stack
//        3.0.0\Projects\zstack\HomeAutomation\SampleLight\CC2530DB\CoordinatorEB\Obj"
//        -e --debug --core=plain --dptr=16,1 --data_model=large
//        --code_model=banked --calling_convention=xdata_reentrant
//        --place_constants=data_rom --nr_virtual_regs 16 -I "C:\Texas
//        Instruments\Z-Stack
//        3.0.0\Projects\zstack\HomeAutomation\SampleLight\CC2530DB\" -I
//        "C:\Texas Instruments\Z-Stack
//        3.0.0\Projects\zstack\HomeAutomation\SampleLight\CC2530DB\..\Source\"
//        -I "C:\Texas Instruments\Z-Stack
//        3.0.0\Projects\zstack\HomeAutomation\SampleLight\CC2530DB\..\..\Source\"
//        -I "C:\Texas Instruments\Z-Stack
//        3.0.0\Projects\zstack\HomeAutomation\SampleLight\CC2530DB\..\..\..\ZMain\TI2530DB\"
//        -I "C:\Texas Instruments\Z-Stack
//        3.0.0\Projects\zstack\HomeAutomation\SampleLight\CC2530DB\..\..\..\..\..\Components\hal\include\"
//        -I "C:\Texas Instruments\Z-Stack
//        3.0.0\Projects\zstack\HomeAutomation\SampleLight\CC2530DB\..\..\..\..\..\Components\hal\target\CC2530EB\"
//        -I "C:\Texas Instruments\Z-Stack
//        3.0.0\Projects\zstack\HomeAutomation\SampleLight\CC2530DB\..\..\..\..\..\Components\mac\include\"
//        -I "C:\Texas Instruments\Z-Stack
//        3.0.0\Projects\zstack\HomeAutomation\SampleLight\CC2530DB\..\..\..\..\..\Components\mac\high_level\"
//        -I "C:\Texas Instruments\Z-Stack
//        3.0.0\Projects\zstack\HomeAutomation\SampleLight\CC2530DB\..\..\..\..\..\Components\mac\low_level\srf04\"
//        -I "C:\Texas Instruments\Z-Stack
//        3.0.0\Projects\zstack\HomeAutomation\SampleLight\CC2530DB\..\..\..\..\..\Components\mac\low_level\srf04\single_chip\"
//        -I "C:\Texas Instruments\Z-Stack
//        3.0.0\Projects\zstack\HomeAutomation\SampleLight\CC2530DB\..\..\..\..\..\Components\mt\"
//        -I "C:\Texas Instruments\Z-Stack
//        3.0.0\Projects\zstack\HomeAutomation\SampleLight\CC2530DB\..\..\..\..\..\Components\osal\include\"
//        -I "C:\Texas Instruments\Z-Stack
//        3.0.0\Projects\zstack\HomeAutomation\SampleLight\CC2530DB\..\..\..\..\..\Components\services\saddr\"
//        -I "C:\Texas Instruments\Z-Stack
//        3.0.0\Projects\zstack\HomeAutomation\SampleLight\CC2530DB\..\..\..\..\..\Components\services\sdata\"
//        -I "C:\Texas Instruments\Z-Stack
//        3.0.0\Projects\zstack\HomeAutomation\SampleLight\CC2530DB\..\..\..\..\..\Components\stack\af\"
//        -I "C:\Texas Instruments\Z-Stack
//        3.0.0\Projects\zstack\HomeAutomation\SampleLight\CC2530DB\..\..\..\..\..\Components\stack\bdb\"
//        -I "C:\Texas Instruments\Z-Stack
//        3.0.0\Projects\zstack\HomeAutomation\SampleLight\CC2530DB\..\..\..\..\..\Components\stack\gp\"
//        -I "C:\Texas Instruments\Z-Stack
//        3.0.0\Projects\zstack\HomeAutomation\SampleLight\CC2530DB\..\..\..\..\..\Components\stack\nwk\"
//        -I "C:\Texas Instruments\Z-Stack
//        3.0.0\Projects\zstack\HomeAutomation\SampleLight\CC2530DB\..\..\..\..\..\Components\stack\sapi\"
//        -I "C:\Texas Instruments\Z-Stack
//        3.0.0\Projects\zstack\HomeAutomation\SampleLight\CC2530DB\..\..\..\..\..\Components\stack\sec\"
//        -I "C:\Texas Instruments\Z-Stack
//        3.0.0\Projects\zstack\HomeAutomation\SampleLight\CC2530DB\..\..\..\..\..\Components\stack\sys\"
//        -I "C:\Texas Instruments\Z-Stack
//        3.0.0\Projects\zstack\HomeAutomation\SampleLight\CC2530DB\..\..\..\..\..\Components\stack\zcl\"
//        -I "C:\Texas Instruments\Z-Stack
//        3.0.0\Projects\zstack\HomeAutomation\SampleLight\CC2530DB\..\..\..\..\..\Components\stack\zdo\"
//        -I "C:\Texas Instruments\Z-Stack
//        3.0.0\Projects\zstack\HomeAutomation\SampleLight\CC2530DB\..\..\..\..\..\Components\zmac\"
//        -I "C:\Texas Instruments\Z-Stack
//        3.0.0\Projects\zstack\HomeAutomation\SampleLight\CC2530DB\..\..\..\..\..\Components\zmac\f8w\"
//        -Ohz --require_prototypes
//    List file          =  
//        C:\Texas Instruments\Z-Stack
//        3.0.0\Projects\zstack\HomeAutomation\SampleLight\CC2530DB\CoordinatorEB\List\bdb.s51
//
///////////////////////////////////////////////////////////////////////////////

        NAME bdb

        RTMODEL "__SystemLibrary", "CLib"
        RTMODEL "__calling_convention", "xdata_reentrant"
        RTMODEL "__code_model", "banked"
        RTMODEL "__core", "plain"
        RTMODEL "__data_model", "large"
        RTMODEL "__dptr_size", "16"
        RTMODEL "__extended_stack", "disabled"
        RTMODEL "__location_for_constants", "data"
        RTMODEL "__number_of_dptrs", "1"
        RTMODEL "__rt_version", "1"

        RSEG DOVERLAY:DATA:NOROOT(0)
        RSEG IOVERLAY:IDATA:NOROOT(0)
        RSEG ISTACK:IDATA:NOROOT(0)
        RSEG PSTACK:XDATA:NOROOT(0)
        RSEG XSTACK:XDATA:NOROOT(0)

        EXTERN ?V0
        EXTERN ?V1
        EXTERN ?V2
        EXTERN ?V3
        EXTERN ?V4
        EXTERN ?V5
        EXTERN ?V6
        EXTERN ?V7
        EXTERN ?V8
        EXTERN ?V9
        EXTERN ?V10
        EXTERN ?V11
        EXTERN ?ALLOC_XSTACK8
        EXTERN ?BANKED_ENTER_XDATA
        EXTERN ?BANKED_LEAVE_XDATA
        EXTERN ?BDISPATCH
        EXTERN ?BRET
        EXTERN ?CALL_IND
        EXTERN ?DEALLOC_XSTACK8
        EXTERN ?L_MOV_TO_X
        EXTERN ?L_MOV_X
        EXTERN ?PUSH_XSTACK8_X_FOUR
        EXTERN ?PUSH_XSTACK8_X_TWO
        EXTERN ?PUSH_XSTACK_I_THREE
        EXTERN ?PUSH_XSTACK_I_TWO
        EXTERN ?S_SHL
        EXTERN ?UL_GT
        EXTERN ?XLOAD_R0123
        EXTERN ?XLOAD_R2345
        EXTERN ?XSP
        EXTERN ?XSTACK_DISP0_8
        EXTERN ?XSTACK_DISP100_8
        EXTERN ?XSTACK_DISP101_8
        EXTERN ?XSTACK_DISP102_8
        EXTERN __INIT_XDATA_I
        EXTERN __INIT_XDATA_Z

        PUBLIC `??bdb_AddRespondentNode::?relay`
        FUNCTION `??bdb_AddRespondentNode::?relay`,0203H
        PUBLIC `??bdb_ClearNetworkParams::?relay`
        FUNCTION `??bdb_ClearNetworkParams::?relay`,0203H
        PUBLIC `??bdb_CreateRespondentList::?relay`
        FUNCTION `??bdb_CreateRespondentList::?relay`,0203H
        PUBLIC `??bdb_GenerateInstallCodeCRC::?relay`
        FUNCTION `??bdb_GenerateInstallCodeCRC::?relay`,0203H
        PUBLIC `??bdb_Init::?relay`
        FUNCTION `??bdb_Init::?relay`,0203H
        PUBLIC `??bdb_NetworkRestoredResumeState::?relay`
        FUNCTION `??bdb_NetworkRestoredResumeState::?relay`,0203H
        PUBLIC `??bdb_NotifyCommissioningModeStart::?relay`
        FUNCTION `??bdb_NotifyCommissioningModeStart::?relay`,0203H
        PUBLIC `??bdb_RegisterCommissioningStatusCB::?relay`
        FUNCTION `??bdb_RegisterCommissioningStatusCB::?relay`,0203H
        PUBLIC `??bdb_RegisterSimpleDescriptor::?relay`
        FUNCTION `??bdb_RegisterSimpleDescriptor::?relay`,0203H
        PUBLIC `??bdb_RegisterTCLinkKeyExchangeProcessCB::?rela`
        FUNCTION `??bdb_RegisterTCLinkKeyExchangeProcessCB::?rela`,0203H
        PUBLIC `??bdb_SendMsg::?relay`
        FUNCTION `??bdb_SendMsg::?relay`,0203H
        PUBLIC `??bdb_StartCommissioning::?relay`
        FUNCTION `??bdb_StartCommissioning::?relay`,0203H
        PUBLIC `??bdb_TCAddJoiningDevice::?relay`
        FUNCTION `??bdb_TCAddJoiningDevice::?relay`,0203H
        FUNCTION `??bdb_TCJoiningDeviceFree::?relay`,0203H
        FUNCTION `??bdb_TCProcessJoiningList::?relay`,0203H
        PUBLIC `??bdb_TCjoiningDeviceComplete::?relay`
        FUNCTION `??bdb_TCjoiningDeviceComplete::?relay`,0203H
        PUBLIC `??bdb_ZclIdentifyCmdInd::?relay`
        FUNCTION `??bdb_ZclIdentifyCmdInd::?relay`,0203H
        PUBLIC `??bdb_addInstallCode::?relay`
        FUNCTION `??bdb_addInstallCode::?relay`,0203H
        PUBLIC `??bdb_calculateCCITT_CRC::?relay`
        FUNCTION `??bdb_calculateCCITT_CRC::?relay`,0203H
        PUBLIC `??bdb_crcBitByBitFast::?relay`
        FUNCTION `??bdb_crcBitByBitFast::?relay`,0203H
        PUBLIC `??bdb_crcInit::?relay`
        FUNCTION `??bdb_crcInit::?relay`,0203H
        PUBLIC `??bdb_crcReflect::?relay`
        FUNCTION `??bdb_crcReflect::?relay`,0203H
        PUBLIC `??bdb_event_loop::?relay`
        FUNCTION `??bdb_event_loop::?relay`,0203H
        PUBLIC `??bdb_getZCLFrameCounter::?relay`
        FUNCTION `??bdb_getZCLFrameCounter::?relay`,0203H
        PUBLIC `??bdb_isDeviceNonFactoryNew::?relay`
        FUNCTION `??bdb_isDeviceNonFactoryNew::?relay`,0203H
        PUBLIC `??bdb_nwkFormationAttempt::?relay`
        FUNCTION `??bdb_nwkFormationAttempt::?relay`,0203H
        FUNCTION `??bdb_nwkJoiningFormation::?relay`,0203H
        FUNCTION `??bdb_nwkSteeringDeviceOnNwk::?relay`,0203H
        PUBLIC `??bdb_parentLost::?relay`
        FUNCTION `??bdb_parentLost::?relay`,0203H
        PUBLIC `??bdb_rejoinNwk::?relay`
        FUNCTION `??bdb_rejoinNwk::?relay`,0203H
        PUBLIC `??bdb_reportCommissioningState::?relay`
        FUNCTION `??bdb_reportCommissioningState::?relay`,0203H
        PUBLIC `??bdb_resetLocalAction::?relay`
        FUNCTION `??bdb_resetLocalAction::?relay`,0203H
        PUBLIC `??bdb_setChannel::?relay`
        FUNCTION `??bdb_setChannel::?relay`,0203H
        PUBLIC `??bdb_setChannelAttribute::?relay`
        FUNCTION `??bdb_setChannelAttribute::?relay`,0203H
        PUBLIC `??bdb_setCommissioningGroupID::?relay`
        FUNCTION `??bdb_setCommissioningGroupID::?relay`,0203H
        PUBLIC `??bdb_setFN::?relay`
        FUNCTION `??bdb_setFN::?relay`,0203H
        PUBLIC `??bdb_setJoinUsesInstallCodeKey::?relay`
        FUNCTION `??bdb_setJoinUsesInstallCodeKey::?relay`,0203H
        PUBLIC `??bdb_setNodeIsOnANetwork::?relay`
        FUNCTION `??bdb_setNodeIsOnANetwork::?relay`,0203H
        PUBLIC `??bdb_setTCRequireKeyExchange::?relay`
        FUNCTION `??bdb_setTCRequireKeyExchange::?relay`,0203H
        FUNCTION `??bdb_startResumeCommissioningProcess::?relay`,0203H
        PUBLIC `??bdb_touchlinkSendFNReset::?relay`
        FUNCTION `??bdb_touchlinkSendFNReset::?relay`,0203H
        PUBLIC `??bdb_zclRespondentListClean::?relay`
        FUNCTION `??bdb_zclRespondentListClean::?relay`,0203H
        FUNCTION `??gp_ChangeChannelReq::?relay`,0203H
        PUBWEAK __Constant_10
        PUBWEAK __Constant_32
        PUBWEAK __Constant_3a98
        PUBWEAK __Constant_3e8
        PUBWEAK __Constant_c8
        PUBLIC bdbAttributes
        PUBLIC bdbCommissioningProcedureState
        PUBLIC bdb_AddRespondentNode
        FUNCTION bdb_AddRespondentNode,0a1203H
        ARGFRAME XSTACK, 0, STACK
        LOCFRAME XSTACK, 10, STACK
        PUBLIC bdb_ClearNetworkParams
        FUNCTION bdb_ClearNetworkParams,0203H
        ARGFRAME XSTACK, 0, STACK
        PUBLIC bdb_CreateRespondentList
        FUNCTION bdb_CreateRespondentList,0a1203H
        ARGFRAME XSTACK, 10, STACK
        ARGFRAME IOVERLAY, 0, STATIC
        ARGFRAME DOVERLAY, 0, STATIC
        LOCFRAME XSTACK, 10, STACK
        PUBLIC bdb_CurrEpDescriptorList
        PUBLIC bdb_FB_InitiatorCurrentCyclesNumber
        PUBLIC bdb_GenerateInstallCodeCRC
        FUNCTION bdb_GenerateInstallCodeCRC,021203H
        ARGFRAME XSTACK, 30, STACK
        ARGFRAME IOVERLAY, 0, STATIC
        ARGFRAME DOVERLAY, 0, STATIC
        LOCFRAME ISTACK, 2, STACK
        LOCFRAME XSTACK, 6, STACK
        PUBLIC bdb_HeadEpDescriptorList
        PUBLIC bdb_Init
        FUNCTION bdb_Init,021203H
        ARGFRAME XSTACK, 0, STACK
        LOCFRAME XSTACK, 9, STACK
        PUBLIC bdb_NetworkRestoredResumeState
        FUNCTION bdb_NetworkRestoredResumeState,0203H
        ARGFRAME XSTACK, 0, STACK
        PUBLIC bdb_NotifyCommissioningModeStart
        FUNCTION bdb_NotifyCommissioningModeStart,0a1203H
        ARGFRAME XSTACK, 21, STACK
        ARGFRAME IOVERLAY, 0, STATIC
        ARGFRAME DOVERLAY, 0, STATIC
        LOCFRAME ISTACK, 1, STACK
        LOCFRAME XSTACK, 15, STACK
        PUBLIC bdb_RegisterCommissioningStatusCB
        FUNCTION bdb_RegisterCommissioningStatusCB,0203H
        ARGFRAME XSTACK, 0, STACK
        LOCFRAME ISTACK, 2, STACK
        PUBLIC bdb_RegisterSimpleDescriptor
        FUNCTION bdb_RegisterSimpleDescriptor,0a1203H
        ARGFRAME XSTACK, 0, STACK
        LOCFRAME ISTACK, 1, STACK
        LOCFRAME XSTACK, 10, STACK
        PUBLIC bdb_RegisterTCLinkKeyExchangeProcessCB
        FUNCTION bdb_RegisterTCLinkKeyExchangeProcessCB,0203H
        ARGFRAME XSTACK, 0, STACK
        LOCFRAME ISTACK, 2, STACK
        PUBLIC bdb_SendMsg
        FUNCTION bdb_SendMsg,0a1203H
        ARGFRAME XSTACK, 60, STACK
        ARGFRAME IOVERLAY, 0, STATIC
        ARGFRAME DOVERLAY, 0, STATIC
        LOCFRAME ISTACK, 1, STACK
        LOCFRAME XSTACK, 20, STACK
        PUBLIC bdb_StartCommissioning
        FUNCTION bdb_StartCommissioning,0a1203H
        ARGFRAME XSTACK, 0, STACK
        LOCFRAME XSTACK, 36, STACK
        PUBLIC bdb_TCAddJoiningDevice
        FUNCTION bdb_TCAddJoiningDevice,0a1203H
        ARGFRAME XSTACK, 0, STACK
        LOCFRAME ISTACK, 1, STACK
        LOCFRAME XSTACK, 32, STACK
        FUNCTION bdb_TCJoiningDeviceFree,0a1203H
        ARGFRAME XSTACK, 58, STACK
        ARGFRAME IOVERLAY, 0, STATIC
        ARGFRAME DOVERLAY, 0, STATIC
        LOCFRAME XSTACK, 18, STACK
        FUNCTION bdb_TCProcessJoiningList,0a1203H
        ARGFRAME XSTACK, 24, STACK
        ARGFRAME IOVERLAY, 0, STATIC
        ARGFRAME DOVERLAY, 0, STATIC
        LOCFRAME XSTACK, 62, STACK
        PUBLIC bdb_TCjoiningDeviceComplete
        FUNCTION bdb_TCjoiningDeviceComplete,0a1203H
        ARGFRAME XSTACK, 0, STACK
        LOCFRAME XSTACK, 31, STACK
        PUBLIC bdb_TaskID
        PUBLIC bdb_ZclIdentifyCmdInd
        FUNCTION bdb_ZclIdentifyCmdInd,0a1203H
        ARGFRAME XSTACK, 0, STACK
        LOCFRAME XSTACK, 24, STACK
        PUBLIC bdb_ZclTransactionSequenceNumber
        PUBLIC bdb_addInstallCode
        FUNCTION bdb_addInstallCode,0a1203H
        ARGFRAME XSTACK, 0, STACK
        LOCFRAME XSTACK, 34, STACK
        PUBLIC bdb_calculateCCITT_CRC
        FUNCTION bdb_calculateCCITT_CRC,0a1203H
        ARGFRAME XSTACK, 6, STACK
        ARGFRAME IOVERLAY, 0, STATIC
        ARGFRAME DOVERLAY, 0, STATIC
        LOCFRAME XSTACK, 22, STACK
        PUBLIC bdb_crcBitByBitFast
        FUNCTION bdb_crcBitByBitFast,0a1203H
        ARGFRAME XSTACK, 22, STACK
        ARGFRAME IOVERLAY, 0, STATIC
        ARGFRAME DOVERLAY, 0, STATIC
        LOCFRAME XSTACK, 20, STACK
        PUBLIC bdb_crcInit
        FUNCTION bdb_crcInit,0203H
        ARGFRAME XSTACK, 18, STACK
        ARGFRAME IOVERLAY, 0, STATIC
        ARGFRAME DOVERLAY, 0, STATIC
        LOCFRAME XSTACK, 9, STACK
        PUBLIC bdb_crcReflect
        FUNCTION bdb_crcReflect,080203H
        ARGFRAME XSTACK, 20, STACK
        ARGFRAME IOVERLAY, 0, STATIC
        ARGFRAME DOVERLAY, 0, STATIC
        LOCFRAME XSTACK, 12, STACK
        PUBLIC bdb_event_loop
        FUNCTION bdb_event_loop,0a1203H
        ARGFRAME XSTACK, 0, STACK
        LOCFRAME ISTACK, 1, STACK
        LOCFRAME XSTACK, 28, STACK
        PUBLIC bdb_getZCLFrameCounter
        FUNCTION bdb_getZCLFrameCounter,0203H
        ARGFRAME XSTACK, 0, STACK
        LOCFRAME ISTACK, 2, STACK
        PUBLIC bdb_initialization
        PUBLIC bdb_isDeviceNonFactoryNew
        FUNCTION bdb_isDeviceNonFactoryNew,0203H
        ARGFRAME XSTACK, 0, STACK
        LOCFRAME ISTACK, 2, STACK
        PUBLIC bdb_nwkFormationAttempt
        FUNCTION bdb_nwkFormationAttempt,021203H
        ARGFRAME XSTACK, 0, STACK
        LOCFRAME XSTACK, 9, STACK
        FUNCTION bdb_nwkJoiningFormation,0a1203H
        ARGFRAME XSTACK, 21, STACK
        ARGFRAME IOVERLAY, 0, STATIC
        ARGFRAME DOVERLAY, 0, STATIC
        LOCFRAME XSTACK, 12, STACK
        FUNCTION bdb_nwkSteeringDeviceOnNwk,021203H
        ARGFRAME XSTACK, 32, STACK
        ARGFRAME IOVERLAY, 0, STATIC
        ARGFRAME DOVERLAY, 0, STATIC
        LOCFRAME ISTACK, 2, STACK
        LOCFRAME XSTACK, 9, STACK
        PUBLIC bdb_parentLost
        FUNCTION bdb_parentLost,0203H
        ARGFRAME XSTACK, 0, STACK
        PUBLIC bdb_rejoinNwk
        FUNCTION bdb_rejoinNwk,021203H
        ARGFRAME XSTACK, 0, STACK
        LOCFRAME XSTACK, 10, STACK
        PUBLIC bdb_reportCommissioningState
        FUNCTION bdb_reportCommissioningState,0a1203H
        ARGFRAME XSTACK, 32, STACK
        ARGFRAME IOVERLAY, 0, STATIC
        ARGFRAME DOVERLAY, 0, STATIC
        LOCFRAME ISTACK, 1, STACK
        LOCFRAME XSTACK, 18, STACK
        PUBLIC bdb_resetLocalAction
        FUNCTION bdb_resetLocalAction,021203H
        ARGFRAME XSTACK, 0, STACK
        LOCFRAME ISTACK, 2, STACK
        PUBLIC bdb_setChannel
        FUNCTION bdb_setChannel,0a1203H
        ARGFRAME XSTACK, 12, STACK
        ARGFRAME IOVERLAY, 0, STATIC
        ARGFRAME DOVERLAY, 0, STATIC
        LOCFRAME XSTACK, 16, STACK
        PUBLIC bdb_setChannelAttribute
        FUNCTION bdb_setChannelAttribute,080203H
        ARGFRAME XSTACK, 0, STACK
        LOCFRAME XSTACK, 12, STACK
        PUBLIC bdb_setCommissioningGroupID
        FUNCTION bdb_setCommissioningGroupID,0203H
        ARGFRAME XSTACK, 0, STACK
        LOCFRAME ISTACK, 2, STACK
        PUBLIC bdb_setFN
        FUNCTION bdb_setFN,021203H
        ARGFRAME XSTACK, 14, STACK
        ARGFRAME IOVERLAY, 0, STATIC
        ARGFRAME DOVERLAY, 0, STATIC
        LOCFRAME ISTACK, 2, STACK
        PUBLIC bdb_setJoinUsesInstallCodeKey
        FUNCTION bdb_setJoinUsesInstallCodeKey,0203H
        ARGFRAME XSTACK, 0, STACK
        LOCFRAME ISTACK, 2, STACK
        PUBLIC bdb_setNodeIsOnANetwork
        FUNCTION bdb_setNodeIsOnANetwork,0a1203H
        ARGFRAME XSTACK, 32, STACK
        ARGFRAME IOVERLAY, 0, STATIC
        ARGFRAME DOVERLAY, 0, STATIC
        LOCFRAME XSTACK, 14, STACK
        PUBLIC bdb_setTCRequireKeyExchange
        FUNCTION bdb_setTCRequireKeyExchange,0203H
        ARGFRAME XSTACK, 0, STACK
        LOCFRAME ISTACK, 2, STACK
        FUNCTION bdb_startResumeCommissioningProcess,0a1203H
        ARGFRAME XSTACK, 24, STACK
        ARGFRAME IOVERLAY, 0, STATIC
        ARGFRAME DOVERLAY, 0, STATIC
        LOCFRAME XSTACK, 25, STACK
        PUBLIC bdb_touchlinkSendFNReset
        FUNCTION bdb_touchlinkSendFNReset,0203H
        ARGFRAME XSTACK, 0, STACK
        PUBLIC bdb_zclRespondentListClean
        FUNCTION bdb_zclRespondentListClean,0a1203H
        ARGFRAME XSTACK, 14, STACK
        ARGFRAME IOVERLAY, 0, STATIC
        ARGFRAME DOVERLAY, 0, STATIC
        LOCFRAME XSTACK, 12, STACK
        FUNCTION gp_ChangeChannelReq,0603H
        ARGFRAME XSTACK, 0, STACK
        LOCFRAME ISTACK, 2, STACK
        PUBLIC pRespondentCurr
        PUBLIC pRespondentHead
        PUBLIC pRespondentNext
        PUBLIC touchLinkTargetEnabled
        PUBLIC vDoPrimaryScan
        PUBLIC zgBdbInstallCodeCRC
        
          CFI Names cfiNames0
          CFI StackFrame CFA_SP SP IDATA
          CFI StackFrame CFA_PSP16 PSP16 XDATA
          CFI StackFrame CFA_XSP16 XSP16 XDATA
          CFI StaticOverlayFrame CFA_IOVERLAY IOVERLAY
          CFI StaticOverlayFrame CFA_DOVERLAY DOVERLAY
          CFI Resource `PSW.CY`:1, `B.BR0`:1, `B.BR1`:1, `B.BR2`:1, `B.BR3`:1
          CFI Resource `B.BR4`:1, `B.BR5`:1, `B.BR6`:1, `B.BR7`:1, `VB.BR8`:1
          CFI Resource `VB.BR9`:1, `VB.BR10`:1, `VB.BR11`:1, `VB.BR12`:1
          CFI Resource `VB.BR13`:1, `VB.BR14`:1, `VB.BR15`:1, VB:8, B:8, A:8
          CFI Resource PSW:8, DPL0:8, DPH0:8, R0:8, R1:8, R2:8, R3:8, R4:8, R5:8
          CFI Resource R6:8, R7:8, V0:8, V1:8, V2:8, V3:8, V4:8, V5:8, V6:8, V7:8
          CFI Resource V8:8, V9:8, V10:8, V11:8, V12:8, V13:8, V14:8, V15:8, SP:8
          CFI Resource PSPH:8, PSPL:8, PSP16:16, XSPH:8, XSPL:8, XSP16:16
          CFI VirtualResource ?RET:24
          CFI Resource ?BRET_EXT:8
          CFI VirtualResource ?RET_HIGH:8, ?RET_LOW:8
          CFI ResourceParts PSP16 PSPH, PSPL
          CFI ResourceParts XSP16 XSPH, XSPL
          CFI ResourceParts ?RET ?BRET_EXT, ?RET_HIGH, ?RET_LOW
          CFI EndNames cfiNames0
        
          CFI Common cfiCommon0 Using cfiNames0
          CFI CodeAlign 1
          CFI DataAlign -1
          CFI ReturnAddress ?RET CODE
          CFI CFA_DOVERLAY Used
          CFI CFA_IOVERLAY Used
          CFI CFA_SP SP+-3
          CFI CFA_PSP16 PSP16+0
          CFI CFA_XSP16 XSP16+0
          CFI `PSW.CY` SameValue
          CFI `B.BR0` SameValue
          CFI `B.BR1` SameValue
          CFI `B.BR2` SameValue
          CFI `B.BR3` SameValue
          CFI `B.BR4` SameValue
          CFI `B.BR5` SameValue
          CFI `B.BR6` SameValue
          CFI `B.BR7` SameValue
          CFI `VB.BR8` SameValue
          CFI `VB.BR9` SameValue
          CFI `VB.BR10` SameValue
          CFI `VB.BR11` SameValue
          CFI `VB.BR12` SameValue
          CFI `VB.BR13` SameValue
          CFI `VB.BR14` SameValue
          CFI `VB.BR15` SameValue
          CFI VB SameValue
          CFI B Undefined
          CFI A Undefined
          CFI PSW SameValue
          CFI DPL0 SameValue
          CFI DPH0 SameValue
          CFI R0 Undefined
          CFI R1 Undefined
          CFI R2 Undefined
          CFI R3 Undefined
          CFI R4 Undefined
          CFI R5 Undefined
          CFI R6 SameValue
          CFI R7 SameValue
          CFI V0 SameValue
          CFI V1 SameValue
          CFI V2 SameValue
          CFI V3 SameValue
          CFI V4 SameValue
          CFI V5 SameValue
          CFI V6 SameValue
          CFI V7 SameValue
          CFI V8 SameValue
          CFI V9 SameValue
          CFI V10 SameValue
          CFI V11 SameValue
          CFI V12 SameValue
          CFI V13 SameValue
          CFI V14 SameValue
          CFI V15 SameValue
          CFI PSPH Undefined
          CFI PSPL Undefined
          CFI XSPH Undefined
          CFI XSPL Undefined
          CFI ?RET Concat
          CFI ?BRET_EXT Frame(CFA_SP, 3)
          CFI ?RET_HIGH Frame(CFA_SP, 2)
          CFI ?RET_LOW Frame(CFA_SP, 1)
          CFI EndCommon cfiCommon0
        
        
          CFI Common cfiCommon1 Using cfiNames0
          CFI CodeAlign 1
          CFI DataAlign -1
          CFI ReturnAddress ?RET CODE
          CFI CFA_DOVERLAY Used
          CFI CFA_IOVERLAY Used
          CFI CFA_SP SP+-2
          CFI CFA_PSP16 PSP16+0
          CFI CFA_XSP16 XSP16+0
          CFI `PSW.CY` SameValue
          CFI `B.BR0` SameValue
          CFI `B.BR1` SameValue
          CFI `B.BR2` SameValue
          CFI `B.BR3` SameValue
          CFI `B.BR4` SameValue
          CFI `B.BR5` SameValue
          CFI `B.BR6` SameValue
          CFI `B.BR7` SameValue
          CFI `VB.BR8` SameValue
          CFI `VB.BR9` SameValue
          CFI `VB.BR10` SameValue
          CFI `VB.BR11` SameValue
          CFI `VB.BR12` SameValue
          CFI `VB.BR13` SameValue
          CFI `VB.BR14` SameValue
          CFI `VB.BR15` SameValue
          CFI VB SameValue
          CFI B SameValue
          CFI A SameValue
          CFI PSW SameValue
          CFI DPL0 SameValue
          CFI DPH0 SameValue
          CFI R0 SameValue
          CFI R1 SameValue
          CFI R2 SameValue
          CFI R3 SameValue
          CFI R4 SameValue
          CFI R5 SameValue
          CFI R6 SameValue
          CFI R7 SameValue
          CFI V0 SameValue
          CFI V1 SameValue
          CFI V2 SameValue
          CFI V3 SameValue
          CFI V4 SameValue
          CFI V5 SameValue
          CFI V6 SameValue
          CFI V7 SameValue
          CFI V8 SameValue
          CFI V9 SameValue
          CFI V10 SameValue
          CFI V11 SameValue
          CFI V12 SameValue
          CFI V13 SameValue
          CFI V14 SameValue
          CFI V15 SameValue
          CFI PSPH Undefined
          CFI PSPL Undefined
          CFI XSPH Undefined
          CFI XSPL Undefined
          CFI ?RET Concat
          CFI ?BRET_EXT SameValue
          CFI ?RET_HIGH Frame(CFA_SP, 2)
          CFI ?RET_LOW Frame(CFA_SP, 1)
          CFI EndCommon cfiCommon1
        
APSME_AddTCLinkKey  SYMBOL "APSME_AddTCLinkKey"
`??APSME_AddTCLinkKey::?relay` SYMBOL "?relay", APSME_AddTCLinkKey
APSME_IsDistributedSecurity SYMBOL "APSME_IsDistributedSecurity"
`??APSME_IsDistributedSecurity::?relay` SYMBOL "?relay", APSME_IsDistributedSecurity
APSME_SearchTCLinkKeyEntry SYMBOL "APSME_SearchTCLinkKeyEntry"
`??APSME_SearchTCLinkKeyEntry::?relay` SYMBOL "?relay", APSME_SearchTCLinkKeyEntry
AddrMgrEntryLookupExt SYMBOL "AddrMgrEntryLookupExt"
`??AddrMgrEntryLookupExt::?relay` SYMBOL "?relay", AddrMgrEntryLookupExt
`?<Name GP_DataCnf 8>` SYMBOL "GP_DataCnf"
`??GP_DataCnf::?relay` SYMBOL "?relay", `?<Name GP_DataCnf 8>`
`?<Name GP_DataInd 10>` SYMBOL "GP_DataInd"
`??GP_DataInd::?relay` SYMBOL "?relay", `?<Name GP_DataInd 10>`
`?<Name GP_SecReq 12>` SYMBOL "GP_SecReq"
`??GP_SecReq::?relay` SYMBOL "?relay", `?<Name GP_SecReq 12>`
NLME_ReJoinRequest  SYMBOL "NLME_ReJoinRequest"
`??NLME_ReJoinRequest::?relay` SYMBOL "?relay", NLME_ReJoinRequest
NLME_ReJoinRequestUnsecure SYMBOL "NLME_ReJoinRequestUnsecure"
`??NLME_ReJoinRequestUnsecure::?relay` SYMBOL "?relay", NLME_ReJoinRequestUnsecure
NLME_ResetRequest   SYMBOL "NLME_ResetRequest"
`??NLME_ResetRequest::?relay` SYMBOL "?relay", NLME_ResetRequest
ZDApp_ChangeState   SYMBOL "ZDApp_ChangeState"
`??ZDApp_ChangeState::?relay` SYMBOL "?relay", ZDApp_ChangeState
ZDApp_ReadNetworkRestoreState SYMBOL "ZDApp_ReadNetworkRestoreState"
`??ZDApp_ReadNetworkRestoreState::?relay` SYMBOL "?relay", ZDApp_ReadNetworkRestoreState
ZDApp_ResetTimerStart SYMBOL "ZDApp_ResetTimerStart"
`??ZDApp_ResetTimerStart::?relay` SYMBOL "?relay", ZDApp_ResetTimerStart
ZDApp_RestoreNwkKey SYMBOL "ZDApp_RestoreNwkKey"
`??ZDApp_RestoreNwkKey::?relay` SYMBOL "?relay", ZDApp_RestoreNwkKey
ZDApp_RestoreNwkSecMaterial SYMBOL "ZDApp_RestoreNwkSecMaterial"
`??ZDApp_RestoreNwkSecMaterial::?relay` SYMBOL "?relay", ZDApp_RestoreNwkSecMaterial
ZDOInitDeviceEx     SYMBOL "ZDOInitDeviceEx"
`??ZDOInitDeviceEx::?relay` SYMBOL "?relay", ZDOInitDeviceEx
ZDP_MgmtPermitJoinReq SYMBOL "ZDP_MgmtPermitJoinReq"
`??ZDP_MgmtPermitJoinReq::?relay` SYMBOL "?relay", ZDP_MgmtPermitJoinReq
ZDSecMgrAPSRemove   SYMBOL "ZDSecMgrAPSRemove"
`??ZDSecMgrAPSRemove::?relay` SYMBOL "?relay", ZDSecMgrAPSRemove
ZDSecMgrAddrClear   SYMBOL "ZDSecMgrAddrClear"
`??ZDSecMgrAddrClear::?relay` SYMBOL "?relay", ZDSecMgrAddrClear
ZMacSetReq          SYMBOL "ZMacSetReq"
`??ZMacSetReq::?relay` SYMBOL "?relay", ZMacSetReq
afRegister          SYMBOL "afRegister"
`??afRegister::?relay` SYMBOL "?relay", afRegister
bdb_BindIfMatch     SYMBOL "bdb_BindIfMatch"
`??bdb_BindIfMatch::?relay` SYMBOL "?relay", bdb_BindIfMatch
bdb_RepConstructReportingData SYMBOL "bdb_RepConstructReportingData"
`??bdb_RepConstructReportingData::?relay` SYMBOL "?relay", bdb_RepConstructReportingData
bdb_RepInit         SYMBOL "bdb_RepInit"
`??bdb_RepInit::?relay` SYMBOL "?relay", bdb_RepInit
bdb_RepProcessEvent SYMBOL "bdb_RepProcessEvent"
`??bdb_RepProcessEvent::?relay` SYMBOL "?relay", bdb_RepProcessEvent
bdb_RepUpdateMarkBindings SYMBOL "bdb_RepUpdateMarkBindings"
`??bdb_RepUpdateMarkBindings::?relay` SYMBOL "?relay", bdb_RepUpdateMarkBindings
bdb_SendIdentifyQuery SYMBOL "bdb_SendIdentifyQuery"
`??bdb_SendIdentifyQuery::?relay` SYMBOL "?relay", bdb_SendIdentifyQuery
bdb_SendSimpleDescReq SYMBOL "bdb_SendSimpleDescReq"
`??bdb_SendSimpleDescReq::?relay` SYMBOL "?relay", bdb_SendSimpleDescReq
bdb_exitFindingBindingWStatus SYMBOL "bdb_exitFindingBindingWStatus"
`??bdb_exitFindingBindingWStatus::?relay` SYMBOL "?relay", bdb_exitFindingBindingWStatus
bdb_getRespondentRetry SYMBOL "bdb_getRespondentRetry"
`??bdb_getRespondentRetry::?relay` SYMBOL "?relay", bdb_getRespondentRetry
bdb_setEpDescListToActiveEndpoint SYMBOL "bdb_setEpDescListToActiveEndpoint"
`??bdb_setEpDescListToActiveEndpoint::?relay` SYMBOL "?relay", bdb_setEpDescListToActiveEndpoint
`?<Name gp_CheckAnnouncedDev 62>` SYMBOL "gp_CheckAnnouncedDevice"
`??gp_CheckAnnouncedDevice::?relay` SYMBOL "?relay", `?<Name gp_CheckAnnouncedDev 62>`
gp_RegisterGPChangeChannelReqForBDBCB SYMBOL "gp_RegisterGPChangeChannelReqForBDBCB"
`??gp_RegisterGPChangeChannelReqForBDBCB::?relay` SYMBOL "?relay", gp_RegisterGPChangeChannelReqForBDBCB
gp_endpointInit     SYMBOL "gp_endpointInit"
`??gp_endpointInit::?relay` SYMBOL "?relay", gp_endpointInit
`?<Name gp_expireDuplicateFi 68>` SYMBOL "gp_expireDuplicateFiltering"
`??gp_expireDuplicateFiltering::?relay` SYMBOL "?relay", `?<Name gp_expireDuplicateFi 68>`
`?<Name gp_returnOperational 70>` SYMBOL "gp_returnOperationalChannel"
`??gp_returnOperationalChannel::?relay` SYMBOL "?relay", `?<Name gp_returnOperational 70>`
`?<Name gp_stopCommissioning 72>` SYMBOL "gp_stopCommissioningMode"
`??gp_stopCommissioningMode::?relay` SYMBOL "?relay", `?<Name gp_stopCommissioning 72>`
nwk_setStateIdle    SYMBOL "nwk_setStateIdle"
`??nwk_setStateIdle::?relay` SYMBOL "?relay", nwk_setStateIdle
osal_build_uint16   SYMBOL "osal_build_uint16"
`??osal_build_uint16::?relay` SYMBOL "?relay", osal_build_uint16
osal_get_timeoutEx  SYMBOL "osal_get_timeoutEx"
`??osal_get_timeoutEx::?relay` SYMBOL "?relay", osal_get_timeoutEx
osal_isbufset       SYMBOL "osal_isbufset"
`??osal_isbufset::?relay` SYMBOL "?relay", osal_isbufset
osal_mem_alloc      SYMBOL "osal_mem_alloc"
`??osal_mem_alloc::?relay` SYMBOL "?relay", osal_mem_alloc
osal_mem_free       SYMBOL "osal_mem_free"
`??osal_mem_free::?relay` SYMBOL "?relay", osal_mem_free
osal_memcmp         SYMBOL "osal_memcmp"
`??osal_memcmp::?relay` SYMBOL "?relay", osal_memcmp
osal_memcpy         SYMBOL "osal_memcpy"
`??osal_memcpy::?relay` SYMBOL "?relay", osal_memcpy
osal_memset         SYMBOL "osal_memset"
`??osal_memset::?relay` SYMBOL "?relay", osal_memset
osal_msg_allocate   SYMBOL "osal_msg_allocate"
`??osal_msg_allocate::?relay` SYMBOL "?relay", osal_msg_allocate
osal_msg_deallocate SYMBOL "osal_msg_deallocate"
`??osal_msg_deallocate::?relay` SYMBOL "?relay", osal_msg_deallocate
osal_msg_receive    SYMBOL "osal_msg_receive"
`??osal_msg_receive::?relay` SYMBOL "?relay", osal_msg_receive
osal_msg_send       SYMBOL "osal_msg_send"
`??osal_msg_send::?relay` SYMBOL "?relay", osal_msg_send
osal_nv_delete      SYMBOL "osal_nv_delete"
`??osal_nv_delete::?relay` SYMBOL "?relay", osal_nv_delete
osal_nv_item_len    SYMBOL "osal_nv_item_len"
`??osal_nv_item_len::?relay` SYMBOL "?relay", osal_nv_item_len
osal_nv_read        SYMBOL "osal_nv_read"
`??osal_nv_read::?relay` SYMBOL "?relay", osal_nv_read
osal_nv_write       SYMBOL "osal_nv_write"
`??osal_nv_write::?relay` SYMBOL "?relay", osal_nv_write
osal_set_event      SYMBOL "osal_set_event"
`??osal_set_event::?relay` SYMBOL "?relay", osal_set_event
osal_start_reload_timer SYMBOL "osal_start_reload_timer"
`??osal_start_reload_timer::?relay` SYMBOL "?relay", osal_start_reload_timer
osal_start_timerEx  SYMBOL "osal_start_timerEx"
`??osal_start_timerEx::?relay` SYMBOL "?relay", osal_start_timerEx
osal_stop_timerEx   SYMBOL "osal_stop_timerEx"
`??osal_stop_timerEx::?relay` SYMBOL "?relay", osal_stop_timerEx
sspMMOHash          SYMBOL "sspMMOHash"
`??sspMMOHash::?relay` SYMBOL "?relay", sspMMOHash
zclFindAttrRec      SYMBOL "zclFindAttrRec"
`??zclFindAttrRec::?relay` SYMBOL "?relay", zclFindAttrRec
zgWriteStartupOptions SYMBOL "zgWriteStartupOptions"
`??zgWriteStartupOptions::?relay` SYMBOL "?relay", zgWriteStartupOptions
bdb_AddRespondentNode SYMBOL "bdb_AddRespondentNode"
`??bdb_AddRespondentNode::?relay` SYMBOL "?relay", bdb_AddRespondentNode
bdb_ClearNetworkParams SYMBOL "bdb_ClearNetworkParams"
`??bdb_ClearNetworkParams::?relay` SYMBOL "?relay", bdb_ClearNetworkParams
bdb_CreateRespondentList SYMBOL "bdb_CreateRespondentList"
`??bdb_CreateRespondentList::?relay` SYMBOL "?relay", bdb_CreateRespondentList
bdb_GenerateInstallCodeCRC SYMBOL "bdb_GenerateInstallCodeCRC"
`??bdb_GenerateInstallCodeCRC::?relay` SYMBOL "?relay", bdb_GenerateInstallCodeCRC
bdb_Init            SYMBOL "bdb_Init"
`??bdb_Init::?relay` SYMBOL "?relay", bdb_Init
bdb_NetworkRestoredResumeState SYMBOL "bdb_NetworkRestoredResumeState"
`??bdb_NetworkRestoredResumeState::?relay` SYMBOL "?relay", bdb_NetworkRestoredResumeState
bdb_NotifyCommissioningModeStart SYMBOL "bdb_NotifyCommissioningModeStart"
`??bdb_NotifyCommissioningModeStart::?relay` SYMBOL "?relay", bdb_NotifyCommissioningModeStart
bdb_RegisterCommissioningStatusCB SYMBOL "bdb_RegisterCommissioningStatusCB"
`??bdb_RegisterCommissioningStatusCB::?relay` SYMBOL "?relay", bdb_RegisterCommissioningStatusCB
bdb_RegisterSimpleDescriptor SYMBOL "bdb_RegisterSimpleDescriptor"
`??bdb_RegisterSimpleDescriptor::?relay` SYMBOL "?relay", bdb_RegisterSimpleDescriptor
bdb_RegisterTCLinkKeyExchangeProcessCB SYMBOL "bdb_RegisterTCLinkKeyExchangeProcessCB"
`??bdb_RegisterTCLinkKeyExchangeProcessCB::?rela` SYMBOL "?relay", bdb_RegisterTCLinkKeyExchangeProcessCB
bdb_SendMsg         SYMBOL "bdb_SendMsg"
`??bdb_SendMsg::?relay` SYMBOL "?relay", bdb_SendMsg
bdb_StartCommissioning SYMBOL "bdb_StartCommissioning"
`??bdb_StartCommissioning::?relay` SYMBOL "?relay", bdb_StartCommissioning
bdb_TCAddJoiningDevice SYMBOL "bdb_TCAddJoiningDevice"
`??bdb_TCAddJoiningDevice::?relay` SYMBOL "?relay", bdb_TCAddJoiningDevice
bdb_TCjoiningDeviceComplete SYMBOL "bdb_TCjoiningDeviceComplete"
`??bdb_TCjoiningDeviceComplete::?relay` SYMBOL "?relay", bdb_TCjoiningDeviceComplete
bdb_ZclIdentifyCmdInd SYMBOL "bdb_ZclIdentifyCmdInd"
`??bdb_ZclIdentifyCmdInd::?relay` SYMBOL "?relay", bdb_ZclIdentifyCmdInd
bdb_addInstallCode  SYMBOL "bdb_addInstallCode"
`??bdb_addInstallCode::?relay` SYMBOL "?relay", bdb_addInstallCode
bdb_calculateCCITT_CRC SYMBOL "bdb_calculateCCITT_CRC"
`??bdb_calculateCCITT_CRC::?relay` SYMBOL "?relay", bdb_calculateCCITT_CRC
bdb_crcBitByBitFast SYMBOL "bdb_crcBitByBitFast"
`??bdb_crcBitByBitFast::?relay` SYMBOL "?relay", bdb_crcBitByBitFast
bdb_crcInit         SYMBOL "bdb_crcInit"
`??bdb_crcInit::?relay` SYMBOL "?relay", bdb_crcInit
bdb_crcReflect      SYMBOL "bdb_crcReflect"
`??bdb_crcReflect::?relay` SYMBOL "?relay", bdb_crcReflect
bdb_event_loop      SYMBOL "bdb_event_loop"
`??bdb_event_loop::?relay` SYMBOL "?relay", bdb_event_loop
bdb_getZCLFrameCounter SYMBOL "bdb_getZCLFrameCounter"
`??bdb_getZCLFrameCounter::?relay` SYMBOL "?relay", bdb_getZCLFrameCounter
bdb_isDeviceNonFactoryNew SYMBOL "bdb_isDeviceNonFactoryNew"
`??bdb_isDeviceNonFactoryNew::?relay` SYMBOL "?relay", bdb_isDeviceNonFactoryNew
bdb_nwkFormationAttempt SYMBOL "bdb_nwkFormationAttempt"
`??bdb_nwkFormationAttempt::?relay` SYMBOL "?relay", bdb_nwkFormationAttempt
bdb_parentLost      SYMBOL "bdb_parentLost"
`??bdb_parentLost::?relay` SYMBOL "?relay", bdb_parentLost
bdb_rejoinNwk       SYMBOL "bdb_rejoinNwk"
`??bdb_rejoinNwk::?relay` SYMBOL "?relay", bdb_rejoinNwk
bdb_reportCommissioningState SYMBOL "bdb_reportCommissioningState"
`??bdb_reportCommissioningState::?relay` SYMBOL "?relay", bdb_reportCommissioningState
bdb_resetLocalAction SYMBOL "bdb_resetLocalAction"
`??bdb_resetLocalAction::?relay` SYMBOL "?relay", bdb_resetLocalAction
bdb_setChannel      SYMBOL "bdb_setChannel"
`??bdb_setChannel::?relay` SYMBOL "?relay", bdb_setChannel
bdb_setChannelAttribute SYMBOL "bdb_setChannelAttribute"
`??bdb_setChannelAttribute::?relay` SYMBOL "?relay", bdb_setChannelAttribute
bdb_setCommissioningGroupID SYMBOL "bdb_setCommissioningGroupID"
`??bdb_setCommissioningGroupID::?relay` SYMBOL "?relay", bdb_setCommissioningGroupID
bdb_setFN           SYMBOL "bdb_setFN"
`??bdb_setFN::?relay` SYMBOL "?relay", bdb_setFN
bdb_setJoinUsesInstallCodeKey SYMBOL "bdb_setJoinUsesInstallCodeKey"
`??bdb_setJoinUsesInstallCodeKey::?relay` SYMBOL "?relay", bdb_setJoinUsesInstallCodeKey
bdb_setNodeIsOnANetwork SYMBOL "bdb_setNodeIsOnANetwork"
`??bdb_setNodeIsOnANetwork::?relay` SYMBOL "?relay", bdb_setNodeIsOnANetwork
bdb_setTCRequireKeyExchange SYMBOL "bdb_setTCRequireKeyExchange"
`??bdb_setTCRequireKeyExchange::?relay` SYMBOL "?relay", bdb_setTCRequireKeyExchange
bdb_touchlinkSendFNReset SYMBOL "bdb_touchlinkSendFNReset"
`??bdb_touchlinkSendFNReset::?relay` SYMBOL "?relay", bdb_touchlinkSendFNReset
bdb_zclRespondentListClean SYMBOL "bdb_zclRespondentListClean"
`??bdb_zclRespondentListClean::?relay` SYMBOL "?relay", bdb_zclRespondentListClean

        EXTERN `??APSME_AddTCLinkKey::?relay`
        FUNCTION `??APSME_AddTCLinkKey::?relay`,00H
        EXTERN `??APSME_IsDistributedSecurity::?relay`
        FUNCTION `??APSME_IsDistributedSecurity::?relay`,00H
        EXTERN `??APSME_SearchTCLinkKeyEntry::?relay`
        FUNCTION `??APSME_SearchTCLinkKeyEntry::?relay`,00H
        EXTERN `??AddrMgrEntryLookupExt::?relay`
        FUNCTION `??AddrMgrEntryLookupExt::?relay`,00H
        EXTERN `??GP_DataCnf::?relay`
        FUNCTION `??GP_DataCnf::?relay`,00H
        EXTERN `??GP_DataInd::?relay`
        FUNCTION `??GP_DataInd::?relay`,00H
        EXTERN `??GP_SecReq::?relay`
        FUNCTION `??GP_SecReq::?relay`,00H
        EXTERN `??NLME_ReJoinRequest::?relay`
        FUNCTION `??NLME_ReJoinRequest::?relay`,00H
        EXTERN `??NLME_ReJoinRequestUnsecure::?relay`
        FUNCTION `??NLME_ReJoinRequestUnsecure::?relay`,00H
        EXTERN `??NLME_ResetRequest::?relay`
        FUNCTION `??NLME_ResetRequest::?relay`,00H
        EXTERN `??ZDApp_ChangeState::?relay`
        FUNCTION `??ZDApp_ChangeState::?relay`,00H
        EXTERN `??ZDApp_ReadNetworkRestoreState::?relay`
        FUNCTION `??ZDApp_ReadNetworkRestoreState::?relay`,00H
        EXTERN `??ZDApp_ResetTimerStart::?relay`
        FUNCTION `??ZDApp_ResetTimerStart::?relay`,00H
        EXTERN `??ZDApp_RestoreNwkKey::?relay`
        FUNCTION `??ZDApp_RestoreNwkKey::?relay`,00H
        EXTERN `??ZDApp_RestoreNwkSecMaterial::?relay`
        FUNCTION `??ZDApp_RestoreNwkSecMaterial::?relay`,00H
        EXTERN `??ZDOInitDeviceEx::?relay`
        FUNCTION `??ZDOInitDeviceEx::?relay`,00H
        EXTERN `??ZDP_MgmtPermitJoinReq::?relay`
        FUNCTION `??ZDP_MgmtPermitJoinReq::?relay`,00H
        EXTERN `??ZDSecMgrAPSRemove::?relay`
        FUNCTION `??ZDSecMgrAPSRemove::?relay`,00H
        EXTERN `??ZDSecMgrAddrClear::?relay`
        FUNCTION `??ZDSecMgrAddrClear::?relay`,00H
        EXTERN `??ZMacSetReq::?relay`
        FUNCTION `??ZMacSetReq::?relay`,00H
        EXTERN `??afRegister::?relay`
        FUNCTION `??afRegister::?relay`,00H
        EXTERN `??bdb_BindIfMatch::?relay`
        FUNCTION `??bdb_BindIfMatch::?relay`,00H
        EXTERN `??bdb_RepConstructReportingData::?relay`
        FUNCTION `??bdb_RepConstructReportingData::?relay`,00H
        EXTERN `??bdb_RepInit::?relay`
        FUNCTION `??bdb_RepInit::?relay`,00H
        EXTERN `??bdb_RepProcessEvent::?relay`
        FUNCTION `??bdb_RepProcessEvent::?relay`,00H
        EXTERN `??bdb_RepUpdateMarkBindings::?relay`
        FUNCTION `??bdb_RepUpdateMarkBindings::?relay`,00H
        EXTERN `??bdb_SendIdentifyQuery::?relay`
        FUNCTION `??bdb_SendIdentifyQuery::?relay`,00H
        EXTERN `??bdb_SendSimpleDescReq::?relay`
        FUNCTION `??bdb_SendSimpleDescReq::?relay`,00H
        EXTERN `??bdb_exitFindingBindingWStatus::?relay`
        FUNCTION `??bdb_exitFindingBindingWStatus::?relay`,00H
        EXTERN `??bdb_getRespondentRetry::?relay`
        FUNCTION `??bdb_getRespondentRetry::?relay`,00H
        EXTERN `??bdb_setEpDescListToActiveEndpoint::?relay`
        FUNCTION `??bdb_setEpDescListToActiveEndpoint::?relay`,00H
        EXTERN `??gp_CheckAnnouncedDevice::?relay`
        FUNCTION `??gp_CheckAnnouncedDevice::?relay`,00H
        EXTERN `??gp_RegisterGPChangeChannelReqForBDBCB::?relay`
        FUNCTION `??gp_RegisterGPChangeChannelReqForBDBCB::?relay`,00H
        EXTERN `??gp_endpointInit::?relay`
        FUNCTION `??gp_endpointInit::?relay`,00H
        EXTERN `??gp_expireDuplicateFiltering::?relay`
        FUNCTION `??gp_expireDuplicateFiltering::?relay`,00H
        EXTERN `??gp_returnOperationalChannel::?relay`
        FUNCTION `??gp_returnOperationalChannel::?relay`,00H
        EXTERN `??gp_stopCommissioningMode::?relay`
        FUNCTION `??gp_stopCommissioningMode::?relay`,00H
        EXTERN `??nwk_setStateIdle::?relay`
        FUNCTION `??nwk_setStateIdle::?relay`,00H
        EXTERN `??osal_build_uint16::?relay`
        FUNCTION `??osal_build_uint16::?relay`,00H
        EXTERN `??osal_get_timeoutEx::?relay`
        FUNCTION `??osal_get_timeoutEx::?relay`,00H
        EXTERN `??osal_isbufset::?relay`
        FUNCTION `??osal_isbufset::?relay`,00H
        EXTERN `??osal_mem_alloc::?relay`
        FUNCTION `??osal_mem_alloc::?relay`,00H
        EXTERN `??osal_mem_free::?relay`
        FUNCTION `??osal_mem_free::?relay`,00H
        EXTERN `??osal_memcmp::?relay`
        FUNCTION `??osal_memcmp::?relay`,00H
        EXTERN `??osal_memcpy::?relay`
        FUNCTION `??osal_memcpy::?relay`,00H
        EXTERN `??osal_memset::?relay`
        FUNCTION `??osal_memset::?relay`,00H
        EXTERN `??osal_msg_allocate::?relay`
        FUNCTION `??osal_msg_allocate::?relay`,00H
        EXTERN `??osal_msg_deallocate::?relay`
        FUNCTION `??osal_msg_deallocate::?relay`,00H
        EXTERN `??osal_msg_receive::?relay`
        FUNCTION `??osal_msg_receive::?relay`,00H
        EXTERN `??osal_msg_send::?relay`
        FUNCTION `??osal_msg_send::?relay`,00H
        EXTERN `??osal_nv_delete::?relay`
        FUNCTION `??osal_nv_delete::?relay`,00H
        EXTERN `??osal_nv_item_len::?relay`
        FUNCTION `??osal_nv_item_len::?relay`,00H
        EXTERN `??osal_nv_read::?relay`
        FUNCTION `??osal_nv_read::?relay`,00H
        EXTERN `??osal_nv_write::?relay`
        FUNCTION `??osal_nv_write::?relay`,00H
        EXTERN `??osal_set_event::?relay`
        FUNCTION `??osal_set_event::?relay`,00H
        EXTERN `??osal_start_reload_timer::?relay`
        FUNCTION `??osal_start_reload_timer::?relay`,00H
        EXTERN `??osal_start_timerEx::?relay`
        FUNCTION `??osal_start_timerEx::?relay`,00H
        EXTERN `??osal_stop_timerEx::?relay`
        FUNCTION `??osal_stop_timerEx::?relay`,00H
        EXTERN `??sspMMOHash::?relay`
        FUNCTION `??sspMMOHash::?relay`,00H
        EXTERN `??zclFindAttrRec::?relay`
        FUNCTION `??zclFindAttrRec::?relay`,00H
        EXTERN `??zgWriteStartupOptions::?relay`
        FUNCTION `??zgWriteStartupOptions::?relay`,00H
        EXTERN AIB_apsTrustCenterAddress
        EXTERN APSME_AddTCLinkKey
        FUNCTION APSME_AddTCLinkKey,0202H
        ARGFRAME ISTACK, 0, STACK
        ARGFRAME PSTACK, 0, STACK
        ARGFRAME XSTACK, 30, STACK
        ARGFRAME IOVERLAY, 0, STATIC
        ARGFRAME DOVERLAY, 0, STATIC
        EXTERN APSME_IsDistributedSecurity
        FUNCTION APSME_IsDistributedSecurity,0202H
        ARGFRAME ISTACK, 0, STACK
        ARGFRAME PSTACK, 0, STACK
        ARGFRAME XSTACK, 32, STACK
        ARGFRAME IOVERLAY, 0, STATIC
        ARGFRAME DOVERLAY, 0, STATIC
        EXTERN APSME_SearchTCLinkKeyEntry
        FUNCTION APSME_SearchTCLinkKeyEntry,0202H
        ARGFRAME ISTACK, 0, STACK
        ARGFRAME PSTACK, 0, STACK
        ARGFRAME XSTACK, 60, STACK
        ARGFRAME IOVERLAY, 0, STATIC
        ARGFRAME DOVERLAY, 0, STATIC
        EXTERN AddrMgrEntryLookupExt
        FUNCTION AddrMgrEntryLookupExt,0202H
        ARGFRAME ISTACK, 0, STACK
        ARGFRAME PSTACK, 0, STACK
        ARGFRAME XSTACK, 58, STACK
        ARGFRAME IOVERLAY, 0, STATIC
        ARGFRAME DOVERLAY, 0, STATIC
        EXTERN GP_CheckAnnouncedDeviceGCB
        EXTERN GP_DataCnfGCB
        EXTERN GP_DataIndGCB
        EXTERN GP_SecReqGCB
        EXTERN GP_aliasConflictAnnce
        EXTERN GP_endpointInitGCB
        EXTERN GP_expireDuplicateFilteringGCB
        EXTERN GP_returnOperationalChannelGCB
        EXTERN GP_stopCommissioningModeGCB
        EXTERN NLME_ReJoinRequest
        FUNCTION NLME_ReJoinRequest,0202H
        ARGFRAME ISTACK, 0, STACK
        ARGFRAME PSTACK, 0, STACK
        ARGFRAME XSTACK, 10, STACK
        ARGFRAME IOVERLAY, 0, STATIC
        ARGFRAME DOVERLAY, 0, STATIC
        EXTERN NLME_ReJoinRequestUnsecure
        FUNCTION NLME_ReJoinRequestUnsecure,0202H
        ARGFRAME ISTACK, 0, STACK
        ARGFRAME PSTACK, 0, STACK
        ARGFRAME XSTACK, 10, STACK
        ARGFRAME IOVERLAY, 0, STATIC
        ARGFRAME DOVERLAY, 0, STATIC
        EXTERN NLME_ResetRequest
        FUNCTION NLME_ResetRequest,0202H
        ARGFRAME ISTACK, 0, STACK
        ARGFRAME PSTACK, 0, STACK
        ARGFRAME XSTACK, 14, STACK
        ARGFRAME IOVERLAY, 0, STATIC
        ARGFRAME DOVERLAY, 0, STATIC
        EXTERN TCLinkKeyFrmCntr
        EXTERN ZDApp_ChangeState
        FUNCTION ZDApp_ChangeState,0202H
        ARGFRAME ISTACK, 0, STACK
        ARGFRAME PSTACK, 0, STACK
        ARGFRAME XSTACK, 14, STACK
        ARGFRAME IOVERLAY, 0, STATIC
        ARGFRAME DOVERLAY, 0, STATIC
        EXTERN ZDApp_ReadNetworkRestoreState
        FUNCTION ZDApp_ReadNetworkRestoreState,0202H
        ARGFRAME ISTACK, 0, STACK
        ARGFRAME PSTACK, 0, STACK
        ARGFRAME XSTACK, 32, STACK
        ARGFRAME IOVERLAY, 0, STATIC
        ARGFRAME DOVERLAY, 0, STATIC
        EXTERN ZDApp_ResetTimerStart
        FUNCTION ZDApp_ResetTimerStart,0202H
        ARGFRAME ISTACK, 2, STACK
        ARGFRAME PSTACK, 0, STACK
        ARGFRAME XSTACK, 0, STACK
        ARGFRAME IOVERLAY, 0, STATIC
        ARGFRAME DOVERLAY, 0, STATIC
        EXTERN ZDApp_RestoreNwkKey
        FUNCTION ZDApp_RestoreNwkKey,0202H
        ARGFRAME ISTACK, 0, STACK
        ARGFRAME PSTACK, 0, STACK
        ARGFRAME XSTACK, 10, STACK
        ARGFRAME IOVERLAY, 0, STATIC
        ARGFRAME DOVERLAY, 0, STATIC
        EXTERN ZDApp_RestoreNwkSecMaterial
        FUNCTION ZDApp_RestoreNwkSecMaterial,0202H
        ARGFRAME ISTACK, 0, STACK
        ARGFRAME PSTACK, 0, STACK
        ARGFRAME XSTACK, 14, STACK
        ARGFRAME IOVERLAY, 0, STATIC
        ARGFRAME DOVERLAY, 0, STATIC
        EXTERN ZDOInitDeviceEx
        FUNCTION ZDOInitDeviceEx,0202H
        ARGFRAME ISTACK, 0, STACK
        ARGFRAME PSTACK, 0, STACK
        ARGFRAME XSTACK, 32, STACK
        ARGFRAME IOVERLAY, 0, STATIC
        ARGFRAME DOVERLAY, 0, STATIC
        EXTERN ZDO_UseExtendedPANID
        EXTERN ZDP_MgmtPermitJoinReq
        FUNCTION ZDP_MgmtPermitJoinReq,0202H
        ARGFRAME ISTACK, 2, STACK
        ARGFRAME PSTACK, 0, STACK
        ARGFRAME XSTACK, 9, STACK
        ARGFRAME IOVERLAY, 0, STATIC
        ARGFRAME DOVERLAY, 0, STATIC
        EXTERN ZDSecMgrAPSRemove
        FUNCTION ZDSecMgrAPSRemove,0202H
        ARGFRAME ISTACK, 0, STACK
        ARGFRAME PSTACK, 0, STACK
        ARGFRAME XSTACK, 60, STACK
        ARGFRAME IOVERLAY, 0, STATIC
        ARGFRAME DOVERLAY, 0, STATIC
        EXTERN ZDSecMgrAddrClear
        FUNCTION ZDSecMgrAddrClear,0202H
        ARGFRAME ISTACK, 0, STACK
        ARGFRAME PSTACK, 0, STACK
        ARGFRAME XSTACK, 58, STACK
        ARGFRAME IOVERLAY, 0, STATIC
        ARGFRAME DOVERLAY, 0, STATIC
        EXTERN ZMacSetReq
        FUNCTION ZMacSetReq,0202H
        ARGFRAME ISTACK, 0, STACK
        ARGFRAME PSTACK, 0, STACK
        ARGFRAME XSTACK, 14, STACK
        ARGFRAME IOVERLAY, 0, STATIC
        ARGFRAME DOVERLAY, 0, STATIC
        EXTERN _NIB
        EXTERN afRegister
        FUNCTION afRegister,0202H
        ARGFRAME ISTACK, 0, STACK
        ARGFRAME PSTACK, 0, STACK
        ARGFRAME XSTACK, 10, STACK
        ARGFRAME IOVERLAY, 0, STATIC
        ARGFRAME DOVERLAY, 0, STATIC
        EXTERN aliasConflictAnnce
        EXTERN bdbIndentifyActiveEndpoint
        EXTERN bdb_BindIfMatch
        FUNCTION bdb_BindIfMatch,0202H
        ARGFRAME ISTACK, 0, STACK
        ARGFRAME PSTACK, 0, STACK
        ARGFRAME XSTACK, 24, STACK
        ARGFRAME IOVERLAY, 0, STATIC
        ARGFRAME DOVERLAY, 0, STATIC
        EXTERN bdb_RepConstructReportingData
        FUNCTION bdb_RepConstructReportingData,0202H
        ARGFRAME ISTACK, 0, STACK
        ARGFRAME PSTACK, 0, STACK
        ARGFRAME XSTACK, 32, STACK
        ARGFRAME IOVERLAY, 0, STATIC
        ARGFRAME DOVERLAY, 0, STATIC
        EXTERN bdb_RepInit
        FUNCTION bdb_RepInit,0202H
        ARGFRAME ISTACK, 0, STACK
        ARGFRAME PSTACK, 0, STACK
        ARGFRAME XSTACK, 9, STACK
        ARGFRAME IOVERLAY, 0, STATIC
        ARGFRAME DOVERLAY, 0, STATIC
        EXTERN bdb_RepProcessEvent
        FUNCTION bdb_RepProcessEvent,0202H
        ARGFRAME ISTACK, 0, STACK
        ARGFRAME PSTACK, 0, STACK
        ARGFRAME XSTACK, 24, STACK
        ARGFRAME IOVERLAY, 0, STATIC
        ARGFRAME DOVERLAY, 0, STATIC
        EXTERN bdb_RepUpdateMarkBindings
        FUNCTION bdb_RepUpdateMarkBindings,0202H
        ARGFRAME ISTACK, 0, STACK
        ARGFRAME PSTACK, 0, STACK
        ARGFRAME XSTACK, 32, STACK
        ARGFRAME IOVERLAY, 0, STATIC
        ARGFRAME DOVERLAY, 0, STATIC
        EXTERN bdb_SendIdentifyQuery
        FUNCTION bdb_SendIdentifyQuery,0202H
        ARGFRAME ISTACK, 0, STACK
        ARGFRAME PSTACK, 0, STACK
        ARGFRAME XSTACK, 24, STACK
        ARGFRAME IOVERLAY, 0, STATIC
        ARGFRAME DOVERLAY, 0, STATIC
        EXTERN bdb_SendSimpleDescReq
        FUNCTION bdb_SendSimpleDescReq,0202H
        ARGFRAME ISTACK, 0, STACK
        ARGFRAME PSTACK, 0, STACK
        ARGFRAME XSTACK, 24, STACK
        ARGFRAME IOVERLAY, 0, STATIC
        ARGFRAME DOVERLAY, 0, STATIC
        EXTERN bdb_exitFindingBindingWStatus
        FUNCTION bdb_exitFindingBindingWStatus,0202H
        ARGFRAME ISTACK, 0, STACK
        ARGFRAME PSTACK, 0, STACK
        ARGFRAME XSTACK, 24, STACK
        ARGFRAME IOVERLAY, 0, STATIC
        ARGFRAME DOVERLAY, 0, STATIC
        EXTERN bdb_getRespondentRetry
        FUNCTION bdb_getRespondentRetry,0202H
        ARGFRAME ISTACK, 0, STACK
        ARGFRAME PSTACK, 0, STACK
        ARGFRAME XSTACK, 24, STACK
        ARGFRAME IOVERLAY, 0, STATIC
        ARGFRAME DOVERLAY, 0, STATIC
        EXTERN bdb_setEpDescListToActiveEndpoint
        FUNCTION bdb_setEpDescListToActiveEndpoint,0202H
        ARGFRAME ISTACK, 0, STACK
        ARGFRAME PSTACK, 0, STACK
        ARGFRAME XSTACK, 24, STACK
        ARGFRAME IOVERLAY, 0, STATIC
        ARGFRAME DOVERLAY, 0, STATIC
        EXTERN gp_RegisterGPChangeChannelReqForBDBCB
        FUNCTION gp_RegisterGPChangeChannelReqForBDBCB,0202H
        ARGFRAME ISTACK, 0, STACK
        ARGFRAME PSTACK, 0, STACK
        ARGFRAME XSTACK, 9, STACK
        ARGFRAME IOVERLAY, 0, STATIC
        ARGFRAME DOVERLAY, 0, STATIC
        EXTERN gp_endpointInit
        FUNCTION gp_endpointInit,0602H
        ARGFRAME ISTACK, 0, STACK
        ARGFRAME PSTACK, 0, STACK
        ARGFRAME XSTACK, 9, STACK
        ARGFRAME IOVERLAY, 0, STATIC
        ARGFRAME DOVERLAY, 0, STATIC
        EXTERN nwk_setStateIdle
        FUNCTION nwk_setStateIdle,0202H
        ARGFRAME ISTACK, 0, STACK
        ARGFRAME PSTACK, 0, STACK
        ARGFRAME XSTACK, 14, STACK
        ARGFRAME IOVERLAY, 0, STATIC
        ARGFRAME DOVERLAY, 0, STATIC
        EXTERN osal_build_uint16
        FUNCTION osal_build_uint16,0202H
        ARGFRAME ISTACK, 0, STACK
        ARGFRAME PSTACK, 0, STACK
        ARGFRAME XSTACK, 30, STACK
        ARGFRAME IOVERLAY, 0, STATIC
        ARGFRAME DOVERLAY, 0, STATIC
        EXTERN osal_get_timeoutEx
        FUNCTION osal_get_timeoutEx,0202H
        ARGFRAME ISTACK, 0, STACK
        ARGFRAME PSTACK, 0, STACK
        ARGFRAME XSTACK, 32, STACK
        ARGFRAME IOVERLAY, 0, STATIC
        ARGFRAME DOVERLAY, 0, STATIC
        EXTERN osal_isbufset
        FUNCTION osal_isbufset,0202H
        ARGFRAME ISTACK, 0, STACK
        ARGFRAME PSTACK, 0, STACK
        ARGFRAME XSTACK, 32, STACK
        ARGFRAME IOVERLAY, 0, STATIC
        ARGFRAME DOVERLAY, 0, STATIC
        EXTERN osal_mem_alloc
        FUNCTION osal_mem_alloc,0202H
        ARGFRAME ISTACK, 0, STACK
        ARGFRAME PSTACK, 0, STACK
        ARGFRAME XSTACK, 28, STACK
        ARGFRAME IOVERLAY, 0, STATIC
        ARGFRAME DOVERLAY, 0, STATIC
        EXTERN osal_mem_free
        FUNCTION osal_mem_free,0202H
        ARGFRAME ISTACK, 0, STACK
        ARGFRAME PSTACK, 0, STACK
        ARGFRAME XSTACK, 15, STACK
        ARGFRAME IOVERLAY, 0, STATIC
        ARGFRAME DOVERLAY, 0, STATIC
        EXTERN osal_memcmp
        FUNCTION osal_memcmp,0202H
        ARGFRAME ISTACK, 0, STACK
        ARGFRAME PSTACK, 0, STACK
        ARGFRAME XSTACK, 31, STACK
        ARGFRAME IOVERLAY, 0, STATIC
        ARGFRAME DOVERLAY, 0, STATIC
        EXTERN osal_memcpy
        FUNCTION osal_memcpy,0202H
        ARGFRAME ISTACK, 0, STACK
        ARGFRAME PSTACK, 0, STACK
        ARGFRAME XSTACK, 61, STACK
        ARGFRAME IOVERLAY, 0, STATIC
        ARGFRAME DOVERLAY, 0, STATIC
        EXTERN osal_memset
        FUNCTION osal_memset,0202H
        ARGFRAME ISTACK, 0, STACK
        ARGFRAME PSTACK, 0, STACK
        ARGFRAME XSTACK, 58, STACK
        ARGFRAME IOVERLAY, 0, STATIC
        ARGFRAME DOVERLAY, 0, STATIC
        EXTERN osal_msg_allocate
        FUNCTION osal_msg_allocate,0202H
        ARGFRAME ISTACK, 0, STACK
        ARGFRAME PSTACK, 0, STACK
        ARGFRAME XSTACK, 17, STACK
        ARGFRAME IOVERLAY, 0, STATIC
        ARGFRAME DOVERLAY, 0, STATIC
        EXTERN osal_msg_deallocate
        FUNCTION osal_msg_deallocate,0202H
        ARGFRAME ISTACK, 0, STACK
        ARGFRAME PSTACK, 0, STACK
        ARGFRAME XSTACK, 24, STACK
        ARGFRAME IOVERLAY, 0, STATIC
        ARGFRAME DOVERLAY, 0, STATIC
        EXTERN osal_msg_receive
        FUNCTION osal_msg_receive,0202H
        ARGFRAME ISTACK, 0, STACK
        ARGFRAME PSTACK, 0, STACK
        ARGFRAME XSTACK, 24, STACK
        ARGFRAME IOVERLAY, 0, STATIC
        ARGFRAME DOVERLAY, 0, STATIC
        EXTERN osal_msg_send
        FUNCTION osal_msg_send,0202H
        ARGFRAME ISTACK, 0, STACK
        ARGFRAME PSTACK, 0, STACK
        ARGFRAME XSTACK, 17, STACK
        ARGFRAME IOVERLAY, 0, STATIC
        ARGFRAME DOVERLAY, 0, STATIC
        EXTERN osal_nv_delete
        FUNCTION osal_nv_delete,0202H
        ARGFRAME ISTACK, 0, STACK
        ARGFRAME PSTACK, 0, STACK
        ARGFRAME XSTACK, 32, STACK
        ARGFRAME IOVERLAY, 0, STATIC
        ARGFRAME DOVERLAY, 0, STATIC
        EXTERN osal_nv_item_len
        FUNCTION osal_nv_item_len,0202H
        ARGFRAME ISTACK, 0, STACK
        ARGFRAME PSTACK, 0, STACK
        ARGFRAME XSTACK, 32, STACK
        ARGFRAME IOVERLAY, 0, STATIC
        ARGFRAME DOVERLAY, 0, STATIC
        EXTERN osal_nv_read
        FUNCTION osal_nv_read,0202H
        ARGFRAME ISTACK, 0, STACK
        ARGFRAME PSTACK, 0, STACK
        ARGFRAME XSTACK, 36, STACK
        ARGFRAME IOVERLAY, 0, STATIC
        ARGFRAME DOVERLAY, 0, STATIC
        EXTERN osal_nv_write
        FUNCTION osal_nv_write,0202H
        ARGFRAME ISTACK, 0, STACK
        ARGFRAME PSTACK, 0, STACK
        ARGFRAME XSTACK, 62, STACK
        ARGFRAME IOVERLAY, 0, STATIC
        ARGFRAME DOVERLAY, 0, STATIC
        EXTERN osal_set_event
        FUNCTION osal_set_event,0202H
        ARGFRAME ISTACK, 0, STACK
        ARGFRAME PSTACK, 0, STACK
        ARGFRAME XSTACK, 32, STACK
        ARGFRAME IOVERLAY, 0, STATIC
        ARGFRAME DOVERLAY, 0, STATIC
        EXTERN osal_start_reload_timer
        FUNCTION osal_start_reload_timer,0202H
        ARGFRAME ISTACK, 0, STACK
        ARGFRAME PSTACK, 0, STACK
        ARGFRAME XSTACK, 32, STACK
        ARGFRAME IOVERLAY, 0, STATIC
        ARGFRAME DOVERLAY, 0, STATIC
        EXTERN osal_start_timerEx
        FUNCTION osal_start_timerEx,0202H
        ARGFRAME ISTACK, 0, STACK
        ARGFRAME PSTACK, 0, STACK
        ARGFRAME XSTACK, 28, STACK
        ARGFRAME IOVERLAY, 0, STATIC
        ARGFRAME DOVERLAY, 0, STATIC
        EXTERN osal_stop_timerEx
        FUNCTION osal_stop_timerEx,0202H
        ARGFRAME ISTACK, 0, STACK
        ARGFRAME PSTACK, 0, STACK
        ARGFRAME XSTACK, 58, STACK
        ARGFRAME IOVERLAY, 0, STATIC
        ARGFRAME DOVERLAY, 0, STATIC
        EXTERN pfnIdentifyTimeChangeCB
        EXTERN runtimeChannel
        EXTERN sspMMOHash
        FUNCTION sspMMOHash,0202H
        ARGFRAME ISTACK, 0, STACK
        ARGFRAME PSTACK, 0, STACK
        ARGFRAME XSTACK, 34, STACK
        ARGFRAME IOVERLAY, 0, STATIC
        ARGFRAME DOVERLAY, 0, STATIC
        EXTERN zclFindAttrRec
        FUNCTION zclFindAttrRec,0202H
        ARGFRAME ISTACK, 0, STACK
        ARGFRAME PSTACK, 0, STACK
        ARGFRAME XSTACK, 26, STACK
        ARGFRAME IOVERLAY, 0, STATIC
        ARGFRAME DOVERLAY, 0, STATIC
        EXTERN zcl_TaskID
        EXTERN zgAllowInstallCodes
        EXTERN zgDefaultChannelList
        EXTERN zgDeviceLogicalType
        EXTERN zgWriteStartupOptions
        FUNCTION zgWriteStartupOptions,0202H
        ARGFRAME ISTACK, 2, STACK
        ARGFRAME PSTACK, 0, STACK
        ARGFRAME XSTACK, 32, STACK
        ARGFRAME IOVERLAY, 0, STATIC
        ARGFRAME DOVERLAY, 0, STATIC

// C:\Texas Instruments\Z-Stack 3.0.0\Components\stack\bdb\bdb.c
//    1 /**************************************************************************************************
//    2   Filename:       bdb.c
//    3   Revised:        $Date: 2016-02-25 11:51:49 -0700 (Thu, 25 Feb 2016) $
//    4   Revision:       $Revision: - $
//    5 
//    6   Description:    This file contains the Base Device Behavior functions and attributes.
//    7 
//    8 
//    9   Copyright 2006-2015 Texas Instruments Incorporated. All rights reserved.
//   10 
//   11   IMPORTANT: Your use of this Software is limited to those specific rights
//   12   granted under the terms of a software license agreement between the user
//   13   who downloaded the software, his/her employer (which must be your employer)
//   14   and Texas Instruments Incorporated (the "License").  You may not use this
//   15   Software unless you agree to abide by the terms of the License. The License
//   16   limits your use, and you acknowledge, that the Software may not be modified,
//   17   copied or distributed unless embedded on a Texas Instruments microcontroller
//   18   or used solely and exclusively in conjunction with a Texas Instruments radio
//   19   frequency transceiver, which is integrated into your product.  Other than for
//   20   the foregoing purpose, you may not use, reproduce, copy, prepare derivative
//   21   works of, modify, distribute, perform, display or sell this Software and/or
//   22   its documentation for any purpose.
//   23 
//   24   YOU FURTHER ACKNOWLEDGE AND AGREE THAT THE SOFTWARE AND DOCUMENTATION ARE
//   25   PROVIDED "AS IS" WITHOUT WARRANTY OF ANY KIND, EITHER EXPRESS OR IMPLIED,
//   26   INCLUDING WITHOUT LIMITATION, ANY WARRANTY OF MERCHANTABILITY, TITLE,
//   27   NON-INFRINGEMENT AND FITNESS FOR A PARTICULAR PURPOSE. IN NO EVENT SHALL
//   28   TEXAS INSTRUMENTS OR ITS LICENSORS BE LIABLE OR OBLIGATED UNDER CONTRACT,
//   29   NEGLIGENCE, STRICT LIABILITY, CONTRIBUTION, BREACH OF WARRANTY, OR OTHER
//   30   LEGAL EQUITABLE THEORY ANY DIRECT OR INDIRECT DAMAGES OR EXPENSES
//   31   INCLUDING BUT NOT LIMITED TO ANY INCIDENTAL, SPECIAL, INDIRECT, PUNITIVE
//   32   OR CONSEQUENTIAL DAMAGES, LOST PROFITS OR LOST DATA, COST OF PROCUREMENT
//   33   OF SUBSTITUTE GOODS, TECHNOLOGY, SERVICES, OR ANY CLAIMS BY THIRD PARTIES
//   34   (INCLUDING BUT NOT LIMITED TO ANY DEFENSE THEREOF), OR OTHER SIMILAR COSTS.
//   35 
//   36   Should you have any questions regarding your right to use this Software,
//   37   contact Texas Instruments Incorporated at www.TI.com.
//   38 **************************************************************************************************/
//   39 
//   40 /*********************************************************************
//   41  * INCLUDES
//   42  */
//   43 
//   44 #include "bdb.h"
//   45 #include "ZDApp.h"
//   46 #include "OSAL.h"
//   47 #include "ZDConfig.h"
//   48 #include "hal_led.h"
//   49 #include "ZDObject.h"
//   50 #include "OSAL_Nv.h"
//   51 #include "AddrMgr.h"
//   52 #include "ZDSecMgr.h"
//   53 #include "nwk.h"
//   54 #include "nwk_util.h"
//   55 #include "ssp_hash.h"
//   56 #ifdef BDB_REPORTING
//   57 #include "bdb_Reporting.h"
//   58 #endif 
//   59 
//   60 //GP_UPDATE
//   61 #include "gp_interface.h"
//   62 #include "gp_common.h"
//   63 #include "bdb_interface.h"
//   64 #include "dgp_stub.h"
//   65 
//   66 #if defined ( INTER_PAN ) 
//   67 #if defined ( BDB_TL_INITIATOR )  
//   68 #include "bdb_touchlink_initiator.h"
//   69 #endif
//   70 #if defined ( BDB_TL_TARGET )  
//   71 #include "bdb_touchlink_target.h"
//   72 #endif
//   73 #endif
//   74    
//   75 #if defined ( INTER_PAN ) && ( defined ( BDB_TL_INITIATOR ) || defined ( BDB_TL_TARGET ) )
//   76   #include "bdb_touchlink.h"
//   77 #endif
//   78  
//   79 #ifdef MT_APP_CNF_FUNC
//   80 #include "MT_APP_CONFIG.h"
//   81 #endif
//   82    
//   83  /*********************************************************************
//   84  * MACROS
//   85  */
//   86 //This is actually the channels used
//   87 #define vScanChannels  zgDefaultChannelList
//   88    
//   89  /*********************************************************************
//   90  * CONSTANTS
//   91  */
//   92 
//   93 #define NUMBER_OF_CHANNELS     16
//   94 
//   95 #define CHANNEL_11_MASK_POS    11
//   96 #define CHANNEL_26_MASK_POS    26
//   97    

        RSEG XDATA_Z:XDATA:NOROOT(0)
        DATA8
//   98 uint8 bdb_FB_InitiatorCurrentCyclesNumber = 0; //last cycle is #1 (i.e. cycles-left = (bdb_FB_InitiatorCurrentCyclesNumber - 1))
bdb_FB_InitiatorCurrentCyclesNumber:
        DS 1
        REQUIRE __INIT_XDATA_Z
//   99 
//  100 /*********************************************************************
//  101  * TYPEDEFS
//  102  */
//  103  
//  104  
//  105  /*********************************************************************
//  106  * GLOBAL VARIABLES
//  107  */
//  108 

        RSEG XDATA_Z:XDATA:NOROOT(0)
        DATA8
//  109 byte bdb_TaskID;
bdb_TaskID:
        DS 1
        REQUIRE __INIT_XDATA_Z

        RSEG XDATA_I:XDATA:NOROOT(0)
//  110 bdbAttributes_t bdbAttributes = BDB_ATTRIBUTES_DEFAULT_CONFIG;
bdbAttributes:
        DATA8
        DS 18
        REQUIRE `?<Initializer for bdbAttributes>`
        REQUIRE __INIT_XDATA_I

        RSEG XDATA_Z:XDATA:NOROOT(0)
        DATA16
//  111 epList_t *bdb_HeadEpDescriptorList = NULL;
bdb_HeadEpDescriptorList:
        DS 2
        REQUIRE __INIT_XDATA_Z

        RSEG XDATA_Z:XDATA:NOROOT(0)
        DATA16
//  112 epList_t *bdb_CurrEpDescriptorList = NULL;
bdb_CurrEpDescriptorList:
        DS 2
        REQUIRE __INIT_XDATA_Z
//  113 

        RSEG XDATA_Z:XDATA:NOROOT(0)
        DATA16
//  114 bdbFindingBindingRespondent_t *pRespondentHead = NULL;
pRespondentHead:
        DS 2
        REQUIRE __INIT_XDATA_Z

        RSEG XDATA_Z:XDATA:NOROOT(0)
        DATA16
//  115 bdbFindingBindingRespondent_t *pRespondentCurr = NULL;
pRespondentCurr:
        DS 2
        REQUIRE __INIT_XDATA_Z

        RSEG XDATA_Z:XDATA:NOROOT(0)
        DATA16
//  116 bdbFindingBindingRespondent_t *pRespondentNext = NULL;
pRespondentNext:
        DS 2
        REQUIRE __INIT_XDATA_Z
//  117 

        RSEG XDATA_Z:XDATA:NOROOT(0)
        DATA32
//  118 bdbCommissioningProcedureState_t bdbCommissioningProcedureState; 
bdbCommissioningProcedureState:
        DS 4
        REQUIRE __INIT_XDATA_Z

        RSEG XDATA_Z:XDATA:NOROOT(0)
        DATA8
//  119 bool bdb_initialization = FALSE;  //Variable to tell if the initialization process has been started
bdb_initialization:
        DS 1
        REQUIRE __INIT_XDATA_Z
//  120 
//  121 //Nwk formation and nwk steering for nodes not in nwk

        RSEG XDATA_I:XDATA:NOROOT(0)
//  122 bool vDoPrimaryScan = TRUE;
vDoPrimaryScan:
        DATA8
        DS 1
        REQUIRE `?<Initializer for vDoPrimaryScan>`
        REQUIRE __INIT_XDATA_I
//  123 

        RSEG XDATA_I:XDATA:NOROOT(0)
//  124 uint8 zgBdbInstallCodeCRC[INSTALL_CODE_LEN + INSTALL_CODE_CRC_LEN] = {0x83,0xFE,0xD3,0x40,0x7A,0x93,0x97,0x23,0xA5,0xC6,0x39,0xB2,0x69,0x16,0xD5,0x05,0xC3,0xB5};
zgBdbInstallCodeCRC:
        DATA8
        DS 18
        REQUIRE `?<Initializer for zgBdbInstallCodeCRC>`
        REQUIRE __INIT_XDATA_I
//  125 
//  126 //Pointer of the nwk being tried in association process
//  127 #if (ZG_BUILD_JOINING_TYPE)
//  128 static networkDesc_t *pBDBListNwk = NULL;
//  129 #endif
//  130 

        RSEG XDATA_Z:XDATA:NOROOT(0)
        DATA8
//  131 uint8 bdb_ZclTransactionSequenceNumber=0x00;
bdb_ZclTransactionSequenceNumber:
        DS 1
        REQUIRE __INIT_XDATA_Z
//  132 

        RSEG XDATA_Z:XDATA:NOROOT(0)
        DATA8
//  133 bool touchLinkTargetEnabled = FALSE;
touchLinkTargetEnabled:
        DS 1
        REQUIRE __INIT_XDATA_Z
//  134 
//  135  /*********************************************************************
//  136  * EXTERNAL VARIABLES
//  137  */
//  138 
//  139 extern devStartModes_t devStartMode;
//  140 extern bool  requestNewTrustCenterLinkKey;
//  141 extern uint32 requestLinkKeyTimeout;
//  142 extern uint32 ZDApp_SavedPollRate;
//  143 
//  144 #if (BDB_FINDING_BINDING_CAPABILITY_ENABLED==1)
//  145 extern bdbGCB_IdentifyTimeChange_t pfnIdentifyTimeChangeCB;
//  146 extern uint8 bdbIndentifyActiveEndpoint;
//  147 #endif
//  148 
//  149 extern bdbFindingBindingRespondent_t *pRespondentNext;
//  150 
//  151 #ifndef ZNP_ENABLED
//  152 extern ZDO_DeviceAnnce_t aliasConflictAnnce;
//  153 #endif
//  154 
//  155 /*********************************************************************
//  156  * EXTERNAL FUNCTIONS
//  157  */
//  158 
//  159 extern void ZDApp_ResetTimerStart( uint16 delay );
//  160 extern void ZDApp_NodeProfileSync( uint8 stackProfile );
//  161 extern uint8 ZDApp_RestoreNwkKey( uint8 incrFrmCnt );
//  162 extern uint8 ZDApp_ReadNetworkRestoreState( void );
//  163 
//  164 extern bdbFindingBindingRespondent_t* bdb_getRespondentRetry(bdbFindingBindingRespondent_t* pRespondentHead);
//  165 
//  166 /*********************************************************************
//  167  * LOCAL VARIABLES
//  168  */
//  169 #if (ZG_BUILD_JOINING_TYPE)
//  170   static uint8 bdb_nwkAssocRetriesCount = 0;
//  171 #endif
//  172 #if (ZG_BUILD_COORDINATOR_TYPE)

        RSEG XDATA_Z:XDATA:NOROOT(0)
        DATA16
//  173   static bdb_joiningDeviceList_t *bdb_joiningDeviceList = NULL;
bdb_joiningDeviceList:
        DS 2
        REQUIRE __INIT_XDATA_Z
//  174 #endif
//  175   
//  176 #if (BDB_FINDING_BINDING_CAPABILITY_ENABLED==1) 
//  177 //Latch to save the status success of any attempt in the periodic F&B process  

        RSEG XDATA_Z:XDATA:NOROOT(0)
        DATA8
//  178 static uint8 bdb_FBStateSuccessLatch = FALSE;
bdb_FBStateSuccessLatch:
        DS 1
        REQUIRE __INIT_XDATA_Z
//  179 #endif
//  180  /*********************************************************************
//  181  * LOCAL FUNCTIONS
//  182  */
//  183 static void bdb_ProcessOSALMsg(bdbInMsg_t *msgPtr);
//  184 void bdb_NotifyCommissioningModeStart(uint8 commissioningMode);
//  185 
//  186 #if (ZG_BUILD_JOINING_TYPE)
//  187 static void bdb_requestTCStackVersion(void);
//  188 static void bdb_requestTCLinkKey(void);
//  189 static void bdb_requestVerifyTCLinkKey(void);
//  190 static void bdb_tryNwkAssoc(void);
//  191 #endif
//  192 
//  193 
//  194 static void bdb_processTimeout(void);
//  195 static void bdb_startResumeCommissioningProcess(void);
//  196 static void bdb_nwkSteeringDeviceOnNwk(void);
//  197 static void bdb_nwkJoiningFormation(bool isJoining);
//  198 
//  199 //GP_UPDATE
//  200 #if (ZG_BUILD_RTR_TYPE)
//  201 #ifndef ZNP_ENABLED
//  202 static uint8 gp_ChangeChannelReq(void);
//  203 static void gp_CBInit(void);
//  204 #endif
//  205 #endif
//  206 
//  207 #if (ZG_BUILD_COORDINATOR_TYPE)
//  208 static void bdb_TCProcessJoiningList(void);
//  209 static ZStatus_t bdb_TCJoiningDeviceFree(bdb_joiningDeviceList_t* JoiningDeviceToRemove);
//  210 #endif
//  211 #if (ZG_BUILD_COORDINATOR_TYPE)

        RSEG XDATA_Z:XDATA:NOROOT(0)
        DATA16
//  212 static bdbGCB_TCLinkKeyExchangeProcess_t  pfnTCLinkKeyExchangeProcessCB = NULL;
pfnTCLinkKeyExchangeProcessCB:
        DS 2
        REQUIRE __INIT_XDATA_Z
//  213 #endif

        RSEG XDATA_Z:XDATA:NOROOT(0)
        DATA16
//  214 static bdbGCB_CommissioningStatus_t       pfnCommissioningStatusCB = NULL; 
pfnCommissioningStatusCB:
        DS 2
        REQUIRE __INIT_XDATA_Z
//  215 #if (ZG_BUILD_JOINING_TYPE)
//  216 static bdbGCB_CBKETCLinkKeyExchange_t     pfnCBKETCLinkKeyExchange = NULL;
//  217 static bdbGCB_FilterNwkDesc_t             pfnFilterNwkDesc = NULL;   
//  218 #endif
//  219 
//  220 
//  221 
//  222 void bdb_calculateCCITT_CRC (uint8 *Mb, uint32 msglen, uint16 *crc);
//  223 void bdb_crcInit(uint16 *crc, uint16 *crcinit_direct, uint16 *crcinit_nondirect);
//  224 uint16 bdb_crcReflect (uint16 crc, uint16 bitnum);
//  225 uint16 bdb_crcBitByBitFast(uint8 * p, uint32 len, uint16 crcinit_direct, uint16 crcinit_nondirect);
//  226 
//  227 
//  228 /*********************************************************************
//  229  * PUBLIC FUNCTIONS
//  230  *********************************************************************/
//  231 void bdb_filterNwkDisc(void);
//  232 ZStatus_t bdb_joinProcess(networkDesc_t *pChosenNwk);
//  233 
//  234 ZStatus_t bdb_TCAddJoiningDevice(uint16 parentAddr, uint8* JoiningExtAddr);
//  235 void bdb_TCjoiningDeviceComplete(uint8* JoiningExtAddr);
//  236 
//  237  /*********************************************************************
//  238  * @fn          bdb_Init
//  239  *
//  240  * @brief       Initialization function for the Base Device Behavior.
//  241  *
//  242  * @param       task_id - bdb_TaskID Task ID
//  243  *
//  244  * @return      none
//  245  */

        RSEG BANKED_CODE:CODE:NOROOT(0)
//  246 void bdb_Init( byte task_id )
bdb_Init:
          CFI Block cfiBlock0 Using cfiCommon0
          CFI Function bdb_Init
        CODE
//  247 {
        FUNCALL bdb_Init, bdb_RepInit
        LOCFRAME ISTACK, 0, STACK
        LOCFRAME PSTACK, 0, STACK
        LOCFRAME XSTACK, 9, STACK
        LOCFRAME IOVERLAY, 0, STATIC
        LOCFRAME DOVERLAY, 0, STATIC
        ARGFRAME ISTACK, 0, STACK
        ARGFRAME PSTACK, 0, STACK
        ARGFRAME XSTACK, 9, STACK
        ARGFRAME IOVERLAY, 0, STATIC
        ARGFRAME DOVERLAY, 0, STATIC
        FUNCALL bdb_Init, gp_RegisterGPChangeChannelReqForBDBCB
        LOCFRAME ISTACK, 0, STACK
        LOCFRAME PSTACK, 0, STACK
        LOCFRAME XSTACK, 9, STACK
        LOCFRAME IOVERLAY, 0, STATIC
        LOCFRAME DOVERLAY, 0, STATIC
        ARGFRAME ISTACK, 0, STACK
        ARGFRAME PSTACK, 0, STACK
        ARGFRAME XSTACK, 9, STACK
        ARGFRAME IOVERLAY, 0, STATIC
        ARGFRAME DOVERLAY, 0, STATIC
        FUNCALL bdb_Init, gp_endpointInit
        LOCFRAME ISTACK, 0, STACK
        LOCFRAME PSTACK, 0, STACK
        LOCFRAME XSTACK, 9, STACK
        LOCFRAME IOVERLAY, 0, STATIC
        LOCFRAME DOVERLAY, 0, STATIC
        ARGFRAME ISTACK, 0, STACK
        ARGFRAME PSTACK, 0, STACK
        ARGFRAME XSTACK, 9, STACK
        ARGFRAME IOVERLAY, 0, STATIC
        ARGFRAME DOVERLAY, 0, STATIC
        MOV     A,#-0x9
        LCALL   ?BANKED_ENTER_XDATA
          CFI DPH0 load(1, XDATA, add(CFA_XSP16, literal(-1)))
          CFI DPL0 load(1, XDATA, add(CFA_XSP16, literal(-2)))
          CFI ?BRET_EXT load(1, XDATA, add(CFA_XSP16, literal(-3)))
          CFI ?RET_HIGH load(1, XDATA, add(CFA_XSP16, literal(-4)))
          CFI ?RET_LOW load(1, XDATA, add(CFA_XSP16, literal(-5)))
          CFI R7 load(1, XDATA, add(CFA_XSP16, literal(-6)))
          CFI V0 load(1, XDATA, add(CFA_XSP16, literal(-7)))
          CFI VB load(1, XDATA, add(CFA_XSP16, literal(-8)))
          CFI R6 load(1, XDATA, add(CFA_XSP16, literal(-9)))
          CFI CFA_SP SP+0
          CFI CFA_XSP16 add(XSP16, 9)
        ; Saved register size: 9
        ; Auto size: 0
        MOV     A,R1
//  248   bdb_TaskID = task_id;
        MOV     DPTR,#bdb_TaskID
        MOVX    @DPTR,A
//  249     
//  250 #if (ZG_BUILD_COORDINATOR_TYPE)
//  251   if(ZG_DEVICE_COORDINATOR_TYPE)
//  252   {
//  253     if(bdbAttributes.bdbJoinUsesInstallCodeKey)
        MOV     DPTR,#bdbAttributes + 15
        MOVX    A,@DPTR
        JZ      ??bdb_Init_0
//  254     {
//  255       zgAllowInstallCodes = ZG_IC_MUST_USED;
        MOV     DPTR,#zgAllowInstallCodes
        MOV     A,#0x2
        MOVX    @DPTR,A
//  256     }
//  257   }
//  258 #endif
//  259   
//  260 #if defined ( INTER_PAN ) && defined ( BDB_TL_INITIATOR )  
//  261   touchLinkInitiator_InitDevice( );
//  262 #endif
//  263 
//  264 #if (BDB_REPORTING)
//  265   bdb_RepInit();
??bdb_Init_0:
        ; Setup parameters for call to function bdb_RepInit
        LCALL   `??bdb_RepInit::?relay`; Banked call to: bdb_RepInit
//  266 #endif  
//  267   
//  268 //GP_UPDATE
//  269 #if (ZG_BUILD_RTR_TYPE)
//  270 #ifndef ZNP_ENABLED
//  271   gp_RegisterGPChangeChannelReqForBDBCB(gp_ChangeChannelReq);
        ; Setup parameters for call to function gp_RegisterGPChangeChannelReqForBDBCB
        MOV     R2,#`??gp_ChangeChannelReq::?relay` & 0xff
        MOV     R3,#(`??gp_ChangeChannelReq::?relay` >> 8) & 0xff
        LCALL   `??gp_RegisterGPChangeChannelReqForBDBCB::?relay`; Banked call to: gp_RegisterGPChangeChannelReqForBDBCB
//  272   gp_CBInit();
        MOV     DPTR,#GP_DataCnfGCB
        MOV     A,#`??GP_DataCnf::?relay` & 0xff
        MOVX    @DPTR,A
        INC     DPTR
        MOV     A,#(`??GP_DataCnf::?relay` >> 8) & 0xff
        MOVX    @DPTR,A
        MOV     DPTR,#GP_endpointInitGCB
        MOV     A,#`??gp_endpointInit::?relay` & 0xff
        MOVX    @DPTR,A
        INC     DPTR
        MOV     A,#(`??gp_endpointInit::?relay` >> 8) & 0xff
        MOVX    @DPTR,A
        MOV     DPTR,#GP_expireDuplicateFilteringGCB
        MOV     A,#`??gp_expireDuplicateFiltering::?relay` & 0xff
        MOVX    @DPTR,A
        INC     DPTR
        MOV     A,#(`??gp_expireDuplicateFiltering::?relay` >> 8) & 0xff
        MOVX    @DPTR,A
        MOV     DPTR,#GP_stopCommissioningModeGCB
        MOV     A,#`??gp_stopCommissioningMode::?relay` & 0xff
        MOVX    @DPTR,A
        INC     DPTR
        MOV     A,#(`??gp_stopCommissioningMode::?relay` >> 8) & 0xff
        MOVX    @DPTR,A
        MOV     DPTR,#GP_returnOperationalChannelGCB
        MOV     A,#`??gp_returnOperationalChannel::?relay` & 0xff
        MOVX    @DPTR,A
        INC     DPTR
        MOV     A,#(`??gp_returnOperationalChannel::?relay` >> 8) & 0xff
        MOVX    @DPTR,A
        MOV     DPTR,#GP_DataIndGCB
        MOV     A,#`??GP_DataInd::?relay` & 0xff
        MOVX    @DPTR,A
        INC     DPTR
        MOV     A,#(`??GP_DataInd::?relay` >> 8) & 0xff
        MOVX    @DPTR,A
        MOV     DPTR,#GP_SecReqGCB
        MOV     A,#`??GP_SecReq::?relay` & 0xff
        MOVX    @DPTR,A
        INC     DPTR
        MOV     A,#(`??GP_SecReq::?relay` >> 8) & 0xff
        MOVX    @DPTR,A
        MOV     DPTR,#GP_CheckAnnouncedDeviceGCB
        MOV     A,#`??gp_CheckAnnouncedDevice::?relay` & 0xff
        MOVX    @DPTR,A
        INC     DPTR
        MOV     A,#(`??gp_CheckAnnouncedDevice::?relay` >> 8) & 0xff
        MOVX    @DPTR,A
        MOV     DPTR,#GP_aliasConflictAnnce
        MOV     A,#aliasConflictAnnce & 0xff
        MOVX    @DPTR,A
        INC     DPTR
        MOV     A,#(aliasConflictAnnce >> 8) & 0xff
        MOVX    @DPTR,A
        ; Setup parameters for call to function gp_endpointInit
        LCALL   `??gp_endpointInit::?relay`; Banked call to: gp_endpointInit
//  273 #endif
//  274 #endif
//  275 }
        LJMP    ?Subroutine0 & 0xFFFF
          CFI EndBlock cfiBlock0
//  276 
//  277 /*********************************************************************
//  278  * @fn      bdb_RegisterSimpleDescriptor
//  279  *
//  280  * @brief   Register the Simple descriptor. This function also registers 
//  281  *          the profile's cluster conversion table.
//  282  *
//  283  * @param   simpleDesc - a pointer to a valid SimpleDescriptionFormat_t, must not be NULL.
//  284  *
//  285  * @return  none
//  286  */

        RSEG BANKED_CODE:CODE:NOROOT(0)
//  287 void bdb_RegisterSimpleDescriptor( SimpleDescriptionFormat_t *simpleDesc )
bdb_RegisterSimpleDescriptor:
          CFI Block cfiBlock1 Using cfiCommon0
          CFI Function bdb_RegisterSimpleDescriptor
        CODE
//  288 {
        FUNCALL bdb_RegisterSimpleDescriptor, osal_mem_alloc
        LOCFRAME ISTACK, 0, STACK
        LOCFRAME PSTACK, 0, STACK
        LOCFRAME XSTACK, 10, STACK
        LOCFRAME IOVERLAY, 0, STATIC
        LOCFRAME DOVERLAY, 0, STATIC
        ARGFRAME ISTACK, 0, STACK
        ARGFRAME PSTACK, 0, STACK
        ARGFRAME XSTACK, 10, STACK
        ARGFRAME IOVERLAY, 0, STATIC
        ARGFRAME DOVERLAY, 0, STATIC
        FUNCALL bdb_RegisterSimpleDescriptor, afRegister
        LOCFRAME ISTACK, 0, STACK
        LOCFRAME PSTACK, 0, STACK
        LOCFRAME XSTACK, 10, STACK
        LOCFRAME IOVERLAY, 0, STATIC
        LOCFRAME DOVERLAY, 0, STATIC
        ARGFRAME ISTACK, 0, STACK
        ARGFRAME PSTACK, 0, STACK
        ARGFRAME XSTACK, 10, STACK
        ARGFRAME IOVERLAY, 0, STATIC
        ARGFRAME DOVERLAY, 0, STATIC
        REQUIRE ?V0
        REQUIRE ?V1
        MOV     A,#-0xa
        LCALL   ?BANKED_ENTER_XDATA
          CFI DPH0 load(1, XDATA, add(CFA_XSP16, literal(-1)))
          CFI DPL0 load(1, XDATA, add(CFA_XSP16, literal(-2)))
          CFI ?BRET_EXT load(1, XDATA, add(CFA_XSP16, literal(-3)))
          CFI ?RET_HIGH load(1, XDATA, add(CFA_XSP16, literal(-4)))
          CFI ?RET_LOW load(1, XDATA, add(CFA_XSP16, literal(-5)))
          CFI R7 load(1, XDATA, add(CFA_XSP16, literal(-6)))
          CFI V1 load(1, XDATA, add(CFA_XSP16, literal(-7)))
          CFI V0 load(1, XDATA, add(CFA_XSP16, literal(-8)))
          CFI VB load(1, XDATA, add(CFA_XSP16, literal(-9)))
          CFI R6 load(1, XDATA, add(CFA_XSP16, literal(-10)))
          CFI CFA_SP SP+0
          CFI CFA_XSP16 add(XSP16, 10)
        ; Saved register size: 10
        ; Auto size: 0
        MOV     A,R2
        MOV     R6,A
        MOV     A,R3
        MOV     R7,A
//  289   endPointDesc_t *epDesc;
//  290 
//  291   // Register the application's endpoint descriptor
//  292   //  - This memory is allocated and never freed.
//  293   epDesc = osal_mem_alloc( sizeof ( endPointDesc_t ) );
        ; Setup parameters for call to function osal_mem_alloc
        MOV     R2,#0x7
        MOV     R3,#0x0
        LCALL   `??osal_mem_alloc::?relay`; Banked call to: osal_mem_alloc
//  294   if ( epDesc )
        MOV     A,R2
        ORL     A,R3
        JZ      ??bdb_RegisterSimpleDescriptor_0
//  295   {
//  296     // Fill out the endpoint description.
//  297     epDesc->endPoint = simpleDesc->EndPoint;
        MOV     DPL,R6
        MOV     DPH,R7
        MOVX    A,@DPTR
        MOV     DPL,R2
        MOV     DPH,R3
        MOVX    @DPTR,A
//  298     epDesc->task_id = &zcl_TaskID;   // all messages get sent to ZCL first
        INC     DPTR
        INC     DPTR
        MOV     A,#zcl_TaskID & 0xff
        MOVX    @DPTR,A
        INC     DPTR
        MOV     A,#(zcl_TaskID >> 8) & 0xff
        LCALL   ?Subroutine11 & 0xFFFF
//  299     epDesc->simpleDesc = simpleDesc;
??CrossCallReturnLabel_0:
        MOV     A,R6
        MOVX    @DPTR,A
        INC     DPTR
        MOV     A,R7
        LCALL   ?Subroutine11 & 0xFFFF
//  300     epDesc->latencyReq = noLatencyReqs;
??CrossCallReturnLabel_1:
        INC     DPTR
        INC     DPTR
        CLR     A
        MOVX    @DPTR,A
//  301 
//  302     // Register the endpoint description with the AF
//  303     afRegister( epDesc );
        ; Setup parameters for call to function afRegister
        LCALL   `??afRegister::?relay`; Banked call to: afRegister
//  304   }
//  305 }
??bdb_RegisterSimpleDescriptor_0:
        SJMP    ??Subroutine31_0
          CFI EndBlock cfiBlock1

        RSEG BANKED_CODE:CODE:NOROOT(0)
?Subroutine11:
          CFI Block cfiCond2 Using cfiCommon0
          CFI Function bdb_RegisterSimpleDescriptor
          CFI Conditional ??CrossCallReturnLabel_0
          CFI R6 load(1, XDATA, add(CFA_XSP16, literal(-10)))
          CFI VB load(1, XDATA, add(CFA_XSP16, literal(-9)))
          CFI V0 load(1, XDATA, add(CFA_XSP16, literal(-8)))
          CFI V1 load(1, XDATA, add(CFA_XSP16, literal(-7)))
          CFI R7 load(1, XDATA, add(CFA_XSP16, literal(-6)))
          CFI ?RET_LOW load(1, XDATA, add(CFA_XSP16, literal(-5)))
          CFI ?RET_HIGH load(1, XDATA, add(CFA_XSP16, literal(-4)))
          CFI ?BRET_EXT load(1, XDATA, add(CFA_XSP16, literal(-3)))
          CFI DPL0 load(1, XDATA, add(CFA_XSP16, literal(-2)))
          CFI DPH0 load(1, XDATA, add(CFA_XSP16, literal(-1)))
          CFI CFA_SP SP+-2
          CFI CFA_XSP16 add(XSP16, 10)
          CFI Block cfiCond3 Using cfiCommon0
          CFI (cfiCond3) Function bdb_RegisterSimpleDescriptor
          CFI (cfiCond3) Conditional ??CrossCallReturnLabel_1
          CFI (cfiCond3) R6 load(1, XDATA, add(CFA_XSP16, literal(-10)))
          CFI (cfiCond3) VB load(1, XDATA, add(CFA_XSP16, literal(-9)))
          CFI (cfiCond3) V0 load(1, XDATA, add(CFA_XSP16, literal(-8)))
          CFI (cfiCond3) V1 load(1, XDATA, add(CFA_XSP16, literal(-7)))
          CFI (cfiCond3) R7 load(1, XDATA, add(CFA_XSP16, literal(-6)))
          CFI (cfiCond3) ?RET_LOW load(1, XDATA, add(CFA_XSP16, literal(-5)))
          CFI (cfiCond3) ?RET_HIGH load(1, XDATA, add(CFA_XSP16, literal(-4)))
          CFI (cfiCond3) ?BRET_EXT load(1, XDATA, add(CFA_XSP16, literal(-3)))
          CFI (cfiCond3) DPL0 load(1, XDATA, add(CFA_XSP16, literal(-2)))
          CFI (cfiCond3) DPH0 load(1, XDATA, add(CFA_XSP16, literal(-1)))
          CFI (cfiCond3) CFA_SP SP+-2
          CFI (cfiCond3) CFA_XSP16 add(XSP16, 10)
          CFI Block cfiPicker4 Using cfiCommon1
          CFI (cfiPicker4) NoFunction
          CFI (cfiPicker4) Picker
        MOVX    @DPTR,A
        MOV     DPL,R2
        MOV     DPH,R3
        INC     DPTR
        INC     DPTR
        INC     DPTR
        INC     DPTR
        RET
          CFI EndBlock cfiCond2
          CFI EndBlock cfiCond3
          CFI EndBlock cfiPicker4

        RSEG BANKED_CODE:CODE:NOROOT(0)
?Subroutine1:
          CFI Block cfiBlock5 Using cfiCommon0
          CFI NoFunction
          CFI CFA_SP SP+0
          CFI CFA_XSP16 add(XSP16, 13)
          CFI VB load(1, XDATA, add(CFA_XSP16, literal(-9)))
          CFI DPL0 load(1, XDATA, add(CFA_XSP16, literal(-2)))
          CFI DPH0 load(1, XDATA, add(CFA_XSP16, literal(-1)))
          CFI R6 load(1, XDATA, add(CFA_XSP16, literal(-10)))
          CFI R7 load(1, XDATA, add(CFA_XSP16, literal(-6)))
          CFI V0 load(1, XDATA, add(CFA_XSP16, literal(-8)))
          CFI V1 load(1, XDATA, add(CFA_XSP16, literal(-7)))
          CFI ?BRET_EXT load(1, XDATA, add(CFA_XSP16, literal(-3)))
          CFI ?RET_HIGH load(1, XDATA, add(CFA_XSP16, literal(-4)))
          CFI ?RET_LOW load(1, XDATA, add(CFA_XSP16, literal(-5)))
          CFI Invalid
        LCALL   ?DEALLOC_XSTACK8
          CFI EndBlock cfiBlock5
        REQUIRE ??Subroutine31_0
        ; // Fall through to label ??Subroutine31_0

        RSEG BANKED_CODE:CODE:NOROOT(0)
??Subroutine31_0:
          CFI Block cfiBlock6 Using cfiCommon0
          CFI NoFunction
          CFI CFA_SP SP+0
          CFI CFA_XSP16 add(XSP16, 10)
          CFI VB load(1, XDATA, add(CFA_XSP16, literal(-9)))
          CFI DPL0 load(1, XDATA, add(CFA_XSP16, literal(-2)))
          CFI DPH0 load(1, XDATA, add(CFA_XSP16, literal(-1)))
          CFI R6 load(1, XDATA, add(CFA_XSP16, literal(-10)))
          CFI R7 load(1, XDATA, add(CFA_XSP16, literal(-6)))
          CFI V0 load(1, XDATA, add(CFA_XSP16, literal(-8)))
          CFI V1 load(1, XDATA, add(CFA_XSP16, literal(-7)))
          CFI ?BRET_EXT load(1, XDATA, add(CFA_XSP16, literal(-3)))
          CFI ?RET_HIGH load(1, XDATA, add(CFA_XSP16, literal(-4)))
          CFI ?RET_LOW load(1, XDATA, add(CFA_XSP16, literal(-5)))
        MOV     R7,#0x2
        LJMP    ?BANKED_LEAVE_XDATA
          CFI EndBlock cfiBlock6
//  306 
//  307 #if (BDB_FINDING_BINDING_CAPABILITY_ENABLED==1)  
//  308 /*********************************************************************
//  309  * @fn      bdb_ZclIdentifyCmdInd
//  310  *
//  311  * @brief   Callback from the ZCL General Cluster Library when
//  312  *          it received an Identity Command for this application.
//  313  *
//  314  * @param   srcAddr - source address and endpoint of the response message
//  315  * @param   identifyTime - the number of seconds to identify yourself
//  316  * @param   endpoint - destination endpoint
//  317  *
//  318  * @return  none
//  319  */

        RSEG BANKED_CODE:CODE:NOROOT(0)
//  320 void bdb_ZclIdentifyCmdInd( zclIdentify_t *pCmd, uint8 endpoint )
bdb_ZclIdentifyCmdInd:
          CFI Block cfiBlock7 Using cfiCommon0
          CFI Function bdb_ZclIdentifyCmdInd
        CODE
//  321 {
        FUNCALL bdb_ZclIdentifyCmdInd, zclFindAttrRec
        LOCFRAME ISTACK, 0, STACK
        LOCFRAME PSTACK, 0, STACK
        LOCFRAME XSTACK, 22, STACK
        LOCFRAME IOVERLAY, 0, STATIC
        LOCFRAME DOVERLAY, 0, STATIC
        ARGFRAME ISTACK, 0, STACK
        ARGFRAME PSTACK, 0, STACK
        ARGFRAME XSTACK, 22, STACK
        ARGFRAME IOVERLAY, 0, STATIC
        ARGFRAME DOVERLAY, 0, STATIC
        FUNCALL bdb_ZclIdentifyCmdInd, osal_start_timerEx
        LOCFRAME ISTACK, 0, STACK
        LOCFRAME PSTACK, 0, STACK
        LOCFRAME XSTACK, 24, STACK
        LOCFRAME IOVERLAY, 0, STATIC
        LOCFRAME DOVERLAY, 0, STATIC
        ARGFRAME ISTACK, 0, STACK
        ARGFRAME PSTACK, 0, STACK
        ARGFRAME XSTACK, 24, STACK
        ARGFRAME IOVERLAY, 0, STATIC
        ARGFRAME DOVERLAY, 0, STATIC
        REQUIRE ?V0
        REQUIRE ?V2
        REQUIRE ?V3
        MOV     A,#-0xc
        LCALL   ?BANKED_ENTER_XDATA
          CFI DPH0 load(1, XDATA, add(CFA_XSP16, literal(-1)))
          CFI DPL0 load(1, XDATA, add(CFA_XSP16, literal(-2)))
          CFI ?BRET_EXT load(1, XDATA, add(CFA_XSP16, literal(-3)))
          CFI ?RET_HIGH load(1, XDATA, add(CFA_XSP16, literal(-4)))
          CFI ?RET_LOW load(1, XDATA, add(CFA_XSP16, literal(-5)))
          CFI R7 load(1, XDATA, add(CFA_XSP16, literal(-6)))
          CFI V3 load(1, XDATA, add(CFA_XSP16, literal(-7)))
          CFI V2 load(1, XDATA, add(CFA_XSP16, literal(-8)))
          CFI V1 load(1, XDATA, add(CFA_XSP16, literal(-9)))
          CFI V0 load(1, XDATA, add(CFA_XSP16, literal(-10)))
          CFI VB load(1, XDATA, add(CFA_XSP16, literal(-11)))
          CFI R6 load(1, XDATA, add(CFA_XSP16, literal(-12)))
          CFI CFA_SP SP+0
          CFI CFA_XSP16 add(XSP16, 12)
        ; Saved register size: 12
        ; Auto size: 8
        MOV     A,#-0x8
        LCALL   ?ALLOC_XSTACK8
          CFI CFA_XSP16 add(XSP16, 20)
        MOV     A,R2
        MOV     R6,A
        MOV     A,R3
        MOV     R7,A
        MOV     ?V0,R1
//  322   zclAttrRec_t identifyAttrRec;
//  323   
//  324   if ( zclFindAttrRec( endpoint, ZCL_CLUSTER_ID_GEN_IDENTIFY,
//  325                       ATTRID_IDENTIFY_TIME, &identifyAttrRec ) )
        ; Setup parameters for call to function zclFindAttrRec
        MOV     R0,?XSP + 0
        MOV     R1,?XSP + 1
        MOV     ?V2,R0
        MOV     ?V3,R1
        MOV     R0,#?V2
        LCALL   ?PUSH_XSTACK_I_TWO
          CFI CFA_XSP16 add(XSP16, 22)
        MOV     R4,#0x0
        MOV     R5,#0x0
        MOV     R2,#0x3
        MOV     R3,#0x0
        MOV     R1,?V0
        LCALL   `??zclFindAttrRec::?relay`; Banked call to: zclFindAttrRec
        MOV     A,#0x2
        LCALL   ?DEALLOC_XSTACK8
          CFI CFA_XSP16 add(XSP16, 20)
        MOV     A,R1
        JZ      ??bdb_ZclIdentifyCmdInd_0
//  326   {
//  327     if ( pCmd->identifyTime > 0 )
        MOV     A,#0x6
        LCALL   ?XSTACK_DISP0_8
        LCALL   ?Subroutine21 & 0xFFFF
??CrossCallReturnLabel_20:
        MOV     DPL,R6
        MOV     DPH,R7
        INC     DPTR
        INC     DPTR
        LCALL   ?Subroutine14 & 0xFFFF
??CrossCallReturnLabel_7:
        MOV     DPL,R0
        MOV     DPH,R1
        JZ      ??bdb_ZclIdentifyCmdInd_1
//  328     {
//  329       *((uint16*)identifyAttrRec.attr.dataPtr) += pCmd->identifyTime;
        MOVX    A,@DPTR
        ADD     A,R2
        MOV     R2,A
        INC     DPTR
        MOVX    A,@DPTR
        ADDC    A,R3
        MOV     R3,A
        MOV     DPL,R0
        MOV     DPH,R1
        MOV     A,R2
        MOVX    @DPTR,A
        INC     DPTR
        MOV     A,R3
        SJMP    ??bdb_ZclIdentifyCmdInd_2
//  330     }
//  331     else if ( pCmd->identifyTime <= 0 )
//  332     {
//  333       *((uint16*)identifyAttrRec.attr.dataPtr) = 0;
??bdb_ZclIdentifyCmdInd_1:
        CLR     A
        MOVX    @DPTR,A
        INC     DPTR
??bdb_ZclIdentifyCmdInd_2:
        MOVX    @DPTR,A
//  334     }
//  335     osal_start_timerEx( bdb_TaskID, BDB_IDENTIFY_TIMEOUT, 1000 );
        ; Setup parameters for call to function osal_start_timerEx
        MOV     DPTR,#__Constant_3e8
        LCALL   ?PUSH_XSTACK8_X_FOUR
          CFI CFA_XSP16 add(XSP16, 24)
        MOV     R2,#0x0
        MOV     R3,#0x20
        MOV     DPTR,#bdb_TaskID
        MOVX    A,@DPTR
        MOV     R1,A
        LCALL   `??osal_start_timerEx::?relay`; Banked call to: osal_start_timerEx
        MOV     A,#0x4
        LCALL   ?DEALLOC_XSTACK8
          CFI CFA_XSP16 add(XSP16, 20)
//  336     
//  337     if(pfnIdentifyTimeChangeCB != NULL)
        MOV     DPTR,#pfnIdentifyTimeChangeCB
        LCALL   ??Subroutine41_0 & 0xFFFF
??CrossCallReturnLabel_52:
        JZ      ??bdb_ZclIdentifyCmdInd_0
//  338     {
//  339       pfnIdentifyTimeChangeCB(pCmd->srcAddr->endPoint);
        ; Setup parameters for indirect call
        MOV     DPL,R6
        MOV     DPH,R7
        MOVX    A,@DPTR
        MOV     R0,A
        INC     DPTR
        MOVX    A,@DPTR
        XCH     A,R0
        ADD     A,#0x9
        MOV     DPL,A
        CLR     A
        ADDC    A,R0
        MOV     DPH,A
        MOVX    A,@DPTR
        MOV     R1,A
        MOV     DPTR,#pfnIdentifyTimeChangeCB
        LCALL   ?Subroutine22 & 0xFFFF
//  340     }
//  341   }
??CrossCallReturnLabel_73:
        LCALL   ?CALL_IND
//  342 }
??bdb_ZclIdentifyCmdInd_0:
        MOV     A,#0x8
        LJMP    ??Subroutine37_0 & 0xFFFF
          CFI EndBlock cfiBlock7
//  343 #endif
//  344 
//  345 
//  346 #if (ZG_BUILD_JOINING_TYPE) 
//  347  /*********************************************************************
//  348  * @fn          bdb_setActiveCentralizedLinkKey
//  349  *
//  350  * @brief       Set the active centralized key to be used, Global or IC derived.
//  351  *
//  352  * @param       useGlobal - If TRUE, then use default TC link key, if FALSE use 
//  353  *                          pBuf as source for IC key derived input
//  354  * @param       pBuf - The expected format and length of the IC is defined by 
//  355  *                     BDB_INSTALL_CODE_USE
//  356  *
//  357  * @return      ZStatus_t - ZFailure when no valid BDB_INSTALL_CODE_USE is used
//  358  *                          ZInvalidParameter when IC buffer is null
//  359  */
//  360 ZStatus_t bdb_setActiveCentralizedLinkKey(bool useGlobal, uint8* pBuf)
//  361 {
//  362   uint8 extAddr[Z_EXTADDR_LEN];
//  363   osal_memset(extAddr,0x00,Z_EXTADDR_LEN);
//  364   ZStatus_t Status = ZSuccess;
//  365 
//  366   if(useGlobal)
//  367   {
//  368     APSME_AddTCLinkKey((uint8*)defaultTCLinkKey,extAddr);
//  369     Status = ZSuccess;
//  370   } 
//  371   else
//  372   {
//  373     if(pBuf != NULL)
//  374     {
//  375   #if (BDB_INSTALL_CODE_USE==BDB_INSTALL_CODE_USE_IC_CRC)
//  376       //Set the install code as default key
//  377       Status = bdb_addInstallCode(pBuf,extAddr);
//  378     
//  379   #elif (BDB_INSTALL_CODE_USE==BDB_INSTALL_CODE_USE_KEY)
//  380 
//  381       //Set the key as global default
//  382       APSME_AddTCLinkKey(pBuf,extAddr);
//  383   #else
//  384     
//  385       //BDB_INSTALL_CODE_USE not supported
//  386       Status = ZFailure;
//  387   #endif
//  388     }
//  389     else
//  390     {
//  391       Status = ZInvalidParameter;
//  392     }
//  393   }
//  394   return Status;
//  395 }
//  396 #endif
//  397 
//  398 
//  399     
//  400   
//  401 /******************************************************************************
//  402  * @fn          bdb_addInstallCode
//  403  *
//  404  * @brief       Interface to add an install codes and adds a APS TC Link key.
//  405  *
//  406  * @param       pInstallCode - [in] Install Code with CRC (buffer size of 18 bytes).
//  407  *              pExt - [in] Extended address of the node.
//  408  *
//  409  * @return      ZStatus_t
//  410  */

        RSEG BANKED_CODE:CODE:NOROOT(0)
//  411 ZStatus_t bdb_addInstallCode(uint8* pInstallCode, uint8* pExt)
bdb_addInstallCode:
          CFI Block cfiBlock8 Using cfiCommon0
          CFI Function bdb_addInstallCode
        CODE
//  412 {
        FUNCALL bdb_addInstallCode, bdb_GenerateInstallCodeCRC
        LOCFRAME ISTACK, 0, STACK
        LOCFRAME PSTACK, 0, STACK
        LOCFRAME XSTACK, 30, STACK
        LOCFRAME IOVERLAY, 0, STATIC
        LOCFRAME DOVERLAY, 0, STATIC
        ARGFRAME ISTACK, 0, STACK
        ARGFRAME PSTACK, 0, STACK
        ARGFRAME XSTACK, 30, STACK
        ARGFRAME IOVERLAY, 0, STATIC
        ARGFRAME DOVERLAY, 0, STATIC
        FUNCALL bdb_addInstallCode, osal_build_uint16
        LOCFRAME ISTACK, 0, STACK
        LOCFRAME PSTACK, 0, STACK
        LOCFRAME XSTACK, 30, STACK
        LOCFRAME IOVERLAY, 0, STATIC
        LOCFRAME DOVERLAY, 0, STATIC
        ARGFRAME ISTACK, 0, STACK
        ARGFRAME PSTACK, 0, STACK
        ARGFRAME XSTACK, 30, STACK
        ARGFRAME IOVERLAY, 0, STATIC
        ARGFRAME DOVERLAY, 0, STATIC
        FUNCALL bdb_addInstallCode, sspMMOHash
        LOCFRAME ISTACK, 0, STACK
        LOCFRAME PSTACK, 0, STACK
        LOCFRAME XSTACK, 34, STACK
        LOCFRAME IOVERLAY, 0, STATIC
        LOCFRAME DOVERLAY, 0, STATIC
        ARGFRAME ISTACK, 0, STACK
        ARGFRAME PSTACK, 0, STACK
        ARGFRAME XSTACK, 34, STACK
        ARGFRAME IOVERLAY, 0, STATIC
        ARGFRAME DOVERLAY, 0, STATIC
        FUNCALL bdb_addInstallCode, APSME_AddTCLinkKey
        LOCFRAME ISTACK, 0, STACK
        LOCFRAME PSTACK, 0, STACK
        LOCFRAME XSTACK, 30, STACK
        LOCFRAME IOVERLAY, 0, STATIC
        LOCFRAME DOVERLAY, 0, STATIC
        ARGFRAME ISTACK, 0, STACK
        ARGFRAME PSTACK, 0, STACK
        ARGFRAME XSTACK, 30, STACK
        ARGFRAME IOVERLAY, 0, STATIC
        ARGFRAME DOVERLAY, 0, STATIC
        REQUIRE ?V0
        REQUIRE ?V1
        REQUIRE ?V2
        REQUIRE ?V3
        REQUIRE ?V4
        REQUIRE ?V5
        MOV     A,#-0xe
        LCALL   ?BANKED_ENTER_XDATA
          CFI DPH0 load(1, XDATA, add(CFA_XSP16, literal(-1)))
          CFI DPL0 load(1, XDATA, add(CFA_XSP16, literal(-2)))
          CFI ?BRET_EXT load(1, XDATA, add(CFA_XSP16, literal(-3)))
          CFI ?RET_HIGH load(1, XDATA, add(CFA_XSP16, literal(-4)))
          CFI ?RET_LOW load(1, XDATA, add(CFA_XSP16, literal(-5)))
          CFI R7 load(1, XDATA, add(CFA_XSP16, literal(-6)))
          CFI V5 load(1, XDATA, add(CFA_XSP16, literal(-7)))
          CFI V4 load(1, XDATA, add(CFA_XSP16, literal(-8)))
          CFI V3 load(1, XDATA, add(CFA_XSP16, literal(-9)))
          CFI V2 load(1, XDATA, add(CFA_XSP16, literal(-10)))
          CFI V1 load(1, XDATA, add(CFA_XSP16, literal(-11)))
          CFI V0 load(1, XDATA, add(CFA_XSP16, literal(-12)))
          CFI VB load(1, XDATA, add(CFA_XSP16, literal(-13)))
          CFI R6 load(1, XDATA, add(CFA_XSP16, literal(-14)))
          CFI CFA_SP SP+0
          CFI CFA_XSP16 add(XSP16, 14)
        ; Saved register size: 14
        ; Auto size: 16
        MOV     A,#-0x10
        LCALL   ?ALLOC_XSTACK8
          CFI CFA_XSP16 add(XSP16, 30)
        MOV     A,R2
        MOV     R6,A
        MOV     A,R3
        MOV     R7,A
        MOV     ?V0,R4
        MOV     ?V1,R5
//  413   uint8  hashOutput[16];
//  414   uint16 CRC;
//  415   
//  416 #if (ZG_BUILD_COORDINATOR_TYPE)
//  417   if(ZG_DEVICE_COORDINATOR_TYPE)
//  418   {
//  419     if(zgAllowInstallCodes == ZG_IC_NOT_SUPPORTED)
        MOV     DPTR,#zgAllowInstallCodes
        MOVX    A,@DPTR
        JNZ     ??bdb_addInstallCode_0
//  420     {
//  421       return ZFailure;
        MOV     R1,#0x1
        SJMP    ??bdb_addInstallCode_1
//  422     }
//  423   }
//  424 #endif
//  425        
//  426   if((pInstallCode == NULL) || (pExt == NULL))
??bdb_addInstallCode_0:
        MOV     A,R6
        ORL     A,R7
        JZ      ??bdb_addInstallCode_2
        MOV     A,R4
        ORL     A,?V1
        JZ      ??bdb_addInstallCode_2
//  427   {
//  428     return ZInvalidParameter;
//  429   }
//  430   
//  431   CRC = bdb_GenerateInstallCodeCRC(pInstallCode);
        ; Setup parameters for call to function bdb_GenerateInstallCodeCRC
        LCALL   `??bdb_GenerateInstallCodeCRC::?relay`; Banked call to: bdb_GenerateInstallCodeCRC
        MOV     ?V2,R2
        MOV     ?V3,R3
//  432   //Validate CRC
//  433   if(CRC != osal_build_uint16(&pInstallCode[INSTALL_CODE_LEN]))
        ; Setup parameters for call to function osal_build_uint16
        MOV     A,R6
        ADD     A,#0x10
        MOV     R2,A
        CLR     A
        ADDC    A,R7
        MOV     R3,A
        LCALL   `??osal_build_uint16::?relay`; Banked call to: osal_build_uint16
        MOV     A,R2
        XRL     A,?V2
        JNZ     ??bdb_addInstallCode_3
        MOV     A,R3
        XRL     A,?V3
??bdb_addInstallCode_3:
        JZ      ??bdb_addInstallCode_4
//  434   {
//  435     return ZInvalidParameter;
??bdb_addInstallCode_2:
        MOV     R1,#0x2
        SJMP    ??bdb_addInstallCode_1
//  436   }
//  437 
//  438   sspMMOHash (NULL, 0, pInstallCode,(INSTALL_CODE_LEN + INSTALL_CODE_CRC_LEN) * BITS_PER_BYTE, hashOutput);
??bdb_addInstallCode_4:
        ; Setup parameters for call to function sspMMOHash
        MOV     R0,?XSP + 0
        MOV     R1,?XSP + 1
        MOV     ?V2,R0
        MOV     ?V3,R1
        MOV     R0,#?V2
        LCALL   ?PUSH_XSTACK_I_TWO
          CFI CFA_XSP16 add(XSP16, 32)
        MOV     ?V2,#-0x70
        MOV     ?V3,#0x0
        MOV     R0,#?V2
        LCALL   ?PUSH_XSTACK_I_TWO
          CFI CFA_XSP16 add(XSP16, 34)
        MOV     A,R6
        MOV     R4,A
        MOV     A,R7
        MOV     R5,A
        MOV     R1,#0x0
        MOV     R2,#0x0
        MOV     R3,#0x0
        LCALL   `??sspMMOHash::?relay`; Banked call to: sspMMOHash
        MOV     A,#0x4
        LCALL   ?DEALLOC_XSTACK8
          CFI CFA_XSP16 add(XSP16, 30)
//  439 
//  440   return APSME_AddTCLinkKey(hashOutput,pExt);
        ; Setup parameters for call to function APSME_AddTCLinkKey
        MOV     R4,?V0
        MOV     R5,?V1
        MOV     R2,?XSP + 0
        MOV     R3,?XSP + 1
        LCALL   `??APSME_AddTCLinkKey::?relay`; Banked call to: APSME_AddTCLinkKey
??bdb_addInstallCode_1:
        MOV     A,#0x10
        LCALL   ?DEALLOC_XSTACK8
          CFI CFA_XSP16 add(XSP16, 14)
        MOV     R7,#0x6
        LJMP    ?BANKED_LEAVE_XDATA
//  441 }    
          CFI EndBlock cfiBlock8
//  442     
//  443 
//  444 #if (ZG_BUILD_COORDINATOR_TYPE)
//  445  /*********************************************************************
//  446  * @fn      bdb_RegisterTCLinkKeyExchangeProcessCB
//  447  *
//  448  * @brief   Register a callback to receive notifications on the joining devices 
//  449  *          and its status on TC link key exchange
//  450  *
//  451  * @param   bdbGCB_TCLinkKeyExchangeProcess - application callback 
//  452  *          (extended address of device, status: 0 = Joining, 1 = TC link key exchange success, 2 = TC link key exchange failed)
//  453  *
//  454  * @return  none
//  455  */

        RSEG BANKED_CODE:CODE:NOROOT(0)
//  456 void bdb_RegisterTCLinkKeyExchangeProcessCB(bdbGCB_TCLinkKeyExchangeProcess_t bdbGCB_TCLinkKeyExchangeProcess)
bdb_RegisterTCLinkKeyExchangeProcessCB:
          CFI Block cfiBlock9 Using cfiCommon0
          CFI Function bdb_RegisterTCLinkKeyExchangeProcessCB
        CODE
//  457 {
        PUSH    DPL
          CFI DPL0 Frame(CFA_SP, 4)
          CFI CFA_SP SP+-4
        PUSH    DPH
          CFI DPH0 Frame(CFA_SP, 5)
          CFI CFA_SP SP+-5
        ; Saved register size: 2
        ; Auto size: 0
//  458   if(bdbGCB_TCLinkKeyExchangeProcess != NULL)
        MOV     A,R2
        ORL     A,R3
        JZ      ??bdb_RegisterTCLinkKeyExchangeProcessCB_0
//  459   {
//  460     pfnTCLinkKeyExchangeProcessCB = bdbGCB_TCLinkKeyExchangeProcess;
        MOV     DPTR,#pfnTCLinkKeyExchangeProcessCB
        MOV     A,R2
        MOVX    @DPTR,A
        INC     DPTR
        MOV     A,R3
        MOVX    @DPTR,A
//  461   }
//  462 }
??bdb_RegisterTCLinkKeyExchangeProcessCB_0:
        LJMP    ??Subroutine35_0 & 0xFFFF
          CFI EndBlock cfiBlock9
//  463 
//  464 
//  465 
//  466  /*********************************************************************
//  467  * @fn          bdb_setTCRequireKeyExchange
//  468  *
//  469  * @brief       Set the bdb_setTCRequireKeyExchange attribute
//  470  *
//  471  * @param       isKeyExchangeRequired - True if TC will remove devices that do 
//  472  *              not perform key exchange after bdbTrustCenterNodeJoinTimeout, 
//  473  *              False to not remove devices.
//  474  *
//  475  * @return      none
//  476  */

        RSEG BANKED_CODE:CODE:NOROOT(0)
//  477 void bdb_setTCRequireKeyExchange(bool isKeyExchangeRequired)
bdb_setTCRequireKeyExchange:
          CFI Block cfiBlock10 Using cfiCommon0
          CFI Function bdb_setTCRequireKeyExchange
        CODE
//  478 {
        PUSH    DPL
          CFI DPL0 Frame(CFA_SP, 4)
          CFI CFA_SP SP+-4
        PUSH    DPH
          CFI DPH0 Frame(CFA_SP, 5)
          CFI CFA_SP SP+-5
        ; Saved register size: 2
        ; Auto size: 0
//  479   bdbAttributes.bdbTrustCenterRequireKeyExchange = isKeyExchangeRequired;
        MOV     A,R1
        MOV     DPTR,#bdbAttributes + 17
        LJMP    ??Subroutine34_0 & 0xFFFF
//  480 }
          CFI EndBlock cfiBlock10
//  481 
//  482 
//  483 
//  484  /*********************************************************************
//  485  * @fn          bdb_TCAddJoiningDevice
//  486  *
//  487  * @brief       Add a joining device to the list of devices that must request a 
//  488  *              key before bdbTrustCenterNodeJoinTimeout.
//  489  *
//  490  * @param       parentAddr - Address of the parent device
//  491  * @param       JoiningExtAddr - IEEE address of the joining device
//  492  *
//  493  * @return      ZStatus_t - ZFailure No memory to allocate the device in the list
//  494  *                          ZInvalidParameter
//  495  */

        RSEG BANKED_CODE:CODE:NOROOT(0)
//  496 ZStatus_t bdb_TCAddJoiningDevice(uint16 parentAddr, uint8* JoiningExtAddr)
bdb_TCAddJoiningDevice:
          CFI Block cfiBlock11 Using cfiCommon0
          CFI Function bdb_TCAddJoiningDevice
        CODE
//  497 {
        FUNCALL bdb_TCAddJoiningDevice, osal_mem_alloc
        LOCFRAME ISTACK, 0, STACK
        LOCFRAME PSTACK, 0, STACK
        LOCFRAME XSTACK, 28, STACK
        LOCFRAME IOVERLAY, 0, STATIC
        LOCFRAME DOVERLAY, 0, STATIC
        ARGFRAME ISTACK, 0, STACK
        ARGFRAME PSTACK, 0, STACK
        ARGFRAME XSTACK, 28, STACK
        ARGFRAME IOVERLAY, 0, STATIC
        ARGFRAME DOVERLAY, 0, STATIC
        FUNCALL bdb_TCAddJoiningDevice, osal_start_reload_timer
        LOCFRAME ISTACK, 0, STACK
        LOCFRAME PSTACK, 0, STACK
        LOCFRAME XSTACK, 32, STACK
        LOCFRAME IOVERLAY, 0, STATIC
        LOCFRAME DOVERLAY, 0, STATIC
        ARGFRAME ISTACK, 0, STACK
        ARGFRAME PSTACK, 0, STACK
        ARGFRAME XSTACK, 32, STACK
        ARGFRAME IOVERLAY, 0, STATIC
        ARGFRAME DOVERLAY, 0, STATIC
        FUNCALL bdb_TCAddJoiningDevice, osal_memcmp
        LOCFRAME ISTACK, 0, STACK
        LOCFRAME PSTACK, 0, STACK
        LOCFRAME XSTACK, 31, STACK
        LOCFRAME IOVERLAY, 0, STATIC
        LOCFRAME DOVERLAY, 0, STATIC
        ARGFRAME ISTACK, 0, STACK
        ARGFRAME PSTACK, 0, STACK
        ARGFRAME XSTACK, 31, STACK
        ARGFRAME IOVERLAY, 0, STATIC
        ARGFRAME DOVERLAY, 0, STATIC
        FUNCALL bdb_TCAddJoiningDevice, osal_memcmp
        LOCFRAME ISTACK, 0, STACK
        LOCFRAME PSTACK, 0, STACK
        LOCFRAME XSTACK, 31, STACK
        LOCFRAME IOVERLAY, 0, STATIC
        LOCFRAME DOVERLAY, 0, STATIC
        ARGFRAME ISTACK, 0, STACK
        ARGFRAME PSTACK, 0, STACK
        ARGFRAME XSTACK, 31, STACK
        ARGFRAME IOVERLAY, 0, STATIC
        ARGFRAME DOVERLAY, 0, STATIC
        FUNCALL bdb_TCAddJoiningDevice, osal_mem_alloc
        LOCFRAME ISTACK, 0, STACK
        LOCFRAME PSTACK, 0, STACK
        LOCFRAME XSTACK, 28, STACK
        LOCFRAME IOVERLAY, 0, STATIC
        LOCFRAME DOVERLAY, 0, STATIC
        ARGFRAME ISTACK, 0, STACK
        ARGFRAME PSTACK, 0, STACK
        ARGFRAME XSTACK, 28, STACK
        ARGFRAME IOVERLAY, 0, STATIC
        ARGFRAME DOVERLAY, 0, STATIC
        FUNCALL bdb_TCAddJoiningDevice, osal_memcpy
        LOCFRAME ISTACK, 0, STACK
        LOCFRAME PSTACK, 0, STACK
        LOCFRAME XSTACK, 31, STACK
        LOCFRAME IOVERLAY, 0, STATIC
        LOCFRAME DOVERLAY, 0, STATIC
        ARGFRAME ISTACK, 0, STACK
        ARGFRAME PSTACK, 0, STACK
        ARGFRAME XSTACK, 31, STACK
        ARGFRAME IOVERLAY, 0, STATIC
        ARGFRAME DOVERLAY, 0, STATIC
        FUNCALL bdb_TCAddJoiningDevice, bdb_SendMsg
        LOCFRAME ISTACK, 0, STACK
        LOCFRAME PSTACK, 0, STACK
        LOCFRAME XSTACK, 30, STACK
        LOCFRAME IOVERLAY, 0, STATIC
        LOCFRAME DOVERLAY, 0, STATIC
        ARGFRAME ISTACK, 0, STACK
        ARGFRAME PSTACK, 0, STACK
        ARGFRAME XSTACK, 30, STACK
        ARGFRAME IOVERLAY, 0, STATIC
        ARGFRAME DOVERLAY, 0, STATIC
        FUNCALL bdb_TCAddJoiningDevice, osal_memcpy
        LOCFRAME ISTACK, 0, STACK
        LOCFRAME PSTACK, 0, STACK
        LOCFRAME XSTACK, 31, STACK
        LOCFRAME IOVERLAY, 0, STATIC
        LOCFRAME DOVERLAY, 0, STATIC
        ARGFRAME ISTACK, 0, STACK
        ARGFRAME PSTACK, 0, STACK
        ARGFRAME XSTACK, 31, STACK
        ARGFRAME IOVERLAY, 0, STATIC
        ARGFRAME DOVERLAY, 0, STATIC
        REQUIRE ?V0
        REQUIRE ?V1
        REQUIRE ?V2
        REQUIRE ?V4
        REQUIRE ?V5
        REQUIRE ?V6
        REQUIRE ?V7
        REQUIRE ?V8
        REQUIRE ?V9
        REQUIRE ?V10
        MOV     A,#-0x13
        LCALL   ?BANKED_ENTER_XDATA
          CFI DPH0 load(1, XDATA, add(CFA_XSP16, literal(-1)))
          CFI DPL0 load(1, XDATA, add(CFA_XSP16, literal(-2)))
          CFI ?BRET_EXT load(1, XDATA, add(CFA_XSP16, literal(-3)))
          CFI ?RET_HIGH load(1, XDATA, add(CFA_XSP16, literal(-4)))
          CFI ?RET_LOW load(1, XDATA, add(CFA_XSP16, literal(-5)))
          CFI R7 load(1, XDATA, add(CFA_XSP16, literal(-6)))
          CFI V10 load(1, XDATA, add(CFA_XSP16, literal(-7)))
          CFI V9 load(1, XDATA, add(CFA_XSP16, literal(-8)))
          CFI V8 load(1, XDATA, add(CFA_XSP16, literal(-9)))
          CFI V7 load(1, XDATA, add(CFA_XSP16, literal(-10)))
          CFI V6 load(1, XDATA, add(CFA_XSP16, literal(-11)))
          CFI V5 load(1, XDATA, add(CFA_XSP16, literal(-12)))
          CFI V4 load(1, XDATA, add(CFA_XSP16, literal(-13)))
          CFI V3 load(1, XDATA, add(CFA_XSP16, literal(-14)))
          CFI V2 load(1, XDATA, add(CFA_XSP16, literal(-15)))
          CFI V1 load(1, XDATA, add(CFA_XSP16, literal(-16)))
          CFI V0 load(1, XDATA, add(CFA_XSP16, literal(-17)))
          CFI VB load(1, XDATA, add(CFA_XSP16, literal(-18)))
          CFI R6 load(1, XDATA, add(CFA_XSP16, literal(-19)))
          CFI CFA_SP SP+0
          CFI CFA_XSP16 add(XSP16, 19)
        ; Saved register size: 19
        ; Auto size: 9
        MOV     A,#-0x9
        LCALL   ?ALLOC_XSTACK8
          CFI CFA_XSP16 add(XSP16, 28)
        MOV     ?V6,R2
        MOV     ?V7,R3
//  498   bdb_joiningDeviceList_t* tempJoiningDescNode;
//  499   
//  500   if((parentAddr == INVALID_NODE_ADDR) || (JoiningExtAddr == NULL))
        MOV     A,#-0x2
        XRL     A,?V6
        JNZ     ??bdb_TCAddJoiningDevice_0
        MOV     A,#-0x1
        XRL     A,?V7
??bdb_TCAddJoiningDevice_0:
        JZ      ??bdb_TCAddJoiningDevice_1
        MOV     A,R4
        ORL     A,R5
        JNZ     ??bdb_TCAddJoiningDevice_2
//  501   {
//  502     return ZInvalidParameter;
??bdb_TCAddJoiningDevice_1:
        MOV     R1,#0x2
        LJMP    ??bdb_TCAddJoiningDevice_3 & 0xFFFF
//  503   }
//  504   
//  505   //If the list was empty and element was allocated, then start the timer
//  506   if(bdb_joiningDeviceList == NULL)
??bdb_TCAddJoiningDevice_2:
        MOV     ?V0,R4
        MOV     ?V1,R5
        MOV     ?V2,#0x0
        MOV     DPTR,#bdb_joiningDeviceList
        LCALL   ??Subroutine41_0 & 0xFFFF
??CrossCallReturnLabel_53:
        JNZ     ??bdb_TCAddJoiningDevice_4
//  507   {
//  508     bdb_joiningDeviceList = osal_mem_alloc(sizeof(bdb_joiningDeviceList_t));
        ; Setup parameters for call to function osal_mem_alloc
        MOV     R2,#0xd
        MOV     R3,#0x0
        LCALL   `??osal_mem_alloc::?relay`; Banked call to: osal_mem_alloc
        MOV     DPTR,#bdb_joiningDeviceList
        MOV     A,R2
        MOVX    @DPTR,A
        INC     DPTR
        MOV     A,R3
        MOVX    @DPTR,A
//  509     if(bdb_joiningDeviceList == NULL)
        MOV     DPTR,#bdb_joiningDeviceList
        LCALL   ??Subroutine41_0 & 0xFFFF
??CrossCallReturnLabel_54:
        JNZ     $+5
        LJMP    ??bdb_TCAddJoiningDevice_5 & 0xFFFF
//  510     {
//  511       return ZFailure;
//  512     }
//  513    
//  514     osal_start_reload_timer(bdb_TaskID,BDB_TC_JOIN_TIMEOUT,1000);
        ; Setup parameters for call to function osal_start_reload_timer
        MOV     DPTR,#__Constant_3e8
        LCALL   ?PUSH_XSTACK8_X_FOUR
          CFI CFA_XSP16 add(XSP16, 32)
        MOV     R2,#0x0
        MOV     R3,#0x8
        MOV     DPTR,#bdb_TaskID
        MOVX    A,@DPTR
        MOV     R1,A
        LCALL   `??osal_start_reload_timer::?relay`; Banked call to: osal_start_reload_timer
        MOV     A,#0x4
        LCALL   ?DEALLOC_XSTACK8
          CFI CFA_XSP16 add(XSP16, 28)
//  515     tempJoiningDescNode = bdb_joiningDeviceList;
        MOV     DPTR,#bdb_joiningDeviceList
        MOVX    A,@DPTR
        MOV     R6,A
        INC     DPTR
        MOVX    A,@DPTR
        LJMP    ??bdb_TCAddJoiningDevice_6 & 0xFFFF
//  516   }
//  517   //if the list was not empty then add the entry at the end of the list
//  518   else
//  519   {
//  520     tempJoiningDescNode = bdb_joiningDeviceList;
??bdb_TCAddJoiningDevice_4:
        LCALL   ?Subroutine28 & 0xFFFF
//  521     
//  522     //Validate that this is not already in the list... somehow
//  523     if(osal_memcmp(JoiningExtAddr,tempJoiningDescNode->bdbJoiningNodeEui64,Z_EXTADDR_LEN))
??CrossCallReturnLabel_80:
        ; Setup parameters for call to function osal_memcmp
        MOV     DPL,R6
        MOV     DPH,R7
        INC     DPTR
        INC     DPTR
        MOV     R1,DPL
        MOV     R2,DPH
        MOV     ?V8,R1
        MOV     ?V9,R2
        MOV     ?V10,#0x0
        MOV     R0,#?V8
        LCALL   ?PUSH_XSTACK_I_THREE
          CFI CFA_XSP16 add(XSP16, 31)
        MOV     R4,#0x8
        MOV     R5,#0x0
        MOV     R1,?V0
        MOV     R2,?V1
        MOV     R3,?V2
        LCALL   `??osal_memcmp::?relay`; Banked call to: osal_memcmp
        MOV     A,#0x3
        LCALL   ?DEALLOC_XSTACK8
          CFI CFA_XSP16 add(XSP16, 28)
        MOV     A,R1
        JNZ     ??bdb_TCAddJoiningDevice_7
//  524     {
//  525       //The device added is already in the list, refresh its time and do nothing else
//  526       tempJoiningDescNode->NodeJoinTimeout = bdbAttributes.bdbTrustCenterNodeJoinTimeout;
//  527       return ZSuccess;
//  528     }
//  529     
//  530     while(tempJoiningDescNode->nextDev != NULL)
??bdb_TCAddJoiningDevice_8:
        MOV     A,R6
        ADD     A,#0xb
        MOV     R6,A
        JNC     ??bdb_TCAddJoiningDevice_9
        INC     R7
??bdb_TCAddJoiningDevice_9:
        LCALL   ??Subroutine40_0 & 0xFFFF
??CrossCallReturnLabel_66:
        JZ      ??bdb_TCAddJoiningDevice_10
//  531     {
//  532       tempJoiningDescNode = tempJoiningDescNode->nextDev;
        MOV     A,R0
        MOV     R6,A
        MOV     A,R1
        MOV     R7,A
//  533       
//  534       //Validate that this is not already in the list... somehow
//  535       if(osal_memcmp(JoiningExtAddr,tempJoiningDescNode->bdbJoiningNodeEui64,Z_EXTADDR_LEN))
        ; Setup parameters for call to function osal_memcmp
        MOV     DPL,R6
        MOV     DPH,R7
        INC     DPTR
        INC     DPTR
        MOV     R1,DPL
        MOV     R2,DPH
        MOV     ?V8,R1
        MOV     ?V9,R2
        MOV     R0,#?V8
        LCALL   ?PUSH_XSTACK_I_THREE
          CFI CFA_XSP16 add(XSP16, 31)
        MOV     R4,#0x8
        MOV     R5,#0x0
        MOV     R1,?V0
        MOV     R2,?V1
        MOV     R3,?V2
        LCALL   `??osal_memcmp::?relay`; Banked call to: osal_memcmp
        MOV     A,#0x3
        LCALL   ?DEALLOC_XSTACK8
          CFI CFA_XSP16 add(XSP16, 28)
        MOV     A,R1
        JZ      ??bdb_TCAddJoiningDevice_8
//  536       {
//  537         //The device added is already in the list, refresh its time and do nothing else
//  538         tempJoiningDescNode->NodeJoinTimeout = bdbAttributes.bdbTrustCenterNodeJoinTimeout;
??bdb_TCAddJoiningDevice_7:
        LCALL   ?Subroutine18 & 0xFFFF
//  539         return ZSuccess;
??CrossCallReturnLabel_16:
        LJMP    ??bdb_TCAddJoiningDevice_11 & 0xFFFF
//  540       }
//  541     }
//  542     
//  543     tempJoiningDescNode->nextDev = osal_mem_alloc(sizeof(bdb_joiningDeviceList_t));
??bdb_TCAddJoiningDevice_10:
        ; Setup parameters for call to function osal_mem_alloc
        MOV     R2,#0xd
        MOV     R3,#0x0
        LCALL   `??osal_mem_alloc::?relay`; Banked call to: osal_mem_alloc
        MOV     ?V4,R2
        MOV     ?V5,R3
        MOV     R0,?V4
        MOV     R1,?V5
        LCALL   ??Subroutine43_0 & 0xFFFF
//  544     if(tempJoiningDescNode->nextDev == NULL)
??CrossCallReturnLabel_77:
        JNZ     ??bdb_TCAddJoiningDevice_12
//  545     {
//  546       return ZFailure;
??bdb_TCAddJoiningDevice_5:
        MOV     R1,#0x1
        LJMP    ??bdb_TCAddJoiningDevice_3 & 0xFFFF
//  547     }
//  548     
//  549     tempJoiningDescNode = tempJoiningDescNode->nextDev;
??bdb_TCAddJoiningDevice_12:
        MOV     A,R0
        MOV     R6,A
        MOV     A,R1
??bdb_TCAddJoiningDevice_6:
        MOV     R7,A
//  550   }
//  551   
//  552   if(pfnTCLinkKeyExchangeProcessCB)
        MOV     A,R6
        ADD     A,#0x2
        MOV     ?V4,A
        CLR     A
        ADDC    A,R7
        MOV     ?V5,A
        MOV     DPTR,#pfnTCLinkKeyExchangeProcessCB
        LCALL   ??Subroutine41_0 & 0xFFFF
??CrossCallReturnLabel_55:
        JZ      ??bdb_TCAddJoiningDevice_13
//  553   {
//  554     bdb_TCLinkKeyExchProcess_t bdb_TCLinkKeyExchProcess;
//  555     osal_memcpy(bdb_TCLinkKeyExchProcess.extAddr,tempJoiningDescNode->bdbJoiningNodeEui64, Z_EXTADDR_LEN);
        ; Setup parameters for call to function osal_memcpy
        MOV     ?V8,?V4
        MOV     ?V9,?V5
        MOV     ?V10,#0x0
        MOV     R0,#?V8
        LCALL   ?PUSH_XSTACK_I_THREE
          CFI CFA_XSP16 add(XSP16, 31)
        MOV     R4,#0x8
        MOV     R5,#0x0
        MOV     A,#0x4
        LCALL   ?XSTACK_DISP0_8
        MOV     R2,DPL
        MOV     R3,DPH
        LCALL   `??osal_memcpy::?relay`; Banked call to: osal_memcpy
        MOV     A,#0x3
        LCALL   ?DEALLOC_XSTACK8
          CFI CFA_XSP16 add(XSP16, 28)
//  556     bdb_TCLinkKeyExchProcess.status = BDB_TC_LK_EXCH_PROCESS_JOINING;
        MOV     DPL,?XSP + 0
        MOV     DPH,?XSP + 1
        CLR     A
        MOVX    @DPTR,A
//  557     
//  558     bdb_SendMsg(bdb_TaskID, BDB_TC_LINK_KEY_EXCHANGE_PROCESS, BDB_MSG_EVENT_SUCCESS,sizeof(bdb_TCLinkKeyExchProcess_t),(uint8*)&bdb_TCLinkKeyExchProcess);
        ; Setup parameters for call to function bdb_SendMsg
        MOV     R0,?XSP + 0
        MOV     R1,?XSP + 1
        MOV     ?V8,R0
        MOV     ?V9,R1
        MOV     R0,#?V8
        LCALL   ?PUSH_XSTACK_I_TWO
          CFI CFA_XSP16 add(XSP16, 30)
        MOV     R4,#0x9
        MOV     R3,#0x0
        MOV     R2,#0x9
        MOV     DPTR,#bdb_TaskID
        MOVX    A,@DPTR
        MOV     R1,A
        LCALL   `??bdb_SendMsg::?relay`; Banked call to: bdb_SendMsg
        MOV     A,#0x2
        LCALL   ?DEALLOC_XSTACK8
          CFI CFA_XSP16 add(XSP16, 28)
//  559   }
//  560   
//  561   tempJoiningDescNode->nextDev = NULL;
??bdb_TCAddJoiningDevice_13:
        LCALL   ?Subroutine24 & 0xFFFF
??CrossCallReturnLabel_26:
        CLR     A
        MOVX    @DPTR,A
        INC     DPTR
        MOVX    @DPTR,A
//  562   tempJoiningDescNode->NodeJoinTimeout = bdbAttributes.bdbTrustCenterNodeJoinTimeout;
        LCALL   ?Subroutine18 & 0xFFFF
//  563   tempJoiningDescNode->parentAddr = parentAddr;
??CrossCallReturnLabel_17:
        MOV     DPL,R6
        MOV     DPH,R7
        MOV     A,?V6
        MOVX    @DPTR,A
        INC     DPTR
        MOV     A,?V7
        MOVX    @DPTR,A
//  564   osal_memcpy(tempJoiningDescNode->bdbJoiningNodeEui64, JoiningExtAddr, Z_EXTADDR_LEN);
        ; Setup parameters for call to function osal_memcpy
        MOV     R0,#?V0
        LCALL   ?PUSH_XSTACK_I_THREE
          CFI CFA_XSP16 add(XSP16, 31)
        MOV     R4,#0x8
        MOV     R5,#0x0
        MOV     R2,?V4
        MOV     R3,?V5
        LCALL   `??osal_memcpy::?relay`; Banked call to: osal_memcpy
        MOV     A,#0x3
        LCALL   ?DEALLOC_XSTACK8
          CFI CFA_XSP16 add(XSP16, 28)
//  565   
//  566   return ZSuccess;
??bdb_TCAddJoiningDevice_11:
        MOV     R1,#0x0
??bdb_TCAddJoiningDevice_3:
          CFI EndBlock cfiBlock11
        REQUIRE ?Subroutine4
        ; // Fall through to label ?Subroutine4
//  567 }

        RSEG BANKED_CODE:CODE:NOROOT(0)
?Subroutine4:
          CFI Block cfiBlock12 Using cfiCommon0
          CFI NoFunction
          CFI CFA_SP SP+0
          CFI CFA_XSP16 add(XSP16, 28)
          CFI VB load(1, XDATA, add(CFA_XSP16, literal(-18)))
          CFI DPL0 load(1, XDATA, add(CFA_XSP16, literal(-2)))
          CFI DPH0 load(1, XDATA, add(CFA_XSP16, literal(-1)))
          CFI R6 load(1, XDATA, add(CFA_XSP16, literal(-19)))
          CFI R7 load(1, XDATA, add(CFA_XSP16, literal(-6)))
          CFI V0 load(1, XDATA, add(CFA_XSP16, literal(-17)))
          CFI V1 load(1, XDATA, add(CFA_XSP16, literal(-16)))
          CFI V2 load(1, XDATA, add(CFA_XSP16, literal(-15)))
          CFI V3 load(1, XDATA, add(CFA_XSP16, literal(-14)))
          CFI V4 load(1, XDATA, add(CFA_XSP16, literal(-13)))
          CFI V5 load(1, XDATA, add(CFA_XSP16, literal(-12)))
          CFI V6 load(1, XDATA, add(CFA_XSP16, literal(-11)))
          CFI V7 load(1, XDATA, add(CFA_XSP16, literal(-10)))
          CFI V8 load(1, XDATA, add(CFA_XSP16, literal(-9)))
          CFI V9 load(1, XDATA, add(CFA_XSP16, literal(-8)))
          CFI V10 load(1, XDATA, add(CFA_XSP16, literal(-7)))
          CFI ?BRET_EXT load(1, XDATA, add(CFA_XSP16, literal(-3)))
          CFI ?RET_HIGH load(1, XDATA, add(CFA_XSP16, literal(-4)))
          CFI ?RET_LOW load(1, XDATA, add(CFA_XSP16, literal(-5)))
        MOV     A,#0x9
        LCALL   ?DEALLOC_XSTACK8
          CFI CFA_XSP16 add(XSP16, 19)
        MOV     R7,#0xb
        LJMP    ?BANKED_LEAVE_XDATA
          CFI EndBlock cfiBlock12

        RSEG BANKED_CODE:CODE:NOROOT(0)
?Subroutine18:
          CFI Block cfiCond13 Using cfiCommon0
          CFI Function bdb_TCAddJoiningDevice
          CFI Conditional ??CrossCallReturnLabel_16
          CFI R6 load(1, XDATA, add(CFA_XSP16, literal(-19)))
          CFI VB load(1, XDATA, add(CFA_XSP16, literal(-18)))
          CFI V0 load(1, XDATA, add(CFA_XSP16, literal(-17)))
          CFI V1 load(1, XDATA, add(CFA_XSP16, literal(-16)))
          CFI V2 load(1, XDATA, add(CFA_XSP16, literal(-15)))
          CFI V3 load(1, XDATA, add(CFA_XSP16, literal(-14)))
          CFI V4 load(1, XDATA, add(CFA_XSP16, literal(-13)))
          CFI V5 load(1, XDATA, add(CFA_XSP16, literal(-12)))
          CFI V6 load(1, XDATA, add(CFA_XSP16, literal(-11)))
          CFI V7 load(1, XDATA, add(CFA_XSP16, literal(-10)))
          CFI V8 load(1, XDATA, add(CFA_XSP16, literal(-9)))
          CFI V9 load(1, XDATA, add(CFA_XSP16, literal(-8)))
          CFI V10 load(1, XDATA, add(CFA_XSP16, literal(-7)))
          CFI R7 load(1, XDATA, add(CFA_XSP16, literal(-6)))
          CFI ?RET_LOW load(1, XDATA, add(CFA_XSP16, literal(-5)))
          CFI ?RET_HIGH load(1, XDATA, add(CFA_XSP16, literal(-4)))
          CFI ?BRET_EXT load(1, XDATA, add(CFA_XSP16, literal(-3)))
          CFI DPL0 load(1, XDATA, add(CFA_XSP16, literal(-2)))
          CFI DPH0 load(1, XDATA, add(CFA_XSP16, literal(-1)))
          CFI CFA_SP SP+-2
          CFI CFA_XSP16 add(XSP16, 28)
          CFI Block cfiCond14 Using cfiCommon0
          CFI (cfiCond14) Function bdb_TCAddJoiningDevice
          CFI (cfiCond14) Conditional ??CrossCallReturnLabel_17
          CFI (cfiCond14) R6 load(1, XDATA, add(CFA_XSP16, literal(-19)))
          CFI (cfiCond14) VB load(1, XDATA, add(CFA_XSP16, literal(-18)))
          CFI (cfiCond14) V0 load(1, XDATA, add(CFA_XSP16, literal(-17)))
          CFI (cfiCond14) V1 load(1, XDATA, add(CFA_XSP16, literal(-16)))
          CFI (cfiCond14) V2 load(1, XDATA, add(CFA_XSP16, literal(-15)))
          CFI (cfiCond14) V3 load(1, XDATA, add(CFA_XSP16, literal(-14)))
          CFI (cfiCond14) V4 load(1, XDATA, add(CFA_XSP16, literal(-13)))
          CFI (cfiCond14) V5 load(1, XDATA, add(CFA_XSP16, literal(-12)))
          CFI (cfiCond14) V6 load(1, XDATA, add(CFA_XSP16, literal(-11)))
          CFI (cfiCond14) V7 load(1, XDATA, add(CFA_XSP16, literal(-10)))
          CFI (cfiCond14) V8 load(1, XDATA, add(CFA_XSP16, literal(-9)))
          CFI (cfiCond14) V9 load(1, XDATA, add(CFA_XSP16, literal(-8)))
          CFI (cfiCond14) V10 load(1, XDATA, add(CFA_XSP16, literal(-7)))
          CFI (cfiCond14) R7 load(1, XDATA, add(CFA_XSP16, literal(-6)))
          CFI (cfiCond14) ?RET_LOW load(1, XDATA, add(CFA_XSP16, literal(-5)))
          CFI (cfiCond14) ?RET_HIGH load(1, XDATA, add(CFA_XSP16, literal(-4)))
          CFI (cfiCond14) ?BRET_EXT load(1, XDATA, add(CFA_XSP16, literal(-3)))
          CFI (cfiCond14) DPL0 load(1, XDATA, add(CFA_XSP16, literal(-2)))
          CFI (cfiCond14) DPH0 load(1, XDATA, add(CFA_XSP16, literal(-1)))
          CFI (cfiCond14) CFA_SP SP+-2
          CFI (cfiCond14) CFA_XSP16 add(XSP16, 28)
          CFI Block cfiPicker15 Using cfiCommon1
          CFI (cfiPicker15) NoFunction
          CFI (cfiPicker15) Picker
        MOV     DPTR,#bdbAttributes + 16
        MOVX    A,@DPTR
        MOV     DPL,R6
        MOV     DPH,R7
        INC     DPTR
        INC     DPTR
        INC     DPTR
        INC     DPTR
        INC     DPTR
        INC     DPTR
        INC     DPTR
        INC     DPTR
        INC     DPTR
        INC     DPTR
        MOVX    @DPTR,A
        RET
          CFI EndBlock cfiCond13
          CFI EndBlock cfiCond14
          CFI EndBlock cfiPicker15
//  568 
//  569 /****************************************************************************
//  570  * @fn          bdb_TCProcessJoiningList
//  571  *
//  572  * @brief       Process the timer to handle the joining devices if the TC link 
//  573  *              key is mandatory for all devices
//  574  *
//  575  * @param       none
//  576  *
//  577  * @return      none
//  578  */

        RSEG BANKED_CODE:CODE:NOROOT(0)
//  579 void bdb_TCProcessJoiningList(void)
bdb_TCProcessJoiningList:
          CFI Block cfiBlock16 Using cfiCommon0
          CFI Function bdb_TCProcessJoiningList
        CODE
//  580 {
        FUNCALL bdb_TCProcessJoiningList, osal_memcpy
        LOCFRAME ISTACK, 0, STACK
        LOCFRAME PSTACK, 0, STACK
        LOCFRAME XSTACK, 61, STACK
        LOCFRAME IOVERLAY, 0, STATIC
        LOCFRAME DOVERLAY, 0, STATIC
        ARGFRAME ISTACK, 0, STACK
        ARGFRAME PSTACK, 0, STACK
        ARGFRAME XSTACK, 61, STACK
        ARGFRAME IOVERLAY, 0, STATIC
        ARGFRAME DOVERLAY, 0, STATIC
        FUNCALL bdb_TCProcessJoiningList, AddrMgrEntryLookupExt
        LOCFRAME ISTACK, 0, STACK
        LOCFRAME PSTACK, 0, STACK
        LOCFRAME XSTACK, 58, STACK
        LOCFRAME IOVERLAY, 0, STATIC
        LOCFRAME DOVERLAY, 0, STATIC
        ARGFRAME ISTACK, 0, STACK
        ARGFRAME PSTACK, 0, STACK
        ARGFRAME XSTACK, 58, STACK
        ARGFRAME IOVERLAY, 0, STATIC
        ARGFRAME DOVERLAY, 0, STATIC
        FUNCALL bdb_TCProcessJoiningList, ZDSecMgrAPSRemove
        LOCFRAME ISTACK, 0, STACK
        LOCFRAME PSTACK, 0, STACK
        LOCFRAME XSTACK, 60, STACK
        LOCFRAME IOVERLAY, 0, STATIC
        LOCFRAME DOVERLAY, 0, STATIC
        ARGFRAME ISTACK, 0, STACK
        ARGFRAME PSTACK, 0, STACK
        ARGFRAME XSTACK, 60, STACK
        ARGFRAME IOVERLAY, 0, STATIC
        ARGFRAME DOVERLAY, 0, STATIC
        FUNCALL bdb_TCProcessJoiningList, ZDSecMgrAddrClear
        LOCFRAME ISTACK, 0, STACK
        LOCFRAME PSTACK, 0, STACK
        LOCFRAME XSTACK, 58, STACK
        LOCFRAME IOVERLAY, 0, STATIC
        LOCFRAME DOVERLAY, 0, STATIC
        ARGFRAME ISTACK, 0, STACK
        ARGFRAME PSTACK, 0, STACK
        ARGFRAME XSTACK, 58, STACK
        ARGFRAME IOVERLAY, 0, STATIC
        ARGFRAME DOVERLAY, 0, STATIC
        FUNCALL bdb_TCProcessJoiningList, APSME_SearchTCLinkKeyEntry
        LOCFRAME ISTACK, 0, STACK
        LOCFRAME PSTACK, 0, STACK
        LOCFRAME XSTACK, 60, STACK
        LOCFRAME IOVERLAY, 0, STATIC
        LOCFRAME DOVERLAY, 0, STATIC
        ARGFRAME ISTACK, 0, STACK
        ARGFRAME PSTACK, 0, STACK
        ARGFRAME XSTACK, 60, STACK
        ARGFRAME IOVERLAY, 0, STATIC
        ARGFRAME DOVERLAY, 0, STATIC
        FUNCALL bdb_TCProcessJoiningList, osal_memset
        LOCFRAME ISTACK, 0, STACK
        LOCFRAME PSTACK, 0, STACK
        LOCFRAME XSTACK, 58, STACK
        LOCFRAME IOVERLAY, 0, STATIC
        LOCFRAME DOVERLAY, 0, STATIC
        ARGFRAME ISTACK, 0, STACK
        ARGFRAME PSTACK, 0, STACK
        ARGFRAME XSTACK, 58, STACK
        ARGFRAME IOVERLAY, 0, STATIC
        ARGFRAME DOVERLAY, 0, STATIC
        FUNCALL bdb_TCProcessJoiningList, osal_nv_write
        LOCFRAME ISTACK, 0, STACK
        LOCFRAME PSTACK, 0, STACK
        LOCFRAME XSTACK, 62, STACK
        LOCFRAME IOVERLAY, 0, STATIC
        LOCFRAME DOVERLAY, 0, STATIC
        ARGFRAME ISTACK, 0, STACK
        ARGFRAME PSTACK, 0, STACK
        ARGFRAME XSTACK, 62, STACK
        ARGFRAME IOVERLAY, 0, STATIC
        ARGFRAME DOVERLAY, 0, STATIC
        FUNCALL bdb_TCProcessJoiningList, osal_memcpy
        LOCFRAME ISTACK, 0, STACK
        LOCFRAME PSTACK, 0, STACK
        LOCFRAME XSTACK, 61, STACK
        LOCFRAME IOVERLAY, 0, STATIC
        LOCFRAME DOVERLAY, 0, STATIC
        ARGFRAME ISTACK, 0, STACK
        ARGFRAME PSTACK, 0, STACK
        ARGFRAME XSTACK, 61, STACK
        ARGFRAME IOVERLAY, 0, STATIC
        ARGFRAME DOVERLAY, 0, STATIC
        FUNCALL bdb_TCProcessJoiningList, bdb_SendMsg
        LOCFRAME ISTACK, 0, STACK
        LOCFRAME PSTACK, 0, STACK
        LOCFRAME XSTACK, 60, STACK
        LOCFRAME IOVERLAY, 0, STATIC
        LOCFRAME DOVERLAY, 0, STATIC
        ARGFRAME ISTACK, 0, STACK
        ARGFRAME PSTACK, 0, STACK
        ARGFRAME XSTACK, 60, STACK
        ARGFRAME IOVERLAY, 0, STATIC
        ARGFRAME DOVERLAY, 0, STATIC
        FUNCALL bdb_TCProcessJoiningList, bdb_TCJoiningDeviceFree
        LOCFRAME ISTACK, 0, STACK
        LOCFRAME PSTACK, 0, STACK
        LOCFRAME XSTACK, 58, STACK
        LOCFRAME IOVERLAY, 0, STATIC
        LOCFRAME DOVERLAY, 0, STATIC
        ARGFRAME ISTACK, 0, STACK
        ARGFRAME PSTACK, 0, STACK
        ARGFRAME XSTACK, 58, STACK
        ARGFRAME IOVERLAY, 0, STATIC
        ARGFRAME DOVERLAY, 0, STATIC
        FUNCALL bdb_TCProcessJoiningList, osal_stop_timerEx
        LOCFRAME ISTACK, 0, STACK
        LOCFRAME PSTACK, 0, STACK
        LOCFRAME XSTACK, 58, STACK
        LOCFRAME IOVERLAY, 0, STATIC
        LOCFRAME DOVERLAY, 0, STATIC
        ARGFRAME ISTACK, 0, STACK
        ARGFRAME PSTACK, 0, STACK
        ARGFRAME XSTACK, 58, STACK
        ARGFRAME IOVERLAY, 0, STATIC
        ARGFRAME DOVERLAY, 0, STATIC
        REQUIRE ?V0
        REQUIRE ?V1
        REQUIRE ?V2
        REQUIRE ?V4
        REQUIRE ?V5
        REQUIRE ?V6
        REQUIRE ?V7
        MOV     A,#-0x10
        LCALL   ?BANKED_ENTER_XDATA
          CFI DPH0 load(1, XDATA, add(CFA_XSP16, literal(-1)))
          CFI DPL0 load(1, XDATA, add(CFA_XSP16, literal(-2)))
          CFI ?BRET_EXT load(1, XDATA, add(CFA_XSP16, literal(-3)))
          CFI ?RET_HIGH load(1, XDATA, add(CFA_XSP16, literal(-4)))
          CFI ?RET_LOW load(1, XDATA, add(CFA_XSP16, literal(-5)))
          CFI R7 load(1, XDATA, add(CFA_XSP16, literal(-6)))
          CFI V7 load(1, XDATA, add(CFA_XSP16, literal(-7)))
          CFI V6 load(1, XDATA, add(CFA_XSP16, literal(-8)))
          CFI V5 load(1, XDATA, add(CFA_XSP16, literal(-9)))
          CFI V4 load(1, XDATA, add(CFA_XSP16, literal(-10)))
          CFI V3 load(1, XDATA, add(CFA_XSP16, literal(-11)))
          CFI V2 load(1, XDATA, add(CFA_XSP16, literal(-12)))
          CFI V1 load(1, XDATA, add(CFA_XSP16, literal(-13)))
          CFI V0 load(1, XDATA, add(CFA_XSP16, literal(-14)))
          CFI VB load(1, XDATA, add(CFA_XSP16, literal(-15)))
          CFI R6 load(1, XDATA, add(CFA_XSP16, literal(-16)))
          CFI CFA_SP SP+0
          CFI CFA_XSP16 add(XSP16, 16)
        ; Saved register size: 16
        ; Auto size: 42
        MOV     A,#-0x2a
        LCALL   ?ALLOC_XSTACK8
          CFI CFA_XSP16 add(XSP16, 58)
//  581   bdb_joiningDeviceList_t* tempJoiningDescNode;
//  582   
//  583   if(bdb_joiningDeviceList)
        MOV     DPTR,#bdb_joiningDeviceList
        LCALL   ??Subroutine41_0 & 0xFFFF
??CrossCallReturnLabel_56:
        JNZ     $+5
        LJMP    ??bdb_TCProcessJoiningList_0 & 0xFFFF
//  584   {
//  585     tempJoiningDescNode = bdb_joiningDeviceList;
        MOV     DPTR,#bdb_joiningDeviceList
        MOVX    A,@DPTR
        MOV     ?V4,A
        INC     DPTR
        MOVX    A,@DPTR
        MOV     ?V5,A
//  586   
//  587     while(tempJoiningDescNode)
//  588     {
//  589       if(tempJoiningDescNode->NodeJoinTimeout)
??bdb_TCProcessJoiningList_1:
        MOV     A,?V4
        ADD     A,#0xa
        MOV     DPL,A
        CLR     A
        ADDC    A,?V5
        MOV     DPH,A
        MOVX    A,@DPTR
        JZ      ??bdb_TCProcessJoiningList_2
//  590       {
//  591         tempJoiningDescNode->NodeJoinTimeout--;
        DEC     A
        MOVX    @DPTR,A
//  592       }
//  593       
//  594       if(tempJoiningDescNode->NodeJoinTimeout == 0)
        JZ      $+5
        LJMP    ??bdb_TCProcessJoiningList_3 & 0xFFFF
//  595       {
//  596         //Check if the key exchange is required 
//  597         if(bdbAttributes.bdbTrustCenterRequireKeyExchange)
??bdb_TCProcessJoiningList_2:
        MOV     A,?V4
        ADD     A,#0x2
        MOV     R6,A
        CLR     A
        ADDC    A,?V5
        MOV     R7,A
        MOV     ?V0,R6
        MOV     ?V1,R7
        MOV     ?V2,#0x0
        MOV     DPTR,#bdbAttributes + 17
        MOVX    A,@DPTR
        JZ      ??bdb_TCProcessJoiningList_4
//  598         {
//  599             AddrMgrEntry_t entry;
//  600             
//  601             entry.user = ADDRMGR_USER_DEFAULT;
        MOV     A,#0xa
        LCALL   ?XSTACK_DISP0_8
        CLR     A
        MOVX    @DPTR,A
//  602             osal_memcpy(entry.extAddr,tempJoiningDescNode->bdbJoiningNodeEui64, Z_EXTADDR_LEN);
        ; Setup parameters for call to function osal_memcpy
        MOV     R0,#?V0
        LCALL   ?PUSH_XSTACK_I_THREE
          CFI CFA_XSP16 add(XSP16, 61)
        MOV     R4,#0x8
        MOV     R5,#0x0
        MOV     A,#0x10
        LCALL   ?XSTACK_DISP0_8
        MOV     R2,DPL
        MOV     R3,DPH
        LCALL   `??osal_memcpy::?relay`; Banked call to: osal_memcpy
        MOV     A,#0x3
        LCALL   ?DEALLOC_XSTACK8
          CFI CFA_XSP16 add(XSP16, 58)
//  603             
//  604             if(AddrMgrEntryLookupExt(&entry))
        ; Setup parameters for call to function AddrMgrEntryLookupExt
        MOV     A,#0xa
        LCALL   ?XSTACK_DISP101_8
        LCALL   `??AddrMgrEntryLookupExt::?relay`; Banked call to: AddrMgrEntryLookupExt
        MOV     A,R1
        JZ      ??bdb_TCProcessJoiningList_4
//  605             {
//  606               ZDSecMgrAPSRemove(entry.nwkAddr,entry.extAddr,tempJoiningDescNode->parentAddr);
        ; Setup parameters for call to function ZDSecMgrAPSRemove
        MOV     DPL,?V4
        MOV     DPH,?V5
        LCALL   ?PUSH_XSTACK8_X_TWO
          CFI CFA_XSP16 add(XSP16, 60)
        MOV     A,#0xf
        LCALL   ?XSTACK_DISP0_8
        MOV     R4,DPL
        MOV     R5,DPH
        MOV     A,#0xd
        LCALL   ?XSTACK_DISP0_8
        LCALL   ??Subroutine45_0 & 0xFFFF
//  607             }
//  608         }
??CrossCallReturnLabel_82:
        LCALL   `??ZDSecMgrAPSRemove::?relay`; Banked call to: ZDSecMgrAPSRemove
        MOV     A,#0x2
        LCALL   ?DEALLOC_XSTACK8
          CFI CFA_XSP16 add(XSP16, 58)
//  609         
//  610         //Expired device either is legacy device not using the TCLK entry or got 
//  611         //removed from the network because of timeout, eitherway it is not using
//  612         //TCLK entry neither the Security user in the address manager, so free the entry
//  613         //in both tables.
//  614         
//  615         uint16 keyNvIndex;
//  616         APSME_TCLKDevEntry_t TCLKDevEntry;
//  617         uint8 found, index;
//  618         
//  619         //Remove the entry in address manager
//  620         ZDSecMgrAddrClear(tempJoiningDescNode->bdbJoiningNodeEui64);
??bdb_TCProcessJoiningList_4:
        ; Setup parameters for call to function ZDSecMgrAddrClear
        MOV     A,R6
        MOV     R2,A
        MOV     A,R7
        MOV     R3,A
        LCALL   `??ZDSecMgrAddrClear::?relay`; Banked call to: ZDSecMgrAddrClear
//  621         
//  622         //search for the entry in the TCLK table
//  623         keyNvIndex = APSME_SearchTCLinkKeyEntry(tempJoiningDescNode->bdbJoiningNodeEui64,&found, NULL);
        ; Setup parameters for call to function APSME_SearchTCLinkKeyEntry
        CLR     A
        MOV     ?V6,A
        MOV     ?V7,A
        MOV     R0,#?V6
        LCALL   ?PUSH_XSTACK_I_TWO
          CFI CFA_XSP16 add(XSP16, 60)
        MOV     A,#0x2
        LCALL   ?XSTACK_DISP102_8
        MOV     A,R6
        MOV     R2,A
        MOV     A,R7
        MOV     R3,A
        LCALL   `??APSME_SearchTCLinkKeyEntry::?relay`; Banked call to: APSME_SearchTCLinkKeyEntry
        MOV     A,#0x2
        LCALL   ?DEALLOC_XSTACK8
          CFI CFA_XSP16 add(XSP16, 58)
        MOV     ?V6,R2
        MOV     ?V7,R3
        MOV     R6,?V6
        MOV     R7,?V7
//  624         
//  625         //If found, erase it.
//  626         if(found == TRUE)
        MOV     DPL,?XSP + 0
        MOV     DPH,?XSP + 1
        MOVX    A,@DPTR
        XRL     A,#0x1
        JNZ     ??bdb_TCProcessJoiningList_5
//  627         {
//  628           osal_memset(&TCLKDevEntry,0,sizeof(APSME_TCLKDevEntry_t));
        ; Setup parameters for call to function osal_memset
        MOV     R4,#0x13
        MOV     R5,#0x0
        MOV     R1,#0x0
        MOV     A,#0x17
        LCALL   ?XSTACK_DISP101_8
        LCALL   `??osal_memset::?relay`; Banked call to: osal_memset
//  629           TCLKDevEntry.keyAttributes = ZG_DEFAULT_KEY;
        MOV     A,#0x27
        LCALL   ?XSTACK_DISP0_8
        MOV     A,#-0x1
        MOVX    @DPTR,A
//  630           
//  631           //Increase the shift by one. Validate the maximum shift of the seed which is 15
//  632           index = keyNvIndex - ZCD_NV_TCLK_TABLE_START;
        MOV     A,R6
        ADD     A,#-0x11
        MOV     R0,A
//  633           
//  634           TCLinkKeyFrmCntr[index].rxFrmCntr = 0;
        MOV     B,#0x9
        MUL     AB
        MOV     R0,A
        MOV     R1,B
        MOV     A,#TCLinkKeyFrmCntr & 0xff
        ADD     A,R0
        MOV     ?V6,A
        MOV     A,#(TCLinkKeyFrmCntr >> 8) & 0xff
        ADDC    A,R1
        MOV     ?V7,A
        MOV     DPL,?V6
        MOV     DPH,A
        INC     DPTR
        INC     DPTR
        INC     DPTR
        INC     DPTR
        LCALL   ?Subroutine8 & 0xFFFF
//  635           TCLinkKeyFrmCntr[index].txFrmCntr = 0;
??CrossCallReturnLabel_43:
        MOV     DPL,?V6
        MOV     DPH,?V7
        LCALL   ??Subroutine33_0 & 0xFFFF
//  636           
//  637           //Update the entry
//  638           osal_nv_write(keyNvIndex,0,sizeof(APSME_TCLKDevEntry_t), &TCLKDevEntry );
??CrossCallReturnLabel_41:
        ; Setup parameters for call to function osal_nv_write
        MOV     A,#0x17
        LCALL   ?XSTACK_DISP100_8
        MOV     ?V6,R0
        MOV     ?V7,R1
        MOV     R0,#?V6
        LCALL   ?PUSH_XSTACK_I_TWO
          CFI CFA_XSP16 add(XSP16, 60)
        MOV     ?V6,#0x13
        MOV     ?V7,#0x0
        MOV     R0,#?V6
        LCALL   ?PUSH_XSTACK_I_TWO
          CFI CFA_XSP16 add(XSP16, 62)
        MOV     R4,#0x0
        MOV     R5,#0x0
        MOV     A,R6
        MOV     R2,A
        MOV     A,R7
        MOV     R3,A
        LCALL   `??osal_nv_write::?relay`; Banked call to: osal_nv_write
        MOV     A,#0x4
        LCALL   ?DEALLOC_XSTACK8
          CFI CFA_XSP16 add(XSP16, 58)
//  639         }
//  640         
//  641         if(pfnTCLinkKeyExchangeProcessCB)
??bdb_TCProcessJoiningList_5:
        MOV     DPTR,#pfnTCLinkKeyExchangeProcessCB
        LCALL   ??Subroutine41_0 & 0xFFFF
??CrossCallReturnLabel_57:
        JZ      ??bdb_TCProcessJoiningList_6
//  642         {
//  643           bdb_TCLinkKeyExchProcess_t bdb_TCLinkKeyExchProcess;
//  644           osal_memcpy(bdb_TCLinkKeyExchProcess.extAddr,tempJoiningDescNode->bdbJoiningNodeEui64, Z_EXTADDR_LEN);
        ; Setup parameters for call to function osal_memcpy
        MOV     R0,#?V0
        LCALL   ?PUSH_XSTACK_I_THREE
          CFI CFA_XSP16 add(XSP16, 61)
        MOV     R4,#0x8
        MOV     R5,#0x0
        MOV     A,#0x5
        LCALL   ?XSTACK_DISP0_8
        MOV     R2,DPL
        MOV     R3,DPH
        LCALL   `??osal_memcpy::?relay`; Banked call to: osal_memcpy
        MOV     A,#0x3
        LCALL   ?DEALLOC_XSTACK8
          CFI CFA_XSP16 add(XSP16, 58)
//  645           bdb_TCLinkKeyExchProcess.status = BDB_TC_LK_EXCH_PROCESS_EXCH_FAIL;
        MOV     A,#0x1
        LCALL   ?XSTACK_DISP0_8
        MOV     A,#0x2
        MOVX    @DPTR,A
//  646           
//  647           bdb_SendMsg(bdb_TaskID, BDB_TC_LINK_KEY_EXCHANGE_PROCESS, BDB_MSG_EVENT_SUCCESS,sizeof(bdb_TCLinkKeyExchProcess_t),(uint8*)&bdb_TCLinkKeyExchProcess);
        ; Setup parameters for call to function bdb_SendMsg
        DEC     A
        LCALL   ?XSTACK_DISP100_8
        MOV     ?V0,R0
        MOV     ?V1,R1
        MOV     R0,#?V0
        LCALL   ?PUSH_XSTACK_I_TWO
          CFI CFA_XSP16 add(XSP16, 60)
        MOV     R4,#0x9
        MOV     R3,#0x0
        MOV     R2,#0x9
        MOV     DPTR,#bdb_TaskID
        MOVX    A,@DPTR
        MOV     R1,A
        LCALL   `??bdb_SendMsg::?relay`; Banked call to: bdb_SendMsg
        MOV     A,#0x2
        LCALL   ?DEALLOC_XSTACK8
          CFI CFA_XSP16 add(XSP16, 58)
//  648         }
//  649        
//  650         //Free the device from the list
//  651         bdb_TCJoiningDeviceFree(tempJoiningDescNode);
??bdb_TCProcessJoiningList_6:
        ; Setup parameters for call to function bdb_TCJoiningDeviceFree
        MOV     R2,?V4
        MOV     R3,?V5
        LCALL   `??bdb_TCJoiningDeviceFree::?relay`; Banked call to: bdb_TCJoiningDeviceFree
//  652       }
//  653       tempJoiningDescNode = tempJoiningDescNode->nextDev;
??bdb_TCProcessJoiningList_3:
        MOV     A,?V4
        ADD     A,#0xb
        MOV     DPL,A
        CLR     A
        ADDC    A,?V5
        MOV     DPH,A
        MOVX    A,@DPTR
        MOV     ?V4,A
        INC     DPTR
        MOVX    A,@DPTR
        MOV     ?V5,A
//  654     }
        MOV     A,?V4
        ORL     A,?V5
        JZ      $+5
        LJMP    ??bdb_TCProcessJoiningList_1 & 0xFFFF
//  655   }
//  656 
//  657   //we are done with the list
//  658   if(bdb_joiningDeviceList == NULL)
        MOV     DPTR,#bdb_joiningDeviceList
        LCALL   ??Subroutine41_0 & 0xFFFF
??CrossCallReturnLabel_58:
        JNZ     ??bdb_TCProcessJoiningList_7
//  659   {
//  660     osal_stop_timerEx(bdb_TaskID,BDB_TC_JOIN_TIMEOUT);
??bdb_TCProcessJoiningList_0:
        ; Setup parameters for call to function osal_stop_timerEx
        MOV     R2,#0x0
        MOV     R3,#0x8
        MOV     DPTR,#bdb_TaskID
        MOVX    A,@DPTR
        MOV     R1,A
        LCALL   `??osal_stop_timerEx::?relay`; Banked call to: osal_stop_timerEx
//  661   }
//  662 }
??bdb_TCProcessJoiningList_7:
        MOV     A,#0x2a
          CFI EndBlock cfiBlock16
        REQUIRE ?Subroutine5
        ; // Fall through to label ?Subroutine5

        RSEG BANKED_CODE:CODE:NOROOT(0)
?Subroutine5:
          CFI Block cfiBlock17 Using cfiCommon0
          CFI NoFunction
          CFI CFA_SP SP+0
          CFI CFA_XSP16 add(XSP16, 58)
          CFI VB load(1, XDATA, add(CFA_XSP16, literal(-15)))
          CFI DPL0 load(1, XDATA, add(CFA_XSP16, literal(-2)))
          CFI DPH0 load(1, XDATA, add(CFA_XSP16, literal(-1)))
          CFI R6 load(1, XDATA, add(CFA_XSP16, literal(-16)))
          CFI R7 load(1, XDATA, add(CFA_XSP16, literal(-6)))
          CFI V0 load(1, XDATA, add(CFA_XSP16, literal(-14)))
          CFI V1 load(1, XDATA, add(CFA_XSP16, literal(-13)))
          CFI V2 load(1, XDATA, add(CFA_XSP16, literal(-12)))
          CFI V3 load(1, XDATA, add(CFA_XSP16, literal(-11)))
          CFI V4 load(1, XDATA, add(CFA_XSP16, literal(-10)))
          CFI V5 load(1, XDATA, add(CFA_XSP16, literal(-9)))
          CFI V6 load(1, XDATA, add(CFA_XSP16, literal(-8)))
          CFI V7 load(1, XDATA, add(CFA_XSP16, literal(-7)))
          CFI ?BRET_EXT load(1, XDATA, add(CFA_XSP16, literal(-3)))
          CFI ?RET_HIGH load(1, XDATA, add(CFA_XSP16, literal(-4)))
          CFI ?RET_LOW load(1, XDATA, add(CFA_XSP16, literal(-5)))
          CFI Invalid
        LCALL   ?DEALLOC_XSTACK8
          CFI CFA_XSP16 add(XSP16, 16)
          CFI Valid
        MOV     R7,#0x8
        LJMP    ?BANKED_LEAVE_XDATA
          CFI EndBlock cfiBlock17
//  663 
//  664 
//  665 
//  666 /****************************************************************************
//  667  * @fn          bdb_TCjoiningDeviceComplete
//  668  *
//  669  * @brief       This function frees a joining device from the list that has 
//  670  *              finished TC link key exchange process
//  671  *
//  672  * @param       JoiningExtAddr - Extended address of the device
//  673  *
//  674  * @return      none
//  675  */

        RSEG BANKED_CODE:CODE:NOROOT(0)
//  676 void bdb_TCjoiningDeviceComplete(uint8* JoiningExtAddr)
bdb_TCjoiningDeviceComplete:
          CFI Block cfiBlock18 Using cfiCommon0
          CFI Function bdb_TCjoiningDeviceComplete
        CODE
//  677 {
        FUNCALL bdb_TCjoiningDeviceComplete, osal_memcmp
        LOCFRAME ISTACK, 0, STACK
        LOCFRAME PSTACK, 0, STACK
        LOCFRAME XSTACK, 31, STACK
        LOCFRAME IOVERLAY, 0, STATIC
        LOCFRAME DOVERLAY, 0, STATIC
        ARGFRAME ISTACK, 0, STACK
        ARGFRAME PSTACK, 0, STACK
        ARGFRAME XSTACK, 31, STACK
        ARGFRAME IOVERLAY, 0, STATIC
        ARGFRAME DOVERLAY, 0, STATIC
        FUNCALL bdb_TCjoiningDeviceComplete, osal_memcpy
        LOCFRAME ISTACK, 0, STACK
        LOCFRAME PSTACK, 0, STACK
        LOCFRAME XSTACK, 31, STACK
        LOCFRAME IOVERLAY, 0, STATIC
        LOCFRAME DOVERLAY, 0, STATIC
        ARGFRAME ISTACK, 0, STACK
        ARGFRAME PSTACK, 0, STACK
        ARGFRAME XSTACK, 31, STACK
        ARGFRAME IOVERLAY, 0, STATIC
        ARGFRAME DOVERLAY, 0, STATIC
        FUNCALL bdb_TCjoiningDeviceComplete, bdb_SendMsg
        LOCFRAME ISTACK, 0, STACK
        LOCFRAME PSTACK, 0, STACK
        LOCFRAME XSTACK, 30, STACK
        LOCFRAME IOVERLAY, 0, STATIC
        LOCFRAME DOVERLAY, 0, STATIC
        ARGFRAME ISTACK, 0, STACK
        ARGFRAME PSTACK, 0, STACK
        ARGFRAME XSTACK, 30, STACK
        ARGFRAME IOVERLAY, 0, STATIC
        ARGFRAME DOVERLAY, 0, STATIC
        FUNCALL bdb_TCjoiningDeviceComplete, bdb_TCJoiningDeviceFree
        LOCFRAME ISTACK, 0, STACK
        LOCFRAME PSTACK, 0, STACK
        LOCFRAME XSTACK, 28, STACK
        LOCFRAME IOVERLAY, 0, STATIC
        LOCFRAME DOVERLAY, 0, STATIC
        ARGFRAME ISTACK, 0, STACK
        ARGFRAME PSTACK, 0, STACK
        ARGFRAME XSTACK, 28, STACK
        ARGFRAME IOVERLAY, 0, STATIC
        ARGFRAME DOVERLAY, 0, STATIC
        FUNCALL bdb_TCjoiningDeviceComplete, osal_stop_timerEx
        LOCFRAME ISTACK, 0, STACK
        LOCFRAME PSTACK, 0, STACK
        LOCFRAME XSTACK, 28, STACK
        LOCFRAME IOVERLAY, 0, STATIC
        LOCFRAME DOVERLAY, 0, STATIC
        ARGFRAME ISTACK, 0, STACK
        ARGFRAME PSTACK, 0, STACK
        ARGFRAME XSTACK, 28, STACK
        ARGFRAME IOVERLAY, 0, STATIC
        ARGFRAME DOVERLAY, 0, STATIC
        REQUIRE ?V0
        REQUIRE ?V1
        REQUIRE ?V4
        REQUIRE ?V5
        REQUIRE ?V6
        REQUIRE ?V8
        REQUIRE ?V9
        REQUIRE ?V10
        MOV     A,#-0x13
        LCALL   ?BANKED_ENTER_XDATA
          CFI DPH0 load(1, XDATA, add(CFA_XSP16, literal(-1)))
          CFI DPL0 load(1, XDATA, add(CFA_XSP16, literal(-2)))
          CFI ?BRET_EXT load(1, XDATA, add(CFA_XSP16, literal(-3)))
          CFI ?RET_HIGH load(1, XDATA, add(CFA_XSP16, literal(-4)))
          CFI ?RET_LOW load(1, XDATA, add(CFA_XSP16, literal(-5)))
          CFI R7 load(1, XDATA, add(CFA_XSP16, literal(-6)))
          CFI V10 load(1, XDATA, add(CFA_XSP16, literal(-7)))
          CFI V9 load(1, XDATA, add(CFA_XSP16, literal(-8)))
          CFI V8 load(1, XDATA, add(CFA_XSP16, literal(-9)))
          CFI V7 load(1, XDATA, add(CFA_XSP16, literal(-10)))
          CFI V6 load(1, XDATA, add(CFA_XSP16, literal(-11)))
          CFI V5 load(1, XDATA, add(CFA_XSP16, literal(-12)))
          CFI V4 load(1, XDATA, add(CFA_XSP16, literal(-13)))
          CFI V3 load(1, XDATA, add(CFA_XSP16, literal(-14)))
          CFI V2 load(1, XDATA, add(CFA_XSP16, literal(-15)))
          CFI V1 load(1, XDATA, add(CFA_XSP16, literal(-16)))
          CFI V0 load(1, XDATA, add(CFA_XSP16, literal(-17)))
          CFI VB load(1, XDATA, add(CFA_XSP16, literal(-18)))
          CFI R6 load(1, XDATA, add(CFA_XSP16, literal(-19)))
          CFI CFA_SP SP+0
          CFI CFA_XSP16 add(XSP16, 19)
        ; Saved register size: 19
        ; Auto size: 9
        MOV     A,#-0x9
        LCALL   ?ALLOC_XSTACK8
          CFI CFA_XSP16 add(XSP16, 28)
        MOV     ?V0,R2
        MOV     ?V1,R3
//  678   bdb_joiningDeviceList_t* tempJoiningDescNode;
//  679   
//  680   if((bdb_joiningDeviceList != NULL) && (JoiningExtAddr != NULL))
        MOV     DPTR,#bdb_joiningDeviceList
        LCALL   ??Subroutine41_0 & 0xFFFF
??CrossCallReturnLabel_59:
        JNZ     $+5
        LJMP    ??bdb_TCjoiningDeviceComplete_0 & 0xFFFF
        MOV     A,R2
        ORL     A,?V1
        JNZ     $+5
        LJMP    ??bdb_TCjoiningDeviceComplete_0 & 0xFFFF
//  681   {
//  682     tempJoiningDescNode = bdb_joiningDeviceList;
        LCALL   ?Subroutine28 & 0xFFFF
??CrossCallReturnLabel_81:
        MOV     DPL,R6
        MOV     DPH,R7
        INC     DPTR
        INC     DPTR
        MOV     R1,DPL
        MOV     R2,DPH
        MOV     ?V4,R1
        MOV     ?V5,R2
        MOV     ?V6,#0x0
        ; Setup parameters for call to function osal_memcmp
        MOV     ?V8,?V0
        MOV     ?V9,?V1
        MOV     ?V10,#0x0
        MOV     R0,#?V8
        LCALL   ?PUSH_XSTACK_I_THREE
          CFI CFA_XSP16 add(XSP16, 31)
        MOV     R4,#0x8
        MOV     R5,#0x0
        MOV     R3,?V6
//  683     
//  684     while(tempJoiningDescNode != NULL)
//  685     {
//  686       if(osal_memcmp(tempJoiningDescNode->bdbJoiningNodeEui64,JoiningExtAddr,Z_EXTADDR_LEN))
        LCALL   `??osal_memcmp::?relay`; Banked call to: osal_memcmp
        MOV     A,#0x3
        LCALL   ?DEALLOC_XSTACK8
          CFI CFA_XSP16 add(XSP16, 28)
        MOV     A,R1
        JZ      ??bdb_TCjoiningDeviceComplete_1
//  687       {
//  688         if(pfnTCLinkKeyExchangeProcessCB)
        MOV     DPTR,#pfnTCLinkKeyExchangeProcessCB
        LCALL   ??Subroutine41_0 & 0xFFFF
??CrossCallReturnLabel_60:
        JZ      ??bdb_TCjoiningDeviceComplete_2
//  689         {
//  690           bdb_TCLinkKeyExchProcess_t bdb_TCLinkKeyExchProcess;
//  691           osal_memcpy(bdb_TCLinkKeyExchProcess.extAddr,tempJoiningDescNode->bdbJoiningNodeEui64, Z_EXTADDR_LEN);
        ; Setup parameters for call to function osal_memcpy
        MOV     R0,#?V4
        LCALL   ?PUSH_XSTACK_I_THREE
          CFI CFA_XSP16 add(XSP16, 31)
        MOV     R4,#0x8
        MOV     R5,#0x0
        MOV     A,#0x4
        LCALL   ?XSTACK_DISP0_8
        MOV     R2,DPL
        MOV     R3,DPH
        LCALL   `??osal_memcpy::?relay`; Banked call to: osal_memcpy
        MOV     A,#0x3
        LCALL   ?DEALLOC_XSTACK8
          CFI CFA_XSP16 add(XSP16, 28)
//  692           bdb_TCLinkKeyExchProcess.status = BDB_TC_LK_EXCH_PROCESS_EXCH_SUCCESS;
        LCALL   ?Subroutine7 & 0xFFFF
//  693           
//  694           bdb_SendMsg(bdb_TaskID, BDB_TC_LINK_KEY_EXCHANGE_PROCESS, BDB_MSG_EVENT_SUCCESS,sizeof(bdb_TCLinkKeyExchProcess_t),(uint8*)&bdb_TCLinkKeyExchProcess);
//  695         }        
??CrossCallReturnLabel_36:
        LCALL   ?PUSH_XSTACK_I_TWO
          CFI CFA_XSP16 add(XSP16, 30)
        MOV     R4,#0x9
        MOV     R3,#0x0
        MOV     R2,#0x9
        MOV     DPTR,#bdb_TaskID
        MOVX    A,@DPTR
        MOV     R1,A
        LCALL   `??bdb_SendMsg::?relay`; Banked call to: bdb_SendMsg
        MOV     A,#0x2
        LCALL   ?DEALLOC_XSTACK8
          CFI CFA_XSP16 add(XSP16, 28)
//  696         
//  697         bdb_TCJoiningDeviceFree(tempJoiningDescNode);
??bdb_TCjoiningDeviceComplete_2:
        ; Setup parameters for call to function bdb_TCJoiningDeviceFree
        MOV     A,R6
        MOV     R2,A
        MOV     A,R7
        MOV     R3,A
        LCALL   `??bdb_TCJoiningDeviceFree::?relay`; Banked call to: bdb_TCJoiningDeviceFree
//  698         break;
        SJMP    ??bdb_TCjoiningDeviceComplete_3
//  699       }
//  700       tempJoiningDescNode = tempJoiningDescNode->nextDev;
??bdb_TCjoiningDeviceComplete_1:
        LCALL   ?Subroutine24 & 0xFFFF
//  701     }
??CrossCallReturnLabel_27:
        LCALL   ??Subroutine44_0 & 0xFFFF
??CrossCallReturnLabel_78:
        MOV     A,R6
        ORL     A,R7
        JNZ     ??CrossCallReturnLabel_81
//  702    
//  703     if(bdb_joiningDeviceList == NULL)
??bdb_TCjoiningDeviceComplete_3:
        MOV     DPTR,#bdb_joiningDeviceList
        LCALL   ??Subroutine41_0 & 0xFFFF
??CrossCallReturnLabel_61:
        JNZ     ??bdb_TCjoiningDeviceComplete_0
//  704     {
//  705       osal_stop_timerEx(bdb_TaskID,BDB_TC_JOIN_TIMEOUT);
        ; Setup parameters for call to function osal_stop_timerEx
        MOV     R2,#0x0
        MOV     R3,#0x8
        MOV     DPTR,#bdb_TaskID
        MOVX    A,@DPTR
        MOV     R1,A
        LCALL   `??osal_stop_timerEx::?relay`; Banked call to: osal_stop_timerEx
//  706     }
//  707   }
//  708 }
??bdb_TCjoiningDeviceComplete_0:
        LJMP    ?Subroutine4 & 0xFFFF
          CFI EndBlock cfiBlock18

        RSEG BANKED_CODE:CODE:NOROOT(0)
?Subroutine24:
          CFI Block cfiCond19 Using cfiCommon0
          CFI Function bdb_TCAddJoiningDevice
          CFI Conditional ??CrossCallReturnLabel_26
          CFI R6 load(1, XDATA, add(CFA_XSP16, literal(-19)))
          CFI VB load(1, XDATA, add(CFA_XSP16, literal(-18)))
          CFI V0 load(1, XDATA, add(CFA_XSP16, literal(-17)))
          CFI V1 load(1, XDATA, add(CFA_XSP16, literal(-16)))
          CFI V2 load(1, XDATA, add(CFA_XSP16, literal(-15)))
          CFI V3 load(1, XDATA, add(CFA_XSP16, literal(-14)))
          CFI V4 load(1, XDATA, add(CFA_XSP16, literal(-13)))
          CFI V5 load(1, XDATA, add(CFA_XSP16, literal(-12)))
          CFI V6 load(1, XDATA, add(CFA_XSP16, literal(-11)))
          CFI V7 load(1, XDATA, add(CFA_XSP16, literal(-10)))
          CFI V8 load(1, XDATA, add(CFA_XSP16, literal(-9)))
          CFI V9 load(1, XDATA, add(CFA_XSP16, literal(-8)))
          CFI V10 load(1, XDATA, add(CFA_XSP16, literal(-7)))
          CFI R7 load(1, XDATA, add(CFA_XSP16, literal(-6)))
          CFI ?RET_LOW load(1, XDATA, add(CFA_XSP16, literal(-5)))
          CFI ?RET_HIGH load(1, XDATA, add(CFA_XSP16, literal(-4)))
          CFI ?BRET_EXT load(1, XDATA, add(CFA_XSP16, literal(-3)))
          CFI DPL0 load(1, XDATA, add(CFA_XSP16, literal(-2)))
          CFI DPH0 load(1, XDATA, add(CFA_XSP16, literal(-1)))
          CFI CFA_SP SP+-2
          CFI CFA_XSP16 add(XSP16, 28)
          CFI Block cfiCond20 Using cfiCommon0
          CFI (cfiCond20) Function bdb_TCjoiningDeviceComplete
          CFI (cfiCond20) Conditional ??CrossCallReturnLabel_27
          CFI (cfiCond20) R6 load(1, XDATA, add(CFA_XSP16, literal(-19)))
          CFI (cfiCond20) VB load(1, XDATA, add(CFA_XSP16, literal(-18)))
          CFI (cfiCond20) V0 load(1, XDATA, add(CFA_XSP16, literal(-17)))
          CFI (cfiCond20) V1 load(1, XDATA, add(CFA_XSP16, literal(-16)))
          CFI (cfiCond20) V2 load(1, XDATA, add(CFA_XSP16, literal(-15)))
          CFI (cfiCond20) V3 load(1, XDATA, add(CFA_XSP16, literal(-14)))
          CFI (cfiCond20) V4 load(1, XDATA, add(CFA_XSP16, literal(-13)))
          CFI (cfiCond20) V5 load(1, XDATA, add(CFA_XSP16, literal(-12)))
          CFI (cfiCond20) V6 load(1, XDATA, add(CFA_XSP16, literal(-11)))
          CFI (cfiCond20) V7 load(1, XDATA, add(CFA_XSP16, literal(-10)))
          CFI (cfiCond20) V8 load(1, XDATA, add(CFA_XSP16, literal(-9)))
          CFI (cfiCond20) V9 load(1, XDATA, add(CFA_XSP16, literal(-8)))
          CFI (cfiCond20) V10 load(1, XDATA, add(CFA_XSP16, literal(-7)))
          CFI (cfiCond20) R7 load(1, XDATA, add(CFA_XSP16, literal(-6)))
          CFI (cfiCond20) ?RET_LOW load(1, XDATA, add(CFA_XSP16, literal(-5)))
          CFI (cfiCond20) ?RET_HIGH load(1, XDATA, add(CFA_XSP16, literal(-4)))
          CFI (cfiCond20) ?BRET_EXT load(1, XDATA, add(CFA_XSP16, literal(-3)))
          CFI (cfiCond20) DPL0 load(1, XDATA, add(CFA_XSP16, literal(-2)))
          CFI (cfiCond20) DPH0 load(1, XDATA, add(CFA_XSP16, literal(-1)))
          CFI (cfiCond20) CFA_SP SP+-2
          CFI (cfiCond20) CFA_XSP16 add(XSP16, 28)
          CFI Block cfiPicker21 Using cfiCommon1
          CFI (cfiPicker21) NoFunction
          CFI (cfiPicker21) Picker
        MOV     A,R6
        ADD     A,#0xb
        MOV     DPL,A
        CLR     A
        ADDC    A,R7
        MOV     DPH,A
        RET
          CFI EndBlock cfiCond19
          CFI EndBlock cfiCond20
          CFI EndBlock cfiPicker21

        RSEG BANKED_CODE:CODE:NOROOT(0)
?Subroutine7:
          CFI Block cfiCond22 Using cfiCommon0
          CFI Function bdb_TCjoiningDeviceComplete
          CFI Conditional ??CrossCallReturnLabel_36
          CFI R6 load(1, XDATA, add(CFA_XSP16, literal(-19)))
          CFI VB load(1, XDATA, add(CFA_XSP16, literal(-18)))
          CFI V0 load(1, XDATA, add(CFA_XSP16, literal(-17)))
          CFI V1 load(1, XDATA, add(CFA_XSP16, literal(-16)))
          CFI V2 load(1, XDATA, add(CFA_XSP16, literal(-15)))
          CFI V3 load(1, XDATA, add(CFA_XSP16, literal(-14)))
          CFI V4 load(1, XDATA, add(CFA_XSP16, literal(-13)))
          CFI V5 load(1, XDATA, add(CFA_XSP16, literal(-12)))
          CFI V6 load(1, XDATA, add(CFA_XSP16, literal(-11)))
          CFI V7 load(1, XDATA, add(CFA_XSP16, literal(-10)))
          CFI V8 load(1, XDATA, add(CFA_XSP16, literal(-9)))
          CFI V9 load(1, XDATA, add(CFA_XSP16, literal(-8)))
          CFI V10 load(1, XDATA, add(CFA_XSP16, literal(-7)))
          CFI R7 load(1, XDATA, add(CFA_XSP16, literal(-6)))
          CFI ?RET_LOW load(1, XDATA, add(CFA_XSP16, literal(-5)))
          CFI ?RET_HIGH load(1, XDATA, add(CFA_XSP16, literal(-4)))
          CFI ?BRET_EXT load(1, XDATA, add(CFA_XSP16, literal(-3)))
          CFI DPL0 load(1, XDATA, add(CFA_XSP16, literal(-2)))
          CFI DPH0 load(1, XDATA, add(CFA_XSP16, literal(-1)))
          CFI CFA_SP SP+-2
          CFI CFA_XSP16 add(XSP16, 28)
          CFI Block cfiCond23 Using cfiCommon0
          CFI (cfiCond23) Function bdb_NotifyCommissioningModeStart
          CFI (cfiCond23) Conditional ??CrossCallReturnLabel_37
          CFI (cfiCond23) R6 load(1, XDATA, add(CFA_XSP16, literal(-10)))
          CFI (cfiCond23) VB load(1, XDATA, add(CFA_XSP16, literal(-9)))
          CFI (cfiCond23) V0 load(1, XDATA, add(CFA_XSP16, literal(-8)))
          CFI (cfiCond23) V1 load(1, XDATA, add(CFA_XSP16, literal(-7)))
          CFI (cfiCond23) R7 load(1, XDATA, add(CFA_XSP16, literal(-6)))
          CFI (cfiCond23) ?RET_LOW load(1, XDATA, add(CFA_XSP16, literal(-5)))
          CFI (cfiCond23) ?RET_HIGH load(1, XDATA, add(CFA_XSP16, literal(-4)))
          CFI (cfiCond23) ?BRET_EXT load(1, XDATA, add(CFA_XSP16, literal(-3)))
          CFI (cfiCond23) DPL0 load(1, XDATA, add(CFA_XSP16, literal(-2)))
          CFI (cfiCond23) DPH0 load(1, XDATA, add(CFA_XSP16, literal(-1)))
          CFI (cfiCond23) CFA_SP SP+-2
          CFI (cfiCond23) CFA_XSP16 add(XSP16, 13)
          CFI Block cfiPicker24 Using cfiCommon1
          CFI (cfiPicker24) NoFunction
          CFI (cfiPicker24) Picker
        MOV     DPL,?XSP + 0
        MOV     DPH,?XSP + 1
        MOV     A,#0x1
          CFI EndBlock cfiCond22
          CFI EndBlock cfiCond23
          CFI EndBlock cfiPicker24
        REQUIRE ??Subroutine32_0
        ; // Fall through to label ??Subroutine32_0

        RSEG BANKED_CODE:CODE:NOROOT(0)
??Subroutine32_0:
          CFI Block cfiCond25 Using cfiCommon0
          CFI Function bdb_reportCommissioningState
          CFI Conditional ??CrossCallReturnLabel_38
          CFI R6 load(1, XDATA, add(CFA_XSP16, literal(-10)))
          CFI VB load(1, XDATA, add(CFA_XSP16, literal(-9)))
          CFI V0 load(1, XDATA, add(CFA_XSP16, literal(-8)))
          CFI V1 load(1, XDATA, add(CFA_XSP16, literal(-7)))
          CFI R7 load(1, XDATA, add(CFA_XSP16, literal(-6)))
          CFI ?RET_LOW load(1, XDATA, add(CFA_XSP16, literal(-5)))
          CFI ?RET_HIGH load(1, XDATA, add(CFA_XSP16, literal(-4)))
          CFI ?BRET_EXT load(1, XDATA, add(CFA_XSP16, literal(-3)))
          CFI DPL0 load(1, XDATA, add(CFA_XSP16, literal(-2)))
          CFI DPH0 load(1, XDATA, add(CFA_XSP16, literal(-1)))
          CFI CFA_SP SP+-2
          CFI CFA_XSP16 add(XSP16, 14)
          CFI Block cfiCond26 Using cfiCommon0
          CFI (cfiCond26) Function bdb_startResumeCommissioningProcess
          CFI (cfiCond26) Conditional ??CrossCallReturnLabel_39
          CFI (cfiCond26) R6 load(1, XDATA, add(CFA_XSP16, literal(-10)))
          CFI (cfiCond26) VB load(1, XDATA, add(CFA_XSP16, literal(-9)))
          CFI (cfiCond26) V0 load(1, XDATA, add(CFA_XSP16, literal(-8)))
          CFI (cfiCond26) V1 load(1, XDATA, add(CFA_XSP16, literal(-7)))
          CFI (cfiCond26) R7 load(1, XDATA, add(CFA_XSP16, literal(-6)))
          CFI (cfiCond26) ?RET_LOW load(1, XDATA, add(CFA_XSP16, literal(-5)))
          CFI (cfiCond26) ?RET_HIGH load(1, XDATA, add(CFA_XSP16, literal(-4)))
          CFI (cfiCond26) ?BRET_EXT load(1, XDATA, add(CFA_XSP16, literal(-3)))
          CFI (cfiCond26) DPL0 load(1, XDATA, add(CFA_XSP16, literal(-2)))
          CFI (cfiCond26) DPH0 load(1, XDATA, add(CFA_XSP16, literal(-1)))
          CFI (cfiCond26) CFA_SP SP+-2
          CFI (cfiCond26) CFA_XSP16 add(XSP16, 21)
          CFI Block cfiCond27 Using cfiCommon0
          CFI (cfiCond27) Function bdb_startResumeCommissioningProcess
          CFI (cfiCond27) Conditional ??CrossCallReturnLabel_40
          CFI (cfiCond27) R6 load(1, XDATA, add(CFA_XSP16, literal(-10)))
          CFI (cfiCond27) VB load(1, XDATA, add(CFA_XSP16, literal(-9)))
          CFI (cfiCond27) V0 load(1, XDATA, add(CFA_XSP16, literal(-8)))
          CFI (cfiCond27) V1 load(1, XDATA, add(CFA_XSP16, literal(-7)))
          CFI (cfiCond27) R7 load(1, XDATA, add(CFA_XSP16, literal(-6)))
          CFI (cfiCond27) ?RET_LOW load(1, XDATA, add(CFA_XSP16, literal(-5)))
          CFI (cfiCond27) ?RET_HIGH load(1, XDATA, add(CFA_XSP16, literal(-4)))
          CFI (cfiCond27) ?BRET_EXT load(1, XDATA, add(CFA_XSP16, literal(-3)))
          CFI (cfiCond27) DPL0 load(1, XDATA, add(CFA_XSP16, literal(-2)))
          CFI (cfiCond27) DPH0 load(1, XDATA, add(CFA_XSP16, literal(-1)))
          CFI (cfiCond27) CFA_SP SP+-2
          CFI (cfiCond27) CFA_XSP16 add(XSP16, 21)
          CFI Block cfiCond28 Using cfiCommon0
          CFI (cfiCond28) Function bdb_TCjoiningDeviceComplete
          CFI (cfiCond28) Conditional ??CrossCallReturnLabel_36
          CFI (cfiCond28) R6 load(1, XDATA, add(CFA_XSP16, literal(-19)))
          CFI (cfiCond28) VB load(1, XDATA, add(CFA_XSP16, literal(-18)))
          CFI (cfiCond28) V0 load(1, XDATA, add(CFA_XSP16, literal(-17)))
          CFI (cfiCond28) V1 load(1, XDATA, add(CFA_XSP16, literal(-16)))
          CFI (cfiCond28) V2 load(1, XDATA, add(CFA_XSP16, literal(-15)))
          CFI (cfiCond28) V3 load(1, XDATA, add(CFA_XSP16, literal(-14)))
          CFI (cfiCond28) V4 load(1, XDATA, add(CFA_XSP16, literal(-13)))
          CFI (cfiCond28) V5 load(1, XDATA, add(CFA_XSP16, literal(-12)))
          CFI (cfiCond28) V6 load(1, XDATA, add(CFA_XSP16, literal(-11)))
          CFI (cfiCond28) V7 load(1, XDATA, add(CFA_XSP16, literal(-10)))
          CFI (cfiCond28) V8 load(1, XDATA, add(CFA_XSP16, literal(-9)))
          CFI (cfiCond28) V9 load(1, XDATA, add(CFA_XSP16, literal(-8)))
          CFI (cfiCond28) V10 load(1, XDATA, add(CFA_XSP16, literal(-7)))
          CFI (cfiCond28) R7 load(1, XDATA, add(CFA_XSP16, literal(-6)))
          CFI (cfiCond28) ?RET_LOW load(1, XDATA, add(CFA_XSP16, literal(-5)))
          CFI (cfiCond28) ?RET_HIGH load(1, XDATA, add(CFA_XSP16, literal(-4)))
          CFI (cfiCond28) ?BRET_EXT load(1, XDATA, add(CFA_XSP16, literal(-3)))
          CFI (cfiCond28) DPL0 load(1, XDATA, add(CFA_XSP16, literal(-2)))
          CFI (cfiCond28) DPH0 load(1, XDATA, add(CFA_XSP16, literal(-1)))
          CFI (cfiCond28) CFA_SP SP+-2
          CFI (cfiCond28) CFA_XSP16 add(XSP16, 28)
          CFI Block cfiCond29 Using cfiCommon0
          CFI (cfiCond29) Function bdb_NotifyCommissioningModeStart
          CFI (cfiCond29) Conditional ??CrossCallReturnLabel_37
          CFI (cfiCond29) R6 load(1, XDATA, add(CFA_XSP16, literal(-10)))
          CFI (cfiCond29) VB load(1, XDATA, add(CFA_XSP16, literal(-9)))
          CFI (cfiCond29) V0 load(1, XDATA, add(CFA_XSP16, literal(-8)))
          CFI (cfiCond29) V1 load(1, XDATA, add(CFA_XSP16, literal(-7)))
          CFI (cfiCond29) R7 load(1, XDATA, add(CFA_XSP16, literal(-6)))
          CFI (cfiCond29) ?RET_LOW load(1, XDATA, add(CFA_XSP16, literal(-5)))
          CFI (cfiCond29) ?RET_HIGH load(1, XDATA, add(CFA_XSP16, literal(-4)))
          CFI (cfiCond29) ?BRET_EXT load(1, XDATA, add(CFA_XSP16, literal(-3)))
          CFI (cfiCond29) DPL0 load(1, XDATA, add(CFA_XSP16, literal(-2)))
          CFI (cfiCond29) DPH0 load(1, XDATA, add(CFA_XSP16, literal(-1)))
          CFI (cfiCond29) CFA_SP SP+-2
          CFI (cfiCond29) CFA_XSP16 add(XSP16, 13)
          CFI Block cfiPicker30 Using cfiCommon1
          CFI (cfiPicker30) NoFunction
          CFI (cfiPicker30) Picker
        MOVX    @DPTR,A
        ; Setup parameters for call to function bdb_SendMsg
        ; Setup parameters for call to function bdb_SendMsg
        ; Setup parameters for call to function bdb_SendMsg
        ; Setup parameters for call to function bdb_SendMsg
        ; Setup parameters for call to function bdb_SendMsg
        MOV     R0,?XSP + 0
        MOV     R1,?XSP + 1
        MOV     ?V0,R0
        MOV     ?V1,R1
        MOV     R0,#?V0
        RET
          CFI EndBlock cfiCond25
          CFI EndBlock cfiCond26
          CFI EndBlock cfiCond27
          CFI EndBlock cfiCond28
          CFI EndBlock cfiCond29
          CFI EndBlock cfiPicker30
//  709 
//  710 
//  711 
//  712 /****************************************************************************
//  713  * @fn          bdb_TCJoiningDeviceFree
//  714  *
//  715  * @brief       This function frees a joining device from the list.
//  716  *
//  717  * @param       ZSuccess - If the device was found and erased
//  718  * @param       ZInvalidParameter - Not found
//  719  *
//  720  * @return      none
//  721  */

        RSEG BANKED_CODE:CODE:NOROOT(0)
//  722 ZStatus_t bdb_TCJoiningDeviceFree(bdb_joiningDeviceList_t* JoiningDeviceToRemove)
bdb_TCJoiningDeviceFree:
          CFI Block cfiBlock31 Using cfiCommon0
          CFI Function bdb_TCJoiningDeviceFree
        CODE
//  723 {
        FUNCALL bdb_TCJoiningDeviceFree, osal_memcmp
        LOCFRAME ISTACK, 0, STACK
        LOCFRAME PSTACK, 0, STACK
        LOCFRAME XSTACK, 18, STACK
        LOCFRAME IOVERLAY, 0, STATIC
        LOCFRAME DOVERLAY, 0, STATIC
        ARGFRAME ISTACK, 0, STACK
        ARGFRAME PSTACK, 0, STACK
        ARGFRAME XSTACK, 18, STACK
        ARGFRAME IOVERLAY, 0, STATIC
        ARGFRAME DOVERLAY, 0, STATIC
        FUNCALL bdb_TCJoiningDeviceFree, osal_mem_free
        LOCFRAME ISTACK, 0, STACK
        LOCFRAME PSTACK, 0, STACK
        LOCFRAME XSTACK, 15, STACK
        LOCFRAME IOVERLAY, 0, STATIC
        LOCFRAME DOVERLAY, 0, STATIC
        ARGFRAME ISTACK, 0, STACK
        ARGFRAME PSTACK, 0, STACK
        ARGFRAME XSTACK, 15, STACK
        ARGFRAME IOVERLAY, 0, STATIC
        ARGFRAME DOVERLAY, 0, STATIC
        FUNCALL bdb_TCJoiningDeviceFree, osal_memcmp
        LOCFRAME ISTACK, 0, STACK
        LOCFRAME PSTACK, 0, STACK
        LOCFRAME XSTACK, 18, STACK
        LOCFRAME IOVERLAY, 0, STATIC
        LOCFRAME DOVERLAY, 0, STATIC
        ARGFRAME ISTACK, 0, STACK
        ARGFRAME PSTACK, 0, STACK
        ARGFRAME XSTACK, 18, STACK
        ARGFRAME IOVERLAY, 0, STATIC
        ARGFRAME DOVERLAY, 0, STATIC
        FUNCALL bdb_TCJoiningDeviceFree, osal_mem_free
        LOCFRAME ISTACK, 0, STACK
        LOCFRAME PSTACK, 0, STACK
        LOCFRAME XSTACK, 15, STACK
        LOCFRAME IOVERLAY, 0, STATIC
        LOCFRAME DOVERLAY, 0, STATIC
        ARGFRAME ISTACK, 0, STACK
        ARGFRAME PSTACK, 0, STACK
        ARGFRAME XSTACK, 15, STACK
        ARGFRAME IOVERLAY, 0, STATIC
        ARGFRAME DOVERLAY, 0, STATIC
        REQUIRE ?V0
        REQUIRE ?V1
        REQUIRE ?V4
        REQUIRE ?V5
        REQUIRE ?V6
        MOV     A,#-0xf
        LCALL   ?BANKED_ENTER_XDATA
          CFI DPH0 load(1, XDATA, add(CFA_XSP16, literal(-1)))
          CFI DPL0 load(1, XDATA, add(CFA_XSP16, literal(-2)))
          CFI ?BRET_EXT load(1, XDATA, add(CFA_XSP16, literal(-3)))
          CFI ?RET_HIGH load(1, XDATA, add(CFA_XSP16, literal(-4)))
          CFI ?RET_LOW load(1, XDATA, add(CFA_XSP16, literal(-5)))
          CFI R7 load(1, XDATA, add(CFA_XSP16, literal(-6)))
          CFI V6 load(1, XDATA, add(CFA_XSP16, literal(-7)))
          CFI V5 load(1, XDATA, add(CFA_XSP16, literal(-8)))
          CFI V4 load(1, XDATA, add(CFA_XSP16, literal(-9)))
          CFI V3 load(1, XDATA, add(CFA_XSP16, literal(-10)))
          CFI V2 load(1, XDATA, add(CFA_XSP16, literal(-11)))
          CFI V1 load(1, XDATA, add(CFA_XSP16, literal(-12)))
          CFI V0 load(1, XDATA, add(CFA_XSP16, literal(-13)))
          CFI VB load(1, XDATA, add(CFA_XSP16, literal(-14)))
          CFI R6 load(1, XDATA, add(CFA_XSP16, literal(-15)))
          CFI CFA_SP SP+0
          CFI CFA_XSP16 add(XSP16, 15)
        ; Saved register size: 15
        ; Auto size: 0
        MOV     ?V0,R2
        MOV     ?V1,R3
        MOV     DPL,R2
        MOV     DPH,R3
        INC     DPTR
        INC     DPTR
        MOV     R1,DPL
        MOV     R2,DPH
        MOV     ?V4,R1
        MOV     ?V5,R2
        MOV     ?V6,#0x0
        ; Setup parameters for call to function osal_memcmp
        MOV     R0,#?V4
        LCALL   ?PUSH_XSTACK_I_THREE
          CFI CFA_XSP16 add(XSP16, 18)
        MOV     R4,#0x8
        MOV     R5,#0x0
        MOV     DPTR,#bdb_joiningDeviceList
        LCALL   ?Subroutine17 & 0xFFFF
//  724   bdb_joiningDeviceList_t* descCurrent;
//  725   bdb_joiningDeviceList_t* descPrev;
//  726   
//  727   //validate empty list?
//  728   
//  729   //Is it the first?
//  730   if(osal_memcmp(bdb_joiningDeviceList->bdbJoiningNodeEui64, JoiningDeviceToRemove->bdbJoiningNodeEui64, Z_EXTADDR_LEN))
??CrossCallReturnLabel_14:
        LCALL   `??osal_memcmp::?relay`; Banked call to: osal_memcmp
        MOV     A,#0x3
        LCALL   ?DEALLOC_XSTACK8
          CFI CFA_XSP16 add(XSP16, 15)
        MOV     A,R1
        MOV     DPTR,#bdb_joiningDeviceList
        JZ      ??bdb_TCJoiningDeviceFree_0
//  731   {
//  732     descCurrent = bdb_joiningDeviceList;
        LCALL   ??Subroutine45_0 & 0xFFFF
//  733     bdb_joiningDeviceList = bdb_joiningDeviceList->nextDev;
??CrossCallReturnLabel_83:
        MOV     DPTR,#bdb_joiningDeviceList
        LCALL   ?Subroutine15 & 0xFFFF
??CrossCallReturnLabel_10:
        MOV     DPTR,#bdb_joiningDeviceList
        MOV     A,R0
        MOVX    @DPTR,A
        INC     DPTR
        MOV     A,R1
        MOVX    @DPTR,A
//  734     osal_mem_free( descCurrent );
        ; Setup parameters for call to function osal_mem_free
        SJMP    ??bdb_TCJoiningDeviceFree_1
//  735     return ZSuccess;
//  736   }
//  737   
//  738   descPrev = NULL;
//  739   descCurrent = bdb_joiningDeviceList;
//  740   
//  741   while(descCurrent != NULL)
//  742   {
//  743     if(osal_memcmp(descCurrent->nextDev->bdbJoiningNodeEui64, JoiningDeviceToRemove->bdbJoiningNodeEui64, Z_EXTADDR_LEN))
//  744     {
//  745       descPrev = descCurrent;
//  746       break;
//  747     }
//  748     descCurrent = descCurrent->nextDev;
??bdb_TCJoiningDeviceFree_0:
        LCALL   ?Subroutine14 & 0xFFFF
??CrossCallReturnLabel_5:
        JZ      ??bdb_TCJoiningDeviceFree_2
        MOV     A,R2
        ADD     A,#0xb
        MOV     R6,A
        CLR     A
        ADDC    A,R3
        MOV     R7,A
        ; Setup parameters for call to function osal_memcmp
        MOV     R0,#?V4
        LCALL   ?PUSH_XSTACK_I_THREE
          CFI CFA_XSP16 add(XSP16, 18)
        MOV     R4,#0x8
        MOV     R5,#0x0
        MOV     DPL,R6
        MOV     DPH,R7
        LCALL   ?Subroutine17 & 0xFFFF
??CrossCallReturnLabel_15:
        LCALL   `??osal_memcmp::?relay`; Banked call to: osal_memcmp
        MOV     A,#0x3
        LCALL   ?DEALLOC_XSTACK8
          CFI CFA_XSP16 add(XSP16, 15)
        MOV     A,R1
        MOV     DPL,R6
        MOV     DPH,R7
        JZ      ??bdb_TCJoiningDeviceFree_0
//  749   }
//  750   if(descPrev == NULL)
//  751   {
//  752     //Not found
//  753     return ZInvalidParameter;
//  754   }
//  755   
//  756   descPrev->nextDev = descPrev->nextDev->nextDev;
        LCALL   ?Subroutine15 & 0xFFFF
??CrossCallReturnLabel_11:
        MOV     DPL,R6
        MOV     DPH,R7
        MOV     A,R0
        MOVX    @DPTR,A
        INC     DPTR
        MOV     A,R1
        MOVX    @DPTR,A
//  757     
//  758   osal_mem_free( JoiningDeviceToRemove );
        ; Setup parameters for call to function osal_mem_free
        MOV     R2,?V0
        MOV     R3,?V1
??bdb_TCJoiningDeviceFree_1:
        LCALL   `??osal_mem_free::?relay`; Banked call to: osal_mem_free
//  759   return ZSuccess;
        MOV     R1,#0x0
        SJMP    ??bdb_TCJoiningDeviceFree_3
??bdb_TCJoiningDeviceFree_2:
        MOV     R1,#0x2
??bdb_TCJoiningDeviceFree_3:
        MOV     R7,#0x7
        LJMP    ?BANKED_LEAVE_XDATA
//  760 
//  761 }
          CFI EndBlock cfiBlock31

        RSEG BANKED_CODE:CODE:NOROOT(0)
?Subroutine17:
          CFI Block cfiCond32 Using cfiCommon0
          CFI Function bdb_TCJoiningDeviceFree
          CFI Conditional ??CrossCallReturnLabel_14
          CFI R6 load(1, XDATA, add(CFA_XSP16, literal(-15)))
          CFI VB load(1, XDATA, add(CFA_XSP16, literal(-14)))
          CFI V0 load(1, XDATA, add(CFA_XSP16, literal(-13)))
          CFI V1 load(1, XDATA, add(CFA_XSP16, literal(-12)))
          CFI V2 load(1, XDATA, add(CFA_XSP16, literal(-11)))
          CFI V3 load(1, XDATA, add(CFA_XSP16, literal(-10)))
          CFI V4 load(1, XDATA, add(CFA_XSP16, literal(-9)))
          CFI V5 load(1, XDATA, add(CFA_XSP16, literal(-8)))
          CFI V6 load(1, XDATA, add(CFA_XSP16, literal(-7)))
          CFI R7 load(1, XDATA, add(CFA_XSP16, literal(-6)))
          CFI ?RET_LOW load(1, XDATA, add(CFA_XSP16, literal(-5)))
          CFI ?RET_HIGH load(1, XDATA, add(CFA_XSP16, literal(-4)))
          CFI ?BRET_EXT load(1, XDATA, add(CFA_XSP16, literal(-3)))
          CFI DPL0 load(1, XDATA, add(CFA_XSP16, literal(-2)))
          CFI DPH0 load(1, XDATA, add(CFA_XSP16, literal(-1)))
          CFI CFA_SP SP+-2
          CFI CFA_XSP16 add(XSP16, 18)
          CFI Block cfiCond33 Using cfiCommon0
          CFI (cfiCond33) Function bdb_TCJoiningDeviceFree
          CFI (cfiCond33) Conditional ??CrossCallReturnLabel_15
          CFI (cfiCond33) R6 load(1, XDATA, add(CFA_XSP16, literal(-15)))
          CFI (cfiCond33) VB load(1, XDATA, add(CFA_XSP16, literal(-14)))
          CFI (cfiCond33) V0 load(1, XDATA, add(CFA_XSP16, literal(-13)))
          CFI (cfiCond33) V1 load(1, XDATA, add(CFA_XSP16, literal(-12)))
          CFI (cfiCond33) V2 load(1, XDATA, add(CFA_XSP16, literal(-11)))
          CFI (cfiCond33) V3 load(1, XDATA, add(CFA_XSP16, literal(-10)))
          CFI (cfiCond33) V4 load(1, XDATA, add(CFA_XSP16, literal(-9)))
          CFI (cfiCond33) V5 load(1, XDATA, add(CFA_XSP16, literal(-8)))
          CFI (cfiCond33) V6 load(1, XDATA, add(CFA_XSP16, literal(-7)))
          CFI (cfiCond33) R7 load(1, XDATA, add(CFA_XSP16, literal(-6)))
          CFI (cfiCond33) ?RET_LOW load(1, XDATA, add(CFA_XSP16, literal(-5)))
          CFI (cfiCond33) ?RET_HIGH load(1, XDATA, add(CFA_XSP16, literal(-4)))
          CFI (cfiCond33) ?BRET_EXT load(1, XDATA, add(CFA_XSP16, literal(-3)))
          CFI (cfiCond33) DPL0 load(1, XDATA, add(CFA_XSP16, literal(-2)))
          CFI (cfiCond33) DPH0 load(1, XDATA, add(CFA_XSP16, literal(-1)))
          CFI (cfiCond33) CFA_SP SP+-2
          CFI (cfiCond33) CFA_XSP16 add(XSP16, 18)
          CFI Block cfiPicker34 Using cfiCommon1
          CFI (cfiPicker34) NoFunction
          CFI (cfiPicker34) Picker
        LCALL   ?Subroutine29 & 0xFFFF
??CrossCallReturnLabel_32:
        MOV     R1,DPL
        MOV     R2,DPH
        MOV     R3,#0x0
        RET
          CFI EndBlock cfiCond32
          CFI EndBlock cfiCond33
          CFI EndBlock cfiPicker34

        RSEG BANKED_CODE:CODE:NOROOT(0)
?Subroutine15:
          CFI Block cfiCond35 Using cfiCommon0
          CFI Function bdb_TCJoiningDeviceFree
          CFI Conditional ??CrossCallReturnLabel_10
          CFI R6 load(1, XDATA, add(CFA_XSP16, literal(-15)))
          CFI VB load(1, XDATA, add(CFA_XSP16, literal(-14)))
          CFI V0 load(1, XDATA, add(CFA_XSP16, literal(-13)))
          CFI V1 load(1, XDATA, add(CFA_XSP16, literal(-12)))
          CFI V2 load(1, XDATA, add(CFA_XSP16, literal(-11)))
          CFI V3 load(1, XDATA, add(CFA_XSP16, literal(-10)))
          CFI V4 load(1, XDATA, add(CFA_XSP16, literal(-9)))
          CFI V5 load(1, XDATA, add(CFA_XSP16, literal(-8)))
          CFI V6 load(1, XDATA, add(CFA_XSP16, literal(-7)))
          CFI R7 load(1, XDATA, add(CFA_XSP16, literal(-6)))
          CFI ?RET_LOW load(1, XDATA, add(CFA_XSP16, literal(-5)))
          CFI ?RET_HIGH load(1, XDATA, add(CFA_XSP16, literal(-4)))
          CFI ?BRET_EXT load(1, XDATA, add(CFA_XSP16, literal(-3)))
          CFI DPL0 load(1, XDATA, add(CFA_XSP16, literal(-2)))
          CFI DPH0 load(1, XDATA, add(CFA_XSP16, literal(-1)))
          CFI CFA_SP SP+-2
          CFI CFA_XSP16 add(XSP16, 15)
          CFI Block cfiCond36 Using cfiCommon0
          CFI (cfiCond36) Function bdb_TCJoiningDeviceFree
          CFI (cfiCond36) Conditional ??CrossCallReturnLabel_11
          CFI (cfiCond36) R6 load(1, XDATA, add(CFA_XSP16, literal(-15)))
          CFI (cfiCond36) VB load(1, XDATA, add(CFA_XSP16, literal(-14)))
          CFI (cfiCond36) V0 load(1, XDATA, add(CFA_XSP16, literal(-13)))
          CFI (cfiCond36) V1 load(1, XDATA, add(CFA_XSP16, literal(-12)))
          CFI (cfiCond36) V2 load(1, XDATA, add(CFA_XSP16, literal(-11)))
          CFI (cfiCond36) V3 load(1, XDATA, add(CFA_XSP16, literal(-10)))
          CFI (cfiCond36) V4 load(1, XDATA, add(CFA_XSP16, literal(-9)))
          CFI (cfiCond36) V5 load(1, XDATA, add(CFA_XSP16, literal(-8)))
          CFI (cfiCond36) V6 load(1, XDATA, add(CFA_XSP16, literal(-7)))
          CFI (cfiCond36) R7 load(1, XDATA, add(CFA_XSP16, literal(-6)))
          CFI (cfiCond36) ?RET_LOW load(1, XDATA, add(CFA_XSP16, literal(-5)))
          CFI (cfiCond36) ?RET_HIGH load(1, XDATA, add(CFA_XSP16, literal(-4)))
          CFI (cfiCond36) ?BRET_EXT load(1, XDATA, add(CFA_XSP16, literal(-3)))
          CFI (cfiCond36) DPL0 load(1, XDATA, add(CFA_XSP16, literal(-2)))
          CFI (cfiCond36) DPH0 load(1, XDATA, add(CFA_XSP16, literal(-1)))
          CFI (cfiCond36) CFA_SP SP+-2
          CFI (cfiCond36) CFA_XSP16 add(XSP16, 15)
          CFI Block cfiPicker37 Using cfiCommon1
          CFI (cfiPicker37) NoFunction
          CFI (cfiPicker37) Picker
        MOVX    A,@DPTR
        MOV     R0,A
        INC     DPTR
        MOVX    A,@DPTR
        XCH     A,R0
        ADD     A,#0xb
        MOV     DPL,A
        CLR     A
        ADDC    A,R0
        MOV     DPH,A
        LCALL   ?Subroutine27 & 0xFFFF
??CrossCallReturnLabel_67:
        RET
          CFI EndBlock cfiCond35
          CFI EndBlock cfiCond36
          CFI EndBlock cfiPicker37
//  762 
//  763  /*********************************************************************
//  764  * @fn          bdb_setJoinUsesInstallCodeKey
//  765  *
//  766  * @brief       Set BDB attribute bdbJoinUsesInstallCodeKey.
//  767  *
//  768  * @param       set - If TRUE only devices with IC register in TC can join the 
//  769  *              nwk, otherwise devices may or not have a IC register
//  770  *
//  771  * @return      none
//  772  */

        RSEG BANKED_CODE:CODE:NOROOT(0)
//  773 void bdb_setJoinUsesInstallCodeKey(bool set)
bdb_setJoinUsesInstallCodeKey:
          CFI Block cfiBlock38 Using cfiCommon0
          CFI Function bdb_setJoinUsesInstallCodeKey
        CODE
//  774 {
        PUSH    DPL
          CFI DPL0 Frame(CFA_SP, 4)
          CFI CFA_SP SP+-4
        PUSH    DPH
          CFI DPH0 Frame(CFA_SP, 5)
          CFI CFA_SP SP+-5
        ; Saved register size: 2
        ; Auto size: 0
//  775   bdbAttributes.bdbJoinUsesInstallCodeKey = set;
        MOV     A,R1
        MOV     DPTR,#bdbAttributes + 15
        MOVX    @DPTR,A
//  776   if(set)
        MOV     DPTR,#zgAllowInstallCodes
        JZ      ??bdb_setJoinUsesInstallCodeKey_0
//  777   {
//  778     zgAllowInstallCodes = ZG_IC_MUST_USED;
        MOV     A,#0x2
        SJMP    ??bdb_setJoinUsesInstallCodeKey_1
//  779   }
//  780   else
//  781   {
//  782     zgAllowInstallCodes = ZG_IC_SUPPORTED_NOT_REQUIRED;
??bdb_setJoinUsesInstallCodeKey_0:
        MOV     A,#0x1
//  783   }
??bdb_setJoinUsesInstallCodeKey_1:
        LJMP    ??Subroutine34_0 & 0xFFFF
//  784 }
          CFI EndBlock cfiBlock38
//  785 #endif
//  786 
//  787  /*********************************************************************
//  788  * @fn          bdb_StartCommissioning
//  789  *
//  790  * @brief       Start the commissioning process setting the commissioning mode given.
//  791  *
//  792  * @param       mode - refer to bdbCommissioningMode
//  793  *
//  794  * @return      none
//  795  */

        RSEG BANKED_CODE:CODE:NOROOT(0)
//  796 void bdb_StartCommissioning(uint8 mode)
bdb_StartCommissioning:
          CFI Block cfiBlock39 Using cfiCommon0
          CFI Function bdb_StartCommissioning
        CODE
//  797 {
        FUNCALL bdb_StartCommissioning, osal_get_timeoutEx
        LOCFRAME ISTACK, 0, STACK
        LOCFRAME PSTACK, 0, STACK
        LOCFRAME XSTACK, 32, STACK
        LOCFRAME IOVERLAY, 0, STATIC
        LOCFRAME DOVERLAY, 0, STATIC
        ARGFRAME ISTACK, 0, STACK
        ARGFRAME PSTACK, 0, STACK
        ARGFRAME XSTACK, 32, STACK
        ARGFRAME IOVERLAY, 0, STATIC
        ARGFRAME DOVERLAY, 0, STATIC
        FUNCALL bdb_StartCommissioning, bdb_nwkSteeringDeviceOnNwk
        LOCFRAME ISTACK, 0, STACK
        LOCFRAME PSTACK, 0, STACK
        LOCFRAME XSTACK, 32, STACK
        LOCFRAME IOVERLAY, 0, STATIC
        LOCFRAME DOVERLAY, 0, STATIC
        ARGFRAME ISTACK, 0, STACK
        ARGFRAME PSTACK, 0, STACK
        ARGFRAME XSTACK, 32, STACK
        ARGFRAME IOVERLAY, 0, STATIC
        ARGFRAME DOVERLAY, 0, STATIC
        FUNCALL bdb_StartCommissioning, bdb_reportCommissioningState
        LOCFRAME ISTACK, 0, STACK
        LOCFRAME PSTACK, 0, STACK
        LOCFRAME XSTACK, 32, STACK
        LOCFRAME IOVERLAY, 0, STATIC
        LOCFRAME DOVERLAY, 0, STATIC
        ARGFRAME ISTACK, 0, STACK
        ARGFRAME PSTACK, 0, STACK
        ARGFRAME XSTACK, 32, STACK
        ARGFRAME IOVERLAY, 0, STATIC
        ARGFRAME DOVERLAY, 0, STATIC
        FUNCALL bdb_StartCommissioning, ZDApp_ReadNetworkRestoreState
        LOCFRAME ISTACK, 0, STACK
        LOCFRAME PSTACK, 0, STACK
        LOCFRAME XSTACK, 32, STACK
        LOCFRAME IOVERLAY, 0, STATIC
        LOCFRAME DOVERLAY, 0, STATIC
        ARGFRAME ISTACK, 0, STACK
        ARGFRAME PSTACK, 0, STACK
        ARGFRAME XSTACK, 32, STACK
        ARGFRAME IOVERLAY, 0, STATIC
        ARGFRAME DOVERLAY, 0, STATIC
        FUNCALL bdb_StartCommissioning, osal_nv_item_len
        LOCFRAME ISTACK, 0, STACK
        LOCFRAME PSTACK, 0, STACK
        LOCFRAME XSTACK, 32, STACK
        LOCFRAME IOVERLAY, 0, STATIC
        LOCFRAME DOVERLAY, 0, STATIC
        ARGFRAME ISTACK, 0, STACK
        ARGFRAME PSTACK, 0, STACK
        ARGFRAME XSTACK, 32, STACK
        ARGFRAME IOVERLAY, 0, STATIC
        ARGFRAME DOVERLAY, 0, STATIC
        FUNCALL bdb_StartCommissioning, osal_nv_delete
        LOCFRAME ISTACK, 0, STACK
        LOCFRAME PSTACK, 0, STACK
        LOCFRAME XSTACK, 32, STACK
        LOCFRAME IOVERLAY, 0, STATIC
        LOCFRAME DOVERLAY, 0, STATIC
        ARGFRAME ISTACK, 0, STACK
        ARGFRAME PSTACK, 0, STACK
        ARGFRAME XSTACK, 32, STACK
        ARGFRAME IOVERLAY, 0, STATIC
        ARGFRAME DOVERLAY, 0, STATIC
        FUNCALL bdb_StartCommissioning, bdb_RepConstructReportingData
        LOCFRAME ISTACK, 0, STACK
        LOCFRAME PSTACK, 0, STACK
        LOCFRAME XSTACK, 32, STACK
        LOCFRAME IOVERLAY, 0, STATIC
        LOCFRAME DOVERLAY, 0, STATIC
        ARGFRAME ISTACK, 0, STACK
        ARGFRAME PSTACK, 0, STACK
        ARGFRAME XSTACK, 32, STACK
        ARGFRAME IOVERLAY, 0, STATIC
        ARGFRAME DOVERLAY, 0, STATIC
        FUNCALL bdb_StartCommissioning, osal_nv_read
        LOCFRAME ISTACK, 0, STACK
        LOCFRAME PSTACK, 0, STACK
        LOCFRAME XSTACK, 36, STACK
        LOCFRAME IOVERLAY, 0, STATIC
        LOCFRAME DOVERLAY, 0, STATIC
        ARGFRAME ISTACK, 0, STACK
        ARGFRAME PSTACK, 0, STACK
        ARGFRAME XSTACK, 36, STACK
        ARGFRAME IOVERLAY, 0, STATIC
        ARGFRAME DOVERLAY, 0, STATIC
        FUNCALL bdb_StartCommissioning, osal_isbufset
        LOCFRAME ISTACK, 0, STACK
        LOCFRAME PSTACK, 0, STACK
        LOCFRAME XSTACK, 32, STACK
        LOCFRAME IOVERLAY, 0, STATIC
        LOCFRAME DOVERLAY, 0, STATIC
        ARGFRAME ISTACK, 0, STACK
        ARGFRAME PSTACK, 0, STACK
        ARGFRAME XSTACK, 32, STACK
        ARGFRAME IOVERLAY, 0, STATIC
        ARGFRAME DOVERLAY, 0, STATIC
        FUNCALL bdb_StartCommissioning, APSME_IsDistributedSecurity
        LOCFRAME ISTACK, 0, STACK
        LOCFRAME PSTACK, 0, STACK
        LOCFRAME XSTACK, 32, STACK
        LOCFRAME IOVERLAY, 0, STATIC
        LOCFRAME DOVERLAY, 0, STATIC
        ARGFRAME ISTACK, 0, STACK
        ARGFRAME PSTACK, 0, STACK
        ARGFRAME XSTACK, 32, STACK
        ARGFRAME IOVERLAY, 0, STATIC
        ARGFRAME DOVERLAY, 0, STATIC
        FUNCALL bdb_StartCommissioning, osal_nv_read
        LOCFRAME ISTACK, 0, STACK
        LOCFRAME PSTACK, 0, STACK
        LOCFRAME XSTACK, 36, STACK
        LOCFRAME IOVERLAY, 0, STATIC
        LOCFRAME DOVERLAY, 0, STATIC
        ARGFRAME ISTACK, 0, STACK
        ARGFRAME PSTACK, 0, STACK
        ARGFRAME XSTACK, 36, STACK
        ARGFRAME IOVERLAY, 0, STATIC
        ARGFRAME DOVERLAY, 0, STATIC
        FUNCALL bdb_StartCommissioning, osal_memset
        LOCFRAME ISTACK, 0, STACK
        LOCFRAME PSTACK, 0, STACK
        LOCFRAME XSTACK, 32, STACK
        LOCFRAME IOVERLAY, 0, STATIC
        LOCFRAME DOVERLAY, 0, STATIC
        ARGFRAME ISTACK, 0, STACK
        ARGFRAME PSTACK, 0, STACK
        ARGFRAME XSTACK, 32, STACK
        ARGFRAME IOVERLAY, 0, STATIC
        ARGFRAME DOVERLAY, 0, STATIC
        FUNCALL bdb_StartCommissioning, osal_nv_write
        LOCFRAME ISTACK, 0, STACK
        LOCFRAME PSTACK, 0, STACK
        LOCFRAME XSTACK, 36, STACK
        LOCFRAME IOVERLAY, 0, STATIC
        LOCFRAME DOVERLAY, 0, STATIC
        ARGFRAME ISTACK, 0, STACK
        ARGFRAME PSTACK, 0, STACK
        ARGFRAME XSTACK, 36, STACK
        ARGFRAME IOVERLAY, 0, STATIC
        ARGFRAME DOVERLAY, 0, STATIC
        FUNCALL bdb_StartCommissioning, osal_nv_write
        LOCFRAME ISTACK, 0, STACK
        LOCFRAME PSTACK, 0, STACK
        LOCFRAME XSTACK, 36, STACK
        LOCFRAME IOVERLAY, 0, STATIC
        LOCFRAME DOVERLAY, 0, STATIC
        ARGFRAME ISTACK, 0, STACK
        ARGFRAME PSTACK, 0, STACK
        ARGFRAME XSTACK, 36, STACK
        ARGFRAME IOVERLAY, 0, STATIC
        ARGFRAME DOVERLAY, 0, STATIC
        FUNCALL bdb_StartCommissioning, zgWriteStartupOptions
        LOCFRAME ISTACK, 0, STACK
        LOCFRAME PSTACK, 0, STACK
        LOCFRAME XSTACK, 32, STACK
        LOCFRAME IOVERLAY, 0, STATIC
        LOCFRAME DOVERLAY, 0, STATIC
        ARGFRAME ISTACK, 0, STACK
        ARGFRAME PSTACK, 0, STACK
        ARGFRAME XSTACK, 32, STACK
        ARGFRAME IOVERLAY, 0, STATIC
        ARGFRAME DOVERLAY, 0, STATIC
        FUNCALL bdb_StartCommissioning, osal_set_event
        LOCFRAME ISTACK, 0, STACK
        LOCFRAME PSTACK, 0, STACK
        LOCFRAME XSTACK, 32, STACK
        LOCFRAME IOVERLAY, 0, STATIC
        LOCFRAME DOVERLAY, 0, STATIC
        ARGFRAME ISTACK, 0, STACK
        ARGFRAME PSTACK, 0, STACK
        ARGFRAME XSTACK, 32, STACK
        ARGFRAME IOVERLAY, 0, STATIC
        ARGFRAME DOVERLAY, 0, STATIC
        FUNCALL bdb_StartCommissioning, ZDOInitDeviceEx
        LOCFRAME ISTACK, 0, STACK
        LOCFRAME PSTACK, 0, STACK
        LOCFRAME XSTACK, 32, STACK
        LOCFRAME IOVERLAY, 0, STATIC
        LOCFRAME DOVERLAY, 0, STATIC
        ARGFRAME ISTACK, 0, STACK
        ARGFRAME PSTACK, 0, STACK
        ARGFRAME XSTACK, 32, STACK
        ARGFRAME IOVERLAY, 0, STATIC
        ARGFRAME DOVERLAY, 0, STATIC
        FUNCALL bdb_StartCommissioning, bdb_RepUpdateMarkBindings
        LOCFRAME ISTACK, 0, STACK
        LOCFRAME PSTACK, 0, STACK
        LOCFRAME XSTACK, 32, STACK
        LOCFRAME IOVERLAY, 0, STATIC
        LOCFRAME DOVERLAY, 0, STATIC
        ARGFRAME ISTACK, 0, STACK
        ARGFRAME PSTACK, 0, STACK
        ARGFRAME XSTACK, 32, STACK
        ARGFRAME IOVERLAY, 0, STATIC
        ARGFRAME DOVERLAY, 0, STATIC
        FUNCALL bdb_StartCommissioning, bdb_setNodeIsOnANetwork
        LOCFRAME ISTACK, 0, STACK
        LOCFRAME PSTACK, 0, STACK
        LOCFRAME XSTACK, 32, STACK
        LOCFRAME IOVERLAY, 0, STATIC
        LOCFRAME DOVERLAY, 0, STATIC
        ARGFRAME ISTACK, 0, STACK
        ARGFRAME PSTACK, 0, STACK
        ARGFRAME XSTACK, 32, STACK
        ARGFRAME IOVERLAY, 0, STATIC
        ARGFRAME DOVERLAY, 0, STATIC
        FUNCALL bdb_StartCommissioning, bdb_reportCommissioningState
        LOCFRAME ISTACK, 0, STACK
        LOCFRAME PSTACK, 0, STACK
        LOCFRAME XSTACK, 32, STACK
        LOCFRAME IOVERLAY, 0, STATIC
        LOCFRAME DOVERLAY, 0, STATIC
        ARGFRAME ISTACK, 0, STACK
        ARGFRAME PSTACK, 0, STACK
        ARGFRAME XSTACK, 32, STACK
        ARGFRAME IOVERLAY, 0, STATIC
        ARGFRAME DOVERLAY, 0, STATIC
        FUNCALL bdb_StartCommissioning, osal_set_event
        LOCFRAME ISTACK, 0, STACK
        LOCFRAME PSTACK, 0, STACK
        LOCFRAME XSTACK, 32, STACK
        LOCFRAME IOVERLAY, 0, STATIC
        LOCFRAME DOVERLAY, 0, STATIC
        ARGFRAME ISTACK, 0, STACK
        ARGFRAME PSTACK, 0, STACK
        ARGFRAME XSTACK, 32, STACK
        ARGFRAME IOVERLAY, 0, STATIC
        ARGFRAME DOVERLAY, 0, STATIC
        REQUIRE ?V0
        REQUIRE ?V2
        REQUIRE ?V3
        MOV     A,#-0xc
        LCALL   ?BANKED_ENTER_XDATA
          CFI DPH0 load(1, XDATA, add(CFA_XSP16, literal(-1)))
          CFI DPL0 load(1, XDATA, add(CFA_XSP16, literal(-2)))
          CFI ?BRET_EXT load(1, XDATA, add(CFA_XSP16, literal(-3)))
          CFI ?RET_HIGH load(1, XDATA, add(CFA_XSP16, literal(-4)))
          CFI ?RET_LOW load(1, XDATA, add(CFA_XSP16, literal(-5)))
          CFI R7 load(1, XDATA, add(CFA_XSP16, literal(-6)))
          CFI V3 load(1, XDATA, add(CFA_XSP16, literal(-7)))
          CFI V2 load(1, XDATA, add(CFA_XSP16, literal(-8)))
          CFI V1 load(1, XDATA, add(CFA_XSP16, literal(-9)))
          CFI V0 load(1, XDATA, add(CFA_XSP16, literal(-10)))
          CFI VB load(1, XDATA, add(CFA_XSP16, literal(-11)))
          CFI R6 load(1, XDATA, add(CFA_XSP16, literal(-12)))
          CFI CFA_SP SP+0
          CFI CFA_XSP16 add(XSP16, 12)
        ; Saved register size: 12
        ; Auto size: 20
        MOV     A,#-0x14
        LCALL   ?ALLOC_XSTACK8
          CFI CFA_XSP16 add(XSP16, 32)
        MOV     ?V0,R1
//  798   //Application cannot request to set the device in initialization mode or parent lost
//  799   mode &= ~(BDB_COMMISSIONING_MODE_INITIALIZATION | BDB_COMMISSIONING_MODE_PARENT_LOST);
//  800     
//  801 #ifdef BDB_TL_INITIATOR
//  802   if ( touchlinkFNReset == TRUE )
//  803   {
//  804     return;
//  805   }
//  806 #else
//  807   //Commissioning mode used only for initiator
//  808   mode &= ~BDB_COMMISSIONING_MODE_INITIATOR_TL;
        ANL     ?V0,#0xce
//  809 #endif
//  810   
//  811 #if (BDB_FINDING_BINDING_CAPABILITY_ENABLED==0)    
//  812   //Commissioning mode used only for devices with F&B
//  813   mode &= ~BDB_COMMISSIONING_MODE_FINDING_BINDING;
//  814 #endif
//  815  
//  816   //If we have running process or the machine state is triggered, then just append and it will be excecuted
//  817   if((bdbAttributes.bdbCommissioningMode) || (osal_get_timeoutEx(bdb_TaskID,BDB_CHANGE_COMMISSIONING_STATE)))
        MOV     DPTR,#bdbAttributes + 11
        MOVX    A,@DPTR
        JNZ     ??bdb_StartCommissioning_0
        ; Setup parameters for call to function osal_get_timeoutEx
        MOV     R2,#0x4
        MOV     R3,#0x0
        MOV     DPTR,#bdb_TaskID
        MOVX    A,@DPTR
        MOV     R1,A
        LCALL   `??osal_get_timeoutEx::?relay`; Banked call to: osal_get_timeoutEx
        MOV     A,R2
        ORL     A,R3
        ORL     A,R4
        ORL     A,R5
        JZ      ??bdb_StartCommissioning_1
//  818   {
//  819 #if ZG_BUILD_ENDDEVICE_TYPE
//  820     if(ZG_DEVICE_ENDDEVICE_TYPE)
//  821     {
//  822       //Devices with parent lost are not allowed to perform actions
//  823       if(bdbAttributes.bdbCommissioningMode & BDB_COMMISSIONING_MODE_PARENT_LOST)
//  824       {
//  825         return;
//  826       }
//  827     }
//  828 #endif
//  829     
//  830     //If we are on the network and got requested to do nwk steering, we do not need to wait other process, 
//  831     // just send permit joining and report the application
//  832     if((bdbAttributes.bdbNodeIsOnANetwork) && (mode & BDB_COMMISSIONING_MODE_NWK_STEERING))
??bdb_StartCommissioning_0:
        MOV     DPTR,#bdbAttributes + 14
        MOVX    A,@DPTR
        JZ      ??bdb_StartCommissioning_2
        MOV     A,?V0
        MOV     C,0xE0 /* A   */.1
        JNC     ??bdb_StartCommissioning_2
//  833     {
//  834       bdb_nwkSteeringDeviceOnNwk();
        ; Setup parameters for call to function bdb_nwkSteeringDeviceOnNwk
        LCALL   `??bdb_nwkSteeringDeviceOnNwk::?relay`; Banked call to: bdb_nwkSteeringDeviceOnNwk
//  835       bdb_reportCommissioningState(BDB_COMMISSIONING_STATE_STEERING_ON_NWK, TRUE);
        ; Setup parameters for call to function bdb_reportCommissioningState
        MOV     R2,#0x1
        MOV     R1,#0x4
        LCALL   `??bdb_reportCommissioningState::?relay`; Banked call to: bdb_reportCommissioningState
//  836       
//  837       //Clean nwk steering
//  838       mode ^= BDB_COMMISSIONING_MODE_NWK_STEERING; 
        XRL     ?V0,#0x2
//  839     }
//  840     
//  841     //add the remaining valid commissioning modes requested, those will be process when bdb finish its current process
//  842     bdbAttributes.bdbCommissioningMode |= mode & BDB_COMMISSIONING_MODES;
??bdb_StartCommissioning_2:
        MOV     A,#0x3f
        ANL     A,?V0
        MOV     R0,A
        MOV     DPTR,#bdbAttributes + 11
        MOVX    A,@DPTR
        ORL     A,R0
        MOVX    @DPTR,A
//  843     return;      
        LJMP    ??bdb_StartCommissioning_3 & 0xFFFF
//  844   }
//  845 
//  846   //Save the commissioning modes valid requested
//  847   bdbAttributes.bdbCommissioningMode |= mode & BDB_COMMISSIONING_MODES;
??bdb_StartCommissioning_1:
        MOV     A,#0x3f
        ANL     A,?V0
        MOV     R6,A
        MOV     DPTR,#bdbAttributes + 11
        MOVX    A,@DPTR
        ORL     A,R6
        MOVX    @DPTR,A
//  848   
//  849   
//  850   //Start processing the initialization, once per power cycle.
//  851   if(!bdb_initialization)
        MOV     DPTR,#bdb_initialization
        MOVX    A,@DPTR
        JZ      $+5
        LJMP    ??bdb_StartCommissioning_4 & 0xFFFF
//  852   {
//  853     bdb_initialization = TRUE;
        MOV     A,#0x1
        MOVX    @DPTR,A
//  854     
//  855 #ifdef BDB_REPORTING
//  856     //Delete NV data if startup was with factory reset
//  857     if(ZDO_INITDEV_NEW_NETWORK_STATE == ZDApp_ReadNetworkRestoreState())
        ; Setup parameters for call to function ZDApp_ReadNetworkRestoreState
        LCALL   `??ZDApp_ReadNetworkRestoreState::?relay`; Banked call to: ZDApp_ReadNetworkRestoreState
        MOV     A,R1
        XRL     A,#0x1
        JNZ     ??bdb_StartCommissioning_5
//  858     {
//  859       //Factory reset bdb reporting NV data
//  860       uint16 attrRepNvLen = osal_nv_item_len( ZCD_NV_BDBREPORTINGCONFIG );
        ; Setup parameters for call to function osal_nv_item_len
        MOV     R2,#0x56
        MOV     R3,#0x0
        LCALL   `??osal_nv_item_len::?relay`; Banked call to: osal_nv_item_len
        MOV     ?V2,R2
        MOV     ?V3,R3
        MOV     R4,?V2
        MOV     R5,?V3
//  861       if ( attrRepNvLen > 0 )
        MOV     A,R4
        ORL     A,R5
        JZ      ??bdb_StartCommissioning_5
//  862       {
//  863         osal_nv_delete( ZCD_NV_BDBREPORTINGCONFIG, attrRepNvLen );
        ; Setup parameters for call to function osal_nv_delete
        MOV     R2,#0x56
        MOV     R3,#0x0
        LCALL   `??osal_nv_delete::?relay`; Banked call to: osal_nv_delete
//  864       }
//  865     }
//  866 
//  867     //Construct the Endpoint-cluster array
//  868     bdb_RepConstructReportingData();
??bdb_StartCommissioning_5:
        ; Setup parameters for call to function bdb_RepConstructReportingData
        LCALL   `??bdb_RepConstructReportingData::?relay`; Banked call to: bdb_RepConstructReportingData
//  869 #endif //BDB_REPORTING
//  870 
//  871     osal_nv_read(ZCD_NV_BDBNODEISONANETWORK,0,sizeof(bdbAttributes.bdbNodeIsOnANetwork),&bdbAttributes.bdbNodeIsOnANetwork);
        ; Setup parameters for call to function osal_nv_read
        MOV     ?V2,#(bdbAttributes + 14) & 0xff
        MOV     ?V3,#((bdbAttributes + 14) >> 8) & 0xff
        MOV     R0,#?V2
        LCALL   ?PUSH_XSTACK_I_TWO
          CFI CFA_XSP16 add(XSP16, 34)
        MOV     ?V2,#0x1
        MOV     ?V3,#0x0
        MOV     R0,#?V2
        LCALL   ?PUSH_XSTACK_I_TWO
          CFI CFA_XSP16 add(XSP16, 36)
        MOV     R4,#0x0
        MOV     R5,#0x0
        MOV     R2,#0x55
        MOV     R3,#0x0
        LCALL   `??osal_nv_read::?relay`; Banked call to: osal_nv_read
        MOV     A,#0x4
        LCALL   ?DEALLOC_XSTACK8
          CFI CFA_XSP16 add(XSP16, 32)
//  872     
//  873     //Are we on a network
//  874     if(bdbAttributes.bdbNodeIsOnANetwork == TRUE)
        MOV     DPTR,#bdbAttributes + 14
        MOVX    A,@DPTR
        XRL     A,#0x1
        JZ      $+5
        LJMP    ??bdb_StartCommissioning_4 & 0xFFFF
//  875     {
//  876 #ifdef ZG_BUILD_JOINING_TYPE
//  877       //Only for joining devices validate the joining procedure
//  878       if(ZG_DEVICE_JOINING_TYPE)
        MOV     DPTR,#zgDeviceLogicalType
        MOVX    A,@DPTR
        XRL     A,#0x1
        JZ      ??bdb_StartCommissioning_6
        MOVX    A,@DPTR
        XRL     A,#0x2
        JZ      $+5
        LJMP    ??bdb_StartCommissioning_7 & 0xFFFF
//  879       {
//  880         //If we got into a network
//  881         if(!osal_isbufset( AIB_apsTrustCenterAddress, 0x00, Z_EXTADDR_LEN ))
??bdb_StartCommissioning_6:
        ; Setup parameters for call to function osal_isbufset
        MOV     R4,#0x8
        MOV     R1,#0x0
        MOV     DPTR,#AIB_apsTrustCenterAddress
        LCALL   ??Subroutine45_0 & 0xFFFF
??CrossCallReturnLabel_84:
        LCALL   `??osal_isbufset::?relay`; Banked call to: osal_isbufset
        MOV     A,R1
        JZ      $+5
        LJMP    ??bdb_StartCommissioning_7 & 0xFFFF
//  882         {
//  883           //Which is not distributed
//  884           if(!APSME_IsDistributedSecurity())
        ; Setup parameters for call to function APSME_IsDistributedSecurity
        LCALL   `??APSME_IsDistributedSecurity::?relay`; Banked call to: APSME_IsDistributedSecurity
        MOV     A,R1
        JZ      $+5
        LJMP    ??bdb_StartCommissioning_7 & 0xFFFF
//  885           {
//  886             uint8 keyAttributes;
//  887             osal_nv_read(ZCD_NV_TCLK_TABLE_START, osal_offsetof(APSME_TCLKDevEntry_t,keyAttributes), sizeof(uint8), &keyAttributes);
        ; Setup parameters for call to function osal_nv_read
        MOV     R0,?XSP + 0
        MOV     R1,?XSP + 1
        MOV     ?V2,R0
        MOV     ?V3,R1
        MOV     R0,#?V2
        LCALL   ?PUSH_XSTACK_I_TWO
          CFI CFA_XSP16 add(XSP16, 34)
        MOV     ?V2,#0x1
        MOV     ?V3,#0x0
        MOV     R0,#?V2
        LCALL   ?PUSH_XSTACK_I_TWO
          CFI CFA_XSP16 add(XSP16, 36)
        MOV     R4,#0x10
        MOV     R5,#0x0
        MOV     R2,#0x11
        MOV     R3,#0x1
        LCALL   `??osal_nv_read::?relay`; Banked call to: osal_nv_read
        MOV     A,#0x4
        LCALL   ?DEALLOC_XSTACK8
          CFI CFA_XSP16 add(XSP16, 32)
//  888             //And the TCLK procedure got not complete, then reset the device parameters to FN
//  889             if((keyAttributes != ZG_NON_R21_NWK_JOINED) && (keyAttributes != ZG_VERIFIED_KEY))
        MOV     DPL,?XSP + 0
        MOV     DPH,?XSP + 1
        MOVX    A,@DPTR
        XRL     A,#0xfd
        JNZ     $+5
        LJMP    ??bdb_StartCommissioning_7 & 0xFFFF
        MOVX    A,@DPTR
        XRL     A,#0x2
        JZ      ??bdb_StartCommissioning_7
//  890             {
//  891               //Force to initialize the entry
//  892               APSME_TCLKDevEntry_t APSME_TCLKDevEntry;
//  893               
//  894               osal_memset(&APSME_TCLKDevEntry,0,sizeof(APSME_TCLKDevEntry_t));
        ; Setup parameters for call to function osal_memset
        MOV     R4,#0x13
        MOV     R5,#0x0
        MOV     R1,#0x0
        MOV     A,#0x1
        LCALL   ?XSTACK_DISP101_8
        LCALL   `??osal_memset::?relay`; Banked call to: osal_memset
//  895               APSME_TCLKDevEntry.keyAttributes = ZG_DEFAULT_KEY;
        MOV     A,#0x11
        LCALL   ?XSTACK_DISP0_8
        MOV     A,#-0x1
        MOVX    @DPTR,A
//  896               osal_nv_write(ZCD_NV_TCLK_TABLE_START, 0, sizeof(APSME_TCLKDevEntry_t), &APSME_TCLKDevEntry);
        ; Setup parameters for call to function osal_nv_write
        MOV     A,#0x1
        LCALL   ?XSTACK_DISP100_8
        MOV     ?V2,R0
        MOV     ?V3,R1
        MOV     R0,#?V2
        LCALL   ?PUSH_XSTACK_I_TWO
          CFI CFA_XSP16 add(XSP16, 34)
        MOV     ?V2,#0x13
        MOV     ?V3,#0x0
        MOV     R0,#?V2
        LCALL   ?PUSH_XSTACK_I_TWO
          CFI CFA_XSP16 add(XSP16, 36)
        MOV     R4,#0x0
        MOV     R5,#0x0
        MOV     R2,#0x11
        MOV     R3,#0x1
        LCALL   `??osal_nv_write::?relay`; Banked call to: osal_nv_write
        MOV     A,#0x4
        LCALL   ?DEALLOC_XSTACK8
          CFI CFA_XSP16 add(XSP16, 32)
//  897               TCLinkKeyFrmCntr[0].txFrmCntr = 0;
        MOV     DPTR,#TCLinkKeyFrmCntr
        LCALL   ?Subroutine8 & 0xFFFF
//  898               TCLinkKeyFrmCntr[0].rxFrmCntr = 0;
??CrossCallReturnLabel_44:
        INC     DPTR
        LCALL   ??Subroutine33_0 & 0xFFFF
//  899               
//  900               
//  901               //reset the device parameters to FN
//  902               bdbAttributes.bdbNodeIsOnANetwork = FALSE;
??CrossCallReturnLabel_42:
        MOV     DPTR,#bdbAttributes + 14
        MOVX    @DPTR,A
//  903               osal_nv_write(ZCD_NV_BDBNODEISONANETWORK,0,sizeof(bdbAttributes.bdbNodeIsOnANetwork),&bdbAttributes.bdbNodeIsOnANetwork);
        ; Setup parameters for call to function osal_nv_write
        MOV     ?V2,#(bdbAttributes + 14) & 0xff
        MOV     ?V3,#((bdbAttributes + 14) >> 8) & 0xff
        MOV     R0,#?V2
        LCALL   ?PUSH_XSTACK_I_TWO
          CFI CFA_XSP16 add(XSP16, 34)
        MOV     ?V2,#0x1
        MOV     ?V3,#0x0
        MOV     R0,#?V2
        LCALL   ?PUSH_XSTACK_I_TWO
          CFI CFA_XSP16 add(XSP16, 36)
        MOV     R4,#0x0
        MOV     R5,#0x0
        MOV     R2,#0x55
        MOV     R3,#0x0
        LCALL   `??osal_nv_write::?relay`; Banked call to: osal_nv_write
        MOV     A,#0x4
        LCALL   ?DEALLOC_XSTACK8
          CFI CFA_XSP16 add(XSP16, 32)
//  904               zgWriteStartupOptions(ZG_STARTUP_SET, ZCD_STARTOPT_DEFAULT_CONFIG_STATE | ZCD_STARTOPT_DEFAULT_NETWORK_STATE);
        ; Setup parameters for call to function zgWriteStartupOptions
        MOV     R2,#0x3
        MOV     R1,#-0x1
        LCALL   `??zgWriteStartupOptions::?relay`; Banked call to: zgWriteStartupOptions
//  905               
//  906               //Then start the commissioning process requested
//  907               bdbCommissioningProcedureState.bdbCommissioningState = BDB_COMMISSIONING_STATE_START_RESUME;
        SJMP    ??bdb_StartCommissioning_4
//  908               osal_set_event( bdb_TaskID, BDB_CHANGE_COMMISSIONING_STATE );
//  909               return;
//  910             }
//  911           }
//  912         }
//  913       }
//  914 #endif //ZG_BUILD_JOINING_TYPE
//  915 
//  916       //Set the initialization
//  917       bdbAttributes.bdbCommissioningMode |= BDB_COMMISSIONING_MODE_INITIALIZATION;
//  918       bdbCommissioningProcedureState.bdbCommissioningState = BDB_INITIALIZATION;
??bdb_StartCommissioning_7:
        MOV     DPTR,#bdbCommissioningProcedureState
        MOV     A,#0x7
        MOVX    @DPTR,A
//  919       bdbAttributes.bdbCommissioningMode |= mode & BDB_COMMISSIONING_MODES;
        MOV     A,#0x10
        ORL     A,R6
        MOV     R0,A
        MOV     DPTR,#bdbAttributes + 11
        MOVX    A,@DPTR
        ORL     A,R0
        MOVX    @DPTR,A
//  920       
//  921       if(ZDOInitDevice(0) == ZDO_INITDEV_RESTORED_NETWORK_STATE)
        ; Setup parameters for call to function ZDOInitDeviceEx
        MOV     R1,#0x0
        MOV     R2,#0x0
        MOV     R3,#0x0
        LCALL   `??ZDOInitDeviceEx::?relay`; Banked call to: ZDOInitDeviceEx
        MOV     A,R1
        JNZ     ??bdb_StartCommissioning_8
//  922       {
//  923 #ifdef BDB_REPORTING
//  924         //Mark the clusterEndpoint entries that have binding, starts reporting if at least one entry was marked
//  925         bdb_RepUpdateMarkBindings();
        ; Setup parameters for call to function bdb_RepUpdateMarkBindings
        LCALL   `??bdb_RepUpdateMarkBindings::?relay`; Banked call to: bdb_RepUpdateMarkBindings
//  926 #endif
//  927         return;
        SJMP    ??bdb_StartCommissioning_3
//  928       }
//  929       bdb_setNodeIsOnANetwork(FALSE);  
??bdb_StartCommissioning_8:
        ; Setup parameters for call to function bdb_setNodeIsOnANetwork
        MOV     R1,#0x0
        LCALL   `??bdb_setNodeIsOnANetwork::?relay`; Banked call to: bdb_setNodeIsOnANetwork
//  930       //Not in the network
//  931       bdb_reportCommissioningState(BDB_INITIALIZATION,FALSE);
        ; Setup parameters for call to function bdb_reportCommissioningState
        MOV     R2,#0x0
        MOV     R1,#0x7
        LCALL   `??bdb_reportCommissioningState::?relay`; Banked call to: bdb_reportCommissioningState
//  932       return;
        SJMP    ??bdb_StartCommissioning_3
//  933     }
//  934   }
//  935   
//  936   //Start the commissioning process
//  937   bdbCommissioningProcedureState.bdbCommissioningState = BDB_COMMISSIONING_STATE_START_RESUME;
??bdb_StartCommissioning_4:
        MOV     DPTR,#bdbCommissioningProcedureState
        CLR     A
        MOVX    @DPTR,A
//  938   osal_set_event( bdb_TaskID, BDB_CHANGE_COMMISSIONING_STATE );
        ; Setup parameters for call to function osal_set_event
        MOV     R2,#0x4
        MOV     R3,A
        MOV     DPTR,#bdb_TaskID
        MOVX    A,@DPTR
        MOV     R1,A
        LCALL   `??osal_set_event::?relay`; Banked call to: osal_set_event
//  939 }
??bdb_StartCommissioning_3:
        MOV     A,#0x14
        LJMP    ??Subroutine37_0 & 0xFFFF
          CFI EndBlock cfiBlock39

        RSEG BANKED_CODE:CODE:NOROOT(0)
?Subroutine8:
          CFI Block cfiCond40 Using cfiCommon0
          CFI Function bdb_TCProcessJoiningList
          CFI Conditional ??CrossCallReturnLabel_43
          CFI R6 load(1, XDATA, add(CFA_XSP16, literal(-16)))
          CFI VB load(1, XDATA, add(CFA_XSP16, literal(-15)))
          CFI V0 load(1, XDATA, add(CFA_XSP16, literal(-14)))
          CFI V1 load(1, XDATA, add(CFA_XSP16, literal(-13)))
          CFI V2 load(1, XDATA, add(CFA_XSP16, literal(-12)))
          CFI V3 load(1, XDATA, add(CFA_XSP16, literal(-11)))
          CFI V4 load(1, XDATA, add(CFA_XSP16, literal(-10)))
          CFI V5 load(1, XDATA, add(CFA_XSP16, literal(-9)))
          CFI V6 load(1, XDATA, add(CFA_XSP16, literal(-8)))
          CFI V7 load(1, XDATA, add(CFA_XSP16, literal(-7)))
          CFI R7 load(1, XDATA, add(CFA_XSP16, literal(-6)))
          CFI ?RET_LOW load(1, XDATA, add(CFA_XSP16, literal(-5)))
          CFI ?RET_HIGH load(1, XDATA, add(CFA_XSP16, literal(-4)))
          CFI ?BRET_EXT load(1, XDATA, add(CFA_XSP16, literal(-3)))
          CFI DPL0 load(1, XDATA, add(CFA_XSP16, literal(-2)))
          CFI DPH0 load(1, XDATA, add(CFA_XSP16, literal(-1)))
          CFI CFA_SP SP+-2
          CFI CFA_XSP16 add(XSP16, 58)
          CFI Block cfiCond41 Using cfiCommon0
          CFI (cfiCond41) Function bdb_StartCommissioning
          CFI (cfiCond41) Conditional ??CrossCallReturnLabel_44
          CFI (cfiCond41) R6 load(1, XDATA, add(CFA_XSP16, literal(-12)))
          CFI (cfiCond41) VB load(1, XDATA, add(CFA_XSP16, literal(-11)))
          CFI (cfiCond41) V0 load(1, XDATA, add(CFA_XSP16, literal(-10)))
          CFI (cfiCond41) V1 load(1, XDATA, add(CFA_XSP16, literal(-9)))
          CFI (cfiCond41) V2 load(1, XDATA, add(CFA_XSP16, literal(-8)))
          CFI (cfiCond41) V3 load(1, XDATA, add(CFA_XSP16, literal(-7)))
          CFI (cfiCond41) R7 load(1, XDATA, add(CFA_XSP16, literal(-6)))
          CFI (cfiCond41) ?RET_LOW load(1, XDATA, add(CFA_XSP16, literal(-5)))
          CFI (cfiCond41) ?RET_HIGH load(1, XDATA, add(CFA_XSP16, literal(-4)))
          CFI (cfiCond41) ?BRET_EXT load(1, XDATA, add(CFA_XSP16, literal(-3)))
          CFI (cfiCond41) DPL0 load(1, XDATA, add(CFA_XSP16, literal(-2)))
          CFI (cfiCond41) DPH0 load(1, XDATA, add(CFA_XSP16, literal(-1)))
          CFI (cfiCond41) CFA_SP SP+-2
          CFI (cfiCond41) CFA_XSP16 add(XSP16, 32)
          CFI Block cfiPicker42 Using cfiCommon1
          CFI (cfiPicker42) NoFunction
          CFI (cfiPicker42) Picker
        CLR     A
          CFI EndBlock cfiCond40
          CFI EndBlock cfiCond41
          CFI EndBlock cfiPicker42
        REQUIRE ??Subroutine33_0
        ; // Fall through to label ??Subroutine33_0

        RSEG BANKED_CODE:CODE:NOROOT(0)
??Subroutine33_0:
          CFI Block cfiCond43 Using cfiCommon0
          CFI Function bdb_TCProcessJoiningList
          CFI Conditional ??CrossCallReturnLabel_41
          CFI R6 load(1, XDATA, add(CFA_XSP16, literal(-16)))
          CFI VB load(1, XDATA, add(CFA_XSP16, literal(-15)))
          CFI V0 load(1, XDATA, add(CFA_XSP16, literal(-14)))
          CFI V1 load(1, XDATA, add(CFA_XSP16, literal(-13)))
          CFI V2 load(1, XDATA, add(CFA_XSP16, literal(-12)))
          CFI V3 load(1, XDATA, add(CFA_XSP16, literal(-11)))
          CFI V4 load(1, XDATA, add(CFA_XSP16, literal(-10)))
          CFI V5 load(1, XDATA, add(CFA_XSP16, literal(-9)))
          CFI V6 load(1, XDATA, add(CFA_XSP16, literal(-8)))
          CFI V7 load(1, XDATA, add(CFA_XSP16, literal(-7)))
          CFI R7 load(1, XDATA, add(CFA_XSP16, literal(-6)))
          CFI ?RET_LOW load(1, XDATA, add(CFA_XSP16, literal(-5)))
          CFI ?RET_HIGH load(1, XDATA, add(CFA_XSP16, literal(-4)))
          CFI ?BRET_EXT load(1, XDATA, add(CFA_XSP16, literal(-3)))
          CFI DPL0 load(1, XDATA, add(CFA_XSP16, literal(-2)))
          CFI DPH0 load(1, XDATA, add(CFA_XSP16, literal(-1)))
          CFI CFA_SP SP+-2
          CFI CFA_XSP16 add(XSP16, 58)
          CFI Block cfiCond44 Using cfiCommon0
          CFI (cfiCond44) Function bdb_StartCommissioning
          CFI (cfiCond44) Conditional ??CrossCallReturnLabel_42
          CFI (cfiCond44) R6 load(1, XDATA, add(CFA_XSP16, literal(-12)))
          CFI (cfiCond44) VB load(1, XDATA, add(CFA_XSP16, literal(-11)))
          CFI (cfiCond44) V0 load(1, XDATA, add(CFA_XSP16, literal(-10)))
          CFI (cfiCond44) V1 load(1, XDATA, add(CFA_XSP16, literal(-9)))
          CFI (cfiCond44) V2 load(1, XDATA, add(CFA_XSP16, literal(-8)))
          CFI (cfiCond44) V3 load(1, XDATA, add(CFA_XSP16, literal(-7)))
          CFI (cfiCond44) R7 load(1, XDATA, add(CFA_XSP16, literal(-6)))
          CFI (cfiCond44) ?RET_LOW load(1, XDATA, add(CFA_XSP16, literal(-5)))
          CFI (cfiCond44) ?RET_HIGH load(1, XDATA, add(CFA_XSP16, literal(-4)))
          CFI (cfiCond44) ?BRET_EXT load(1, XDATA, add(CFA_XSP16, literal(-3)))
          CFI (cfiCond44) DPL0 load(1, XDATA, add(CFA_XSP16, literal(-2)))
          CFI (cfiCond44) DPH0 load(1, XDATA, add(CFA_XSP16, literal(-1)))
          CFI (cfiCond44) CFA_SP SP+-2
          CFI (cfiCond44) CFA_XSP16 add(XSP16, 32)
          CFI Block cfiCond45 Using cfiCommon0
          CFI (cfiCond45) Function bdb_TCProcessJoiningList
          CFI (cfiCond45) Conditional ??CrossCallReturnLabel_43
          CFI (cfiCond45) R6 load(1, XDATA, add(CFA_XSP16, literal(-16)))
          CFI (cfiCond45) VB load(1, XDATA, add(CFA_XSP16, literal(-15)))
          CFI (cfiCond45) V0 load(1, XDATA, add(CFA_XSP16, literal(-14)))
          CFI (cfiCond45) V1 load(1, XDATA, add(CFA_XSP16, literal(-13)))
          CFI (cfiCond45) V2 load(1, XDATA, add(CFA_XSP16, literal(-12)))
          CFI (cfiCond45) V3 load(1, XDATA, add(CFA_XSP16, literal(-11)))
          CFI (cfiCond45) V4 load(1, XDATA, add(CFA_XSP16, literal(-10)))
          CFI (cfiCond45) V5 load(1, XDATA, add(CFA_XSP16, literal(-9)))
          CFI (cfiCond45) V6 load(1, XDATA, add(CFA_XSP16, literal(-8)))
          CFI (cfiCond45) V7 load(1, XDATA, add(CFA_XSP16, literal(-7)))
          CFI (cfiCond45) R7 load(1, XDATA, add(CFA_XSP16, literal(-6)))
          CFI (cfiCond45) ?RET_LOW load(1, XDATA, add(CFA_XSP16, literal(-5)))
          CFI (cfiCond45) ?RET_HIGH load(1, XDATA, add(CFA_XSP16, literal(-4)))
          CFI (cfiCond45) ?BRET_EXT load(1, XDATA, add(CFA_XSP16, literal(-3)))
          CFI (cfiCond45) DPL0 load(1, XDATA, add(CFA_XSP16, literal(-2)))
          CFI (cfiCond45) DPH0 load(1, XDATA, add(CFA_XSP16, literal(-1)))
          CFI (cfiCond45) CFA_SP SP+-2
          CFI (cfiCond45) CFA_XSP16 add(XSP16, 58)
          CFI Block cfiCond46 Using cfiCommon0
          CFI (cfiCond46) Function bdb_StartCommissioning
          CFI (cfiCond46) Conditional ??CrossCallReturnLabel_44
          CFI (cfiCond46) R6 load(1, XDATA, add(CFA_XSP16, literal(-12)))
          CFI (cfiCond46) VB load(1, XDATA, add(CFA_XSP16, literal(-11)))
          CFI (cfiCond46) V0 load(1, XDATA, add(CFA_XSP16, literal(-10)))
          CFI (cfiCond46) V1 load(1, XDATA, add(CFA_XSP16, literal(-9)))
          CFI (cfiCond46) V2 load(1, XDATA, add(CFA_XSP16, literal(-8)))
          CFI (cfiCond46) V3 load(1, XDATA, add(CFA_XSP16, literal(-7)))
          CFI (cfiCond46) R7 load(1, XDATA, add(CFA_XSP16, literal(-6)))
          CFI (cfiCond46) ?RET_LOW load(1, XDATA, add(CFA_XSP16, literal(-5)))
          CFI (cfiCond46) ?RET_HIGH load(1, XDATA, add(CFA_XSP16, literal(-4)))
          CFI (cfiCond46) ?BRET_EXT load(1, XDATA, add(CFA_XSP16, literal(-3)))
          CFI (cfiCond46) DPL0 load(1, XDATA, add(CFA_XSP16, literal(-2)))
          CFI (cfiCond46) DPH0 load(1, XDATA, add(CFA_XSP16, literal(-1)))
          CFI (cfiCond46) CFA_SP SP+-2
          CFI (cfiCond46) CFA_XSP16 add(XSP16, 32)
          CFI Block cfiPicker47 Using cfiCommon1
          CFI (cfiPicker47) NoFunction
          CFI (cfiPicker47) Picker
        MOVX    @DPTR,A
        INC     DPTR
        MOVX    @DPTR,A
        INC     DPTR
        MOVX    @DPTR,A
        INC     DPTR
        MOVX    @DPTR,A
        RET
          CFI EndBlock cfiCond43
          CFI EndBlock cfiCond44
          CFI EndBlock cfiCond45
          CFI EndBlock cfiCond46
          CFI EndBlock cfiPicker47
//  940 
//  941 
//  942  /*********************************************************************
//  943  * @fn          bdb_NotifyCommissioningModeStart
//  944  *
//  945  * @brief       Notify the user about a commissioning method just started
//  946  *
//  947  * @param       commissioningMode
//  948  *
//  949  * @return      none
//  950  */

        RSEG BANKED_CODE:CODE:NOROOT(0)
//  951 void bdb_NotifyCommissioningModeStart(uint8 commissioningMode)
bdb_NotifyCommissioningModeStart:
          CFI Block cfiBlock48 Using cfiCommon0
          CFI Function bdb_NotifyCommissioningModeStart
        CODE
//  952 {
        FUNCALL bdb_NotifyCommissioningModeStart, bdb_SendMsg
        LOCFRAME ISTACK, 0, STACK
        LOCFRAME PSTACK, 0, STACK
        LOCFRAME XSTACK, 15, STACK
        LOCFRAME IOVERLAY, 0, STATIC
        LOCFRAME DOVERLAY, 0, STATIC
        ARGFRAME ISTACK, 0, STACK
        ARGFRAME PSTACK, 0, STACK
        ARGFRAME XSTACK, 15, STACK
        ARGFRAME IOVERLAY, 0, STATIC
        ARGFRAME DOVERLAY, 0, STATIC
        REQUIRE ?V0
        REQUIRE ?V1
        MOV     A,#-0xa
        LCALL   ?BANKED_ENTER_XDATA
          CFI DPH0 load(1, XDATA, add(CFA_XSP16, literal(-1)))
          CFI DPL0 load(1, XDATA, add(CFA_XSP16, literal(-2)))
          CFI ?BRET_EXT load(1, XDATA, add(CFA_XSP16, literal(-3)))
          CFI ?RET_HIGH load(1, XDATA, add(CFA_XSP16, literal(-4)))
          CFI ?RET_LOW load(1, XDATA, add(CFA_XSP16, literal(-5)))
          CFI R7 load(1, XDATA, add(CFA_XSP16, literal(-6)))
          CFI V1 load(1, XDATA, add(CFA_XSP16, literal(-7)))
          CFI V0 load(1, XDATA, add(CFA_XSP16, literal(-8)))
          CFI VB load(1, XDATA, add(CFA_XSP16, literal(-9)))
          CFI R6 load(1, XDATA, add(CFA_XSP16, literal(-10)))
          CFI CFA_SP SP+0
          CFI CFA_XSP16 add(XSP16, 10)
        ; Saved register size: 10
        ; Auto size: 3
        MOV     A,#-0x3
        LCALL   ?ALLOC_XSTACK8
          CFI CFA_XSP16 add(XSP16, 13)
//  953   bdbCommissioningModeMsg_t bdbCommissioningModeMsg;
//  954 
//  955   bdbCommissioningModeMsg.bdbCommissioningMode = commissioningMode;
        MOV     A,#0x1
        LCALL   ?XSTACK_DISP0_8
        MOV     A,R1
        MOVX    @DPTR,A
//  956   bdbCommissioningModeMsg.bdbCommissioningStatus = BDB_COMMISSIONING_IN_PROGRESS;
        LCALL   ?Subroutine7 & 0xFFFF
//  957   //Remaining commissioning modes are set just before the call to the application to avoid race conditions
//  958 
//  959   bdb_NotifyApp((uint8*)&bdbCommissioningModeMsg);
??CrossCallReturnLabel_37:
        LCALL   ?PUSH_XSTACK_I_TWO
          CFI CFA_XSP16 add(XSP16, 15)
        MOV     R4,#0x3
        MOV     R3,#0x0
        MOV     R2,#0xa
        MOV     DPTR,#bdb_TaskID
        MOVX    A,@DPTR
        MOV     R1,A
        LCALL   `??bdb_SendMsg::?relay`; Banked call to: bdb_SendMsg
        MOV     A,#0x2
        LCALL   ?DEALLOC_XSTACK8
          CFI CFA_XSP16 add(XSP16, 13)
//  960 }
        MOV     A,#0x3
        LJMP    ?Subroutine1 & 0xFFFF
          CFI EndBlock cfiBlock48
//  961 
//  962 
//  963 
//  964 #if (ZG_BUILD_JOINING_TYPE)
//  965  /*********************************************************************
//  966  * @fn          bdb_setNodeJoinLinkKeyType
//  967  *
//  968  * @brief       Set the key type in use in the network joined. Global centralized key is used by default
//  969  *
//  970  * @param       none
//  971  *
//  972  * @return      none
//  973  */
//  974 void bdb_setNodeJoinLinkKeyType(uint8 KeyType)
//  975 {
//  976   bdbAttributes.bdbNodeJoinLinkKeyType = KeyType;
//  977 }
//  978 #endif
//  979 
//  980  /*********************************************************************
//  981  * @fn          bdb_setFN
//  982  *
//  983  * @brief       Set configuration for FN. This FN configuration will be perfome 
//  984  *              upon call to ZDOInitDevice
//  985  *
//  986  * @param       none
//  987  *
//  988  * @return      none
//  989  */

        RSEG BANKED_CODE:CODE:NOROOT(0)
//  990 void bdb_setFN(void)
bdb_setFN:
          CFI Block cfiBlock49 Using cfiCommon0
          CFI Function bdb_setFN
        CODE
//  991 {
        FUNCALL bdb_setFN, bdb_setNodeIsOnANetwork
        LOCFRAME ISTACK, 2, STACK
        LOCFRAME PSTACK, 0, STACK
        LOCFRAME XSTACK, 0, STACK
        LOCFRAME IOVERLAY, 0, STATIC
        LOCFRAME DOVERLAY, 0, STATIC
        ARGFRAME ISTACK, 2, STACK
        ARGFRAME PSTACK, 0, STACK
        ARGFRAME XSTACK, 0, STACK
        ARGFRAME IOVERLAY, 0, STATIC
        ARGFRAME DOVERLAY, 0, STATIC
        FUNCALL bdb_setFN, zgWriteStartupOptions
        LOCFRAME ISTACK, 2, STACK
        LOCFRAME PSTACK, 0, STACK
        LOCFRAME XSTACK, 0, STACK
        LOCFRAME IOVERLAY, 0, STATIC
        LOCFRAME DOVERLAY, 0, STATIC
        ARGFRAME ISTACK, 2, STACK
        ARGFRAME PSTACK, 0, STACK
        ARGFRAME XSTACK, 0, STACK
        ARGFRAME IOVERLAY, 0, STATIC
        ARGFRAME DOVERLAY, 0, STATIC
        PUSH    DPL
          CFI DPL0 Frame(CFA_SP, 4)
          CFI CFA_SP SP+-4
        PUSH    DPH
          CFI DPH0 Frame(CFA_SP, 5)
          CFI CFA_SP SP+-5
        ; Saved register size: 2
        ; Auto size: 0
//  992   bdb_setNodeIsOnANetwork(FALSE);
        ; Setup parameters for call to function bdb_setNodeIsOnANetwork
        MOV     R1,#0x0
        LCALL   `??bdb_setNodeIsOnANetwork::?relay`; Banked call to: bdb_setNodeIsOnANetwork
//  993 
//  994 #if defined ( INTER_PAN ) && defined ( BDB_TL_INITIATOR )
//  995     touchLink_InitFreeRanges( TRUE );
//  996     touchLink_UpdateNV( TOUCHLINK_UPDATE_NV_RANGES );
//  997 #endif
//  998 #if defined ( INTER_PAN ) && defined ( BDB_TL_TARGET ) 
//  999     touchLink_InitFreeRanges( FALSE );
// 1000     touchLink_UpdateNV( TOUCHLINK_UPDATE_NV_RANGES );
// 1001 #endif
// 1002 
// 1003   //Set the device as factory new
// 1004   zgWriteStartupOptions(ZG_STARTUP_SET, ZCD_STARTOPT_DEFAULT_CONFIG_STATE | ZCD_STARTOPT_DEFAULT_NETWORK_STATE);
        ; Setup parameters for call to function zgWriteStartupOptions
        MOV     R2,#0x3
        MOV     R1,#-0x1
        LCALL   `??zgWriteStartupOptions::?relay`; Banked call to: zgWriteStartupOptions
// 1005 }
        SJMP    ??Subroutine35_0
          CFI EndBlock cfiBlock49
// 1006 
// 1007  /*********************************************************************
// 1008  * @fn          bdb_resetLocalAction
// 1009  *
// 1010  * @brief       Application interface to perform BDB Reset to FN.
// 1011  *
// 1012  * @param       none
// 1013  *
// 1014  * @return      none
// 1015  */

        RSEG BANKED_CODE:CODE:NOROOT(0)
// 1016 void bdb_resetLocalAction(void)
bdb_resetLocalAction:
          CFI Block cfiBlock50 Using cfiCommon0
          CFI Function bdb_resetLocalAction
        CODE
// 1017 {
        FUNCALL bdb_resetLocalAction, bdb_setFN
        LOCFRAME ISTACK, 2, STACK
        LOCFRAME PSTACK, 0, STACK
        LOCFRAME XSTACK, 0, STACK
        LOCFRAME IOVERLAY, 0, STATIC
        LOCFRAME DOVERLAY, 0, STATIC
        ARGFRAME ISTACK, 2, STACK
        ARGFRAME PSTACK, 0, STACK
        ARGFRAME XSTACK, 0, STACK
        ARGFRAME IOVERLAY, 0, STATIC
        ARGFRAME DOVERLAY, 0, STATIC
        FUNCALL bdb_resetLocalAction, ZDApp_ResetTimerStart
        LOCFRAME ISTACK, 2, STACK
        LOCFRAME PSTACK, 0, STACK
        LOCFRAME XSTACK, 0, STACK
        LOCFRAME IOVERLAY, 0, STATIC
        LOCFRAME DOVERLAY, 0, STATIC
        ARGFRAME ISTACK, 2, STACK
        ARGFRAME PSTACK, 0, STACK
        ARGFRAME XSTACK, 0, STACK
        ARGFRAME IOVERLAY, 0, STATIC
        ARGFRAME DOVERLAY, 0, STATIC
        PUSH    DPL
          CFI DPL0 Frame(CFA_SP, 4)
          CFI CFA_SP SP+-4
        PUSH    DPH
          CFI DPH0 Frame(CFA_SP, 5)
          CFI CFA_SP SP+-5
        ; Saved register size: 2
        ; Auto size: 0
// 1018   //Process reset as nwk leave if the device is on the network and is able to process it
// 1019   if((ZG_BUILD_JOINING_TYPE) && (bdbAttributes.bdbNodeIsOnANetwork) && (!(bdbAttributes.bdbCommissioningMode & BDB_COMMISSIONING_MODE_PARENT_LOST)))
// 1020   {
// 1021     NLME_LeaveReq_t leaveReq;
// 1022     // Set every field to 0
// 1023     osal_memset( &leaveReq, 0, sizeof( NLME_LeaveReq_t ) );
// 1024     
// 1025     bdb_setFN();
// 1026       
// 1027     NLME_LeaveReq( &leaveReq );
// 1028     
// 1029     return;
// 1030   }
// 1031   else
// 1032   {
// 1033     bdb_setFN();
        ; Setup parameters for call to function bdb_setFN
        LCALL   `??bdb_setFN::?relay`; Banked call to: bdb_setFN
// 1034     
// 1035     ZDApp_ResetTimerStart( 500 );
        ; Setup parameters for call to function ZDApp_ResetTimerStart
        MOV     R2,#-0xc
        MOV     R3,#0x1
        LCALL   `??ZDApp_ResetTimerStart::?relay`; Banked call to: ZDApp_ResetTimerStart
// 1036   }
// 1037 }
        SJMP    ??Subroutine35_0
          CFI EndBlock cfiBlock50

        RSEG BANKED_CODE:CODE:NOROOT(0)
?Subroutine3:
          CFI Block cfiBlock51 Using cfiCommon0
          CFI NoFunction
          CFI CFA_SP SP+-5
          CFI DPL0 Frame(CFA_SP, 4)
          CFI DPH0 Frame(CFA_SP, 5)
        MOV     A,R2
        MOVX    @DPTR,A
        INC     DPTR
        MOV     A,R3
          CFI EndBlock cfiBlock51
        REQUIRE ??Subroutine34_0
        ; // Fall through to label ??Subroutine34_0

        RSEG BANKED_CODE:CODE:NOROOT(0)
??Subroutine34_0:
          CFI Block cfiBlock52 Using cfiCommon0
          CFI NoFunction
          CFI CFA_SP SP+-5
          CFI DPL0 Frame(CFA_SP, 4)
          CFI DPH0 Frame(CFA_SP, 5)
        MOVX    @DPTR,A
          CFI EndBlock cfiBlock52
        REQUIRE ??Subroutine35_0
        ; // Fall through to label ??Subroutine35_0

        RSEG BANKED_CODE:CODE:NOROOT(0)
??Subroutine35_0:
          CFI Block cfiBlock53 Using cfiCommon0
          CFI NoFunction
          CFI CFA_SP SP+-5
          CFI DPL0 Frame(CFA_SP, 4)
          CFI DPH0 Frame(CFA_SP, 5)
        POP     DPH
          CFI CFA_SP SP+-4
          CFI DPH0 SameValue
        POP     DPL
          CFI CFA_SP SP+-3
          CFI DPL0 SameValue
        LJMP    ?BRET
          CFI EndBlock cfiBlock53
// 1038 
// 1039 
// 1040  /*********************************************************************
// 1041  * @fn          bdb_parentLost
// 1042  *
// 1043  * @brief       Notify bdb that connection with parent is lost
// 1044  *
// 1045  * @return      none
// 1046  */

        RSEG BANKED_CODE:CODE:NOROOT(0)
// 1047 void bdb_parentLost(void)
bdb_parentLost:
          CFI Block cfiBlock54 Using cfiCommon0
          CFI Function bdb_parentLost
        CODE
// 1048 {
        ; Saved register size: 0
        ; Auto size: 0
// 1049 #if ZG_BUILD_ENDDEVICE_TYPE
// 1050   if(ZG_DEVICE_ENDDEVICE_TYPE)
// 1051   {
// 1052     while(pBDBListNwk)
// 1053     {
// 1054       bdb_nwkDescFree(pBDBListNwk);
// 1055     }
// 1056     
// 1057     nwk_desc_list_free();  
// 1058     if(bdbCommissioningProcedureState.bdbCommissioningState != BDB_PARENT_LOST)
// 1059     {
// 1060       //If parent lost during TCLK exchange, then report TCLK exchange fail
// 1061       if(bdbCommissioningProcedureState.bdbCommissioningState == BDB_COMMISSIONING_STATE_TC_LINK_KEY_EXCHANGE)
// 1062       {
// 1063         bdb_reportCommissioningState(BDB_COMMISSIONING_STATE_TC_LINK_KEY_EXCHANGE, FALSE);
// 1064         return;
// 1065       }
// 1066       bdbCommissioningProcedureState.bdb_ParentLostSavedState = bdbCommissioningProcedureState.bdbCommissioningState;
// 1067       
// 1068     }
// 1069     bdbCommissioningProcedureState.bdbCommissioningState = BDB_PARENT_LOST;
// 1070     NLME_OrphanStateSet();
// 1071     ZDApp_ChangeState( DEV_NWK_ORPHAN );
// 1072     bdb_reportCommissioningState(BDB_PARENT_LOST,FALSE);
// 1073   }
// 1074 #endif
// 1075 }
        LJMP    ?BRET
          CFI EndBlock cfiBlock54
// 1076 
// 1077 
// 1078 
// 1079 
// 1080 
// 1081  /*********************************************************************
// 1082  * @fn          bdb_NetworkRestoredResumeState
// 1083  *
// 1084  * @brief       Restore the state of child device after parent lost
// 1085  *
// 1086  * @return      none
// 1087  */

        RSEG BANKED_CODE:CODE:NOROOT(0)
// 1088 void bdb_NetworkRestoredResumeState(void)
bdb_NetworkRestoredResumeState:
          CFI Block cfiBlock55 Using cfiCommon0
          CFI Function bdb_NetworkRestoredResumeState
        CODE
// 1089 {
        ; Saved register size: 0
        ; Auto size: 0
// 1090 #if ZG_BUILD_ENDDEVICE_TYPE
// 1091   if(ZG_DEVICE_ENDDEVICE_TYPE)
// 1092   {
// 1093     uint8 restoreSimpleDesc = FALSE;
// 1094     //If restored when F&B still enabled, then restore the simple descriptors attempts
// 1095     if(bdbCommissioningProcedureState.bdbCommissioningState == BDB_COMMISSIONING_STATE_FINDING_BINDING)
// 1096     {
// 1097       bdbFindingBindingRespondent_t  *pRespondentTemp = NULL;
// 1098       
// 1099       pRespondentTemp = pRespondentHead;
// 1100       
// 1101       while(pRespondentTemp != NULL)
// 1102       {
// 1103         if(pRespondentTemp->attempts == BDB_SIMPLE_DESC_PENDING_PARENT_LOST)
// 1104         {
// 1105           pRespondentTemp->attempts = 0;
// 1106           restoreSimpleDesc = TRUE;
// 1107         }
// 1108         pRespondentTemp = pRespondentTemp->pNext;
// 1109       }
// 1110     }
// 1111     if(restoreSimpleDesc)
// 1112     {
// 1113       //Restore the simple Descriptor sending after 1 second of restoring the network
// 1114       osal_start_timerEx(bdb_TaskID,BDB_RESPONDENT_SIMPLEDESC_TIMEOUT, 1000);
// 1115     }
// 1116   }
// 1117 #endif
// 1118 }
        LJMP    ?BRET
          CFI EndBlock cfiBlock55
// 1119 
// 1120 #if ZG_BUILD_ENDDEVICE_TYPE
// 1121  /*********************************************************************
// 1122  * @fn          bdb_ZedAttemptRecoverNwk
// 1123  *
// 1124  * @brief       Instruct the ZED to try to rejoin its previews network
// 1125  *
// 1126  * @return      success if the attempt is being excecuted
// 1127  *              False if device do not have nwk parameters to perform this action
// 1128  */
// 1129 uint8 bdb_ZedAttemptRecoverNwk(void)
// 1130 {
// 1131   if(ZG_DEVICE_ENDDEVICE_TYPE)
// 1132   {
// 1133     if(bdbAttributes.bdbNodeIsOnANetwork)
// 1134     {
// 1135       if(bdbCommissioningProcedureState.bdbCommissioningState == BDB_PARENT_LOST)
// 1136       {
// 1137         if(ZDOInitDevice(0) == ZDO_INITDEV_RESTORED_NETWORK_STATE)
// 1138         {
// 1139           return ZSuccess;
// 1140         }
// 1141       }
// 1142     }
// 1143   }
// 1144   return ZFailure;
// 1145 }
// 1146 
// 1147 #endif
// 1148 
// 1149  /*********************************************************************
// 1150  * @fn          bdb_reportCommissioningState
// 1151  *
// 1152  * @brief       Process the result of a BDB main state attempt.
// 1153  *
// 1154  * @param       bdbCommissioningState - MainState that is issuing fail
// 1155  * @param       didSuccess - TRUE if the main state were success, FALSE otherwise
// 1156  *
// 1157  * @return      none
// 1158  */

        RSEG BANKED_CODE:CODE:NOROOT(0)
// 1159 void bdb_reportCommissioningState(uint8 bdbCommissioningState,bool didSuccess)
bdb_reportCommissioningState:
          CFI Block cfiBlock56 Using cfiCommon0
          CFI Function bdb_reportCommissioningState
        CODE
// 1160 {
        FUNCALL bdb_reportCommissioningState, ZDApp_ChangeState
        LOCFRAME ISTACK, 0, STACK
        LOCFRAME PSTACK, 0, STACK
        LOCFRAME XSTACK, 14, STACK
        LOCFRAME IOVERLAY, 0, STATIC
        LOCFRAME DOVERLAY, 0, STATIC
        ARGFRAME ISTACK, 0, STACK
        ARGFRAME PSTACK, 0, STACK
        ARGFRAME XSTACK, 14, STACK
        ARGFRAME IOVERLAY, 0, STATIC
        ARGFRAME DOVERLAY, 0, STATIC
        FUNCALL bdb_reportCommissioningState, osal_start_timerEx
        LOCFRAME ISTACK, 0, STACK
        LOCFRAME PSTACK, 0, STACK
        LOCFRAME XSTACK, 18, STACK
        LOCFRAME IOVERLAY, 0, STATIC
        LOCFRAME DOVERLAY, 0, STATIC
        ARGFRAME ISTACK, 0, STACK
        ARGFRAME PSTACK, 0, STACK
        ARGFRAME XSTACK, 18, STACK
        ARGFRAME IOVERLAY, 0, STATIC
        ARGFRAME DOVERLAY, 0, STATIC
        FUNCALL bdb_reportCommissioningState, ZDApp_ChangeState
        LOCFRAME ISTACK, 0, STACK
        LOCFRAME PSTACK, 0, STACK
        LOCFRAME XSTACK, 14, STACK
        LOCFRAME IOVERLAY, 0, STATIC
        LOCFRAME DOVERLAY, 0, STATIC
        ARGFRAME ISTACK, 0, STACK
        ARGFRAME PSTACK, 0, STACK
        ARGFRAME XSTACK, 14, STACK
        ARGFRAME IOVERLAY, 0, STATIC
        ARGFRAME DOVERLAY, 0, STATIC
        FUNCALL bdb_reportCommissioningState, ZDApp_ChangeState
        LOCFRAME ISTACK, 0, STACK
        LOCFRAME PSTACK, 0, STACK
        LOCFRAME XSTACK, 14, STACK
        LOCFRAME IOVERLAY, 0, STATIC
        LOCFRAME DOVERLAY, 0, STATIC
        ARGFRAME ISTACK, 0, STACK
        ARGFRAME PSTACK, 0, STACK
        ARGFRAME XSTACK, 14, STACK
        ARGFRAME IOVERLAY, 0, STATIC
        ARGFRAME DOVERLAY, 0, STATIC
        FUNCALL bdb_reportCommissioningState, ZMacSetReq
        LOCFRAME ISTACK, 0, STACK
        LOCFRAME PSTACK, 0, STACK
        LOCFRAME XSTACK, 14, STACK
        LOCFRAME IOVERLAY, 0, STATIC
        LOCFRAME DOVERLAY, 0, STATIC
        ARGFRAME ISTACK, 0, STACK
        ARGFRAME PSTACK, 0, STACK
        ARGFRAME XSTACK, 14, STACK
        ARGFRAME IOVERLAY, 0, STATIC
        ARGFRAME DOVERLAY, 0, STATIC
        FUNCALL bdb_reportCommissioningState, bdb_setFN
        LOCFRAME ISTACK, 0, STACK
        LOCFRAME PSTACK, 0, STACK
        LOCFRAME XSTACK, 14, STACK
        LOCFRAME IOVERLAY, 0, STATIC
        LOCFRAME DOVERLAY, 0, STATIC
        ARGFRAME ISTACK, 0, STACK
        ARGFRAME PSTACK, 0, STACK
        ARGFRAME XSTACK, 14, STACK
        ARGFRAME IOVERLAY, 0, STATIC
        ARGFRAME DOVERLAY, 0, STATIC
        FUNCALL bdb_reportCommissioningState, NLME_ResetRequest
        LOCFRAME ISTACK, 0, STACK
        LOCFRAME PSTACK, 0, STACK
        LOCFRAME XSTACK, 14, STACK
        LOCFRAME IOVERLAY, 0, STATIC
        LOCFRAME DOVERLAY, 0, STATIC
        ARGFRAME ISTACK, 0, STACK
        ARGFRAME PSTACK, 0, STACK
        ARGFRAME XSTACK, 14, STACK
        ARGFRAME IOVERLAY, 0, STATIC
        ARGFRAME DOVERLAY, 0, STATIC
        FUNCALL bdb_reportCommissioningState, ZDApp_ChangeState
        LOCFRAME ISTACK, 0, STACK
        LOCFRAME PSTACK, 0, STACK
        LOCFRAME XSTACK, 14, STACK
        LOCFRAME IOVERLAY, 0, STATIC
        LOCFRAME DOVERLAY, 0, STATIC
        ARGFRAME ISTACK, 0, STACK
        ARGFRAME PSTACK, 0, STACK
        ARGFRAME XSTACK, 14, STACK
        ARGFRAME IOVERLAY, 0, STATIC
        ARGFRAME DOVERLAY, 0, STATIC
        FUNCALL bdb_reportCommissioningState, osal_start_timerEx
        LOCFRAME ISTACK, 0, STACK
        LOCFRAME PSTACK, 0, STACK
        LOCFRAME XSTACK, 18, STACK
        LOCFRAME IOVERLAY, 0, STATIC
        LOCFRAME DOVERLAY, 0, STATIC
        ARGFRAME ISTACK, 0, STACK
        ARGFRAME PSTACK, 0, STACK
        ARGFRAME XSTACK, 18, STACK
        ARGFRAME IOVERLAY, 0, STATIC
        ARGFRAME DOVERLAY, 0, STATIC
        FUNCALL bdb_reportCommissioningState, bdb_getRespondentRetry
        LOCFRAME ISTACK, 0, STACK
        LOCFRAME PSTACK, 0, STACK
        LOCFRAME XSTACK, 14, STACK
        LOCFRAME IOVERLAY, 0, STATIC
        LOCFRAME DOVERLAY, 0, STATIC
        ARGFRAME ISTACK, 0, STACK
        ARGFRAME PSTACK, 0, STACK
        ARGFRAME XSTACK, 14, STACK
        ARGFRAME IOVERLAY, 0, STATIC
        ARGFRAME DOVERLAY, 0, STATIC
        FUNCALL bdb_reportCommissioningState, osal_get_timeoutEx
        LOCFRAME ISTACK, 0, STACK
        LOCFRAME PSTACK, 0, STACK
        LOCFRAME XSTACK, 14, STACK
        LOCFRAME IOVERLAY, 0, STATIC
        LOCFRAME DOVERLAY, 0, STATIC
        ARGFRAME ISTACK, 0, STACK
        ARGFRAME PSTACK, 0, STACK
        ARGFRAME XSTACK, 14, STACK
        ARGFRAME IOVERLAY, 0, STATIC
        ARGFRAME DOVERLAY, 0, STATIC
        FUNCALL bdb_reportCommissioningState, bdb_zclRespondentListClean
        LOCFRAME ISTACK, 0, STACK
        LOCFRAME PSTACK, 0, STACK
        LOCFRAME XSTACK, 14, STACK
        LOCFRAME IOVERLAY, 0, STATIC
        LOCFRAME DOVERLAY, 0, STATIC
        ARGFRAME ISTACK, 0, STACK
        ARGFRAME PSTACK, 0, STACK
        ARGFRAME XSTACK, 14, STACK
        ARGFRAME IOVERLAY, 0, STATIC
        ARGFRAME DOVERLAY, 0, STATIC
        FUNCALL bdb_reportCommissioningState, osal_stop_timerEx
        LOCFRAME ISTACK, 0, STACK
        LOCFRAME PSTACK, 0, STACK
        LOCFRAME XSTACK, 14, STACK
        LOCFRAME IOVERLAY, 0, STATIC
        LOCFRAME DOVERLAY, 0, STATIC
        ARGFRAME ISTACK, 0, STACK
        ARGFRAME PSTACK, 0, STACK
        ARGFRAME XSTACK, 14, STACK
        ARGFRAME IOVERLAY, 0, STATIC
        ARGFRAME DOVERLAY, 0, STATIC
        FUNCALL bdb_reportCommissioningState, osal_start_timerEx
        LOCFRAME ISTACK, 0, STACK
        LOCFRAME PSTACK, 0, STACK
        LOCFRAME XSTACK, 18, STACK
        LOCFRAME IOVERLAY, 0, STATIC
        LOCFRAME DOVERLAY, 0, STATIC
        ARGFRAME ISTACK, 0, STACK
        ARGFRAME PSTACK, 0, STACK
        ARGFRAME XSTACK, 18, STACK
        ARGFRAME IOVERLAY, 0, STATIC
        ARGFRAME DOVERLAY, 0, STATIC
        FUNCALL bdb_reportCommissioningState, nwk_setStateIdle
        LOCFRAME ISTACK, 0, STACK
        LOCFRAME PSTACK, 0, STACK
        LOCFRAME XSTACK, 14, STACK
        LOCFRAME IOVERLAY, 0, STATIC
        LOCFRAME DOVERLAY, 0, STATIC
        ARGFRAME ISTACK, 0, STACK
        ARGFRAME PSTACK, 0, STACK
        ARGFRAME XSTACK, 14, STACK
        ARGFRAME IOVERLAY, 0, STATIC
        ARGFRAME DOVERLAY, 0, STATIC
        FUNCALL bdb_reportCommissioningState, ZDApp_ChangeState
        LOCFRAME ISTACK, 0, STACK
        LOCFRAME PSTACK, 0, STACK
        LOCFRAME XSTACK, 14, STACK
        LOCFRAME IOVERLAY, 0, STATIC
        LOCFRAME DOVERLAY, 0, STATIC
        ARGFRAME ISTACK, 0, STACK
        ARGFRAME PSTACK, 0, STACK
        ARGFRAME XSTACK, 14, STACK
        ARGFRAME IOVERLAY, 0, STATIC
        ARGFRAME DOVERLAY, 0, STATIC
        FUNCALL bdb_reportCommissioningState, osal_start_timerEx
        LOCFRAME ISTACK, 0, STACK
        LOCFRAME PSTACK, 0, STACK
        LOCFRAME XSTACK, 18, STACK
        LOCFRAME IOVERLAY, 0, STATIC
        LOCFRAME DOVERLAY, 0, STATIC
        ARGFRAME ISTACK, 0, STACK
        ARGFRAME PSTACK, 0, STACK
        ARGFRAME XSTACK, 18, STACK
        ARGFRAME IOVERLAY, 0, STATIC
        ARGFRAME DOVERLAY, 0, STATIC
        FUNCALL bdb_reportCommissioningState, ZDApp_ChangeState
        LOCFRAME ISTACK, 0, STACK
        LOCFRAME PSTACK, 0, STACK
        LOCFRAME XSTACK, 14, STACK
        LOCFRAME IOVERLAY, 0, STATIC
        LOCFRAME DOVERLAY, 0, STATIC
        ARGFRAME ISTACK, 0, STACK
        ARGFRAME PSTACK, 0, STACK
        ARGFRAME XSTACK, 14, STACK
        ARGFRAME IOVERLAY, 0, STATIC
        ARGFRAME DOVERLAY, 0, STATIC
        FUNCALL bdb_reportCommissioningState, ZDApp_RestoreNwkSecMaterial
        LOCFRAME ISTACK, 0, STACK
        LOCFRAME PSTACK, 0, STACK
        LOCFRAME XSTACK, 14, STACK
        LOCFRAME IOVERLAY, 0, STATIC
        LOCFRAME DOVERLAY, 0, STATIC
        ARGFRAME ISTACK, 0, STACK
        ARGFRAME PSTACK, 0, STACK
        ARGFRAME XSTACK, 14, STACK
        ARGFRAME IOVERLAY, 0, STATIC
        ARGFRAME DOVERLAY, 0, STATIC
        FUNCALL bdb_reportCommissioningState, osal_start_timerEx
        LOCFRAME ISTACK, 0, STACK
        LOCFRAME PSTACK, 0, STACK
        LOCFRAME XSTACK, 18, STACK
        LOCFRAME IOVERLAY, 0, STATIC
        LOCFRAME DOVERLAY, 0, STATIC
        ARGFRAME ISTACK, 0, STACK
        ARGFRAME PSTACK, 0, STACK
        ARGFRAME XSTACK, 18, STACK
        ARGFRAME IOVERLAY, 0, STATIC
        ARGFRAME DOVERLAY, 0, STATIC
        FUNCALL bdb_reportCommissioningState, bdb_SendMsg
        LOCFRAME ISTACK, 0, STACK
        LOCFRAME PSTACK, 0, STACK
        LOCFRAME XSTACK, 16, STACK
        LOCFRAME IOVERLAY, 0, STATIC
        LOCFRAME DOVERLAY, 0, STATIC
        ARGFRAME ISTACK, 0, STACK
        ARGFRAME PSTACK, 0, STACK
        ARGFRAME XSTACK, 16, STACK
        ARGFRAME IOVERLAY, 0, STATIC
        ARGFRAME DOVERLAY, 0, STATIC
        REQUIRE ?V0
        REQUIRE ?V1
        MOV     A,#-0xa
        LCALL   ?BANKED_ENTER_XDATA
          CFI DPH0 load(1, XDATA, add(CFA_XSP16, literal(-1)))
          CFI DPL0 load(1, XDATA, add(CFA_XSP16, literal(-2)))
          CFI ?BRET_EXT load(1, XDATA, add(CFA_XSP16, literal(-3)))
          CFI ?RET_HIGH load(1, XDATA, add(CFA_XSP16, literal(-4)))
          CFI ?RET_LOW load(1, XDATA, add(CFA_XSP16, literal(-5)))
          CFI R7 load(1, XDATA, add(CFA_XSP16, literal(-6)))
          CFI V1 load(1, XDATA, add(CFA_XSP16, literal(-7)))
          CFI V0 load(1, XDATA, add(CFA_XSP16, literal(-8)))
          CFI VB load(1, XDATA, add(CFA_XSP16, literal(-9)))
          CFI R6 load(1, XDATA, add(CFA_XSP16, literal(-10)))
          CFI CFA_SP SP+0
          CFI CFA_XSP16 add(XSP16, 10)
        ; Saved register size: 10
        ; Auto size: 4
        MOV     A,#-0x4
        LCALL   ?ALLOC_XSTACK8
          CFI CFA_XSP16 add(XSP16, 14)
        MOV     A,R1
        MOV     R6,A
        MOV     A,R2
        MOV     R7,A
// 1161   bdbCommissioningModeMsg_t bdbCommissioningModeMsg;
// 1162   //Process only if we are in that state, or if we are on parent lost and processing F&B
// 1163   if((bdbCommissioningProcedureState.bdbCommissioningState == bdbCommissioningState)
// 1164      || ((bdbCommissioningProcedureState.bdbCommissioningState == BDB_PARENT_LOST) && (bdbCommissioningProcedureState.bdb_ParentLostSavedState == BDB_COMMISSIONING_STATE_FINDING_BINDING)))
        MOV     DPTR,#bdbCommissioningProcedureState
        MOVX    A,@DPTR
        XRL     A,R6
        JZ      ??bdb_reportCommissioningState_0
        MOVX    A,@DPTR
        XRL     A,#0x8
        JZ      $+5
        LJMP    ??bdb_reportCommissioningState_1 & 0xFFFF
        MOV     DPTR,#bdbCommissioningProcedureState + 3
        MOVX    A,@DPTR
        XRL     A,#0x6
        JZ      $+5
        LJMP    ??bdb_reportCommissioningState_1 & 0xFFFF
// 1165   {
// 1166     switch(bdbCommissioningState)
??bdb_reportCommissioningState_0:
        MOV     A,R6
        ADD     A,#-0x2
        JNZ     $+5
        LJMP    ??bdb_reportCommissioningState_2 & 0xFFFF
        ADD     A,#-0x2
        JZ      ??bdb_reportCommissioningState_3
        DEC     A
        JZ      ??bdb_reportCommissioningState_4
        DEC     A
        JNZ     $+5
        LJMP    ??bdb_reportCommissioningState_5 & 0xFFFF
        DEC     A
        JNZ     $+5
        LJMP    ??bdb_reportCommissioningState_6 & 0xFFFF
        LJMP    ??bdb_reportCommissioningState_7 & 0xFFFF
// 1167     {
// 1168 #if (ZG_BUILD_JOINING_TYPE)
// 1169       case BDB_COMMISSIONING_STATE_JOINING:
// 1170         if(ZG_DEVICE_JOINING_TYPE)
// 1171         {
// 1172           //Prepare for the next state or commissioning mode to be excecuted
// 1173           osal_start_timerEx(bdb_TaskID,BDB_CHANGE_COMMISSIONING_STATE,50);
// 1174 
// 1175           if(didSuccess)
// 1176           {
// 1177             //Next state is TC link key exchange
// 1178             bdbCommissioningProcedureState.bdbCommissioningState = BDB_COMMISSIONING_STATE_TC_LINK_KEY_EXCHANGE;
// 1179             //Free the list of nwk discovered
// 1180             while(pBDBListNwk)
// 1181             {
// 1182               bdb_nwkDescFree(pBDBListNwk);
// 1183             }
// 1184             
// 1185             //Set the poll rate of the ZED joining device to 1 second to allow TCLK 
// 1186             //exchange be perfomed successfully in cases in which application has a 
// 1187             //slow pollrate
// 1188             NLME_SetPollRate(TCLK_POLL_RATE);
// 1189             
// 1190             //No notification in this step
// 1191             return;
// 1192           } 
// 1193           else
// 1194           {
// 1195             uint8 temp = FALSE;
// 1196             //If fail, then restore poll rate
// 1197             NLME_SetPollRate(POLL_RATE);
// 1198             bdbAttributes.bdbCommissioningStatus = BDB_COMMISSIONING_NO_NETWORK;
// 1199             bdbCommissioningModeMsg.bdbCommissioningMode = BDB_COMMISSIONING_NWK_STEERING;
// 1200             bdbCommissioningProcedureState.bdbCommissioningState = BDB_COMMISSIONING_STATE_START_RESUME;
// 1201             bdbAttributes.bdbCommissioningMode &= ~BDB_COMMISSIONING_MODE_NWK_STEERING;
// 1202             
// 1203             //Turn off the radio
// 1204             ZMacSetReq(ZMacRxOnIdle, &temp);
// 1205             //Set the device to FN, to start as new for subsequent attempts
// 1206             bdb_setFN();
// 1207             NLME_ResetRequest();
// 1208             ZDApp_ChangeState( DEV_HOLD );
// 1209             
// 1210             //Free the list of nwk discovered
// 1211             while(pBDBListNwk)
// 1212             {
// 1213               bdb_nwkDescFree(pBDBListNwk);
// 1214             }
// 1215           }
// 1216         }
// 1217       break;
// 1218 
// 1219       case BDB_COMMISSIONING_STATE_TC_LINK_KEY_EXCHANGE:
// 1220         if(ZG_DEVICE_JOINING_TYPE)
// 1221         {
// 1222           if(didSuccess)
// 1223           {
// 1224             //Next state is nwk steering on the nwk (permit joining)
// 1225             bdbCommissioningProcedureState.bdbCommissioningState = BDB_COMMISSIONING_STATE_STEERING_ON_NWK;
// 1226             osal_start_timerEx(bdb_TaskID,BDB_CHANGE_COMMISSIONING_STATE, 50);
// 1227             
// 1228             //Set the poll rate to the application default after TCLK success
// 1229             NLME_SetPollRate(POLL_RATE);
// 1230 
// 1231             osal_stop_timerEx( bdb_TaskID, BDB_PROCESS_TIMEOUT );
// 1232             //No notification to the user is needed
// 1233             return;
// 1234           }
// 1235           else
// 1236           {
// 1237             bdbCommissioningModeMsg.bdbCommissioningMode = BDB_COMMISSIONING_NWK_STEERING;
// 1238             bdbAttributes.bdbCommissioningStatus = BDB_COMMISSIONING_TCLK_EX_FAILURE;
// 1239             
// 1240             osal_stop_timerEx( bdb_TaskID, BDB_PROCESS_TIMEOUT);
// 1241            
// 1242             //No process shall be attempted after this fail
// 1243             bdbAttributes.bdbCommissioningMode = 0;
// 1244             
// 1245             //Fill the context for the user notification
// 1246             osal_start_timerEx(bdb_TaskID,BDB_TC_LINK_KEY_EXCHANGE_FAIL,BDB_TC_LINK_KEY_EXCHANGE_FAIL_LEAVE_TIMEOUT);
// 1247           }
// 1248         }
// 1249       break;
// 1250 #endif
// 1251       
// 1252       case BDB_COMMISSIONING_STATE_STEERING_ON_NWK:
// 1253         bdbCommissioningModeMsg.bdbCommissioningMode = BDB_COMMISSIONING_NWK_STEERING;
??bdb_reportCommissioningState_3:
        MOV     A,#0x1
        LCALL   ?XSTACK_DISP0_8
        MOV     A,#0x1
        MOVX    @DPTR,A
// 1254         if(didSuccess)
        MOV     A,R7
        MOV     DPTR,#bdbAttributes + 10
        JZ      ??bdb_reportCommissioningState_8
// 1255         {
// 1256           bdbAttributes.bdbCommissioningStatus = BDB_COMMISSIONING_SUCCESS;
        LCALL   ?Subroutine9 & 0xFFFF
// 1257           
// 1258 #if (ZG_BUILD_RTR_TYPE)          
// 1259           //Update ZDApp state
// 1260           if(ZG_DEVICE_RTRONLY_TYPE)
??CrossCallReturnLabel_45:
        JNZ     ??bdb_reportCommissioningState_9
// 1261           {          
// 1262             ZDApp_ChangeState( DEV_ROUTER );
        ; Setup parameters for call to function ZDApp_ChangeState
        MOV     R1,#0x7
        LCALL   `??ZDApp_ChangeState::?relay`; Banked call to: ZDApp_ChangeState
        SJMP    ??bdb_reportCommissioningState_9
// 1263           }
// 1264 #endif
// 1265 #if (ZG_BUILD_ENDDEVICE_TYPE)
// 1266           if(ZG_DEVICE_ENDDEVICE_TYPE)
// 1267           {
// 1268             ZDApp_ChangeState( DEV_END_DEVICE );
// 1269           }
// 1270 #endif
// 1271         }
// 1272 #if (ZG_BUILD_COORDINATOR_TYPE)
// 1273         else
// 1274         {
// 1275           if(ZG_DEVICE_COORDINATOR_TYPE)
// 1276           {
// 1277             bdbAttributes.bdbCommissioningStatus = BDB_COMMISSIONING_NO_NETWORK;
??bdb_reportCommissioningState_8:
        MOV     A,#0x2
        MOVX    @DPTR,A
// 1278           }
// 1279         }
// 1280 #endif
// 1281         
// 1282         bdbCommissioningProcedureState.bdbCommissioningState = BDB_COMMISSIONING_STATE_START_RESUME;
??bdb_reportCommissioningState_9:
        MOV     DPTR,#bdbCommissioningProcedureState
        CLR     A
        MOVX    @DPTR,A
// 1283         osal_start_timerEx(bdb_TaskID,BDB_CHANGE_COMMISSIONING_STATE,50);
        ; Setup parameters for call to function osal_start_timerEx
        MOV     DPTR,#__Constant_32
        LCALL   ?PUSH_XSTACK8_X_FOUR
          CFI CFA_XSP16 add(XSP16, 18)
        MOV     R2,#0x4
        MOV     R3,#0x0
        MOV     DPTR,#bdb_TaskID
        MOVX    A,@DPTR
        MOV     R1,A
        LCALL   `??osal_start_timerEx::?relay`; Banked call to: osal_start_timerEx
        MOV     A,#0x4
        LCALL   ?DEALLOC_XSTACK8
          CFI CFA_XSP16 add(XSP16, 14)
// 1284         bdbAttributes.bdbCommissioningMode &= ~BDB_COMMISSIONING_MODE_NWK_STEERING;
        MOV     DPTR,#bdbAttributes + 11
        MOVX    A,@DPTR
        CLR     0xE0 /* A   */.1
        LJMP    ??bdb_reportCommissioningState_10 & 0xFFFF
// 1285       break;
// 1286       
// 1287       case BDB_COMMISSIONING_STATE_FORMATION:
// 1288         bdbCommissioningModeMsg.bdbCommissioningMode = BDB_COMMISSIONING_FORMATION;
??bdb_reportCommissioningState_4:
        MOV     A,#0x1
        LCALL   ?XSTACK_DISP0_8
        MOV     A,#0x2
        MOVX    @DPTR,A
// 1289 
// 1290         if(didSuccess)
        MOV     A,R7
        MOV     DPTR,#bdbAttributes + 10
        JZ      ??bdb_reportCommissioningState_11
// 1291         {
// 1292           bdbAttributes.bdbCommissioningStatus = BDB_COMMISSIONING_SUCCESS;
        LCALL   ?Subroutine9 & 0xFFFF
// 1293 
// 1294            //Update ZDApp State
// 1295 #if (ZG_BUILD_RTR_TYPE)
// 1296           if(ZG_DEVICE_RTRONLY_TYPE)
??CrossCallReturnLabel_46:
        JNZ     ??bdb_reportCommissioningState_12
// 1297           {          
// 1298             ZDApp_ChangeState( DEV_ROUTER );
        ; Setup parameters for call to function ZDApp_ChangeState
        MOV     R1,#0x7
        LCALL   `??ZDApp_ChangeState::?relay`; Banked call to: ZDApp_ChangeState
// 1299           }
// 1300 #endif    
// 1301 #if (ZG_BUILD_COORDINATOR_TYPE)
// 1302           if(ZG_DEVICE_COORDINATOR_TYPE)
// 1303           {          
// 1304             ZDApp_ChangeState( DEV_ZB_COORD );
??bdb_reportCommissioningState_12:
        ; Setup parameters for call to function ZDApp_ChangeState
        MOV     R1,#0x9
        SJMP    ??bdb_reportCommissioningState_13
// 1305           }     
// 1306 #endif
// 1307         }
// 1308         else
// 1309         {
// 1310           bdbAttributes.bdbCommissioningStatus = BDB_COMMISSIONING_FORMATION_FAILURE;
??bdb_reportCommissioningState_11:
        MOV     A,#0x8
        MOVX    @DPTR,A
// 1311           //If not on the nwk, then restart the nwk parameters
// 1312 #if (ZG_BUILD_RTR_TYPE)
// 1313           if(ZG_DEVICE_RTR_TYPE)
        MOV     DPTR,#zgDeviceLogicalType
        MOVX    A,@DPTR
        JZ      ??bdb_reportCommissioningState_14
        XRL     A,#0x1
        JNZ     ??bdb_reportCommissioningState_15
// 1314           {           
// 1315             if(!bdbAttributes.bdbNodeIsOnANetwork)
??bdb_reportCommissioningState_14:
        MOV     DPTR,#bdbAttributes + 14
        MOVX    A,@DPTR
        JNZ     ??bdb_reportCommissioningState_15
// 1316             {
// 1317               uint8 temp = FALSE;
        MOV     A,#0x3
        LCALL   ?XSTACK_DISP0_8
        CLR     A
        MOVX    @DPTR,A
// 1318               //Turn off the radio
// 1319               ZMacSetReq(ZMacRxOnIdle, &temp);
        ; Setup parameters for call to function ZMacSetReq
        MOV     A,#0x3
        LCALL   ?XSTACK_DISP101_8
        MOV     R1,#0x52
        LCALL   `??ZMacSetReq::?relay`; Banked call to: ZMacSetReq
// 1320               //Set the device to FN, to start as new for subsequent attempts
// 1321               bdb_setFN();
        ; Setup parameters for call to function bdb_setFN
        LCALL   `??bdb_setFN::?relay`; Banked call to: bdb_setFN
// 1322               NLME_ResetRequest();
        ; Setup parameters for call to function NLME_ResetRequest
        LCALL   `??NLME_ResetRequest::?relay`; Banked call to: NLME_ResetRequest
// 1323               ZDApp_ChangeState( DEV_HOLD );
        ; Setup parameters for call to function ZDApp_ChangeState
        MOV     R1,#0x0
??bdb_reportCommissioningState_13:
        LCALL   `??ZDApp_ChangeState::?relay`; Banked call to: ZDApp_ChangeState
// 1324             }
// 1325           }
// 1326 #endif
// 1327         }
// 1328         bdbCommissioningProcedureState.bdbCommissioningState = BDB_COMMISSIONING_STATE_START_RESUME;
??bdb_reportCommissioningState_15:
        MOV     DPTR,#bdbCommissioningProcedureState
        CLR     A
        MOVX    @DPTR,A
// 1329         osal_start_timerEx(bdb_TaskID,BDB_CHANGE_COMMISSIONING_STATE,50);
        ; Setup parameters for call to function osal_start_timerEx
        MOV     DPTR,#__Constant_32
        LCALL   ?PUSH_XSTACK8_X_FOUR
          CFI CFA_XSP16 add(XSP16, 18)
        MOV     R2,#0x4
        MOV     R3,#0x0
        MOV     DPTR,#bdb_TaskID
        MOVX    A,@DPTR
        MOV     R1,A
        LCALL   `??osal_start_timerEx::?relay`; Banked call to: osal_start_timerEx
        MOV     A,#0x4
        LCALL   ?DEALLOC_XSTACK8
          CFI CFA_XSP16 add(XSP16, 14)
// 1330         bdbAttributes.bdbCommissioningMode &= ~BDB_COMMISSIONING_MODE_NWK_FORMATION;
        MOV     DPTR,#bdbAttributes + 11
        MOVX    A,@DPTR
        CLR     0xE0 /* A   */.2
        LJMP    ??bdb_reportCommissioningState_10 & 0xFFFF
// 1331       break;  
// 1332       
// 1333 
// 1334       case BDB_COMMISSIONING_STATE_FINDING_BINDING:
// 1335 #if (BDB_FINDING_BINDING_CAPABILITY_ENABLED==1) 
// 1336         bdbCommissioningModeMsg.bdbCommissioningMode = BDB_COMMISSIONING_FINDING_BINDING;
??bdb_reportCommissioningState_5:
        MOV     A,#0x1
        LCALL   ?XSTACK_DISP0_8
        MOV     A,#0x3
        MOVX    @DPTR,A
// 1337 
// 1338         //Do not notify the status if we have another identify to send
// 1339         if(bdbAttributes.bdbCommissioningStatus == BDB_COMMISSIONING_SUCCESS)
        MOV     DPTR,#bdbAttributes + 10
        MOVX    A,@DPTR
        JNZ     ??bdb_reportCommissioningState_16
// 1340         {
// 1341           //Success at least once during F&B as initiator, mark it
// 1342           bdb_FBStateSuccessLatch = TRUE;
        MOV     DPTR,#bdb_FBStateSuccessLatch
        MOV     A,#0x1
        MOVX    @DPTR,A
// 1343         }        
// 1344         
// 1345         //Will we process another indentify?
// 1346         if(((FINDING_AND_BINDING_PERIODIC_ENABLE == FALSE) || (bdb_FB_InitiatorCurrentCyclesNumber == 0)) && (bdb_getRespondentRetry(pRespondentHead) == NULL) && (osal_get_timeoutEx( bdb_TaskID, BDB_RESPONDENT_SIMPLEDESC_TIMEOUT) == 0))
??bdb_reportCommissioningState_16:
        MOV     DPTR,#bdb_FB_InitiatorCurrentCyclesNumber
        MOVX    A,@DPTR
        JZ      $+5
        LJMP    ??bdb_reportCommissioningState_1 & 0xFFFF
        ; Setup parameters for call to function bdb_getRespondentRetry
        LCALL   ?Subroutine19 & 0xFFFF
??CrossCallReturnLabel_87:
        LCALL   `??bdb_getRespondentRetry::?relay`; Banked call to: bdb_getRespondentRetry
        MOV     ?V1,R3
        MOV     A,R2
        ORL     A,?V1
        JZ      $+5
        LJMP    ??bdb_reportCommissioningState_1 & 0xFFFF
        ; Setup parameters for call to function osal_get_timeoutEx
        MOV     R2,#0x0
        MOV     R3,#0x40
        MOV     DPTR,#bdb_TaskID
        MOVX    A,@DPTR
        MOV     R1,A
        LCALL   `??osal_get_timeoutEx::?relay`; Banked call to: osal_get_timeoutEx
        MOV     A,R2
        ORL     A,R3
        ORL     A,R4
        ORL     A,R5
        JZ      $+5
        LJMP    ??bdb_reportCommissioningState_1 & 0xFFFF
// 1347         {
// 1348           // Dealocate respondent list and clean all the F&B process
// 1349           pRespondentCurr = NULL;
        MOV     DPTR,#pRespondentCurr
        CLR     A
        MOVX    @DPTR,A
        INC     DPTR
        MOVX    @DPTR,A
// 1350           pRespondentNext = NULL;
        MOV     DPTR,#pRespondentNext
        MOVX    @DPTR,A
        INC     DPTR
        MOVX    @DPTR,A
// 1351           bdb_zclRespondentListClean( &pRespondentHead );
        ; Setup parameters for call to function bdb_zclRespondentListClean
        MOV     R2,#pRespondentHead & 0xff
        MOV     R3,#(pRespondentHead >> 8) & 0xff
        LCALL   `??bdb_zclRespondentListClean::?relay`; Banked call to: bdb_zclRespondentListClean
// 1352           osal_stop_timerEx( bdb_TaskID, BDB_RESPONDENT_SIMPLEDESC_TIMEOUT );
        ; Setup parameters for call to function osal_stop_timerEx
        MOV     R2,#0x0
        MOV     R3,#0x40
        MOV     DPTR,#bdb_TaskID
        MOVX    A,@DPTR
        MOV     R1,A
        LCALL   `??osal_stop_timerEx::?relay`; Banked call to: osal_stop_timerEx
// 1353           
// 1354           //Report success if in any of the attempts we got success, regardless that we did receive no rsp on the last attempt
// 1355           if(bdb_FBStateSuccessLatch && (bdbAttributes.bdbCommissioningStatus == BDB_COMMISSIONING_FB_NO_IDENTIFY_QUERY_RESPONSE))
        MOV     DPTR,#bdb_FBStateSuccessLatch
        MOVX    A,@DPTR
        JZ      ??bdb_reportCommissioningState_17
        MOV     DPTR,#bdbAttributes + 10
        MOVX    A,@DPTR
        XRL     A,#0xb
        JNZ     ??bdb_reportCommissioningState_17
// 1356           {
// 1357             bdbAttributes.bdbCommissioningStatus = BDB_COMMISSIONING_SUCCESS;
        CLR     A
        MOVX    @DPTR,A
// 1358           }
// 1359           
// 1360           //Set default state
// 1361           bdb_FBStateSuccessLatch = FALSE;
??bdb_reportCommissioningState_17:
        MOV     DPTR,#bdb_FBStateSuccessLatch
        CLR     A
        MOVX    @DPTR,A
// 1362           
// 1363           //Resume BDB machine state only if we were in F&B, if we were on parent lost, only clean the commissioning mode and remove from bdb_ParentLostSavedState
// 1364           if(bdbCommissioningProcedureState.bdbCommissioningState == BDB_COMMISSIONING_STATE_FINDING_BINDING)
        MOV     DPTR,#bdbCommissioningProcedureState
        MOVX    A,@DPTR
        XRL     A,#0x6
        JNZ     ??bdb_reportCommissioningState_18
// 1365           {
// 1366             bdbCommissioningProcedureState.bdbCommissioningState = BDB_COMMISSIONING_STATE_START_RESUME;
        CLR     A
        MOVX    @DPTR,A
// 1367             osal_start_timerEx(bdb_TaskID,BDB_CHANGE_COMMISSIONING_STATE,50); 
        ; Setup parameters for call to function osal_start_timerEx
        MOV     DPTR,#__Constant_32
        LCALL   ?PUSH_XSTACK8_X_FOUR
          CFI CFA_XSP16 add(XSP16, 18)
        MOV     R2,#0x4
        MOV     R3,#0x0
        MOV     DPTR,#bdb_TaskID
        MOVX    A,@DPTR
        MOV     R1,A
        LCALL   `??osal_start_timerEx::?relay`; Banked call to: osal_start_timerEx
        MOV     A,#0x4
        LCALL   ?DEALLOC_XSTACK8
          CFI CFA_XSP16 add(XSP16, 14)
        SJMP    ??bdb_reportCommissioningState_19
// 1368           }
// 1369           else if(bdbCommissioningProcedureState.bdb_ParentLostSavedState == BDB_COMMISSIONING_STATE_FINDING_BINDING)
??bdb_reportCommissioningState_18:
        MOV     DPTR,#bdbCommissioningProcedureState + 3
        MOVX    A,@DPTR
        XRL     A,#0x6
        JNZ     ??bdb_reportCommissioningState_19
// 1370           {
// 1371             bdbCommissioningProcedureState.bdb_ParentLostSavedState = BDB_COMMISSIONING_STATE_START_RESUME;
        CLR     A
        MOVX    @DPTR,A
// 1372           }
// 1373           
// 1374           bdbAttributes.bdbCommissioningMode &= ~BDB_COMMISSIONING_MODE_FINDING_BINDING;
??bdb_reportCommissioningState_19:
        MOV     DPTR,#bdbAttributes + 11
        MOVX    A,@DPTR
        CLR     0xE0 /* A   */.3
        SJMP    ??bdb_reportCommissioningState_10
// 1375         }
// 1376         else
// 1377         {
// 1378           return;
// 1379         }
// 1380 
// 1381 #endif
// 1382       break;     
// 1383       case BDB_COMMISSIONING_STATE_TL:
// 1384         // Set NWK task to run
// 1385         nwk_setStateIdle( FALSE );
??bdb_reportCommissioningState_2:
        ; Setup parameters for call to function nwk_setStateIdle
        MOV     R1,#0x0
        LCALL   `??nwk_setStateIdle::?relay`; Banked call to: nwk_setStateIdle
// 1386         bdbCommissioningModeMsg.bdbCommissioningMode = BDB_COMMISSIONING_TOUCHLINK;
        MOV     A,#0x1
        LCALL   ?XSTACK_DISP0_8
        MOV     A,#0x4
        MOVX    @DPTR,A
// 1387         if(didSuccess)
        MOV     A,R7
        JZ      ??bdb_reportCommissioningState_20
// 1388         {
// 1389           bdbAttributes.bdbCommissioningStatus = BDB_COMMISSIONING_SUCCESS;
        MOV     DPTR,#bdbAttributes + 10
        CLR     A
        MOVX    @DPTR,A
// 1390           bdbAttributes.bdbCommissioningMode = BDB_COMMISSIONING_MODE_IDDLE;
        INC     DPTR
        LCALL   ??Subroutine36_0 & 0xFFFF
// 1391           
// 1392           //Update ZDApp state
// 1393 #if (ZG_BUILD_RTR_TYPE)
// 1394           if(ZG_DEVICE_RTRONLY_TYPE)
??CrossCallReturnLabel_47:
        JNZ     ??bdb_reportCommissioningState_20
// 1395           {          
// 1396             ZDApp_ChangeState( DEV_ROUTER );
        ; Setup parameters for call to function ZDApp_ChangeState
        MOV     R1,#0x7
        LCALL   `??ZDApp_ChangeState::?relay`; Banked call to: ZDApp_ChangeState
// 1397           }
// 1398 #endif
// 1399 #if (ZG_BUILD_ENDDEVICE_TYPE)
// 1400           if(ZG_DEVICE_ENDDEVICE_TYPE)
// 1401           {
// 1402             ZDApp_ChangeState( DEV_END_DEVICE );
// 1403           }
// 1404 #endif          
// 1405         }
// 1406         //The fail status is already set from the calling function to report commissioning process
// 1407         
// 1408         // The commissioning FAIL status is set before calling the bdb_reportCommissioningState
// 1409         bdbCommissioningProcedureState.bdbCommissioningState = BDB_COMMISSIONING_STATE_START_RESUME;
??bdb_reportCommissioningState_20:
        MOV     DPTR,#bdbCommissioningProcedureState
        CLR     A
        MOVX    @DPTR,A
// 1410         osal_start_timerEx(bdb_TaskID,BDB_CHANGE_COMMISSIONING_STATE,50); 
        ; Setup parameters for call to function osal_start_timerEx
        MOV     DPTR,#__Constant_32
        LCALL   ?PUSH_XSTACK8_X_FOUR
          CFI CFA_XSP16 add(XSP16, 18)
        MOV     R2,#0x4
        MOV     R3,#0x0
        MOV     DPTR,#bdb_TaskID
        MOVX    A,@DPTR
        MOV     R1,A
        LCALL   `??osal_start_timerEx::?relay`; Banked call to: osal_start_timerEx
        MOV     A,#0x4
        LCALL   ?DEALLOC_XSTACK8
          CFI CFA_XSP16 add(XSP16, 14)
// 1411         //Clear the event
// 1412         bdbAttributes.bdbCommissioningMode &= ~BDB_COMMISSIONING_MODE_INITIATOR_TL;
        MOV     DPTR,#bdbAttributes + 11
        MOVX    A,@DPTR
        CLR     0xE0 /* A   */.0
        SJMP    ??bdb_reportCommissioningState_10
// 1413         
// 1414       break;
// 1415       
// 1416       case BDB_INITIALIZATION:
// 1417         //Notify user about successfull initialization
// 1418         bdbCommissioningModeMsg.bdbCommissioningMode = BDB_COMMISSIONING_INITIALIZATION;
??bdb_reportCommissioningState_6:
        MOV     A,#0x1
        LCALL   ?XSTACK_DISP0_8
        CLR     A
        MOVX    @DPTR,A
// 1419         if(didSuccess)
        MOV     A,R7
        JZ      ??bdb_reportCommissioningState_21
// 1420         {
// 1421           //Update ZDApp state
// 1422 #if (ZG_BUILD_COORDINATOR_TYPE)
// 1423           if(ZG_DEVICE_COORDINATOR_TYPE)
// 1424           {          
// 1425             ZDApp_ChangeState( DEV_ZB_COORD );
        ; Setup parameters for call to function ZDApp_ChangeState
        MOV     R1,#0x9
        LCALL   `??ZDApp_ChangeState::?relay`; Banked call to: ZDApp_ChangeState
// 1426           }
// 1427 #endif          
// 1428 #if (ZG_BUILD_ENDDEVICE_TYPE)
// 1429           if(ZG_DEVICE_ENDDEVICE_TYPE)
// 1430           {
// 1431             uint32 pollrate = POLL_RATE;
// 1432             NLME_SetPollRate(pollrate);
// 1433             ZDApp_ChangeState( DEV_END_DEVICE );
// 1434             
// 1435           }
// 1436 #endif          
// 1437           ZDApp_RestoreNwkSecMaterial();
        ; Setup parameters for call to function ZDApp_RestoreNwkSecMaterial
        LCALL   `??ZDApp_RestoreNwkSecMaterial::?relay`; Banked call to: ZDApp_RestoreNwkSecMaterial
// 1438           bdbAttributes.bdbCommissioningStatus = BDB_COMMISSIONING_NETWORK_RESTORED;
        MOV     DPTR,#bdbAttributes + 10
        MOV     A,#0xd
        MOVX    @DPTR,A
// 1439           bdbCommissioningProcedureState.bdbCommissioningState = BDB_COMMISSIONING_STATE_START_RESUME;
        MOV     DPTR,#bdbCommissioningProcedureState
        CLR     A
        MOVX    @DPTR,A
// 1440           osal_start_timerEx(bdb_TaskID,BDB_CHANGE_COMMISSIONING_STATE,200);
        ; Setup parameters for call to function osal_start_timerEx
        MOV     DPTR,#__Constant_c8
        LCALL   ?PUSH_XSTACK8_X_FOUR
          CFI CFA_XSP16 add(XSP16, 18)
        MOV     R2,#0x4
        MOV     R3,#0x0
        MOV     DPTR,#bdb_TaskID
        MOVX    A,@DPTR
        MOV     R1,A
        LCALL   `??osal_start_timerEx::?relay`; Banked call to: osal_start_timerEx
        MOV     A,#0x4
        LCALL   ?DEALLOC_XSTACK8
          CFI CFA_XSP16 add(XSP16, 14)
// 1441         }
// 1442 #if (ZG_BUILD_ENDDEVICE_TYPE)         
// 1443         //Notify the user about losing parent
// 1444         else
// 1445         {
// 1446           if(ZG_DEVICE_ENDDEVICE_TYPE)
// 1447           {
// 1448             bdbCommissioningModeMsg.bdbCommissioningMode = BDB_COMMISSIONING_PARENT_LOST;
// 1449             bdbAttributes.bdbCommissioningMode |= BDB_COMMISSIONING_MODE_PARENT_LOST;
// 1450             bdbAttributes.bdbCommissioningStatus = BDB_COMMISSIONING_NO_NETWORK;
// 1451             
// 1452             //Update ZDApp state
// 1453             ZDApp_ChangeState( DEV_NWK_ORPHAN );
// 1454           }
// 1455         }
// 1456 #endif
// 1457         //Clear the commissioning mode
// 1458         bdbAttributes.bdbCommissioningMode &= ~BDB_COMMISSIONING_MODE_INITIALIZATION;
??bdb_reportCommissioningState_21:
        MOV     DPTR,#bdbAttributes + 11
        MOVX    A,@DPTR
        CLR     0xE0 /* A   */.4
??bdb_reportCommissioningState_10:
        MOVX    @DPTR,A
// 1459         
// 1460       break;
// 1461 #if (ZG_BUILD_ENDDEVICE_TYPE)     
// 1462       case BDB_PARENT_LOST:
// 1463         bdbCommissioningModeMsg.bdbCommissioningMode = BDB_COMMISSIONING_PARENT_LOST;
// 1464         if(ZG_DEVICE_ENDDEVICE_TYPE)
// 1465         {
// 1466           if(didSuccess)
// 1467           {
// 1468             uint32 pollrate = POLL_RATE;
// 1469             bdbCommissioningProcedureState.bdbCommissioningState = bdbCommissioningProcedureState.bdb_ParentLostSavedState;  
// 1470             bdbCommissioningProcedureState.bdb_ParentLostSavedState = 0;
// 1471             NLME_SetPollRate(pollrate);
// 1472             bdbAttributes.bdbCommissioningMode &= ~BDB_COMMISSIONING_MODE_PARENT_LOST;
// 1473             bdbAttributes.bdbCommissioningStatus = BDB_COMMISSIONING_NETWORK_RESTORED;
// 1474             //Update ZDApp state
// 1475             ZDApp_ChangeState( DEV_END_DEVICE );
// 1476             
// 1477             bdb_NetworkRestoredResumeState();
// 1478           }
// 1479           else
// 1480           {
// 1481             bdbAttributes.bdbCommissioningMode |= BDB_COMMISSIONING_MODE_PARENT_LOST;
// 1482             bdbAttributes.bdbCommissioningStatus = BDB_COMMISSIONING_NO_NETWORK;
// 1483           }
// 1484         }
// 1485       break;
// 1486 #endif
// 1487     }
// 1488 #ifdef MT_APP_CNF_FUNC
// 1489     //Notify the user about the status, the main state which has failed
// 1490     bdbCommissioningModeMsg.bdbCommissioningStatus = bdbAttributes.bdbCommissioningStatus;
// 1491     
// 1492     bdb_NotifyApp((uint8*)&bdbCommissioningModeMsg);
// 1493 #else
// 1494     if(pfnCommissioningStatusCB)
??bdb_reportCommissioningState_7:
        MOV     DPTR,#pfnCommissioningStatusCB
        LCALL   ??Subroutine41_0 & 0xFFFF
??CrossCallReturnLabel_62:
        JZ      ??bdb_reportCommissioningState_1
// 1495     {
// 1496       //Notify the user about the status, the main state which has failed
// 1497       bdbCommissioningModeMsg.bdbCommissioningStatus = bdbAttributes.bdbCommissioningStatus;
        MOV     DPTR,#bdbAttributes + 10
        MOVX    A,@DPTR
        MOV     DPL,?XSP + 0
        MOV     DPH,?XSP + 1
        LCALL   ??Subroutine32_0 & 0xFFFF
// 1498       
// 1499       bdb_NotifyApp((uint8*)&bdbCommissioningModeMsg);
// 1500     }
// 1501 #endif
// 1502   }  
??CrossCallReturnLabel_38:
        LCALL   ?PUSH_XSTACK_I_TWO
          CFI CFA_XSP16 add(XSP16, 16)
        MOV     R4,#0x3
        MOV     R3,#0x0
        MOV     R2,#0xa
        MOV     DPTR,#bdb_TaskID
        MOVX    A,@DPTR
        MOV     R1,A
        LCALL   `??bdb_SendMsg::?relay`; Banked call to: bdb_SendMsg
        MOV     A,#0x2
        LCALL   ?DEALLOC_XSTACK8
          CFI CFA_XSP16 add(XSP16, 14)
// 1503 }
??bdb_reportCommissioningState_1:
        MOV     A,#0x4
        LJMP    ?Subroutine1 & 0xFFFF
          CFI EndBlock cfiBlock56

        RSEG BANKED_CODE:CODE:NOROOT(0)
?Subroutine9:
          CFI Block cfiCond57 Using cfiCommon0
          CFI Function bdb_reportCommissioningState
          CFI Conditional ??CrossCallReturnLabel_45
          CFI R6 load(1, XDATA, add(CFA_XSP16, literal(-10)))
          CFI VB load(1, XDATA, add(CFA_XSP16, literal(-9)))
          CFI V0 load(1, XDATA, add(CFA_XSP16, literal(-8)))
          CFI V1 load(1, XDATA, add(CFA_XSP16, literal(-7)))
          CFI R7 load(1, XDATA, add(CFA_XSP16, literal(-6)))
          CFI ?RET_LOW load(1, XDATA, add(CFA_XSP16, literal(-5)))
          CFI ?RET_HIGH load(1, XDATA, add(CFA_XSP16, literal(-4)))
          CFI ?BRET_EXT load(1, XDATA, add(CFA_XSP16, literal(-3)))
          CFI DPL0 load(1, XDATA, add(CFA_XSP16, literal(-2)))
          CFI DPH0 load(1, XDATA, add(CFA_XSP16, literal(-1)))
          CFI CFA_SP SP+-2
          CFI CFA_XSP16 add(XSP16, 14)
          CFI Block cfiCond58 Using cfiCommon0
          CFI (cfiCond58) Function bdb_reportCommissioningState
          CFI (cfiCond58) Conditional ??CrossCallReturnLabel_46
          CFI (cfiCond58) R6 load(1, XDATA, add(CFA_XSP16, literal(-10)))
          CFI (cfiCond58) VB load(1, XDATA, add(CFA_XSP16, literal(-9)))
          CFI (cfiCond58) V0 load(1, XDATA, add(CFA_XSP16, literal(-8)))
          CFI (cfiCond58) V1 load(1, XDATA, add(CFA_XSP16, literal(-7)))
          CFI (cfiCond58) R7 load(1, XDATA, add(CFA_XSP16, literal(-6)))
          CFI (cfiCond58) ?RET_LOW load(1, XDATA, add(CFA_XSP16, literal(-5)))
          CFI (cfiCond58) ?RET_HIGH load(1, XDATA, add(CFA_XSP16, literal(-4)))
          CFI (cfiCond58) ?BRET_EXT load(1, XDATA, add(CFA_XSP16, literal(-3)))
          CFI (cfiCond58) DPL0 load(1, XDATA, add(CFA_XSP16, literal(-2)))
          CFI (cfiCond58) DPH0 load(1, XDATA, add(CFA_XSP16, literal(-1)))
          CFI (cfiCond58) CFA_SP SP+-2
          CFI (cfiCond58) CFA_XSP16 add(XSP16, 14)
          CFI Block cfiPicker59 Using cfiCommon1
          CFI (cfiPicker59) NoFunction
          CFI (cfiPicker59) Picker
        CLR     A
          CFI EndBlock cfiCond57
          CFI EndBlock cfiCond58
          CFI EndBlock cfiPicker59
        REQUIRE ??Subroutine36_0
        ; // Fall through to label ??Subroutine36_0

        RSEG BANKED_CODE:CODE:NOROOT(0)
??Subroutine36_0:
          CFI Block cfiCond60 Using cfiCommon0
          CFI Function bdb_reportCommissioningState
          CFI Conditional ??CrossCallReturnLabel_47
          CFI R6 load(1, XDATA, add(CFA_XSP16, literal(-10)))
          CFI VB load(1, XDATA, add(CFA_XSP16, literal(-9)))
          CFI V0 load(1, XDATA, add(CFA_XSP16, literal(-8)))
          CFI V1 load(1, XDATA, add(CFA_XSP16, literal(-7)))
          CFI R7 load(1, XDATA, add(CFA_XSP16, literal(-6)))
          CFI ?RET_LOW load(1, XDATA, add(CFA_XSP16, literal(-5)))
          CFI ?RET_HIGH load(1, XDATA, add(CFA_XSP16, literal(-4)))
          CFI ?BRET_EXT load(1, XDATA, add(CFA_XSP16, literal(-3)))
          CFI DPL0 load(1, XDATA, add(CFA_XSP16, literal(-2)))
          CFI DPH0 load(1, XDATA, add(CFA_XSP16, literal(-1)))
          CFI CFA_SP SP+-2
          CFI CFA_XSP16 add(XSP16, 14)
          CFI Block cfiCond61 Using cfiCommon0
          CFI (cfiCond61) Function bdb_reportCommissioningState
          CFI (cfiCond61) Conditional ??CrossCallReturnLabel_45
          CFI (cfiCond61) R6 load(1, XDATA, add(CFA_XSP16, literal(-10)))
          CFI (cfiCond61) VB load(1, XDATA, add(CFA_XSP16, literal(-9)))
          CFI (cfiCond61) V0 load(1, XDATA, add(CFA_XSP16, literal(-8)))
          CFI (cfiCond61) V1 load(1, XDATA, add(CFA_XSP16, literal(-7)))
          CFI (cfiCond61) R7 load(1, XDATA, add(CFA_XSP16, literal(-6)))
          CFI (cfiCond61) ?RET_LOW load(1, XDATA, add(CFA_XSP16, literal(-5)))
          CFI (cfiCond61) ?RET_HIGH load(1, XDATA, add(CFA_XSP16, literal(-4)))
          CFI (cfiCond61) ?BRET_EXT load(1, XDATA, add(CFA_XSP16, literal(-3)))
          CFI (cfiCond61) DPL0 load(1, XDATA, add(CFA_XSP16, literal(-2)))
          CFI (cfiCond61) DPH0 load(1, XDATA, add(CFA_XSP16, literal(-1)))
          CFI (cfiCond61) CFA_SP SP+-2
          CFI (cfiCond61) CFA_XSP16 add(XSP16, 14)
          CFI Block cfiCond62 Using cfiCommon0
          CFI (cfiCond62) Function bdb_reportCommissioningState
          CFI (cfiCond62) Conditional ??CrossCallReturnLabel_46
          CFI (cfiCond62) R6 load(1, XDATA, add(CFA_XSP16, literal(-10)))
          CFI (cfiCond62) VB load(1, XDATA, add(CFA_XSP16, literal(-9)))
          CFI (cfiCond62) V0 load(1, XDATA, add(CFA_XSP16, literal(-8)))
          CFI (cfiCond62) V1 load(1, XDATA, add(CFA_XSP16, literal(-7)))
          CFI (cfiCond62) R7 load(1, XDATA, add(CFA_XSP16, literal(-6)))
          CFI (cfiCond62) ?RET_LOW load(1, XDATA, add(CFA_XSP16, literal(-5)))
          CFI (cfiCond62) ?RET_HIGH load(1, XDATA, add(CFA_XSP16, literal(-4)))
          CFI (cfiCond62) ?BRET_EXT load(1, XDATA, add(CFA_XSP16, literal(-3)))
          CFI (cfiCond62) DPL0 load(1, XDATA, add(CFA_XSP16, literal(-2)))
          CFI (cfiCond62) DPH0 load(1, XDATA, add(CFA_XSP16, literal(-1)))
          CFI (cfiCond62) CFA_SP SP+-2
          CFI (cfiCond62) CFA_XSP16 add(XSP16, 14)
          CFI Block cfiPicker63 Using cfiCommon1
          CFI (cfiPicker63) NoFunction
          CFI (cfiPicker63) Picker
        MOVX    @DPTR,A
        MOV     DPTR,#zgDeviceLogicalType
        MOVX    A,@DPTR
        XRL     A,#0x1
        RET
          CFI EndBlock cfiCond60
          CFI EndBlock cfiCond61
          CFI EndBlock cfiCond62
          CFI EndBlock cfiPicker63
// 1504 
// 1505 
// 1506  /*********************************************************************
// 1507  * @fn          bdb_nwkFormationAttempt
// 1508  *
// 1509  * @brief       Process a nwk formation attempt.
// 1510  *
// 1511  * @param       didSuccess - TRUE if the nwk formation was success, FALSE 
// 1512  *                         otherwise and try secondary channel
// 1513  *
// 1514  * @return      none
// 1515  */

        RSEG BANKED_CODE:CODE:NOROOT(0)
// 1516 void bdb_nwkFormationAttempt(bool didSuccess)
bdb_nwkFormationAttempt:
          CFI Block cfiBlock64 Using cfiCommon0
          CFI Function bdb_nwkFormationAttempt
        CODE
// 1517 {
        FUNCALL bdb_nwkFormationAttempt, bdb_reportCommissioningState
        LOCFRAME ISTACK, 0, STACK
        LOCFRAME PSTACK, 0, STACK
        LOCFRAME XSTACK, 9, STACK
        LOCFRAME IOVERLAY, 0, STATIC
        LOCFRAME DOVERLAY, 0, STATIC
        ARGFRAME ISTACK, 0, STACK
        ARGFRAME PSTACK, 0, STACK
        ARGFRAME XSTACK, 9, STACK
        ARGFRAME IOVERLAY, 0, STATIC
        ARGFRAME DOVERLAY, 0, STATIC
        FUNCALL bdb_nwkFormationAttempt, bdb_nwkJoiningFormation
        LOCFRAME ISTACK, 0, STACK
        LOCFRAME PSTACK, 0, STACK
        LOCFRAME XSTACK, 9, STACK
        LOCFRAME IOVERLAY, 0, STATIC
        LOCFRAME DOVERLAY, 0, STATIC
        ARGFRAME ISTACK, 0, STACK
        ARGFRAME PSTACK, 0, STACK
        ARGFRAME XSTACK, 9, STACK
        ARGFRAME IOVERLAY, 0, STATIC
        ARGFRAME DOVERLAY, 0, STATIC
        FUNCALL bdb_nwkFormationAttempt, bdb_reportCommissioningState
        LOCFRAME ISTACK, 0, STACK
        LOCFRAME PSTACK, 0, STACK
        LOCFRAME XSTACK, 9, STACK
        LOCFRAME IOVERLAY, 0, STATIC
        LOCFRAME DOVERLAY, 0, STATIC
        ARGFRAME ISTACK, 0, STACK
        ARGFRAME PSTACK, 0, STACK
        ARGFRAME XSTACK, 9, STACK
        ARGFRAME IOVERLAY, 0, STATIC
        ARGFRAME DOVERLAY, 0, STATIC
        MOV     A,#-0x9
        LCALL   ?BANKED_ENTER_XDATA
          CFI DPH0 load(1, XDATA, add(CFA_XSP16, literal(-1)))
          CFI DPL0 load(1, XDATA, add(CFA_XSP16, literal(-2)))
          CFI ?BRET_EXT load(1, XDATA, add(CFA_XSP16, literal(-3)))
          CFI ?RET_HIGH load(1, XDATA, add(CFA_XSP16, literal(-4)))
          CFI ?RET_LOW load(1, XDATA, add(CFA_XSP16, literal(-5)))
          CFI R7 load(1, XDATA, add(CFA_XSP16, literal(-6)))
          CFI V0 load(1, XDATA, add(CFA_XSP16, literal(-7)))
          CFI VB load(1, XDATA, add(CFA_XSP16, literal(-8)))
          CFI R6 load(1, XDATA, add(CFA_XSP16, literal(-9)))
          CFI CFA_SP SP+0
          CFI CFA_XSP16 add(XSP16, 9)
        ; Saved register size: 9
        ; Auto size: 0
        MOV     A,R1
// 1518   if(didSuccess)
        JZ      ??bdb_nwkFormationAttempt_0
// 1519   {
// 1520     bdb_reportCommissioningState(BDB_COMMISSIONING_STATE_FORMATION,TRUE);
        ; Setup parameters for call to function bdb_reportCommissioningState
        MOV     R2,#0x1
        SJMP    ??bdb_nwkFormationAttempt_1
// 1521   }
// 1522   else
// 1523   {
// 1524     //Can we try the secondary channel set?
// 1525     if((vDoPrimaryScan) && (bdbAttributes.bdbSecondaryChannelSet))
??bdb_nwkFormationAttempt_0:
        MOV     DPTR,#vDoPrimaryScan
        MOVX    A,@DPTR
        JZ      ??bdb_nwkFormationAttempt_2
        MOV     DPTR,#bdbAttributes
        LCALL   ?XLOAD_R0123
        MOV     A,R0
        ORL     A,R1
        ORL     A,R2
        ORL     A,R3
        JZ      ??bdb_nwkFormationAttempt_2
// 1526     {
// 1527       vDoPrimaryScan = FALSE;
        MOV     DPTR,#vDoPrimaryScan
        CLR     A
        MOVX    @DPTR,A
// 1528       bdb_nwkJoiningFormation(FALSE);
        ; Setup parameters for call to function bdb_nwkJoiningFormation
        MOV     R1,A
        LCALL   `??bdb_nwkJoiningFormation::?relay`; Banked call to: bdb_nwkJoiningFormation
        SJMP    ??bdb_nwkFormationAttempt_3
// 1529     }
// 1530     else
// 1531     {
// 1532       bdb_reportCommissioningState(BDB_COMMISSIONING_STATE_FORMATION, FALSE);
??bdb_nwkFormationAttempt_2:
        ; Setup parameters for call to function bdb_reportCommissioningState
        MOV     R2,#0x0
??bdb_nwkFormationAttempt_1:
        MOV     R1,#0x5
        LCALL   `??bdb_reportCommissioningState::?relay`; Banked call to: bdb_reportCommissioningState
// 1533     }
// 1534   }
// 1535 }
??bdb_nwkFormationAttempt_3:
        LJMP    ?Subroutine0 & 0xFFFF
          CFI EndBlock cfiBlock64
// 1536 
// 1537 
// 1538 
// 1539 /*********************************************************************
// 1540  * @fn          bdb_isDeviceNonFactoryNew
// 1541  *
// 1542  * @brief       Returns the state of bdbNodeIsOnANetwork attribute
// 1543  * 
// 1544  * @param       none
// 1545  *
// 1546  * @return      bdbNodeIsOnANetwork
// 1547  */

        RSEG BANKED_CODE:CODE:NOROOT(0)
// 1548 bool bdb_isDeviceNonFactoryNew(void)
bdb_isDeviceNonFactoryNew:
          CFI Block cfiBlock65 Using cfiCommon0
          CFI Function bdb_isDeviceNonFactoryNew
        CODE
// 1549 {
        PUSH    DPL
          CFI DPL0 Frame(CFA_SP, 4)
          CFI CFA_SP SP+-4
        PUSH    DPH
          CFI DPH0 Frame(CFA_SP, 5)
          CFI CFA_SP SP+-5
        ; Saved register size: 2
        ; Auto size: 0
// 1550   return bdbAttributes.bdbNodeIsOnANetwork;
        MOV     DPTR,#bdbAttributes + 14
        MOVX    A,@DPTR
        MOV     R1,A
        LJMP    ??Subroutine35_0 & 0xFFFF
// 1551 }
          CFI EndBlock cfiBlock65
// 1552 
// 1553 
// 1554 /*********************************************************************
// 1555  * @fn      bdb_rejoinNwk
// 1556  *
// 1557  * @brief   Attempt to rejoin/resume a nwk from nv parameters
// 1558  *
// 1559  * @param   none
// 1560  *
// 1561  * @return  ZStatus_t
// 1562  */

        RSEG BANKED_CODE:CODE:NOROOT(0)
// 1563 ZStatus_t bdb_rejoinNwk(void)
bdb_rejoinNwk:
          CFI Block cfiBlock66 Using cfiCommon0
          CFI Function bdb_rejoinNwk
        CODE
// 1564 {
        FUNCALL bdb_rejoinNwk, ZDApp_RestoreNwkKey
        LOCFRAME ISTACK, 0, STACK
        LOCFRAME PSTACK, 0, STACK
        LOCFRAME XSTACK, 10, STACK
        LOCFRAME IOVERLAY, 0, STATIC
        LOCFRAME DOVERLAY, 0, STATIC
        ARGFRAME ISTACK, 0, STACK
        ARGFRAME PSTACK, 0, STACK
        ARGFRAME XSTACK, 10, STACK
        ARGFRAME IOVERLAY, 0, STATIC
        ARGFRAME DOVERLAY, 0, STATIC
        FUNCALL bdb_rejoinNwk, ZDApp_ChangeState
        LOCFRAME ISTACK, 0, STACK
        LOCFRAME PSTACK, 0, STACK
        LOCFRAME XSTACK, 10, STACK
        LOCFRAME IOVERLAY, 0, STATIC
        LOCFRAME DOVERLAY, 0, STATIC
        ARGFRAME ISTACK, 0, STACK
        ARGFRAME PSTACK, 0, STACK
        ARGFRAME XSTACK, 10, STACK
        ARGFRAME IOVERLAY, 0, STATIC
        ARGFRAME DOVERLAY, 0, STATIC
        FUNCALL bdb_rejoinNwk, ZDApp_ChangeState
        LOCFRAME ISTACK, 0, STACK
        LOCFRAME PSTACK, 0, STACK
        LOCFRAME XSTACK, 10, STACK
        LOCFRAME IOVERLAY, 0, STATIC
        LOCFRAME DOVERLAY, 0, STATIC
        ARGFRAME ISTACK, 0, STACK
        ARGFRAME PSTACK, 0, STACK
        ARGFRAME XSTACK, 10, STACK
        ARGFRAME IOVERLAY, 0, STATIC
        ARGFRAME DOVERLAY, 0, STATIC
        FUNCALL bdb_rejoinNwk, ZMacSetReq
        LOCFRAME ISTACK, 0, STACK
        LOCFRAME PSTACK, 0, STACK
        LOCFRAME XSTACK, 10, STACK
        LOCFRAME IOVERLAY, 0, STATIC
        LOCFRAME DOVERLAY, 0, STATIC
        ARGFRAME ISTACK, 0, STACK
        ARGFRAME PSTACK, 0, STACK
        ARGFRAME XSTACK, 10, STACK
        ARGFRAME IOVERLAY, 0, STATIC
        ARGFRAME DOVERLAY, 0, STATIC
        FUNCALL bdb_rejoinNwk, ZDApp_RestoreNwkKey
        LOCFRAME ISTACK, 0, STACK
        LOCFRAME PSTACK, 0, STACK
        LOCFRAME XSTACK, 10, STACK
        LOCFRAME IOVERLAY, 0, STATIC
        LOCFRAME DOVERLAY, 0, STATIC
        ARGFRAME ISTACK, 0, STACK
        ARGFRAME PSTACK, 0, STACK
        ARGFRAME XSTACK, 10, STACK
        ARGFRAME IOVERLAY, 0, STATIC
        ARGFRAME DOVERLAY, 0, STATIC
        FUNCALL bdb_rejoinNwk, NLME_ReJoinRequest
        LOCFRAME ISTACK, 0, STACK
        LOCFRAME PSTACK, 0, STACK
        LOCFRAME XSTACK, 10, STACK
        LOCFRAME IOVERLAY, 0, STATIC
        LOCFRAME DOVERLAY, 0, STATIC
        ARGFRAME ISTACK, 0, STACK
        ARGFRAME PSTACK, 0, STACK
        ARGFRAME XSTACK, 10, STACK
        ARGFRAME IOVERLAY, 0, STATIC
        ARGFRAME DOVERLAY, 0, STATIC
        FUNCALL bdb_rejoinNwk, NLME_ReJoinRequestUnsecure
        LOCFRAME ISTACK, 0, STACK
        LOCFRAME PSTACK, 0, STACK
        LOCFRAME XSTACK, 10, STACK
        LOCFRAME IOVERLAY, 0, STATIC
        LOCFRAME DOVERLAY, 0, STATIC
        ARGFRAME ISTACK, 0, STACK
        ARGFRAME PSTACK, 0, STACK
        ARGFRAME XSTACK, 10, STACK
        ARGFRAME IOVERLAY, 0, STATIC
        ARGFRAME DOVERLAY, 0, STATIC
        MOV     A,#-0x9
        LCALL   ?BANKED_ENTER_XDATA
          CFI DPH0 load(1, XDATA, add(CFA_XSP16, literal(-1)))
          CFI DPL0 load(1, XDATA, add(CFA_XSP16, literal(-2)))
          CFI ?BRET_EXT load(1, XDATA, add(CFA_XSP16, literal(-3)))
          CFI ?RET_HIGH load(1, XDATA, add(CFA_XSP16, literal(-4)))
          CFI ?RET_LOW load(1, XDATA, add(CFA_XSP16, literal(-5)))
          CFI R7 load(1, XDATA, add(CFA_XSP16, literal(-6)))
          CFI V0 load(1, XDATA, add(CFA_XSP16, literal(-7)))
          CFI VB load(1, XDATA, add(CFA_XSP16, literal(-8)))
          CFI R6 load(1, XDATA, add(CFA_XSP16, literal(-9)))
          CFI CFA_SP SP+0
          CFI CFA_XSP16 add(XSP16, 9)
        ; Saved register size: 9
        ; Auto size: 1
        MOV     A,#-0x1
        LCALL   ?ALLOC_XSTACK8
          CFI CFA_XSP16 add(XSP16, 10)
// 1565   ZStatus_t rejoinStatus = ZSuccess;
        MOV     R6,#0x0
// 1566   
// 1567   // Transition state machine to correct rejoin state based on nwk key
// 1568   if ( ZDApp_RestoreNwkKey( FALSE )== TRUE )
        ; Setup parameters for call to function ZDApp_RestoreNwkKey
        MOV     R1,#0x0
        LCALL   `??ZDApp_RestoreNwkKey::?relay`; Banked call to: ZDApp_RestoreNwkKey
        MOV     A,R1
        XRL     A,#0x1
        JNZ     ??bdb_rejoinNwk_0
// 1569   {
// 1570     ZDApp_ChangeState( DEV_NWK_SEC_REJOIN_CURR_CHANNEL );
        ; Setup parameters for call to function ZDApp_ChangeState
        MOV     R1,#0x4
        SJMP    ??bdb_rejoinNwk_1
// 1571   }
// 1572   else
// 1573   {
// 1574     ZDApp_ChangeState( DEV_NWK_TC_REJOIN_CURR_CHANNEL );
??bdb_rejoinNwk_0:
        ; Setup parameters for call to function ZDApp_ChangeState
        MOV     R1,#0xe
??bdb_rejoinNwk_1:
        LCALL   `??ZDApp_ChangeState::?relay`; Banked call to: ZDApp_ChangeState
// 1575   }
// 1576 
// 1577   // Before trying to do rejoin, check if the device has a valid short address
// 1578   // If not, generate a random short address for itself
// 1579   if ( _NIB.nwkDevAddress == INVALID_NODE_ADDR )
        MOV     DPTR,#_NIB + 20
        MOVX    A,@DPTR
        XRL     A,#0xfe
        JNZ     ??bdb_rejoinNwk_2
        INC     DPTR
        MOVX    A,@DPTR
        CPL     A
??bdb_rejoinNwk_2:
        JNZ     ??bdb_rejoinNwk_3
// 1580   {
// 1581     rejoinStatus = ZFailure;
        MOV     R6,#0x1
// 1582   }
// 1583 
// 1584   // Check if the device has a valid PanID, if not, set it to the discovered Pan
// 1585   if ( _NIB.nwkPanId == 0xFFFF )
??bdb_rejoinNwk_3:
        MOV     DPTR,#_NIB + 33
        MOVX    A,@DPTR
        CPL     A
        JNZ     ??bdb_rejoinNwk_4
        INC     DPTR
        MOVX    A,@DPTR
        CPL     A
??bdb_rejoinNwk_4:
        JNZ     ??bdb_rejoinNwk_5
// 1586   {
// 1587     rejoinStatus = ZFailure;
        MOV     R6,#0x1
        SJMP    ??bdb_rejoinNwk_6
// 1588   }
// 1589 
// 1590   if(rejoinStatus == ZSuccess)
??bdb_rejoinNwk_5:
        MOV     A,R6
        MOV     C,0xE0 /* A   */.0
        JC      ??bdb_rejoinNwk_6
// 1591   {
// 1592     uint8 tmp = true;
        MOV     DPL,?XSP + 0
        MOV     DPH,?XSP + 1
        MOV     A,#0x1
        MOVX    @DPTR,A
// 1593     ZMacSetReq( ZMacRxOnIdle, &tmp ); // Set receiver always on during rejoin
        ; Setup parameters for call to function ZMacSetReq
        MOV     R2,?XSP + 0
        MOV     R3,?XSP + 1
        MOV     R1,#0x52
        LCALL   `??ZMacSetReq::?relay`; Banked call to: ZMacSetReq
// 1594         
// 1595     // Perform Secure or Unsecure Rejoin depending on available configuration
// 1596     if ( ZG_SECURE_ENABLED && ( ZDApp_RestoreNwkKey( TRUE ) == TRUE ) )
        ; Setup parameters for call to function ZDApp_RestoreNwkKey
        MOV     R1,#0x1
        LCALL   `??ZDApp_RestoreNwkKey::?relay`; Banked call to: ZDApp_RestoreNwkKey
        MOV     A,R1
        XRL     A,#0x1
        MOV     DPTR,#_NIB + 22
        JNZ     ??bdb_rejoinNwk_7
// 1597     {
// 1598       rejoinStatus = NLME_ReJoinRequest( ZDO_UseExtendedPANID, _NIB.nwkLogicalChannel);
        ; Setup parameters for call to function NLME_ReJoinRequest
        MOVX    A,@DPTR
        MOV     R1,A
        MOV     R2,#ZDO_UseExtendedPANID & 0xff
        MOV     R3,#(ZDO_UseExtendedPANID >> 8) & 0xff
        LCALL   `??NLME_ReJoinRequest::?relay`; Banked call to: NLME_ReJoinRequest
        SJMP    ??bdb_rejoinNwk_8
// 1599     }
// 1600     else
// 1601     {
// 1602       rejoinStatus = NLME_ReJoinRequestUnsecure( ZDO_UseExtendedPANID, _NIB.nwkLogicalChannel);
??bdb_rejoinNwk_7:
        ; Setup parameters for call to function NLME_ReJoinRequestUnsecure
        MOVX    A,@DPTR
        MOV     R1,A
        MOV     R2,#ZDO_UseExtendedPANID & 0xff
        MOV     R3,#(ZDO_UseExtendedPANID >> 8) & 0xff
        LCALL   `??NLME_ReJoinRequestUnsecure::?relay`; Banked call to: NLME_ReJoinRequestUnsecure
??bdb_rejoinNwk_8:
        MOV     A,R1
        MOV     R6,A
// 1603     }
// 1604   }
// 1605   
// 1606   return rejoinStatus;
??bdb_rejoinNwk_6:
        MOV     A,R6
        MOV     R1,A
        MOV     A,#0x1
        LCALL   ?DEALLOC_XSTACK8
          CFI EndBlock cfiBlock66
        REQUIRE ?Subroutine0
        ; // Fall through to label ?Subroutine0
// 1607 }

        RSEG BANKED_CODE:CODE:NOROOT(0)
?Subroutine0:
          CFI Block cfiBlock67 Using cfiCommon0
          CFI NoFunction
          CFI CFA_SP SP+0
          CFI CFA_XSP16 add(XSP16, 9)
          CFI VB load(1, XDATA, add(CFA_XSP16, literal(-8)))
          CFI DPL0 load(1, XDATA, add(CFA_XSP16, literal(-2)))
          CFI DPH0 load(1, XDATA, add(CFA_XSP16, literal(-1)))
          CFI R6 load(1, XDATA, add(CFA_XSP16, literal(-9)))
          CFI R7 load(1, XDATA, add(CFA_XSP16, literal(-6)))
          CFI V0 load(1, XDATA, add(CFA_XSP16, literal(-7)))
          CFI ?BRET_EXT load(1, XDATA, add(CFA_XSP16, literal(-3)))
          CFI ?RET_HIGH load(1, XDATA, add(CFA_XSP16, literal(-4)))
          CFI ?RET_LOW load(1, XDATA, add(CFA_XSP16, literal(-5)))
        MOV     R7,#0x1
        LJMP    ?BANKED_LEAVE_XDATA
          CFI EndBlock cfiBlock67
// 1608 
// 1609 #if (ZG_BUILD_JOINING_TYPE)
// 1610  /*********************************************************************
// 1611  * @fn          bdb_nwkDiscoveryAttempt
// 1612  *
// 1613  * @brief       Process a nwk discovery attempt
// 1614  *
// 1615  * @param       didSuccess - TRUE we found nwk in the scanned channels, FALSE if 
// 1616  *                           no suitable nwks were found, try secondary channel
// 1617  *
// 1618  * @return      none
// 1619  */
// 1620 void bdb_nwkDiscoveryAttempt(bool didSuccess)
// 1621 {
// 1622   uint8 bdbJoinEvent = BDB_JOIN_EVENT_NWK_DISCOVERY;
// 1623   
// 1624   if(didSuccess)
// 1625   {
// 1626     bdb_SendMsg(bdb_TaskID, BDB_COMMISSIONING_STATE_JOINING, BDB_MSG_EVENT_SUCCESS,sizeof(bdbJoinEvent),(uint8*)&bdbJoinEvent);
// 1627   }
// 1628   else
// 1629   {
// 1630     //Can we try the secondary channel set?
// 1631     if((vDoPrimaryScan) && (bdbAttributes.bdbSecondaryChannelSet))
// 1632     {
// 1633       vDoPrimaryScan = FALSE;
// 1634       bdb_setChannel(bdbAttributes.bdbSecondaryChannelSet);
// 1635       
// 1636       ZDApp_NetworkInit( 50 );
// 1637     }
// 1638     else
// 1639     {
// 1640       bdb_reportCommissioningState(BDB_COMMISSIONING_STATE_JOINING, FALSE);
// 1641     }
// 1642   }
// 1643 }
// 1644 
// 1645  /*********************************************************************
// 1646  * @fn          bdb_filterNwkDisc
// 1647  *
// 1648  * @brief       Filter the nwks found and attempt to join the suitable nwks
// 1649  *              Here the application can include nwk filters 
// 1650  *
// 1651  * @param       none
// 1652  *
// 1653  * @return      none
// 1654  */
// 1655 void bdb_filterNwkDisc(void)
// 1656 {
// 1657   networkDesc_t* pNwkDesc;
// 1658   uint8 i = 0;
// 1659   uint8 ResultCount = 0;
// 1660   uint8 stackProfile = 0;
// 1661   uint8 stackProfilePro = 0;
// 1662   
// 1663   pBDBListNwk  = nwk_getNwkDescList();
// 1664   nwk_desc_list_release();
// 1665   
// 1666   pNwkDesc = pBDBListNwk;
// 1667   while (pNwkDesc)
// 1668   {
// 1669     ResultCount++;
// 1670     pNwkDesc = pNwkDesc->nextDesc;
// 1671   }
// 1672   
// 1673   if(pBDBListNwk)
// 1674   {
// 1675     if(pfnFilterNwkDesc)
// 1676     {
// 1677       pfnFilterNwkDesc(pBDBListNwk, ResultCount);
// 1678     }
// 1679     
// 1680     for ( stackProfile = 0; stackProfile < STACK_PROFILE_MAX; stackProfile++ )
// 1681     {
// 1682       pNwkDesc = pBDBListNwk;
// 1683       
// 1684       if(pNwkDesc)
// 1685       {
// 1686         for ( i = 0; i < ResultCount; i++, pNwkDesc = pNwkDesc->nextDesc )
// 1687         {
// 1688           if ( nwk_ExtPANIDValid( ZDO_UseExtendedPANID ) == true )
// 1689           {
// 1690             // If the extended Pan ID is commissioned to a non zero value
// 1691             // Only join the Pan that has match EPID
// 1692             if ( osal_ExtAddrEqual( ZDO_UseExtendedPANID, pNwkDesc->extendedPANID) == false )
// 1693             {
// 1694               //Remove from the list
// 1695               bdb_nwkDescFree(pNwkDesc);
// 1696               continue;
// 1697             }
// 1698           }
// 1699           else if ( zgConfigPANID != 0xFFFF )
// 1700           {
// 1701             // PAN Id is preconfigured. check if it matches
// 1702             if ( pNwkDesc->panId != zgConfigPANID )
// 1703             {
// 1704               //Remove from the list
// 1705               bdb_nwkDescFree(pNwkDesc);
// 1706               continue;
// 1707             }
// 1708           }
// 1709 
// 1710           if ( pNwkDesc->chosenRouter != _NIB.nwkCoordAddress || _NIB.nwkCoordAddress == INVALID_NODE_ADDR )
// 1711           {
// 1712             // check that network is allowing joining
// 1713             if ( ZSTACK_ROUTER_BUILD )
// 1714             {
// 1715               if ( stackProfilePro == FALSE )
// 1716               {
// 1717                 if ( !pNwkDesc->routerCapacity )
// 1718                 {
// 1719                   //Remove from the list
// 1720                   bdb_nwkDescFree(pNwkDesc);
// 1721                   continue;
// 1722                 }
// 1723               }
// 1724               else
// 1725               {
// 1726                 if ( !pNwkDesc->deviceCapacity )
// 1727                 {
// 1728                   //Remove from the list
// 1729                   bdb_nwkDescFree(pNwkDesc);
// 1730                   continue;
// 1731                 }
// 1732               }
// 1733             }
// 1734             else if ( ZSTACK_END_DEVICE_BUILD )
// 1735             {
// 1736               if ( !pNwkDesc->deviceCapacity )
// 1737               {
// 1738                 //Remove from the list
// 1739                 bdb_nwkDescFree(pNwkDesc);
// 1740                 continue;
// 1741               }
// 1742             }
// 1743           }
// 1744 
// 1745           // check version of zigbee protocol
// 1746           if ( pNwkDesc->version != _NIB.nwkProtocolVersion )
// 1747             continue;
// 1748 
// 1749           // check version of stack profile
// 1750           if ( pNwkDesc->stackProfile != zgStackProfile  )
// 1751           {
// 1752             if ( ((zgStackProfile == HOME_CONTROLS) && (pNwkDesc->stackProfile == ZIGBEEPRO_PROFILE))
// 1753                 || ((zgStackProfile == ZIGBEEPRO_PROFILE) && (pNwkDesc->stackProfile == HOME_CONTROLS))  )
// 1754             {
// 1755               stackProfilePro = TRUE;
// 1756             }
// 1757 
// 1758             if ( stackProfile == 0 )
// 1759             {
// 1760               //Remove from the list
// 1761               bdb_nwkDescFree(pNwkDesc);
// 1762               continue;
// 1763             }
// 1764           }
// 1765         }
// 1766       }
// 1767     }
// 1768   }
// 1769 }
// 1770       
// 1771  /*********************************************************************
// 1772  * @fn          bdb_tryNwkAssoc
// 1773  *
// 1774  * @brief       Try to associate to the first network in the network descriptor list
// 1775  *
// 1776  * @param       none
// 1777  *
// 1778  * @return      none
// 1779  */
// 1780 static void bdb_tryNwkAssoc(void)
// 1781 {
// 1782   if(pBDBListNwk)
// 1783   {
// 1784     bdbCommissioningProcedureState.bdbJoinState = BDB_JOIN_STATE_ASSOC;
// 1785     
// 1786     //Try the first in the list after the filtering
// 1787     if(ZSuccess != bdb_joinProcess(pBDBListNwk))
// 1788     {
// 1789       //If fail, free the first in the list and prepare for futher processing, either next nwk or discover again
// 1790       uint8 bdbJoinEvent = BDB_JOIN_EVENT_ASSOCIATION;
// 1791       bdb_nwkDescFree(pBDBListNwk);
// 1792       bdb_SendMsg(bdb_TaskID,BDB_COMMISSIONING_STATE_JOINING,BDB_MSG_EVENT_FAIL,sizeof(uint8),&bdbJoinEvent);
// 1793     }
// 1794   }
// 1795   else
// 1796   {
// 1797     bdbCommissioningProcedureState.bdbJoinState = BDB_JOIN_STATE_NWK_DISC;
// 1798     uint8 bdbJoinEvent = BDB_JOIN_EVENT_NWK_DISCOVERY;
// 1799     
// 1800     bdb_SendMsg(bdb_TaskID,BDB_COMMISSIONING_STATE_JOINING,BDB_MSG_EVENT_FAIL,sizeof(uint8),&bdbJoinEvent);
// 1801   }
// 1802 }
// 1803 
// 1804 
// 1805 
// 1806  /*********************************************************************
// 1807  * @fn          bdb_nwkAssocAttemt
// 1808  *
// 1809  * @brief       Process the result of an attempt to associate to a network 
// 1810  *
// 1811  * @param       didSuccess - bool
// 1812  *
// 1813  * @return      none
// 1814  */
// 1815 void bdb_nwkAssocAttemt(bool didSuccess)
// 1816 {
// 1817   bdbAttributes.bdbCommissioningStatus = BDB_COMMISSIONING_STATE_JOINING;
// 1818   uint8 bdbJoinEvent = BDB_JOIN_EVENT_ASSOCIATION;
// 1819   uint8 status;
// 1820   
// 1821   if(didSuccess)
// 1822   {
// 1823     status = BDB_MSG_EVENT_SUCCESS;
// 1824   }
// 1825   else
// 1826   {
// 1827     if(bdb_nwkAssocRetriesCount < BDBC_REC_SAME_NETWORK_RETRY_ATTEMPS)
// 1828     {
// 1829       bdb_nwkAssocRetriesCount++;
// 1830     }
// 1831     else
// 1832     {
// 1833       //Free the first in the list and prepare for futher processing
// 1834       bdb_nwkDescFree(pBDBListNwk);
// 1835       bdb_nwkAssocRetriesCount = 0;
// 1836     }
// 1837     status = BDB_MSG_EVENT_FAIL;
// 1838   }
// 1839   bdb_SendMsg(bdb_TaskID,BDB_COMMISSIONING_STATE_JOINING,status,sizeof(uint8),&bdbJoinEvent);
// 1840 }
// 1841                        
// 1842 
// 1843 /****************************************************************************
// 1844  * @fn          bdb_nwkDescFree
// 1845  *
// 1846  * @brief       This function frees one network discovery data.
// 1847  *
// 1848  * @param       ZSuccess - If the device was found and erased
// 1849  * @param       ZInvalidParameter - Not found
// 1850  *
// 1851  * @return      none
// 1852  */
// 1853 ZStatus_t bdb_nwkDescFree(networkDesc_t* nodeDescToRemove)
// 1854 {
// 1855   networkDesc_t* current_desc;
// 1856   networkDesc_t* prev_desc;
// 1857   
// 1858   current_desc = pBDBListNwk;
// 1859 
// 1860   while(current_desc != NULL)
// 1861   {  
// 1862     if(current_desc == nodeDescToRemove)
// 1863     {
// 1864       if (current_desc == pBDBListNwk)
// 1865       {
// 1866         pBDBListNwk = pBDBListNwk->nextDesc;
// 1867       }
// 1868       else
// 1869       {
// 1870         prev_desc->nextDesc = current_desc->nextDesc;
// 1871       }
// 1872       
// 1873       osal_mem_free( current_desc );
// 1874       
// 1875       return ZSuccess;
// 1876     }
// 1877 
// 1878     prev_desc = current_desc;
// 1879     current_desc = current_desc->nextDesc;
// 1880   }
// 1881   
// 1882   return ZInvalidParameter;
// 1883 }
// 1884 
// 1885 /*********************************************************************
// 1886 * @fn          bdb_joinProcess
// 1887 *
// 1888 * @brief       Start the joining process for the selected nwk
// 1889 *
// 1890 * @return      ZStatus_t
// 1891 */  
// 1892 ZStatus_t bdb_joinProcess(networkDesc_t *pChosenNwk)
// 1893 {
// 1894   ZStatus_t status;
// 1895  
// 1896   ZDApp_ChangeState( DEV_NWK_JOINING );
// 1897   ZDApp_NodeProfileSync( pChosenNwk->stackProfile);
// 1898 
// 1899   status =  NLME_JoinRequest( pChosenNwk->extendedPANID, pChosenNwk->panId,
// 1900                         pChosenNwk->logicalChannel,
// 1901                         ZDO_Config_Node_Descriptor.CapabilityFlags,
// 1902                         pChosenNwk->chosenRouter, pChosenNwk->chosenRouterDepth );
// 1903   
// 1904   if(status == ZSuccess)
// 1905   {
// 1906     // The receiver is on, turn network layer polling off.
// 1907     if ( ZDO_Config_Node_Descriptor.CapabilityFlags & CAPINFO_RCVR_ON_IDLE )
// 1908     {
// 1909       // for an End Device with NO Child Table Management process or for a Router
// 1910       if ( ( ZG_DEVICE_RTR_TYPE )  ||
// 1911            ( (ZG_DEVICE_ENDDEVICE_TYPE) && ( zgChildAgingEnable == FALSE ) ) )
// 1912       {
// 1913         NLME_SetPollRate( 0 );
// 1914         NLME_SetQueuedPollRate( 0 );
// 1915         NLME_SetResponseRate( 0 );
// 1916       }
// 1917     }
// 1918     else
// 1919     {
// 1920       if ( (ZG_SECURE_ENABLED) && (devStartMode == MODE_JOIN) )
// 1921       {
// 1922         ZDApp_SavedPollRate = zgPollRate;
// 1923         NLME_SetPollRate( zgRejoinPollRate );
// 1924       }
// 1925     }
// 1926   }
// 1927   return status;
// 1928 }
// 1929 #endif
// 1930 
// 1931 
// 1932  /*********************************************************************
// 1933  * @fn          bdb_setChannelAttribute
// 1934  *
// 1935  * @brief       Set the primary or seconday channel for discovery or formation procedure
// 1936  *
// 1937  * @param       isPrimaryChannel - True if channel to set is primary,  
// 1938  *                                 False if the channel to set is secondary
// 1939  *
// 1940  * @param       channel - Channel mask
// 1941  *
// 1942  * @return      none
// 1943  */

        RSEG BANKED_CODE:CODE:NOROOT(0)
// 1944 void bdb_setChannelAttribute(bool isPrimaryChannel, uint32 channel)
bdb_setChannelAttribute:
          CFI Block cfiBlock68 Using cfiCommon0
          CFI Function bdb_setChannelAttribute
        CODE
// 1945 {
        REQUIRE ?V0
        REQUIRE ?V1
        REQUIRE ?V2
        REQUIRE ?V3
        MOV     A,#-0xc
        LCALL   ?BANKED_ENTER_XDATA
          CFI DPH0 load(1, XDATA, add(CFA_XSP16, literal(-1)))
          CFI DPL0 load(1, XDATA, add(CFA_XSP16, literal(-2)))
          CFI ?BRET_EXT load(1, XDATA, add(CFA_XSP16, literal(-3)))
          CFI ?RET_HIGH load(1, XDATA, add(CFA_XSP16, literal(-4)))
          CFI ?RET_LOW load(1, XDATA, add(CFA_XSP16, literal(-5)))
          CFI R7 load(1, XDATA, add(CFA_XSP16, literal(-6)))
          CFI V3 load(1, XDATA, add(CFA_XSP16, literal(-7)))
          CFI V2 load(1, XDATA, add(CFA_XSP16, literal(-8)))
          CFI V1 load(1, XDATA, add(CFA_XSP16, literal(-9)))
          CFI V0 load(1, XDATA, add(CFA_XSP16, literal(-10)))
          CFI VB load(1, XDATA, add(CFA_XSP16, literal(-11)))
          CFI R6 load(1, XDATA, add(CFA_XSP16, literal(-12)))
          CFI CFA_SP SP+0
          CFI CFA_XSP16 add(XSP16, 12)
        ; Saved register size: 12
        ; Auto size: 0
        MOV     ?V0,R2
        MOV     ?V1,R3
        MOV     ?V2,R4
        MOV     ?V3,R5
// 1946   if(isPrimaryChannel)
        MOV     A,R1
        JZ      ??bdb_setChannelAttribute_0
// 1947   {
// 1948     bdbAttributes.bdbPrimaryChannelSet = channel;
        MOV     DPTR,#bdbAttributes + 4
        SJMP    ??bdb_setChannelAttribute_1
// 1949   }
// 1950   else
// 1951   {
// 1952     bdbAttributes.bdbSecondaryChannelSet = channel;
??bdb_setChannelAttribute_0:
        MOV     DPTR,#bdbAttributes
??bdb_setChannelAttribute_1:
        MOV     R0,#?V0
        LCALL   ?L_MOV_TO_X
// 1953   }
// 1954 }
        SJMP    ??Subroutine38_0
          CFI EndBlock cfiBlock68
// 1955 
// 1956  /*********************************************************************
// 1957  * @fn          bdb_setChannel
// 1958  *
// 1959  * @brief       Set channel and save it in Nv for joining/formation operations
// 1960  *
// 1961  * @param       channel - Channel mask
// 1962  *
// 1963  * @return      none
// 1964  */

        RSEG BANKED_CODE:CODE:NOROOT(0)
?Subroutine2:
          CFI Block cfiBlock69 Using cfiCommon0
          CFI NoFunction
          CFI CFA_SP SP+0
          CFI CFA_XSP16 add(XSP16, 16)
          CFI VB load(1, XDATA, add(CFA_XSP16, literal(-11)))
          CFI DPL0 load(1, XDATA, add(CFA_XSP16, literal(-2)))
          CFI DPH0 load(1, XDATA, add(CFA_XSP16, literal(-1)))
          CFI R6 load(1, XDATA, add(CFA_XSP16, literal(-12)))
          CFI R7 load(1, XDATA, add(CFA_XSP16, literal(-6)))
          CFI V0 load(1, XDATA, add(CFA_XSP16, literal(-10)))
          CFI V1 load(1, XDATA, add(CFA_XSP16, literal(-9)))
          CFI V2 load(1, XDATA, add(CFA_XSP16, literal(-8)))
          CFI V3 load(1, XDATA, add(CFA_XSP16, literal(-7)))
          CFI ?BRET_EXT load(1, XDATA, add(CFA_XSP16, literal(-3)))
          CFI ?RET_HIGH load(1, XDATA, add(CFA_XSP16, literal(-4)))
          CFI ?RET_LOW load(1, XDATA, add(CFA_XSP16, literal(-5)))
        MOV     A,#0x4
          CFI EndBlock cfiBlock69
        REQUIRE ??Subroutine37_0
        ; // Fall through to label ??Subroutine37_0

        RSEG BANKED_CODE:CODE:NOROOT(0)
??Subroutine37_0:
          CFI Block cfiBlock70 Using cfiCommon0
          CFI NoFunction
          CFI CFA_SP SP+0
          CFI CFA_XSP16 add(XSP16, 20)
          CFI VB load(1, XDATA, add(CFA_XSP16, literal(-11)))
          CFI DPL0 load(1, XDATA, add(CFA_XSP16, literal(-2)))
          CFI DPH0 load(1, XDATA, add(CFA_XSP16, literal(-1)))
          CFI R6 load(1, XDATA, add(CFA_XSP16, literal(-12)))
          CFI R7 load(1, XDATA, add(CFA_XSP16, literal(-6)))
          CFI V0 load(1, XDATA, add(CFA_XSP16, literal(-10)))
          CFI V1 load(1, XDATA, add(CFA_XSP16, literal(-9)))
          CFI V2 load(1, XDATA, add(CFA_XSP16, literal(-8)))
          CFI V3 load(1, XDATA, add(CFA_XSP16, literal(-7)))
          CFI ?BRET_EXT load(1, XDATA, add(CFA_XSP16, literal(-3)))
          CFI ?RET_HIGH load(1, XDATA, add(CFA_XSP16, literal(-4)))
          CFI ?RET_LOW load(1, XDATA, add(CFA_XSP16, literal(-5)))
          CFI Invalid
        LCALL   ?DEALLOC_XSTACK8
          CFI EndBlock cfiBlock70
        REQUIRE ??Subroutine38_0
        ; // Fall through to label ??Subroutine38_0

        RSEG BANKED_CODE:CODE:NOROOT(0)
??Subroutine38_0:
          CFI Block cfiBlock71 Using cfiCommon0
          CFI NoFunction
          CFI CFA_SP SP+0
          CFI CFA_XSP16 add(XSP16, 12)
          CFI VB load(1, XDATA, add(CFA_XSP16, literal(-11)))
          CFI DPL0 load(1, XDATA, add(CFA_XSP16, literal(-2)))
          CFI DPH0 load(1, XDATA, add(CFA_XSP16, literal(-1)))
          CFI R6 load(1, XDATA, add(CFA_XSP16, literal(-12)))
          CFI R7 load(1, XDATA, add(CFA_XSP16, literal(-6)))
          CFI V0 load(1, XDATA, add(CFA_XSP16, literal(-10)))
          CFI V1 load(1, XDATA, add(CFA_XSP16, literal(-9)))
          CFI V2 load(1, XDATA, add(CFA_XSP16, literal(-8)))
          CFI V3 load(1, XDATA, add(CFA_XSP16, literal(-7)))
          CFI ?BRET_EXT load(1, XDATA, add(CFA_XSP16, literal(-3)))
          CFI ?RET_HIGH load(1, XDATA, add(CFA_XSP16, literal(-4)))
          CFI ?RET_LOW load(1, XDATA, add(CFA_XSP16, literal(-5)))
        MOV     R7,#0x4
        LJMP    ?BANKED_LEAVE_XDATA
          CFI EndBlock cfiBlock71

        RSEG BANKED_CODE:CODE:NOROOT(0)
// 1965 void bdb_setChannel(uint32 channel)
bdb_setChannel:
          CFI Block cfiBlock72 Using cfiCommon0
          CFI Function bdb_setChannel
        CODE
// 1966 {
        FUNCALL bdb_setChannel, osal_nv_write
        LOCFRAME ISTACK, 0, STACK
        LOCFRAME PSTACK, 0, STACK
        LOCFRAME XSTACK, 16, STACK
        LOCFRAME IOVERLAY, 0, STATIC
        LOCFRAME DOVERLAY, 0, STATIC
        ARGFRAME ISTACK, 0, STACK
        ARGFRAME PSTACK, 0, STACK
        ARGFRAME XSTACK, 16, STACK
        ARGFRAME IOVERLAY, 0, STATIC
        ARGFRAME DOVERLAY, 0, STATIC
        REQUIRE ?V0
        REQUIRE ?V1
        REQUIRE ?V2
        REQUIRE ?V3
        MOV     A,#-0xc
        LCALL   ?BANKED_ENTER_XDATA
          CFI DPH0 load(1, XDATA, add(CFA_XSP16, literal(-1)))
          CFI DPL0 load(1, XDATA, add(CFA_XSP16, literal(-2)))
          CFI ?BRET_EXT load(1, XDATA, add(CFA_XSP16, literal(-3)))
          CFI ?RET_HIGH load(1, XDATA, add(CFA_XSP16, literal(-4)))
          CFI ?RET_LOW load(1, XDATA, add(CFA_XSP16, literal(-5)))
          CFI R7 load(1, XDATA, add(CFA_XSP16, literal(-6)))
          CFI V3 load(1, XDATA, add(CFA_XSP16, literal(-7)))
          CFI V2 load(1, XDATA, add(CFA_XSP16, literal(-8)))
          CFI V1 load(1, XDATA, add(CFA_XSP16, literal(-9)))
          CFI V0 load(1, XDATA, add(CFA_XSP16, literal(-10)))
          CFI VB load(1, XDATA, add(CFA_XSP16, literal(-11)))
          CFI R6 load(1, XDATA, add(CFA_XSP16, literal(-12)))
          CFI CFA_SP SP+0
          CFI CFA_XSP16 add(XSP16, 12)
        ; Saved register size: 12
        ; Auto size: 0
        MOV     ?V0,R2
        MOV     ?V1,R3
        MOV     ?V2,R4
        MOV     ?V3,R5
// 1967   //Assign the channel and save it into nv
// 1968   vScanChannels = channel;
        MOV     DPTR,#zgDefaultChannelList
        MOV     R0,#?V0
        LCALL   ?L_MOV_TO_X
// 1969   runtimeChannel = channel;
        MOV     DPTR,#runtimeChannel
        MOV     R0,#?V0
        LCALL   ?L_MOV_TO_X
// 1970     
// 1971   osal_nv_write(ZCD_NV_CHANLIST,0,sizeof(uint32),&vScanChannels);
        ; Setup parameters for call to function osal_nv_write
        MOV     ?V0,#zgDefaultChannelList & 0xff
        MOV     ?V1,#(zgDefaultChannelList >> 8) & 0xff
        MOV     R0,#?V0
        LCALL   ?PUSH_XSTACK_I_TWO
          CFI CFA_XSP16 add(XSP16, 14)
        MOV     ?V0,#0x4
        MOV     ?V1,#0x0
        MOV     R0,#?V0
        LCALL   ?PUSH_XSTACK_I_TWO
          CFI CFA_XSP16 add(XSP16, 16)
        MOV     R4,#0x0
        MOV     R5,#0x0
        MOV     R2,#-0x7c
        MOV     R3,#0x0
        LCALL   `??osal_nv_write::?relay`; Banked call to: osal_nv_write
        SJMP    ?Subroutine2
// 1972 }
          CFI EndBlock cfiBlock72
// 1973 
// 1974 
// 1975  /*********************************************************************
// 1976  * @fn          bdb_nwkJoiningFormation   
// 1977  *
// 1978  * @brief       Performs Joining/Formation operation on primary or secondary channel
// 1979  *
// 1980  * @param       isJoining - TRUE if the device is performing joining, FALSE is performing Formation
// 1981  *
// 1982  * @return      none
// 1983  */

        RSEG BANKED_CODE:CODE:NOROOT(0)
// 1984 void bdb_nwkJoiningFormation(bool isJoining)
bdb_nwkJoiningFormation:
          CFI Block cfiBlock73 Using cfiCommon0
          CFI Function bdb_nwkJoiningFormation
        CODE
// 1985 {
        FUNCALL bdb_nwkJoiningFormation, bdb_setChannel
        LOCFRAME ISTACK, 0, STACK
        LOCFRAME PSTACK, 0, STACK
        LOCFRAME XSTACK, 12, STACK
        LOCFRAME IOVERLAY, 0, STATIC
        LOCFRAME DOVERLAY, 0, STATIC
        ARGFRAME ISTACK, 0, STACK
        ARGFRAME PSTACK, 0, STACK
        ARGFRAME XSTACK, 12, STACK
        ARGFRAME IOVERLAY, 0, STATIC
        ARGFRAME DOVERLAY, 0, STATIC
        FUNCALL bdb_nwkJoiningFormation, bdb_setChannel
        LOCFRAME ISTACK, 0, STACK
        LOCFRAME PSTACK, 0, STACK
        LOCFRAME XSTACK, 12, STACK
        LOCFRAME IOVERLAY, 0, STATIC
        LOCFRAME DOVERLAY, 0, STATIC
        ARGFRAME ISTACK, 0, STACK
        ARGFRAME PSTACK, 0, STACK
        ARGFRAME XSTACK, 12, STACK
        ARGFRAME IOVERLAY, 0, STATIC
        ARGFRAME DOVERLAY, 0, STATIC
        FUNCALL bdb_nwkJoiningFormation, ZDOInitDeviceEx
        LOCFRAME ISTACK, 0, STACK
        LOCFRAME PSTACK, 0, STACK
        LOCFRAME XSTACK, 12, STACK
        LOCFRAME IOVERLAY, 0, STATIC
        LOCFRAME DOVERLAY, 0, STATIC
        ARGFRAME ISTACK, 0, STACK
        ARGFRAME PSTACK, 0, STACK
        ARGFRAME XSTACK, 12, STACK
        ARGFRAME IOVERLAY, 0, STATIC
        ARGFRAME DOVERLAY, 0, STATIC
        FUNCALL bdb_nwkJoiningFormation, ZDOInitDeviceEx
        LOCFRAME ISTACK, 0, STACK
        LOCFRAME PSTACK, 0, STACK
        LOCFRAME XSTACK, 12, STACK
        LOCFRAME IOVERLAY, 0, STATIC
        LOCFRAME DOVERLAY, 0, STATIC
        ARGFRAME ISTACK, 0, STACK
        ARGFRAME PSTACK, 0, STACK
        ARGFRAME XSTACK, 12, STACK
        ARGFRAME IOVERLAY, 0, STATIC
        ARGFRAME DOVERLAY, 0, STATIC
        FUNCALL bdb_nwkJoiningFormation, bdb_reportCommissioningState
        LOCFRAME ISTACK, 0, STACK
        LOCFRAME PSTACK, 0, STACK
        LOCFRAME XSTACK, 12, STACK
        LOCFRAME IOVERLAY, 0, STATIC
        LOCFRAME DOVERLAY, 0, STATIC
        ARGFRAME ISTACK, 0, STACK
        ARGFRAME PSTACK, 0, STACK
        ARGFRAME XSTACK, 12, STACK
        ARGFRAME IOVERLAY, 0, STATIC
        ARGFRAME DOVERLAY, 0, STATIC
        FUNCALL bdb_nwkJoiningFormation, bdb_reportCommissioningState
        LOCFRAME ISTACK, 0, STACK
        LOCFRAME PSTACK, 0, STACK
        LOCFRAME XSTACK, 12, STACK
        LOCFRAME IOVERLAY, 0, STATIC
        LOCFRAME DOVERLAY, 0, STATIC
        ARGFRAME ISTACK, 0, STACK
        ARGFRAME PSTACK, 0, STACK
        ARGFRAME XSTACK, 12, STACK
        ARGFRAME IOVERLAY, 0, STATIC
        ARGFRAME DOVERLAY, 0, STATIC
        REQUIRE ?V0
        REQUIRE ?V1
        REQUIRE ?V2
        REQUIRE ?V3
        MOV     A,#-0xc
        LCALL   ?BANKED_ENTER_XDATA
          CFI DPH0 load(1, XDATA, add(CFA_XSP16, literal(-1)))
          CFI DPL0 load(1, XDATA, add(CFA_XSP16, literal(-2)))
          CFI ?BRET_EXT load(1, XDATA, add(CFA_XSP16, literal(-3)))
          CFI ?RET_HIGH load(1, XDATA, add(CFA_XSP16, literal(-4)))
          CFI ?RET_LOW load(1, XDATA, add(CFA_XSP16, literal(-5)))
          CFI R7 load(1, XDATA, add(CFA_XSP16, literal(-6)))
          CFI V3 load(1, XDATA, add(CFA_XSP16, literal(-7)))
          CFI V2 load(1, XDATA, add(CFA_XSP16, literal(-8)))
          CFI V1 load(1, XDATA, add(CFA_XSP16, literal(-9)))
          CFI V0 load(1, XDATA, add(CFA_XSP16, literal(-10)))
          CFI VB load(1, XDATA, add(CFA_XSP16, literal(-11)))
          CFI R6 load(1, XDATA, add(CFA_XSP16, literal(-12)))
          CFI CFA_SP SP+0
          CFI CFA_XSP16 add(XSP16, 12)
        ; Saved register size: 12
        ; Auto size: 0
        MOV     A,R1
        MOV     R6,A
// 1986   
// 1987   if((vDoPrimaryScan) && (bdbAttributes.bdbPrimaryChannelSet))
        MOV     DPTR,#vDoPrimaryScan
        MOVX    A,@DPTR
        JZ      ??bdb_nwkJoiningFormation_0
        MOV     DPTR,#bdbAttributes + 4
        MOV     R0,#?V0
        LCALL   ?L_MOV_X
        MOV     A,?V0
        ORL     A,?V1
        ORL     A,?V2
        ORL     A,?V3
        JZ      ??bdb_nwkJoiningFormation_0
// 1988   {
// 1989     bdb_setChannel(bdbAttributes.bdbPrimaryChannelSet);
        ; Setup parameters for call to function bdb_setChannel
        MOV     R2,?V0
        MOV     R3,?V1
        MOV     R4,?V2
        MOV     R5,?V3
        SJMP    ??bdb_nwkJoiningFormation_1
// 1990   }
// 1991   else
// 1992   {
// 1993     vDoPrimaryScan = FALSE;
??bdb_nwkJoiningFormation_0:
        MOV     DPTR,#vDoPrimaryScan
        CLR     A
        MOVX    @DPTR,A
// 1994     bdb_setChannel(bdbAttributes.bdbSecondaryChannelSet);
        ; Setup parameters for call to function bdb_setChannel
        MOV     DPTR,#bdbAttributes
        LCALL   ?XLOAD_R2345
??bdb_nwkJoiningFormation_1:
        LCALL   `??bdb_setChannel::?relay`; Banked call to: bdb_setChannel
// 1995   }
// 1996 
// 1997   if(vScanChannels)
        MOV     DPTR,#zgDefaultChannelList
        LCALL   ?XLOAD_R0123
        MOV     A,R0
        ORL     A,R1
        ORL     A,R2
        ORL     A,R3
        JZ      ??bdb_nwkJoiningFormation_2
// 1998   {
// 1999     if(ZG_DEVICE_RTRONLY_TYPE)
        MOV     DPTR,#zgDeviceLogicalType
        MOVX    A,@DPTR
        XRL     A,#0x1
        JNZ     ??bdb_nwkJoiningFormation_3
// 2000     {
// 2001       if(isJoining)
        MOV     A,R6
        JNZ     ??bdb_nwkJoiningFormation_3
// 2002       {
// 2003         ZDOInitDeviceEx(100,0);
// 2004       }
// 2005       else
// 2006       {
// 2007         ZDOInitDeviceEx(100,1);
        ; Setup parameters for call to function ZDOInitDeviceEx
        MOV     R1,#0x1
        SJMP    ??bdb_nwkJoiningFormation_4
// 2008       }
// 2009     }
// 2010     //ZED can only join, and ZC can only create
// 2011     else
// 2012     {
// 2013       ZDOInitDeviceEx(100,0);
??bdb_nwkJoiningFormation_3:
        ; Setup parameters for call to function ZDOInitDeviceEx
        MOV     R1,#0x0
??bdb_nwkJoiningFormation_4:
        MOV     R2,#0x64
        MOV     R3,#0x0
        LCALL   `??ZDOInitDeviceEx::?relay`; Banked call to: ZDOInitDeviceEx
        SJMP    ??bdb_nwkJoiningFormation_5
// 2014     }
// 2015   }
// 2016   else
// 2017   {
// 2018     if(isJoining)
??bdb_nwkJoiningFormation_2:
        MOV     A,R6
        MOV     R2,#0x0
        JZ      ??bdb_nwkJoiningFormation_6
// 2019     {
// 2020       bdb_reportCommissioningState(BDB_COMMISSIONING_STATE_JOINING, FALSE);
        ; Setup parameters for call to function bdb_reportCommissioningState
        MOV     R1,#0x3
        SJMP    ??bdb_nwkJoiningFormation_7
// 2021     }
// 2022     else
// 2023     {
// 2024       bdb_reportCommissioningState(BDB_COMMISSIONING_STATE_FORMATION, FALSE);
??bdb_nwkJoiningFormation_6:
        ; Setup parameters for call to function bdb_reportCommissioningState
        MOV     R1,#0x5
??bdb_nwkJoiningFormation_7:
        LCALL   `??bdb_reportCommissioningState::?relay`; Banked call to: bdb_reportCommissioningState
// 2025     }
// 2026   }
// 2027 }
??bdb_nwkJoiningFormation_5:
        LJMP    ??Subroutine38_0 & 0xFFFF
          CFI EndBlock cfiBlock73
// 2028 
// 2029 #if (ZG_BUILD_JOINING_TYPE)
// 2030  /*********************************************************************
// 2031  * @fn          bdb_tcLinkKeyExchangeAttempt
// 2032  *
// 2033  * @brief       Generic send msg for TC link key exchange process attempts
// 2034  *
// 2035  * @param       didSuccess - FALSE if the step failed/timeout, TRUE otherwise
// 2036  * @param       bdbTCExchangeState - Step in which the attemp was done
// 2037  *
// 2038  * @return      none
// 2039  */
// 2040 void bdb_tcLinkKeyExchangeAttempt(bool didSuccess, uint8 bdbTCExchangeState)
// 2041 {
// 2042   bool bdbEventStatus = BDB_MSG_EVENT_SUCCESS;
// 2043   uint8 dummy;
// 2044   bdbCommissioningProcedureState.bdbTCExchangeState = bdbTCExchangeState;
// 2045   if(didSuccess)
// 2046   {
// 2047     //Allow try since we are performing a new step.
// 2048     osal_stop_timerEx(bdb_TaskID, BDB_PROCESS_TIMEOUT);
// 2049     bdbAttributes.bdbTCLinkKeyExchangeAttempts = 0;
// 2050   }
// 2051   else
// 2052   {
// 2053     bdbEventStatus = BDB_MSG_EVENT_FAIL;
// 2054   }
// 2055   bdb_SendMsg(bdb_TaskID,BDB_COMMISSIONING_STATE_TC_LINK_KEY_EXCHANGE,bdbEventStatus,1, &dummy);
// 2056 }
// 2057 
// 2058 
// 2059  /*********************************************************************
// 2060  * @fn          bdb_requestVerifyTCLinkKey
// 2061  *
// 2062  * @brief       Attempt to verify the TC link key by sending Verify Key Request
// 2063  *
// 2064  * @param       none
// 2065  *
// 2066  * @return      none
// 2067  */
// 2068 void bdb_requestVerifyTCLinkKey(void)
// 2069 {
// 2070     uint8 TC_ExtAddr[Z_EXTADDR_LEN];
// 2071     APSME_VerifyKeyReq_t vKey;
// 2072     
// 2073     APSME_GetRequest( apsTrustCenterAddress,0, TC_ExtAddr );
// 2074     
// 2075     vKey.tcExtAddr = TC_ExtAddr;
// 2076     vKey.keyType = KEY_TYPE_TC_LINK;
// 2077     
// 2078     APSME_VerifyKeyReq( &vKey );
// 2079     
// 2080     osal_stop_timerEx(bdb_TaskID,BDB_PROCESS_TIMEOUT);
// 2081     osal_start_timerEx(bdb_TaskID,BDB_PROCESS_TIMEOUT,BDBC_TC_LINK_KEY_EXANGE_TIMEOUT);
// 2082     
// 2083 }
// 2084 
// 2085 /*********************************************************************
// 2086  * @fn          bdb_requestTCLinkKey
// 2087  *
// 2088  * @brief       Attempt to request a TC link key
// 2089  *
// 2090  * @param       none
// 2091  *
// 2092  * @return      none
// 2093  */
// 2094 void bdb_requestTCLinkKey(void)
// 2095 {
// 2096   zAddrType_t destAddr;
// 2097   APSME_RequestKeyReq_t req;
// 2098 
// 2099   destAddr.addrMode = Addr16Bit;
// 2100   destAddr.addr.shortAddr = 0x0000;
// 2101   
// 2102   req.dstAddr = destAddr.addr.shortAddr;
// 2103   req.keyType = KEY_TYPE_TC_LINK;
// 2104   
// 2105   APSME_RequestKeyReq(&req);
// 2106   
// 2107   osal_stop_timerEx(bdb_TaskID,BDB_PROCESS_TIMEOUT);
// 2108   
// 2109   osal_start_timerEx(bdb_TaskID,BDB_PROCESS_TIMEOUT,(uint32)requestLinkKeyTimeout);
// 2110 } 
// 2111 
// 2112 
// 2113 /*********************************************************************
// 2114  * @fn          bdb_requestTCStackVersion
// 2115  *
// 2116  * @brief       Attempt to request the TC stack version using ZDP Node desc if 
// 2117  *              join a Centralized nwk
// 2118  *
// 2119  * @param       none
// 2120  *
// 2121  * @return      none
// 2122  */
// 2123 void bdb_requestTCStackVersion(void)
// 2124 {
// 2125   if(requestNewTrustCenterLinkKey)
// 2126   {
// 2127     if(!APSME_IsDistributedSecurity())
// 2128     {
// 2129       if(bdbAttributes.bdbTCLinkKeyExchangeMethod == BDB_TC_LINK_KEY_EXCHANGE_APS_KEY)
// 2130       {
// 2131         zAddrType_t destAddr;
// 2132        
// 2133         destAddr.addrMode = Addr16Bit;
// 2134         destAddr.addr.shortAddr = 0x0000;
// 2135        
// 2136         ZDP_NodeDescReq( &destAddr, destAddr.addr.shortAddr, 0);  
// 2137         
// 2138         osal_stop_timerEx(bdb_TaskID,BDB_PROCESS_TIMEOUT);
// 2139         osal_start_timerEx( bdb_TaskID, BDB_PROCESS_TIMEOUT, BDBC_TC_LINK_KEY_EXANGE_TIMEOUT );
// 2140         return;
// 2141       }
// 2142       else
// 2143       {
// 2144         if(pfnCBKETCLinkKeyExchange)
// 2145         {
// 2146           pfnCBKETCLinkKeyExchange();
// 2147         }
// 2148         return;
// 2149       }
// 2150     }
// 2151     else
// 2152     {
// 2153       bdb_setNodeJoinLinkKeyType(BDB_DISTRIBUTED_SECURITY_GLOBAL_LINK_KEY);
// 2154     }
// 2155   }
// 2156   else
// 2157   {
// 2158     //Key not required, set default which is global
// 2159     bdb_setNodeJoinLinkKeyType(BDB_DEFAULT_GLOBAL_TRUST_CENTER_LINK_KEY);
// 2160   }
// 2161 
// 2162 
// 2163   //TC link key not required or join distributed nwk
// 2164   bdb_reportCommissioningState(BDB_COMMISSIONING_STATE_TC_LINK_KEY_EXCHANGE,TRUE);
// 2165 }
// 2166 #endif
// 2167 
// 2168 
// 2169 /*********************************************************************
// 2170  * @fn          bdb_nwkSteeringDeviceOnNwk
// 2171  *
// 2172  * @brief       Send ZDP mgmt permit joining
// 2173  *
// 2174  * @param       none
// 2175  *
// 2176  * @return      none
// 2177  */

        RSEG BANKED_CODE:CODE:NOROOT(0)
// 2178 void bdb_nwkSteeringDeviceOnNwk(void)
bdb_nwkSteeringDeviceOnNwk:
          CFI Block cfiBlock74 Using cfiCommon0
          CFI Function bdb_nwkSteeringDeviceOnNwk
        CODE
// 2179 {
        FUNCALL bdb_nwkSteeringDeviceOnNwk, ZDP_MgmtPermitJoinReq
        LOCFRAME ISTACK, 2, STACK
        LOCFRAME PSTACK, 0, STACK
        LOCFRAME XSTACK, 9, STACK
        LOCFRAME IOVERLAY, 0, STATIC
        LOCFRAME DOVERLAY, 0, STATIC
        ARGFRAME ISTACK, 2, STACK
        ARGFRAME PSTACK, 0, STACK
        ARGFRAME XSTACK, 9, STACK
        ARGFRAME IOVERLAY, 0, STATIC
        ARGFRAME DOVERLAY, 0, STATIC
        PUSH    DPL
          CFI DPL0 Frame(CFA_SP, 4)
          CFI CFA_SP SP+-4
        PUSH    DPH
          CFI DPH0 Frame(CFA_SP, 5)
          CFI CFA_SP SP+-5
        ; Saved register size: 2
        ; Auto size: 9
        MOV     A,#-0x9
        LCALL   ?ALLOC_XSTACK8
          CFI CFA_XSP16 add(XSP16, 9)
// 2180   zAddrType_t dstAddr;
// 2181   dstAddr.addr.shortAddr = NWK_BROADCAST_SHORTADDR_DEVZCZR;
        MOV     DPL,?XSP + 0
        MOV     DPH,?XSP + 1
        MOV     A,#-0x4
        MOVX    @DPTR,A
        INC     DPTR
        MOV     A,#-0x1
        MOVX    @DPTR,A
// 2182   dstAddr.addrMode = AddrBroadcast;
        MOV     A,#0x8
        LCALL   ?XSTACK_DISP0_8
        MOV     A,#0xf
        MOVX    @DPTR,A
// 2183   // Trust Center significance is always true
// 2184   ZDP_MgmtPermitJoinReq( &dstAddr, BDBC_MIN_COMMISSIONING_TIME, TRUE, FALSE );
        ; Setup parameters for call to function ZDP_MgmtPermitJoinReq
        MOV     R5,#0x0
        MOV     R4,#0x1
        MOV     R1,#-0x4c
        MOV     R2,?XSP + 0
        MOV     R3,?XSP + 1
        LCALL   `??ZDP_MgmtPermitJoinReq::?relay`; Banked call to: ZDP_MgmtPermitJoinReq
// 2185 }
        MOV     A,#0x9
          CFI EndBlock cfiBlock74
        REQUIRE ?Subroutine6
        ; // Fall through to label ?Subroutine6

        RSEG BANKED_CODE:CODE:NOROOT(0)
?Subroutine6:
          CFI Block cfiBlock75 Using cfiCommon0
          CFI NoFunction
          CFI CFA_SP SP+-5
          CFI CFA_XSP16 add(XSP16, 9)
          CFI DPL0 Frame(CFA_SP, 4)
          CFI DPH0 Frame(CFA_SP, 5)
          CFI Invalid
        LCALL   ?DEALLOC_XSTACK8
          CFI CFA_XSP16 XSP16+0
          CFI Valid
        LJMP    ??Subroutine35_0 & 0xFFFF
          CFI EndBlock cfiBlock75
// 2186 
// 2187 
// 2188 /*********************************************************************
// 2189  * @fn          bdb_startResumeCommissioningProcess
// 2190  *
// 2191  * @brief       Starts or resume the commissioning operations sets in the 
// 2192  *              commissioningMode attribute
// 2193  *
// 2194  * @param       none
// 2195  *
// 2196  * @return      none
// 2197  */

        RSEG BANKED_CODE:CODE:NOROOT(0)
// 2198 void bdb_startResumeCommissioningProcess(void)
bdb_startResumeCommissioningProcess:
          CFI Block cfiBlock76 Using cfiCommon0
          CFI Function bdb_startResumeCommissioningProcess
        CODE
// 2199 {
        FUNCALL bdb_startResumeCommissioningProcess, bdb_nwkSteeringDeviceOnNwk
        LOCFRAME ISTACK, 0, STACK
        LOCFRAME PSTACK, 0, STACK
        LOCFRAME XSTACK, 21, STACK
        LOCFRAME IOVERLAY, 0, STATIC
        LOCFRAME DOVERLAY, 0, STATIC
        ARGFRAME ISTACK, 0, STACK
        ARGFRAME PSTACK, 0, STACK
        ARGFRAME XSTACK, 21, STACK
        ARGFRAME IOVERLAY, 0, STATIC
        ARGFRAME DOVERLAY, 0, STATIC
        FUNCALL bdb_startResumeCommissioningProcess, bdb_reportCommissioningState
        LOCFRAME ISTACK, 0, STACK
        LOCFRAME PSTACK, 0, STACK
        LOCFRAME XSTACK, 21, STACK
        LOCFRAME IOVERLAY, 0, STATIC
        LOCFRAME DOVERLAY, 0, STATIC
        ARGFRAME ISTACK, 0, STACK
        ARGFRAME PSTACK, 0, STACK
        ARGFRAME XSTACK, 21, STACK
        ARGFRAME IOVERLAY, 0, STATIC
        ARGFRAME DOVERLAY, 0, STATIC
        FUNCALL bdb_startResumeCommissioningProcess, bdb_reportCommissioningState
        LOCFRAME ISTACK, 0, STACK
        LOCFRAME PSTACK, 0, STACK
        LOCFRAME XSTACK, 21, STACK
        LOCFRAME IOVERLAY, 0, STATIC
        LOCFRAME DOVERLAY, 0, STATIC
        ARGFRAME ISTACK, 0, STACK
        ARGFRAME PSTACK, 0, STACK
        ARGFRAME XSTACK, 21, STACK
        ARGFRAME IOVERLAY, 0, STATIC
        ARGFRAME DOVERLAY, 0, STATIC
        FUNCALL bdb_startResumeCommissioningProcess, osal_memset
        LOCFRAME ISTACK, 0, STACK
        LOCFRAME PSTACK, 0, STACK
        LOCFRAME XSTACK, 21, STACK
        LOCFRAME IOVERLAY, 0, STATIC
        LOCFRAME DOVERLAY, 0, STATIC
        ARGFRAME ISTACK, 0, STACK
        ARGFRAME PSTACK, 0, STACK
        ARGFRAME XSTACK, 21, STACK
        ARGFRAME IOVERLAY, 0, STATIC
        ARGFRAME DOVERLAY, 0, STATIC
        FUNCALL bdb_startResumeCommissioningProcess, bdb_nwkJoiningFormation
        LOCFRAME ISTACK, 0, STACK
        LOCFRAME PSTACK, 0, STACK
        LOCFRAME XSTACK, 21, STACK
        LOCFRAME IOVERLAY, 0, STATIC
        LOCFRAME DOVERLAY, 0, STATIC
        ARGFRAME ISTACK, 0, STACK
        ARGFRAME PSTACK, 0, STACK
        ARGFRAME XSTACK, 21, STACK
        ARGFRAME IOVERLAY, 0, STATIC
        ARGFRAME DOVERLAY, 0, STATIC
        FUNCALL bdb_startResumeCommissioningProcess, bdb_NotifyCommissioningModeStart
        LOCFRAME ISTACK, 0, STACK
        LOCFRAME PSTACK, 0, STACK
        LOCFRAME XSTACK, 21, STACK
        LOCFRAME IOVERLAY, 0, STATIC
        LOCFRAME DOVERLAY, 0, STATIC
        ARGFRAME ISTACK, 0, STACK
        ARGFRAME PSTACK, 0, STACK
        ARGFRAME XSTACK, 21, STACK
        ARGFRAME IOVERLAY, 0, STATIC
        ARGFRAME DOVERLAY, 0, STATIC
        FUNCALL bdb_startResumeCommissioningProcess, bdb_reportCommissioningState
        LOCFRAME ISTACK, 0, STACK
        LOCFRAME PSTACK, 0, STACK
        LOCFRAME XSTACK, 21, STACK
        LOCFRAME IOVERLAY, 0, STATIC
        LOCFRAME DOVERLAY, 0, STATIC
        ARGFRAME ISTACK, 0, STACK
        ARGFRAME PSTACK, 0, STACK
        ARGFRAME XSTACK, 21, STACK
        ARGFRAME IOVERLAY, 0, STATIC
        ARGFRAME DOVERLAY, 0, STATIC
        FUNCALL bdb_startResumeCommissioningProcess, bdb_setEpDescListToActiveEndpoint
        LOCFRAME ISTACK, 0, STACK
        LOCFRAME PSTACK, 0, STACK
        LOCFRAME XSTACK, 21, STACK
        LOCFRAME IOVERLAY, 0, STATIC
        LOCFRAME DOVERLAY, 0, STATIC
        ARGFRAME ISTACK, 0, STACK
        ARGFRAME PSTACK, 0, STACK
        ARGFRAME XSTACK, 21, STACK
        ARGFRAME IOVERLAY, 0, STATIC
        ARGFRAME DOVERLAY, 0, STATIC
        FUNCALL bdb_startResumeCommissioningProcess, bdb_exitFindingBindingWStatus
        LOCFRAME ISTACK, 0, STACK
        LOCFRAME PSTACK, 0, STACK
        LOCFRAME XSTACK, 21, STACK
        LOCFRAME IOVERLAY, 0, STATIC
        LOCFRAME DOVERLAY, 0, STATIC
        ARGFRAME ISTACK, 0, STACK
        ARGFRAME PSTACK, 0, STACK
        ARGFRAME XSTACK, 21, STACK
        ARGFRAME IOVERLAY, 0, STATIC
        ARGFRAME DOVERLAY, 0, STATIC
        FUNCALL bdb_startResumeCommissioningProcess, zclFindAttrRec
        LOCFRAME ISTACK, 0, STACK
        LOCFRAME PSTACK, 0, STACK
        LOCFRAME XSTACK, 23, STACK
        LOCFRAME IOVERLAY, 0, STATIC
        LOCFRAME DOVERLAY, 0, STATIC
        ARGFRAME ISTACK, 0, STACK
        ARGFRAME PSTACK, 0, STACK
        ARGFRAME XSTACK, 23, STACK
        ARGFRAME IOVERLAY, 0, STATIC
        ARGFRAME DOVERLAY, 0, STATIC
        FUNCALL bdb_startResumeCommissioningProcess, osal_start_timerEx
        LOCFRAME ISTACK, 0, STACK
        LOCFRAME PSTACK, 0, STACK
        LOCFRAME XSTACK, 25, STACK
        LOCFRAME IOVERLAY, 0, STATIC
        LOCFRAME DOVERLAY, 0, STATIC
        ARGFRAME ISTACK, 0, STACK
        ARGFRAME PSTACK, 0, STACK
        ARGFRAME XSTACK, 25, STACK
        ARGFRAME IOVERLAY, 0, STATIC
        ARGFRAME DOVERLAY, 0, STATIC
        FUNCALL bdb_startResumeCommissioningProcess, bdb_exitFindingBindingWStatus
        LOCFRAME ISTACK, 0, STACK
        LOCFRAME PSTACK, 0, STACK
        LOCFRAME XSTACK, 21, STACK
        LOCFRAME IOVERLAY, 0, STATIC
        LOCFRAME DOVERLAY, 0, STATIC
        ARGFRAME ISTACK, 0, STACK
        ARGFRAME PSTACK, 0, STACK
        ARGFRAME XSTACK, 21, STACK
        ARGFRAME IOVERLAY, 0, STATIC
        ARGFRAME DOVERLAY, 0, STATIC
        FUNCALL bdb_startResumeCommissioningProcess, bdb_SendMsg
        LOCFRAME ISTACK, 0, STACK
        LOCFRAME PSTACK, 0, STACK
        LOCFRAME XSTACK, 23, STACK
        LOCFRAME IOVERLAY, 0, STATIC
        LOCFRAME DOVERLAY, 0, STATIC
        ARGFRAME ISTACK, 0, STACK
        ARGFRAME PSTACK, 0, STACK
        ARGFRAME XSTACK, 23, STACK
        ARGFRAME IOVERLAY, 0, STATIC
        ARGFRAME DOVERLAY, 0, STATIC
        FUNCALL bdb_startResumeCommissioningProcess, bdb_exitFindingBindingWStatus
        LOCFRAME ISTACK, 0, STACK
        LOCFRAME PSTACK, 0, STACK
        LOCFRAME XSTACK, 21, STACK
        LOCFRAME IOVERLAY, 0, STATIC
        LOCFRAME DOVERLAY, 0, STATIC
        ARGFRAME ISTACK, 0, STACK
        ARGFRAME PSTACK, 0, STACK
        ARGFRAME XSTACK, 21, STACK
        ARGFRAME IOVERLAY, 0, STATIC
        ARGFRAME DOVERLAY, 0, STATIC
        FUNCALL bdb_startResumeCommissioningProcess, bdb_SendIdentifyQuery
        LOCFRAME ISTACK, 0, STACK
        LOCFRAME PSTACK, 0, STACK
        LOCFRAME XSTACK, 21, STACK
        LOCFRAME IOVERLAY, 0, STATIC
        LOCFRAME DOVERLAY, 0, STATIC
        ARGFRAME ISTACK, 0, STACK
        ARGFRAME PSTACK, 0, STACK
        ARGFRAME XSTACK, 21, STACK
        ARGFRAME IOVERLAY, 0, STATIC
        ARGFRAME DOVERLAY, 0, STATIC
        FUNCALL bdb_startResumeCommissioningProcess, bdb_exitFindingBindingWStatus
        LOCFRAME ISTACK, 0, STACK
        LOCFRAME PSTACK, 0, STACK
        LOCFRAME XSTACK, 21, STACK
        LOCFRAME IOVERLAY, 0, STATIC
        LOCFRAME DOVERLAY, 0, STATIC
        ARGFRAME ISTACK, 0, STACK
        ARGFRAME PSTACK, 0, STACK
        ARGFRAME XSTACK, 21, STACK
        ARGFRAME IOVERLAY, 0, STATIC
        ARGFRAME DOVERLAY, 0, STATIC
        FUNCALL bdb_startResumeCommissioningProcess, osal_start_timerEx
        LOCFRAME ISTACK, 0, STACK
        LOCFRAME PSTACK, 0, STACK
        LOCFRAME XSTACK, 25, STACK
        LOCFRAME IOVERLAY, 0, STATIC
        LOCFRAME DOVERLAY, 0, STATIC
        ARGFRAME ISTACK, 0, STACK
        ARGFRAME PSTACK, 0, STACK
        ARGFRAME XSTACK, 25, STACK
        ARGFRAME IOVERLAY, 0, STATIC
        ARGFRAME DOVERLAY, 0, STATIC
        FUNCALL bdb_startResumeCommissioningProcess, bdb_SendMsg
        LOCFRAME ISTACK, 0, STACK
        LOCFRAME PSTACK, 0, STACK
        LOCFRAME XSTACK, 23, STACK
        LOCFRAME IOVERLAY, 0, STATIC
        LOCFRAME DOVERLAY, 0, STATIC
        ARGFRAME ISTACK, 0, STACK
        ARGFRAME PSTACK, 0, STACK
        ARGFRAME XSTACK, 23, STACK
        ARGFRAME IOVERLAY, 0, STATIC
        ARGFRAME DOVERLAY, 0, STATIC
        FUNCALL bdb_startResumeCommissioningProcess, bdb_exitFindingBindingWStatus
        LOCFRAME ISTACK, 0, STACK
        LOCFRAME PSTACK, 0, STACK
        LOCFRAME XSTACK, 21, STACK
        LOCFRAME IOVERLAY, 0, STATIC
        LOCFRAME DOVERLAY, 0, STATIC
        ARGFRAME ISTACK, 0, STACK
        ARGFRAME PSTACK, 0, STACK
        ARGFRAME XSTACK, 21, STACK
        ARGFRAME IOVERLAY, 0, STATIC
        ARGFRAME DOVERLAY, 0, STATIC
        REQUIRE ?V0
        REQUIRE ?V1
        MOV     A,#-0xa
        LCALL   ?BANKED_ENTER_XDATA
          CFI DPH0 load(1, XDATA, add(CFA_XSP16, literal(-1)))
          CFI DPL0 load(1, XDATA, add(CFA_XSP16, literal(-2)))
          CFI ?BRET_EXT load(1, XDATA, add(CFA_XSP16, literal(-3)))
          CFI ?RET_HIGH load(1, XDATA, add(CFA_XSP16, literal(-4)))
          CFI ?RET_LOW load(1, XDATA, add(CFA_XSP16, literal(-5)))
          CFI R7 load(1, XDATA, add(CFA_XSP16, literal(-6)))
          CFI V1 load(1, XDATA, add(CFA_XSP16, literal(-7)))
          CFI V0 load(1, XDATA, add(CFA_XSP16, literal(-8)))
          CFI VB load(1, XDATA, add(CFA_XSP16, literal(-9)))
          CFI R6 load(1, XDATA, add(CFA_XSP16, literal(-10)))
          CFI CFA_SP SP+0
          CFI CFA_XSP16 add(XSP16, 10)
        ; Saved register size: 10
        ; Auto size: 11
        MOV     A,#-0xb
        LCALL   ?ALLOC_XSTACK8
          CFI CFA_XSP16 add(XSP16, 21)
// 2200 
// 2201 #if ( defined ( BDB_TL_INITIATOR ) && (BDB_TOUCHLINK_CAPABILITY_ENABLED == TRUE) ) 
// 2202   if(bdbAttributes.bdbCommissioningMode & BDB_COMMISSIONING_MODE_INITIATOR_TL)
// 2203   {
// 2204     uint16 nwkAddr;
// 2205 
// 2206     //Does the device supports this commissioning mode?
// 2207     if(bdbAttributes.bdbNodeCommissioningCapability & BDB_TOUCHLINK_CAPABILITY)
// 2208     {
// 2209       //Clear previous state and substates
// 2210       osal_memset(&bdbCommissioningProcedureState,0,sizeof(bdbCommissioningProcedureState));
// 2211       bdbCommissioningProcedureState.bdbCommissioningState = BDB_COMMISSIONING_STATE_TL;
// 2212       
// 2213       // Get our short address
// 2214       ZMacGetReq( ZMacShortAddress, (byte*)&nwkAddr );
// 2215       if ( nwkAddr == INVALID_NODE_ADDR )
// 2216       {
// 2217         initiatorSelectNwkParams();
// 2218       }
// 2219       
// 2220       touchLinkInitiator_StartDevDisc( );  
// 2221       
// 2222       bdb_NotifyCommissioningModeStart(BDB_COMMISSIONING_TOUCHLINK);
// 2223     }
// 2224     else
// 2225     {
// 2226       //Process the next commissioning mode
// 2227       bdb_reportCommissioningState( BDB_COMMISSIONING_STATE_TL, FALSE );
// 2228     }
// 2229     return;
// 2230   }
// 2231 #endif // BDB_TOUCHLINK_CAPABILITY_ENABLED  
// 2232   
// 2233 #if ZG_BUILD_ENDDEVICE_TYPE
// 2234   if(ZG_DEVICE_ENDDEVICE_TYPE)
// 2235   {
// 2236     if(bdbAttributes.bdbCommissioningMode & BDB_COMMISSIONING_MODE_PARENT_LOST)
// 2237     {
// 2238       //No commissioning process can be performed if the ZED has lost its parent
// 2239       return;
// 2240     }
// 2241   }
// 2242 #endif
// 2243   
// 2244   if(bdbAttributes.bdbCommissioningMode & BDB_COMMISSIONING_MODE_NWK_STEERING)
        MOV     DPTR,#bdbAttributes + 11
        MOVX    A,@DPTR
        MOV     C,0xE0 /* A   */.1
        JNC     ??bdb_startResumeCommissioningProcess_0
// 2245   {
// 2246     bdbCommissioningProcedureState.bdbCommissioningState = BDB_COMMISSIONING_STATE_STEERING_ON_NWK;
        MOV     DPTR,#bdbCommissioningProcedureState
        MOV     A,#0x4
        MOVX    @DPTR,A
// 2247     
// 2248     if(bdbAttributes.bdbNodeCommissioningCapability & BDB_NETWORK_STEERING_CAPABILITY)
        MOV     DPTR,#bdbAttributes + 12
        MOVX    A,@DPTR
        MOV     C,0xE0 /* A   */.0
        JNC     ??bdb_startResumeCommissioningProcess_1
// 2249     {
// 2250 #if (BDB_TOUCHLINK_CAPABILITY_ENABLED == TRUE)
// 2251       bdb_ClearNetworkParams();
// 2252 #endif
// 2253       if(bdbAttributes.bdbNodeIsOnANetwork)
        MOV     DPTR,#bdbAttributes + 14
        MOVX    A,@DPTR
        JZ      ??bdb_startResumeCommissioningProcess_2
// 2254       {
// 2255         bdb_nwkSteeringDeviceOnNwk();
        ; Setup parameters for call to function bdb_nwkSteeringDeviceOnNwk
        LCALL   `??bdb_nwkSteeringDeviceOnNwk::?relay`; Banked call to: bdb_nwkSteeringDeviceOnNwk
// 2256         bdb_reportCommissioningState(BDB_COMMISSIONING_STATE_STEERING_ON_NWK, TRUE);
        ; Setup parameters for call to function bdb_reportCommissioningState
        MOV     R2,#0x1
        MOV     R1,#0x4
        LCALL   `??bdb_reportCommissioningState::?relay`; Banked call to: bdb_reportCommissioningState
// 2257       }
// 2258 #if (ZG_BUILD_JOINING_TYPE)
// 2259       else
// 2260       {
// 2261         if(ZG_DEVICE_JOINING_TYPE)
// 2262         {
// 2263           vDoPrimaryScan = TRUE;
// 2264           
// 2265           //Initialize the commissioning procedure state, bdbJoinState to nwk discovery and TCLinkKeyExchange to not active
// 2266           osal_memset(&bdbCommissioningProcedureState,0,sizeof(bdbCommissioningProcedureState_t));
// 2267           bdbCommissioningProcedureState.bdbCommissioningState = BDB_COMMISSIONING_STATE_JOINING;
// 2268           bdb_nwkJoiningFormation(TRUE);
// 2269           bdb_NotifyCommissioningModeStart(BDB_COMMISSIONING_NWK_STEERING);
// 2270         }
// 2271       }
// 2272 #endif
// 2273 #if (ZG_BUILD_COORDINATOR_TYPE)
// 2274       if(ZG_DEVICE_COORDINATOR_TYPE)
// 2275       {
// 2276         bdb_reportCommissioningState(BDB_COMMISSIONING_STATE_STEERING_ON_NWK, FALSE);
??bdb_startResumeCommissioningProcess_2:
        ; Setup parameters for call to function bdb_reportCommissioningState
        MOV     R2,#0x0
        MOV     R1,#0x4
        LCALL   `??bdb_reportCommissioningState::?relay`; Banked call to: bdb_reportCommissioningState
// 2277       }
// 2278 #endif
// 2279     }
// 2280     return;
??bdb_startResumeCommissioningProcess_1:
        LJMP    ??bdb_startResumeCommissioningProcess_3 & 0xFFFF
// 2281   }
// 2282   
// 2283   if(bdbAttributes.bdbCommissioningMode & BDB_COMMISSIONING_MODE_NWK_FORMATION)
??bdb_startResumeCommissioningProcess_0:
        MOV     C,0xE0 /* A   */.2
        JNC     ??bdb_startResumeCommissioningProcess_4
// 2284   {
// 2285     bdbCommissioningProcedureState.bdbCommissioningState = BDB_COMMISSIONING_STATE_FORMATION;
        MOV     DPTR,#bdbCommissioningProcedureState
        MOV     A,#0x5
        MOVX    @DPTR,A
// 2286     
// 2287     if(bdbAttributes.bdbNodeCommissioningCapability & BDB_NETWORK_FORMATION_CAPABILITY)
        MOV     DPTR,#bdbAttributes + 12
        MOVX    A,@DPTR
        MOV     C,0xE0 /* A   */.1
        JNC     ??bdb_startResumeCommissioningProcess_5
// 2288     {
// 2289       if(!bdbAttributes.bdbNodeIsOnANetwork)
        MOV     DPTR,#bdbAttributes + 14
        MOVX    A,@DPTR
        JNZ     ??bdb_startResumeCommissioningProcess_5
// 2290       {
// 2291 #if (BDB_TOUCHLINK_CAPABILITY_ENABLED == TRUE)
// 2292       bdb_ClearNetworkParams();
// 2293 #endif
// 2294         vDoPrimaryScan = TRUE;
        MOV     DPTR,#vDoPrimaryScan
        MOV     A,#0x1
        MOVX    @DPTR,A
// 2295         
// 2296         osal_memset(&bdbCommissioningProcedureState,0,sizeof(bdbCommissioningProcedureState));
        ; Setup parameters for call to function osal_memset
        MOV     R4,#0x4
        MOV     R5,#0x0
        MOV     R1,#0x0
        MOV     R2,#bdbCommissioningProcedureState & 0xff
        MOV     R3,#(bdbCommissioningProcedureState >> 8) & 0xff
        LCALL   `??osal_memset::?relay`; Banked call to: osal_memset
// 2297         bdbCommissioningProcedureState.bdbCommissioningState = BDB_COMMISSIONING_STATE_FORMATION;
        MOV     DPTR,#bdbCommissioningProcedureState
        MOV     A,#0x5
        MOVX    @DPTR,A
// 2298 
// 2299         bdb_nwkJoiningFormation(FALSE);
        ; Setup parameters for call to function bdb_nwkJoiningFormation
        MOV     R1,#0x0
        LCALL   `??bdb_nwkJoiningFormation::?relay`; Banked call to: bdb_nwkJoiningFormation
// 2300         bdb_NotifyCommissioningModeStart(BDB_COMMISSIONING_FORMATION);
        ; Setup parameters for call to function bdb_NotifyCommissioningModeStart
        MOV     R1,#0x2
        LCALL   `??bdb_NotifyCommissioningModeStart::?relay`; Banked call to: bdb_NotifyCommissioningModeStart
// 2301         return;
        LJMP    ??bdb_startResumeCommissioningProcess_3 & 0xFFFF
// 2302       }
// 2303     }
// 2304     bdb_reportCommissioningState(BDB_COMMISSIONING_STATE_FORMATION, FALSE);
??bdb_startResumeCommissioningProcess_5:
        ; Setup parameters for call to function bdb_reportCommissioningState
        MOV     R2,#0x0
        MOV     R1,#0x5
        LCALL   `??bdb_reportCommissioningState::?relay`; Banked call to: bdb_reportCommissioningState
// 2305     return;
        LJMP    ??bdb_startResumeCommissioningProcess_3 & 0xFFFF
// 2306   }
// 2307 
// 2308 #if (BDB_FINDING_BINDING_CAPABILITY_ENABLED==1)    
// 2309   if(bdbAttributes.bdbCommissioningMode & BDB_COMMISSIONING_MODE_FINDING_BINDING)
??bdb_startResumeCommissioningProcess_4:
        MOV     C,0xE0 /* A   */.3
        JC      $+5
        LJMP    ??bdb_startResumeCommissioningProcess_3 & 0xFFFF
// 2310   {
// 2311     bdbCommissioningProcedureState.bdbCommissioningState = BDB_COMMISSIONING_STATE_FINDING_BINDING;
        MOV     DPTR,#bdbCommissioningProcedureState
        MOV     A,#0x6
        MOVX    @DPTR,A
// 2312     
// 2313     //Is the device on a network?
// 2314     if(bdb_isDeviceNonFactoryNew())
        MOV     DPTR,#bdbAttributes + 14
        MOVX    A,@DPTR
        JNZ     $+5
        LJMP    ??bdb_startResumeCommissioningProcess_6 & 0xFFFF
// 2315     {
// 2316       zclAttrRec_t attrRec;
// 2317 
// 2318       endPointDesc_t *bdb_CurrEpDescriptor = NULL;
// 2319 
// 2320       bdb_CurrEpDescriptor = bdb_setEpDescListToActiveEndpoint();
        ; Setup parameters for call to function bdb_setEpDescListToActiveEndpoint
        LCALL   `??bdb_setEpDescListToActiveEndpoint::?relay`; Banked call to: bdb_setEpDescListToActiveEndpoint
        MOV     ?V0,R2
        MOV     ?V1,R3
        MOV     R6,?V0
        MOV     R7,?V1
// 2321       
// 2322       //If not found endpoint with Identify cluster is found, then report fail
// 2323       if(bdb_CurrEpDescriptor == NULL)
        MOV     A,R6
        ORL     A,R7
        JNZ     $+5
        LJMP    ??bdb_startResumeCommissioningProcess_6 & 0xFFFF
// 2324       {
// 2325         bdb_exitFindingBindingWStatus(BDB_COMMISSIONING_FAILURE);
        ; Setup parameters for call to function bdb_exitFindingBindingWStatus
// 2326         return;
// 2327       }
// 2328       
// 2329       if( bdb_CurrEpDescriptorList->epDesc->epType & BDB_FINDING_AND_BINDING_TARGET)  //F&B as Target
        LCALL   ?Subroutine16 & 0xFFFF
??CrossCallReturnLabel_12:
        INC     DPTR
        MOVX    A,@DPTR
        MOV     C,0xE0 /* A   */.1
        JC      $+5
        LJMP    ??bdb_startResumeCommissioningProcess_7 & 0xFFFF
// 2330       {
// 2331         if (zclFindAttrRec( bdb_CurrEpDescriptor->endPoint, ZCL_CLUSTER_ID_GEN_IDENTIFY,
// 2332                   ATTRID_IDENTIFY_TIME, &attrRec ) )
        ; Setup parameters for call to function zclFindAttrRec
        MOV     A,#0x3
        LCALL   ?XSTACK_DISP100_8
        MOV     ?V0,R0
        MOV     ?V1,R1
        MOV     R0,#?V0
        LCALL   ?PUSH_XSTACK_I_TWO
          CFI CFA_XSP16 add(XSP16, 23)
        MOV     R4,#0x0
        MOV     R5,#0x0
        MOV     R2,#0x3
        MOV     R3,#0x0
        MOV     DPL,R6
        MOV     DPH,R7
        MOVX    A,@DPTR
        MOV     R1,A
        LCALL   `??zclFindAttrRec::?relay`; Banked call to: zclFindAttrRec
        MOV     A,#0x2
        LCALL   ?DEALLOC_XSTACK8
          CFI CFA_XSP16 add(XSP16, 21)
        MOV     A,R1
        JNZ     $+5
        LJMP    ??bdb_startResumeCommissioningProcess_8 & 0xFFFF
// 2333         {
// 2334           //Set it to at less 180 
// 2335           if ( *((uint16*)attrRec.attr.dataPtr) <= BDBC_MIN_COMMISSIONING_TIME )
        MOV     A,#0x9
        LCALL   ?XSTACK_DISP0_8
        LCALL   ?Subroutine20 & 0xFFFF
??CrossCallReturnLabel_18:
        CLR     C
        MOVX    A,@DPTR
        SUBB    A,#-0x4b
        INC     DPTR
        MOVX    A,@DPTR
        SUBB    A,#0x0
        JNC     ??bdb_startResumeCommissioningProcess_9
// 2336           {
// 2337             *((uint16*)attrRec.attr.dataPtr) = BDBC_MIN_COMMISSIONING_TIME;
        MOV     DPL,R0
        MOV     DPH,R1
        MOV     A,#-0x4c
        MOVX    @DPTR,A
        INC     DPTR
        CLR     A
        MOVX    @DPTR,A
// 2338              osal_start_timerEx( bdb_TaskID, BDB_IDENTIFY_TIMEOUT, 1000 );
        ; Setup parameters for call to function osal_start_timerEx
        MOV     DPTR,#__Constant_3e8
        LCALL   ?PUSH_XSTACK8_X_FOUR
          CFI CFA_XSP16 add(XSP16, 25)
        MOV     R2,#0x0
        MOV     R3,#0x20
        MOV     DPTR,#bdb_TaskID
        MOVX    A,@DPTR
        MOV     R1,A
        LCALL   `??osal_start_timerEx::?relay`; Banked call to: osal_start_timerEx
        MOV     A,#0x4
        LCALL   ?DEALLOC_XSTACK8
          CFI CFA_XSP16 add(XSP16, 21)
// 2339 
// 2340             if(pfnIdentifyTimeChangeCB != NULL)
        MOV     DPTR,#pfnIdentifyTimeChangeCB
        LCALL   ??Subroutine41_0 & 0xFFFF
??CrossCallReturnLabel_63:
        JZ      ??bdb_startResumeCommissioningProcess_9
// 2341             {
// 2342               if(bdbIndentifyActiveEndpoint == 0xFF)
        MOV     DPTR,#bdbIndentifyActiveEndpoint
        MOVX    A,@DPTR
        CPL     A
        JNZ     ??bdb_startResumeCommissioningProcess_10
// 2343               {
// 2344                 pfnIdentifyTimeChangeCB(bdbIndentifyActiveEndpoint);  
        ; Setup parameters for indirect call
        MOV     R1,#-0x1
        SJMP    ??bdb_startResumeCommissioningProcess_11
// 2345               }
// 2346               else
// 2347               {
// 2348                 pfnIdentifyTimeChangeCB(bdb_CurrEpDescriptor->endPoint);
??bdb_startResumeCommissioningProcess_10:
        ; Setup parameters for indirect call
        MOV     DPL,R6
        MOV     DPH,R7
        MOVX    A,@DPTR
        MOV     R1,A
??bdb_startResumeCommissioningProcess_11:
        MOV     DPTR,#pfnIdentifyTimeChangeCB + 1
// 2349               }
// 2350             }
// 2351           }
        LCALL   ??Subroutine42_0 & 0xFFFF
??CrossCallReturnLabel_71:
        LCALL   ?CALL_IND
// 2352           //Attribute found and set, report success
// 2353           if(!(bdb_CurrEpDescriptorList->epDesc->epType & BDB_FINDING_AND_BINDING_INITIATOR))
??bdb_startResumeCommissioningProcess_9:
        LCALL   ?Subroutine13 & 0xFFFF
??CrossCallReturnLabel_2:
        JC      ??bdb_startResumeCommissioningProcess_12
// 2354           {
// 2355             bdb_exitFindingBindingWStatus(BDB_COMMISSIONING_FB_TARGET_IN_PROGRESS);
        ; Setup parameters for call to function bdb_exitFindingBindingWStatus
        MOV     R1,#0x9
        SJMP    ??bdb_startResumeCommissioningProcess_13
// 2356           }
// 2357           else
// 2358           {
// 2359             bdbCommissioningModeMsg_t bdbCommissioningModeMsg;
// 2360 
// 2361             bdbCommissioningModeMsg.bdbCommissioningMode = BDB_COMMISSIONING_FINDING_BINDING;
??bdb_startResumeCommissioningProcess_12:
        MOV     A,#0x1
        LCALL   ?XSTACK_DISP0_8
        MOV     A,#0x3
        MOVX    @DPTR,A
// 2362             bdbCommissioningModeMsg.bdbCommissioningStatus = BDB_COMMISSIONING_FB_TARGET_IN_PROGRESS;
        MOV     DPL,?XSP + 0
        MOV     DPH,?XSP + 1
        MOV     A,#0x9
        LCALL   ??Subroutine32_0 & 0xFFFF
// 2363 
// 2364             bdb_NotifyApp((uint8*)&bdbCommissioningModeMsg);
// 2365           }
// 2366         }
??CrossCallReturnLabel_39:
        LCALL   ?PUSH_XSTACK_I_TWO
          CFI CFA_XSP16 add(XSP16, 23)
        MOV     R4,#0x3
        MOV     R3,#0x0
        MOV     R2,#0xa
        MOV     DPTR,#bdb_TaskID
        MOVX    A,@DPTR
        MOV     R1,A
        LCALL   `??bdb_SendMsg::?relay`; Banked call to: bdb_SendMsg
        MOV     A,#0x2
        LCALL   ?DEALLOC_XSTACK8
          CFI CFA_XSP16 add(XSP16, 21)
        SJMP    ??bdb_startResumeCommissioningProcess_7
// 2367         else
// 2368         {
// 2369           //Attribute not found and no initiator process, report fail
// 2370           if(!(bdb_CurrEpDescriptorList->epDesc->epType & BDB_FINDING_AND_BINDING_INITIATOR))
??bdb_startResumeCommissioningProcess_8:
        LCALL   ?Subroutine13 & 0xFFFF
??CrossCallReturnLabel_3:
        JC      ??bdb_startResumeCommissioningProcess_7
// 2371           {
// 2372             bdb_exitFindingBindingWStatus(BDB_COMMISSIONING_FAILURE);
        ; Setup parameters for call to function bdb_exitFindingBindingWStatus
        MOV     R1,#0xe
??bdb_startResumeCommissioningProcess_13:
        LCALL   `??bdb_exitFindingBindingWStatus::?relay`; Banked call to: bdb_exitFindingBindingWStatus
// 2373             
// 2374           }
// 2375         }
// 2376       }  //F&B Target
// 2377       
// 2378       if( bdb_CurrEpDescriptorList->epDesc->epType & BDB_FINDING_AND_BINDING_INITIATOR)  //F&B as Initiator
??bdb_startResumeCommissioningProcess_7:
        LCALL   ?Subroutine13 & 0xFFFF
??CrossCallReturnLabel_4:
        JNC     ??bdb_startResumeCommissioningProcess_3
// 2379       {
// 2380         bdbCommissioningModeMsg_t bdbCommissioningModeMsg;
// 2381         
// 2382         //Send identify query with the endpoint requested
// 2383         if(bdb_SendIdentifyQuery(bdb_CurrEpDescriptor->endPoint) != ZSuccess)
        ; Setup parameters for call to function bdb_SendIdentifyQuery
        MOV     DPL,R6
        MOV     DPH,R7
        MOVX    A,@DPTR
        MOV     R1,A
        LCALL   `??bdb_SendIdentifyQuery::?relay`; Banked call to: bdb_SendIdentifyQuery
        MOV     A,R1
        JZ      ??bdb_startResumeCommissioningProcess_14
// 2384         {
// 2385           bdb_exitFindingBindingWStatus(BDB_COMMISSIONING_FAILURE);
        ; Setup parameters for call to function bdb_exitFindingBindingWStatus
        MOV     R1,#0xe
        LCALL   `??bdb_exitFindingBindingWStatus::?relay`; Banked call to: bdb_exitFindingBindingWStatus
// 2386         }
// 2387 
// 2388         //If periodic F&B is enabled
// 2389         if ( FINDING_AND_BINDING_PERIODIC_ENABLE == TRUE )
// 2390         {
// 2391           // total F&B time will be at least BDBC_MIN_COMMISSIONING_TIME, and at most (BDBC_MIN_COMMISSIONING_TIME + FINDING_AND_BINDING_PERIODIC_TIME - 1)
// 2392           bdb_FB_InitiatorCurrentCyclesNumber = (BDBC_MIN_COMMISSIONING_TIME + (FINDING_AND_BINDING_PERIODIC_TIME - 1)) / FINDING_AND_BINDING_PERIODIC_TIME;
??bdb_startResumeCommissioningProcess_14:
        MOV     DPTR,#bdb_FB_InitiatorCurrentCyclesNumber
        MOV     A,#0xc
        MOVX    @DPTR,A
// 2393           
// 2394           osal_start_timerEx(bdb_TaskID, BDB_FINDING_AND_BINDING_PERIOD_TIMEOUT, FINDING_AND_BINDING_PERIODIC_TIME * 1000);
        ; Setup parameters for call to function osal_start_timerEx
        MOV     DPTR,#__Constant_3a98
        LCALL   ?PUSH_XSTACK8_X_FOUR
          CFI CFA_XSP16 add(XSP16, 25)
        MOV     R2,#0x40
        MOV     R3,#0x0
        MOV     DPTR,#bdb_TaskID
        MOVX    A,@DPTR
        MOV     R1,A
        LCALL   `??osal_start_timerEx::?relay`; Banked call to: osal_start_timerEx
        MOV     A,#0x4
        LCALL   ?DEALLOC_XSTACK8
          CFI CFA_XSP16 add(XSP16, 21)
// 2395         }
// 2396 
// 2397         bdbCommissioningModeMsg.bdbCommissioningMode = BDB_COMMISSIONING_FINDING_BINDING;
        MOV     A,#0x1
        LCALL   ?XSTACK_DISP0_8
        MOV     A,#0x3
        MOVX    @DPTR,A
// 2398         bdbCommissioningModeMsg.bdbCommissioningStatus = BDB_COMMISSIONING_FB_INITITATOR_IN_PROGRESS;
        MOV     DPL,?XSP + 0
        MOV     DPH,?XSP + 1
        MOV     A,#0xa
        LCALL   ??Subroutine32_0 & 0xFFFF
// 2399 
// 2400         bdb_NotifyApp((uint8*)&bdbCommissioningModeMsg);
// 2401       } //F&B Initiator
// 2402     }
??CrossCallReturnLabel_40:
        LCALL   ?PUSH_XSTACK_I_TWO
          CFI CFA_XSP16 add(XSP16, 23)
        MOV     R4,#0x3
        MOV     R3,#0x0
        MOV     R2,#0xa
        MOV     DPTR,#bdb_TaskID
        MOVX    A,@DPTR
        MOV     R1,A
        LCALL   `??bdb_SendMsg::?relay`; Banked call to: bdb_SendMsg
        MOV     A,#0x2
        LCALL   ?DEALLOC_XSTACK8
          CFI CFA_XSP16 add(XSP16, 21)
        SJMP    ??bdb_startResumeCommissioningProcess_3
// 2403     //Not in the network
// 2404     else
// 2405     {
// 2406       bdb_exitFindingBindingWStatus(BDB_COMMISSIONING_FAILURE);
??bdb_startResumeCommissioningProcess_6:
        ; Setup parameters for call to function bdb_exitFindingBindingWStatus
        MOV     R1,#0xe
        LCALL   `??bdb_exitFindingBindingWStatus::?relay`; Banked call to: bdb_exitFindingBindingWStatus
// 2407     }
// 2408     
// 2409     return;
// 2410   }
// 2411 #endif
// 2412   
// 2413 }
??bdb_startResumeCommissioningProcess_3:
        MOV     A,#0xb
        LJMP    ?Subroutine1 & 0xFFFF
          CFI EndBlock cfiBlock76

        RSEG BANKED_CODE:CODE:NOROOT(0)
?Subroutine13:
          CFI Block cfiCond77 Using cfiCommon0
          CFI Function bdb_startResumeCommissioningProcess
          CFI Conditional ??CrossCallReturnLabel_2
          CFI R6 load(1, XDATA, add(CFA_XSP16, literal(-10)))
          CFI VB load(1, XDATA, add(CFA_XSP16, literal(-9)))
          CFI V0 load(1, XDATA, add(CFA_XSP16, literal(-8)))
          CFI V1 load(1, XDATA, add(CFA_XSP16, literal(-7)))
          CFI R7 load(1, XDATA, add(CFA_XSP16, literal(-6)))
          CFI ?RET_LOW load(1, XDATA, add(CFA_XSP16, literal(-5)))
          CFI ?RET_HIGH load(1, XDATA, add(CFA_XSP16, literal(-4)))
          CFI ?BRET_EXT load(1, XDATA, add(CFA_XSP16, literal(-3)))
          CFI DPL0 load(1, XDATA, add(CFA_XSP16, literal(-2)))
          CFI DPH0 load(1, XDATA, add(CFA_XSP16, literal(-1)))
          CFI CFA_SP SP+-2
          CFI CFA_XSP16 add(XSP16, 21)
          CFI Block cfiCond78 Using cfiCommon0
          CFI (cfiCond78) Function bdb_startResumeCommissioningProcess
          CFI (cfiCond78) Conditional ??CrossCallReturnLabel_3
          CFI (cfiCond78) R6 load(1, XDATA, add(CFA_XSP16, literal(-10)))
          CFI (cfiCond78) VB load(1, XDATA, add(CFA_XSP16, literal(-9)))
          CFI (cfiCond78) V0 load(1, XDATA, add(CFA_XSP16, literal(-8)))
          CFI (cfiCond78) V1 load(1, XDATA, add(CFA_XSP16, literal(-7)))
          CFI (cfiCond78) R7 load(1, XDATA, add(CFA_XSP16, literal(-6)))
          CFI (cfiCond78) ?RET_LOW load(1, XDATA, add(CFA_XSP16, literal(-5)))
          CFI (cfiCond78) ?RET_HIGH load(1, XDATA, add(CFA_XSP16, literal(-4)))
          CFI (cfiCond78) ?BRET_EXT load(1, XDATA, add(CFA_XSP16, literal(-3)))
          CFI (cfiCond78) DPL0 load(1, XDATA, add(CFA_XSP16, literal(-2)))
          CFI (cfiCond78) DPH0 load(1, XDATA, add(CFA_XSP16, literal(-1)))
          CFI (cfiCond78) CFA_SP SP+-2
          CFI (cfiCond78) CFA_XSP16 add(XSP16, 21)
          CFI Block cfiCond79 Using cfiCommon0
          CFI (cfiCond79) Function bdb_startResumeCommissioningProcess
          CFI (cfiCond79) Conditional ??CrossCallReturnLabel_4
          CFI (cfiCond79) R6 load(1, XDATA, add(CFA_XSP16, literal(-10)))
          CFI (cfiCond79) VB load(1, XDATA, add(CFA_XSP16, literal(-9)))
          CFI (cfiCond79) V0 load(1, XDATA, add(CFA_XSP16, literal(-8)))
          CFI (cfiCond79) V1 load(1, XDATA, add(CFA_XSP16, literal(-7)))
          CFI (cfiCond79) R7 load(1, XDATA, add(CFA_XSP16, literal(-6)))
          CFI (cfiCond79) ?RET_LOW load(1, XDATA, add(CFA_XSP16, literal(-5)))
          CFI (cfiCond79) ?RET_HIGH load(1, XDATA, add(CFA_XSP16, literal(-4)))
          CFI (cfiCond79) ?BRET_EXT load(1, XDATA, add(CFA_XSP16, literal(-3)))
          CFI (cfiCond79) DPL0 load(1, XDATA, add(CFA_XSP16, literal(-2)))
          CFI (cfiCond79) DPH0 load(1, XDATA, add(CFA_XSP16, literal(-1)))
          CFI (cfiCond79) CFA_SP SP+-2
          CFI (cfiCond79) CFA_XSP16 add(XSP16, 21)
          CFI Block cfiPicker80 Using cfiCommon1
          CFI (cfiPicker80) NoFunction
          CFI (cfiPicker80) Picker
        LCALL   ?Subroutine26 & 0xFFFF
??CrossCallReturnLabel_30:
        INC     DPTR
        MOVX    A,@DPTR
        MOV     C,0xE0 /* A   */.0
        RET
          CFI EndBlock cfiCond77
          CFI EndBlock cfiCond78
          CFI EndBlock cfiCond79
          CFI EndBlock cfiPicker80

        RSEG BANKED_CODE:CODE:NOROOT(0)
?Subroutine12:
          CFI Block cfiCond81 Using cfiCommon0
          CFI Function bdb_CreateRespondentList
          CFI Conditional ??CrossCallReturnLabel_48
          CFI R6 load(1, XDATA, add(CFA_XSP16, literal(-10)))
          CFI VB load(1, XDATA, add(CFA_XSP16, literal(-9)))
          CFI V0 load(1, XDATA, add(CFA_XSP16, literal(-8)))
          CFI V1 load(1, XDATA, add(CFA_XSP16, literal(-7)))
          CFI R7 load(1, XDATA, add(CFA_XSP16, literal(-6)))
          CFI ?RET_LOW load(1, XDATA, add(CFA_XSP16, literal(-5)))
          CFI ?RET_HIGH load(1, XDATA, add(CFA_XSP16, literal(-4)))
          CFI ?BRET_EXT load(1, XDATA, add(CFA_XSP16, literal(-3)))
          CFI DPL0 load(1, XDATA, add(CFA_XSP16, literal(-2)))
          CFI DPH0 load(1, XDATA, add(CFA_XSP16, literal(-1)))
          CFI CFA_SP SP+-2
          CFI CFA_XSP16 add(XSP16, 10)
          CFI Block cfiCond82 Using cfiCommon0
          CFI (cfiCond82) Function bdb_AddRespondentNode
          CFI (cfiCond82) Conditional ??CrossCallReturnLabel_49
          CFI (cfiCond82) R6 load(1, XDATA, add(CFA_XSP16, literal(-10)))
          CFI (cfiCond82) VB load(1, XDATA, add(CFA_XSP16, literal(-9)))
          CFI (cfiCond82) V0 load(1, XDATA, add(CFA_XSP16, literal(-8)))
          CFI (cfiCond82) V1 load(1, XDATA, add(CFA_XSP16, literal(-7)))
          CFI (cfiCond82) R7 load(1, XDATA, add(CFA_XSP16, literal(-6)))
          CFI (cfiCond82) ?RET_LOW load(1, XDATA, add(CFA_XSP16, literal(-5)))
          CFI (cfiCond82) ?RET_HIGH load(1, XDATA, add(CFA_XSP16, literal(-4)))
          CFI (cfiCond82) ?BRET_EXT load(1, XDATA, add(CFA_XSP16, literal(-3)))
          CFI (cfiCond82) DPL0 load(1, XDATA, add(CFA_XSP16, literal(-2)))
          CFI (cfiCond82) DPH0 load(1, XDATA, add(CFA_XSP16, literal(-1)))
          CFI (cfiCond82) CFA_SP SP+-2
          CFI (cfiCond82) CFA_XSP16 add(XSP16, 10)
          CFI Block cfiCond83 Using cfiCommon0
          CFI (cfiCond83) Function bdb_zclRespondentListClean
          CFI (cfiCond83) Conditional ??CrossCallReturnLabel_50
          CFI (cfiCond83) R6 load(1, XDATA, add(CFA_XSP16, literal(-12)))
          CFI (cfiCond83) VB load(1, XDATA, add(CFA_XSP16, literal(-11)))
          CFI (cfiCond83) V0 load(1, XDATA, add(CFA_XSP16, literal(-10)))
          CFI (cfiCond83) V1 load(1, XDATA, add(CFA_XSP16, literal(-9)))
          CFI (cfiCond83) V2 load(1, XDATA, add(CFA_XSP16, literal(-8)))
          CFI (cfiCond83) V3 load(1, XDATA, add(CFA_XSP16, literal(-7)))
          CFI (cfiCond83) R7 load(1, XDATA, add(CFA_XSP16, literal(-6)))
          CFI (cfiCond83) ?RET_LOW load(1, XDATA, add(CFA_XSP16, literal(-5)))
          CFI (cfiCond83) ?RET_HIGH load(1, XDATA, add(CFA_XSP16, literal(-4)))
          CFI (cfiCond83) ?BRET_EXT load(1, XDATA, add(CFA_XSP16, literal(-3)))
          CFI (cfiCond83) DPL0 load(1, XDATA, add(CFA_XSP16, literal(-2)))
          CFI (cfiCond83) DPH0 load(1, XDATA, add(CFA_XSP16, literal(-1)))
          CFI (cfiCond83) CFA_SP SP+-2
          CFI (cfiCond83) CFA_XSP16 add(XSP16, 12)
          CFI Block cfiPicker84 Using cfiCommon1
          CFI (cfiPicker84) NoFunction
          CFI (cfiPicker84) Picker
        MOV     A,R2
        MOV     R6,A
        MOV     A,R3
          CFI EndBlock cfiCond81
          CFI EndBlock cfiCond82
          CFI EndBlock cfiCond83
          CFI EndBlock cfiPicker84
        REQUIRE ??Subroutine39_0
        ; // Fall through to label ??Subroutine39_0

        RSEG BANKED_CODE:CODE:NOROOT(0)
??Subroutine39_0:
          CFI Block cfiCond85 Using cfiCommon0
          CFI Function bdb_AddRespondentNode
          CFI Conditional ??CrossCallReturnLabel_51
          CFI R6 load(1, XDATA, add(CFA_XSP16, literal(-10)))
          CFI VB load(1, XDATA, add(CFA_XSP16, literal(-9)))
          CFI V0 load(1, XDATA, add(CFA_XSP16, literal(-8)))
          CFI V1 load(1, XDATA, add(CFA_XSP16, literal(-7)))
          CFI R7 load(1, XDATA, add(CFA_XSP16, literal(-6)))
          CFI ?RET_LOW load(1, XDATA, add(CFA_XSP16, literal(-5)))
          CFI ?RET_HIGH load(1, XDATA, add(CFA_XSP16, literal(-4)))
          CFI ?BRET_EXT load(1, XDATA, add(CFA_XSP16, literal(-3)))
          CFI DPL0 load(1, XDATA, add(CFA_XSP16, literal(-2)))
          CFI DPH0 load(1, XDATA, add(CFA_XSP16, literal(-1)))
          CFI CFA_SP SP+-2
          CFI CFA_XSP16 add(XSP16, 10)
          CFI Block cfiCond86 Using cfiCommon0
          CFI (cfiCond86) Function bdb_CreateRespondentList
          CFI (cfiCond86) Conditional ??CrossCallReturnLabel_48
          CFI (cfiCond86) R6 load(1, XDATA, add(CFA_XSP16, literal(-10)))
          CFI (cfiCond86) VB load(1, XDATA, add(CFA_XSP16, literal(-9)))
          CFI (cfiCond86) V0 load(1, XDATA, add(CFA_XSP16, literal(-8)))
          CFI (cfiCond86) V1 load(1, XDATA, add(CFA_XSP16, literal(-7)))
          CFI (cfiCond86) R7 load(1, XDATA, add(CFA_XSP16, literal(-6)))
          CFI (cfiCond86) ?RET_LOW load(1, XDATA, add(CFA_XSP16, literal(-5)))
          CFI (cfiCond86) ?RET_HIGH load(1, XDATA, add(CFA_XSP16, literal(-4)))
          CFI (cfiCond86) ?BRET_EXT load(1, XDATA, add(CFA_XSP16, literal(-3)))
          CFI (cfiCond86) DPL0 load(1, XDATA, add(CFA_XSP16, literal(-2)))
          CFI (cfiCond86) DPH0 load(1, XDATA, add(CFA_XSP16, literal(-1)))
          CFI (cfiCond86) CFA_SP SP+-2
          CFI (cfiCond86) CFA_XSP16 add(XSP16, 10)
          CFI Block cfiCond87 Using cfiCommon0
          CFI (cfiCond87) Function bdb_AddRespondentNode
          CFI (cfiCond87) Conditional ??CrossCallReturnLabel_49
          CFI (cfiCond87) R6 load(1, XDATA, add(CFA_XSP16, literal(-10)))
          CFI (cfiCond87) VB load(1, XDATA, add(CFA_XSP16, literal(-9)))
          CFI (cfiCond87) V0 load(1, XDATA, add(CFA_XSP16, literal(-8)))
          CFI (cfiCond87) V1 load(1, XDATA, add(CFA_XSP16, literal(-7)))
          CFI (cfiCond87) R7 load(1, XDATA, add(CFA_XSP16, literal(-6)))
          CFI (cfiCond87) ?RET_LOW load(1, XDATA, add(CFA_XSP16, literal(-5)))
          CFI (cfiCond87) ?RET_HIGH load(1, XDATA, add(CFA_XSP16, literal(-4)))
          CFI (cfiCond87) ?BRET_EXT load(1, XDATA, add(CFA_XSP16, literal(-3)))
          CFI (cfiCond87) DPL0 load(1, XDATA, add(CFA_XSP16, literal(-2)))
          CFI (cfiCond87) DPH0 load(1, XDATA, add(CFA_XSP16, literal(-1)))
          CFI (cfiCond87) CFA_SP SP+-2
          CFI (cfiCond87) CFA_XSP16 add(XSP16, 10)
          CFI Block cfiCond88 Using cfiCommon0
          CFI (cfiCond88) Function bdb_zclRespondentListClean
          CFI (cfiCond88) Conditional ??CrossCallReturnLabel_50
          CFI (cfiCond88) R6 load(1, XDATA, add(CFA_XSP16, literal(-12)))
          CFI (cfiCond88) VB load(1, XDATA, add(CFA_XSP16, literal(-11)))
          CFI (cfiCond88) V0 load(1, XDATA, add(CFA_XSP16, literal(-10)))
          CFI (cfiCond88) V1 load(1, XDATA, add(CFA_XSP16, literal(-9)))
          CFI (cfiCond88) V2 load(1, XDATA, add(CFA_XSP16, literal(-8)))
          CFI (cfiCond88) V3 load(1, XDATA, add(CFA_XSP16, literal(-7)))
          CFI (cfiCond88) R7 load(1, XDATA, add(CFA_XSP16, literal(-6)))
          CFI (cfiCond88) ?RET_LOW load(1, XDATA, add(CFA_XSP16, literal(-5)))
          CFI (cfiCond88) ?RET_HIGH load(1, XDATA, add(CFA_XSP16, literal(-4)))
          CFI (cfiCond88) ?BRET_EXT load(1, XDATA, add(CFA_XSP16, literal(-3)))
          CFI (cfiCond88) DPL0 load(1, XDATA, add(CFA_XSP16, literal(-2)))
          CFI (cfiCond88) DPH0 load(1, XDATA, add(CFA_XSP16, literal(-1)))
          CFI (cfiCond88) CFA_SP SP+-2
          CFI (cfiCond88) CFA_XSP16 add(XSP16, 12)
          CFI Block cfiPicker89 Using cfiCommon1
          CFI (cfiPicker89) NoFunction
          CFI (cfiPicker89) Picker
        MOV     R7,A
          CFI EndBlock cfiCond85
          CFI EndBlock cfiCond86
          CFI EndBlock cfiCond87
          CFI EndBlock cfiCond88
          CFI EndBlock cfiPicker89
        REQUIRE ??Subroutine40_0
        ; // Fall through to label ??Subroutine40_0

        RSEG BANKED_CODE:CODE:NOROOT(0)
??Subroutine40_0:
          CFI Block cfiCond90 Using cfiCommon0
          CFI Function bdb_TCAddJoiningDevice
          CFI Conditional ??CrossCallReturnLabel_66
          CFI R6 load(1, XDATA, add(CFA_XSP16, literal(-19)))
          CFI VB load(1, XDATA, add(CFA_XSP16, literal(-18)))
          CFI V0 load(1, XDATA, add(CFA_XSP16, literal(-17)))
          CFI V1 load(1, XDATA, add(CFA_XSP16, literal(-16)))
          CFI V2 load(1, XDATA, add(CFA_XSP16, literal(-15)))
          CFI V3 load(1, XDATA, add(CFA_XSP16, literal(-14)))
          CFI V4 load(1, XDATA, add(CFA_XSP16, literal(-13)))
          CFI V5 load(1, XDATA, add(CFA_XSP16, literal(-12)))
          CFI V6 load(1, XDATA, add(CFA_XSP16, literal(-11)))
          CFI V7 load(1, XDATA, add(CFA_XSP16, literal(-10)))
          CFI V8 load(1, XDATA, add(CFA_XSP16, literal(-9)))
          CFI V9 load(1, XDATA, add(CFA_XSP16, literal(-8)))
          CFI V10 load(1, XDATA, add(CFA_XSP16, literal(-7)))
          CFI R7 load(1, XDATA, add(CFA_XSP16, literal(-6)))
          CFI ?RET_LOW load(1, XDATA, add(CFA_XSP16, literal(-5)))
          CFI ?RET_HIGH load(1, XDATA, add(CFA_XSP16, literal(-4)))
          CFI ?BRET_EXT load(1, XDATA, add(CFA_XSP16, literal(-3)))
          CFI DPL0 load(1, XDATA, add(CFA_XSP16, literal(-2)))
          CFI DPH0 load(1, XDATA, add(CFA_XSP16, literal(-1)))
          CFI CFA_SP SP+-2
          CFI CFA_XSP16 add(XSP16, 28)
          CFI Block cfiCond91 Using cfiCommon0
          CFI (cfiCond91) Function bdb_AddRespondentNode
          CFI (cfiCond91) Conditional ??CrossCallReturnLabel_51
          CFI (cfiCond91) R6 load(1, XDATA, add(CFA_XSP16, literal(-10)))
          CFI (cfiCond91) VB load(1, XDATA, add(CFA_XSP16, literal(-9)))
          CFI (cfiCond91) V0 load(1, XDATA, add(CFA_XSP16, literal(-8)))
          CFI (cfiCond91) V1 load(1, XDATA, add(CFA_XSP16, literal(-7)))
          CFI (cfiCond91) R7 load(1, XDATA, add(CFA_XSP16, literal(-6)))
          CFI (cfiCond91) ?RET_LOW load(1, XDATA, add(CFA_XSP16, literal(-5)))
          CFI (cfiCond91) ?RET_HIGH load(1, XDATA, add(CFA_XSP16, literal(-4)))
          CFI (cfiCond91) ?BRET_EXT load(1, XDATA, add(CFA_XSP16, literal(-3)))
          CFI (cfiCond91) DPL0 load(1, XDATA, add(CFA_XSP16, literal(-2)))
          CFI (cfiCond91) DPH0 load(1, XDATA, add(CFA_XSP16, literal(-1)))
          CFI (cfiCond91) CFA_SP SP+-2
          CFI (cfiCond91) CFA_XSP16 add(XSP16, 10)
          CFI Block cfiCond92 Using cfiCommon0
          CFI (cfiCond92) Function bdb_CreateRespondentList
          CFI (cfiCond92) Conditional ??CrossCallReturnLabel_48
          CFI (cfiCond92) R6 load(1, XDATA, add(CFA_XSP16, literal(-10)))
          CFI (cfiCond92) VB load(1, XDATA, add(CFA_XSP16, literal(-9)))
          CFI (cfiCond92) V0 load(1, XDATA, add(CFA_XSP16, literal(-8)))
          CFI (cfiCond92) V1 load(1, XDATA, add(CFA_XSP16, literal(-7)))
          CFI (cfiCond92) R7 load(1, XDATA, add(CFA_XSP16, literal(-6)))
          CFI (cfiCond92) ?RET_LOW load(1, XDATA, add(CFA_XSP16, literal(-5)))
          CFI (cfiCond92) ?RET_HIGH load(1, XDATA, add(CFA_XSP16, literal(-4)))
          CFI (cfiCond92) ?BRET_EXT load(1, XDATA, add(CFA_XSP16, literal(-3)))
          CFI (cfiCond92) DPL0 load(1, XDATA, add(CFA_XSP16, literal(-2)))
          CFI (cfiCond92) DPH0 load(1, XDATA, add(CFA_XSP16, literal(-1)))
          CFI (cfiCond92) CFA_SP SP+-2
          CFI (cfiCond92) CFA_XSP16 add(XSP16, 10)
          CFI Block cfiCond93 Using cfiCommon0
          CFI (cfiCond93) Function bdb_AddRespondentNode
          CFI (cfiCond93) Conditional ??CrossCallReturnLabel_49
          CFI (cfiCond93) R6 load(1, XDATA, add(CFA_XSP16, literal(-10)))
          CFI (cfiCond93) VB load(1, XDATA, add(CFA_XSP16, literal(-9)))
          CFI (cfiCond93) V0 load(1, XDATA, add(CFA_XSP16, literal(-8)))
          CFI (cfiCond93) V1 load(1, XDATA, add(CFA_XSP16, literal(-7)))
          CFI (cfiCond93) R7 load(1, XDATA, add(CFA_XSP16, literal(-6)))
          CFI (cfiCond93) ?RET_LOW load(1, XDATA, add(CFA_XSP16, literal(-5)))
          CFI (cfiCond93) ?RET_HIGH load(1, XDATA, add(CFA_XSP16, literal(-4)))
          CFI (cfiCond93) ?BRET_EXT load(1, XDATA, add(CFA_XSP16, literal(-3)))
          CFI (cfiCond93) DPL0 load(1, XDATA, add(CFA_XSP16, literal(-2)))
          CFI (cfiCond93) DPH0 load(1, XDATA, add(CFA_XSP16, literal(-1)))
          CFI (cfiCond93) CFA_SP SP+-2
          CFI (cfiCond93) CFA_XSP16 add(XSP16, 10)
          CFI Block cfiCond94 Using cfiCommon0
          CFI (cfiCond94) Function bdb_zclRespondentListClean
          CFI (cfiCond94) Conditional ??CrossCallReturnLabel_50
          CFI (cfiCond94) R6 load(1, XDATA, add(CFA_XSP16, literal(-12)))
          CFI (cfiCond94) VB load(1, XDATA, add(CFA_XSP16, literal(-11)))
          CFI (cfiCond94) V0 load(1, XDATA, add(CFA_XSP16, literal(-10)))
          CFI (cfiCond94) V1 load(1, XDATA, add(CFA_XSP16, literal(-9)))
          CFI (cfiCond94) V2 load(1, XDATA, add(CFA_XSP16, literal(-8)))
          CFI (cfiCond94) V3 load(1, XDATA, add(CFA_XSP16, literal(-7)))
          CFI (cfiCond94) R7 load(1, XDATA, add(CFA_XSP16, literal(-6)))
          CFI (cfiCond94) ?RET_LOW load(1, XDATA, add(CFA_XSP16, literal(-5)))
          CFI (cfiCond94) ?RET_HIGH load(1, XDATA, add(CFA_XSP16, literal(-4)))
          CFI (cfiCond94) ?BRET_EXT load(1, XDATA, add(CFA_XSP16, literal(-3)))
          CFI (cfiCond94) DPL0 load(1, XDATA, add(CFA_XSP16, literal(-2)))
          CFI (cfiCond94) DPH0 load(1, XDATA, add(CFA_XSP16, literal(-1)))
          CFI (cfiCond94) CFA_SP SP+-2
          CFI (cfiCond94) CFA_XSP16 add(XSP16, 12)
          CFI Block cfiPicker95 Using cfiCommon1
          CFI (cfiPicker95) NoFunction
          CFI (cfiPicker95) Picker
        MOV     DPL,R6
        MOV     DPH,R7
          CFI EndBlock cfiCond90
          CFI EndBlock cfiCond91
          CFI EndBlock cfiCond92
          CFI EndBlock cfiCond93
          CFI EndBlock cfiCond94
          CFI EndBlock cfiPicker95
        REQUIRE ??Subroutine41_0
        ; // Fall through to label ??Subroutine41_0

        RSEG BANKED_CODE:CODE:NOROOT(0)
??Subroutine41_0:
          CFI Block cfiCond96 Using cfiCommon0
          CFI Function bdb_ZclIdentifyCmdInd
          CFI Conditional ??CrossCallReturnLabel_52
          CFI R6 load(1, XDATA, add(CFA_XSP16, literal(-12)))
          CFI VB load(1, XDATA, add(CFA_XSP16, literal(-11)))
          CFI V0 load(1, XDATA, add(CFA_XSP16, literal(-10)))
          CFI V1 load(1, XDATA, add(CFA_XSP16, literal(-9)))
          CFI V2 load(1, XDATA, add(CFA_XSP16, literal(-8)))
          CFI V3 load(1, XDATA, add(CFA_XSP16, literal(-7)))
          CFI R7 load(1, XDATA, add(CFA_XSP16, literal(-6)))
          CFI ?RET_LOW load(1, XDATA, add(CFA_XSP16, literal(-5)))
          CFI ?RET_HIGH load(1, XDATA, add(CFA_XSP16, literal(-4)))
          CFI ?BRET_EXT load(1, XDATA, add(CFA_XSP16, literal(-3)))
          CFI DPL0 load(1, XDATA, add(CFA_XSP16, literal(-2)))
          CFI DPH0 load(1, XDATA, add(CFA_XSP16, literal(-1)))
          CFI CFA_SP SP+-2
          CFI CFA_XSP16 add(XSP16, 20)
          CFI Block cfiCond97 Using cfiCommon0
          CFI (cfiCond97) Function bdb_TCAddJoiningDevice
          CFI (cfiCond97) Conditional ??CrossCallReturnLabel_53
          CFI (cfiCond97) R6 load(1, XDATA, add(CFA_XSP16, literal(-19)))
          CFI (cfiCond97) VB load(1, XDATA, add(CFA_XSP16, literal(-18)))
          CFI (cfiCond97) V0 load(1, XDATA, add(CFA_XSP16, literal(-17)))
          CFI (cfiCond97) V1 load(1, XDATA, add(CFA_XSP16, literal(-16)))
          CFI (cfiCond97) V2 load(1, XDATA, add(CFA_XSP16, literal(-15)))
          CFI (cfiCond97) V3 load(1, XDATA, add(CFA_XSP16, literal(-14)))
          CFI (cfiCond97) V4 load(1, XDATA, add(CFA_XSP16, literal(-13)))
          CFI (cfiCond97) V5 load(1, XDATA, add(CFA_XSP16, literal(-12)))
          CFI (cfiCond97) V6 load(1, XDATA, add(CFA_XSP16, literal(-11)))
          CFI (cfiCond97) V7 load(1, XDATA, add(CFA_XSP16, literal(-10)))
          CFI (cfiCond97) V8 load(1, XDATA, add(CFA_XSP16, literal(-9)))
          CFI (cfiCond97) V9 load(1, XDATA, add(CFA_XSP16, literal(-8)))
          CFI (cfiCond97) V10 load(1, XDATA, add(CFA_XSP16, literal(-7)))
          CFI (cfiCond97) R7 load(1, XDATA, add(CFA_XSP16, literal(-6)))
          CFI (cfiCond97) ?RET_LOW load(1, XDATA, add(CFA_XSP16, literal(-5)))
          CFI (cfiCond97) ?RET_HIGH load(1, XDATA, add(CFA_XSP16, literal(-4)))
          CFI (cfiCond97) ?BRET_EXT load(1, XDATA, add(CFA_XSP16, literal(-3)))
          CFI (cfiCond97) DPL0 load(1, XDATA, add(CFA_XSP16, literal(-2)))
          CFI (cfiCond97) DPH0 load(1, XDATA, add(CFA_XSP16, literal(-1)))
          CFI (cfiCond97) CFA_SP SP+-2
          CFI (cfiCond97) CFA_XSP16 add(XSP16, 28)
          CFI Block cfiCond98 Using cfiCommon0
          CFI (cfiCond98) Function bdb_TCAddJoiningDevice
          CFI (cfiCond98) Conditional ??CrossCallReturnLabel_54
          CFI (cfiCond98) R6 load(1, XDATA, add(CFA_XSP16, literal(-19)))
          CFI (cfiCond98) VB load(1, XDATA, add(CFA_XSP16, literal(-18)))
          CFI (cfiCond98) V0 load(1, XDATA, add(CFA_XSP16, literal(-17)))
          CFI (cfiCond98) V1 load(1, XDATA, add(CFA_XSP16, literal(-16)))
          CFI (cfiCond98) V2 load(1, XDATA, add(CFA_XSP16, literal(-15)))
          CFI (cfiCond98) V3 load(1, XDATA, add(CFA_XSP16, literal(-14)))
          CFI (cfiCond98) V4 load(1, XDATA, add(CFA_XSP16, literal(-13)))
          CFI (cfiCond98) V5 load(1, XDATA, add(CFA_XSP16, literal(-12)))
          CFI (cfiCond98) V6 load(1, XDATA, add(CFA_XSP16, literal(-11)))
          CFI (cfiCond98) V7 load(1, XDATA, add(CFA_XSP16, literal(-10)))
          CFI (cfiCond98) V8 load(1, XDATA, add(CFA_XSP16, literal(-9)))
          CFI (cfiCond98) V9 load(1, XDATA, add(CFA_XSP16, literal(-8)))
          CFI (cfiCond98) V10 load(1, XDATA, add(CFA_XSP16, literal(-7)))
          CFI (cfiCond98) R7 load(1, XDATA, add(CFA_XSP16, literal(-6)))
          CFI (cfiCond98) ?RET_LOW load(1, XDATA, add(CFA_XSP16, literal(-5)))
          CFI (cfiCond98) ?RET_HIGH load(1, XDATA, add(CFA_XSP16, literal(-4)))
          CFI (cfiCond98) ?BRET_EXT load(1, XDATA, add(CFA_XSP16, literal(-3)))
          CFI (cfiCond98) DPL0 load(1, XDATA, add(CFA_XSP16, literal(-2)))
          CFI (cfiCond98) DPH0 load(1, XDATA, add(CFA_XSP16, literal(-1)))
          CFI (cfiCond98) CFA_SP SP+-2
          CFI (cfiCond98) CFA_XSP16 add(XSP16, 28)
          CFI Block cfiCond99 Using cfiCommon0
          CFI (cfiCond99) Function bdb_TCAddJoiningDevice
          CFI (cfiCond99) Conditional ??CrossCallReturnLabel_55
          CFI (cfiCond99) R6 load(1, XDATA, add(CFA_XSP16, literal(-19)))
          CFI (cfiCond99) VB load(1, XDATA, add(CFA_XSP16, literal(-18)))
          CFI (cfiCond99) V0 load(1, XDATA, add(CFA_XSP16, literal(-17)))
          CFI (cfiCond99) V1 load(1, XDATA, add(CFA_XSP16, literal(-16)))
          CFI (cfiCond99) V2 load(1, XDATA, add(CFA_XSP16, literal(-15)))
          CFI (cfiCond99) V3 load(1, XDATA, add(CFA_XSP16, literal(-14)))
          CFI (cfiCond99) V4 load(1, XDATA, add(CFA_XSP16, literal(-13)))
          CFI (cfiCond99) V5 load(1, XDATA, add(CFA_XSP16, literal(-12)))
          CFI (cfiCond99) V6 load(1, XDATA, add(CFA_XSP16, literal(-11)))
          CFI (cfiCond99) V7 load(1, XDATA, add(CFA_XSP16, literal(-10)))
          CFI (cfiCond99) V8 load(1, XDATA, add(CFA_XSP16, literal(-9)))
          CFI (cfiCond99) V9 load(1, XDATA, add(CFA_XSP16, literal(-8)))
          CFI (cfiCond99) V10 load(1, XDATA, add(CFA_XSP16, literal(-7)))
          CFI (cfiCond99) R7 load(1, XDATA, add(CFA_XSP16, literal(-6)))
          CFI (cfiCond99) ?RET_LOW load(1, XDATA, add(CFA_XSP16, literal(-5)))
          CFI (cfiCond99) ?RET_HIGH load(1, XDATA, add(CFA_XSP16, literal(-4)))
          CFI (cfiCond99) ?BRET_EXT load(1, XDATA, add(CFA_XSP16, literal(-3)))
          CFI (cfiCond99) DPL0 load(1, XDATA, add(CFA_XSP16, literal(-2)))
          CFI (cfiCond99) DPH0 load(1, XDATA, add(CFA_XSP16, literal(-1)))
          CFI (cfiCond99) CFA_SP SP+-2
          CFI (cfiCond99) CFA_XSP16 add(XSP16, 28)
          CFI Block cfiCond100 Using cfiCommon0
          CFI (cfiCond100) Function bdb_TCProcessJoiningList
          CFI (cfiCond100) Conditional ??CrossCallReturnLabel_56
          CFI (cfiCond100) R6 load(1, XDATA, add(CFA_XSP16, literal(-16)))
          CFI (cfiCond100) VB load(1, XDATA, add(CFA_XSP16, literal(-15)))
          CFI (cfiCond100) V0 load(1, XDATA, add(CFA_XSP16, literal(-14)))
          CFI (cfiCond100) V1 load(1, XDATA, add(CFA_XSP16, literal(-13)))
          CFI (cfiCond100) V2 load(1, XDATA, add(CFA_XSP16, literal(-12)))
          CFI (cfiCond100) V3 load(1, XDATA, add(CFA_XSP16, literal(-11)))
          CFI (cfiCond100) V4 load(1, XDATA, add(CFA_XSP16, literal(-10)))
          CFI (cfiCond100) V5 load(1, XDATA, add(CFA_XSP16, literal(-9)))
          CFI (cfiCond100) V6 load(1, XDATA, add(CFA_XSP16, literal(-8)))
          CFI (cfiCond100) V7 load(1, XDATA, add(CFA_XSP16, literal(-7)))
          CFI (cfiCond100) R7 load(1, XDATA, add(CFA_XSP16, literal(-6)))
          CFI (cfiCond100) ?RET_LOW load(1, XDATA, add(CFA_XSP16, literal(-5)))
          CFI (cfiCond100) ?RET_HIGH load(1, XDATA, add(CFA_XSP16, literal(-4)))
          CFI (cfiCond100) ?BRET_EXT load(1, XDATA, add(CFA_XSP16, literal(-3)))
          CFI (cfiCond100) DPL0 load(1, XDATA, add(CFA_XSP16, literal(-2)))
          CFI (cfiCond100) DPH0 load(1, XDATA, add(CFA_XSP16, literal(-1)))
          CFI (cfiCond100) CFA_SP SP+-2
          CFI (cfiCond100) CFA_XSP16 add(XSP16, 58)
          CFI Block cfiCond101 Using cfiCommon0
          CFI (cfiCond101) Function bdb_TCProcessJoiningList
          CFI (cfiCond101) Conditional ??CrossCallReturnLabel_57
          CFI (cfiCond101) R6 load(1, XDATA, add(CFA_XSP16, literal(-16)))
          CFI (cfiCond101) VB load(1, XDATA, add(CFA_XSP16, literal(-15)))
          CFI (cfiCond101) V0 load(1, XDATA, add(CFA_XSP16, literal(-14)))
          CFI (cfiCond101) V1 load(1, XDATA, add(CFA_XSP16, literal(-13)))
          CFI (cfiCond101) V2 load(1, XDATA, add(CFA_XSP16, literal(-12)))
          CFI (cfiCond101) V3 load(1, XDATA, add(CFA_XSP16, literal(-11)))
          CFI (cfiCond101) V4 load(1, XDATA, add(CFA_XSP16, literal(-10)))
          CFI (cfiCond101) V5 load(1, XDATA, add(CFA_XSP16, literal(-9)))
          CFI (cfiCond101) V6 load(1, XDATA, add(CFA_XSP16, literal(-8)))
          CFI (cfiCond101) V7 load(1, XDATA, add(CFA_XSP16, literal(-7)))
          CFI (cfiCond101) R7 load(1, XDATA, add(CFA_XSP16, literal(-6)))
          CFI (cfiCond101) ?RET_LOW load(1, XDATA, add(CFA_XSP16, literal(-5)))
          CFI (cfiCond101) ?RET_HIGH load(1, XDATA, add(CFA_XSP16, literal(-4)))
          CFI (cfiCond101) ?BRET_EXT load(1, XDATA, add(CFA_XSP16, literal(-3)))
          CFI (cfiCond101) DPL0 load(1, XDATA, add(CFA_XSP16, literal(-2)))
          CFI (cfiCond101) DPH0 load(1, XDATA, add(CFA_XSP16, literal(-1)))
          CFI (cfiCond101) CFA_SP SP+-2
          CFI (cfiCond101) CFA_XSP16 add(XSP16, 58)
          CFI Block cfiCond102 Using cfiCommon0
          CFI (cfiCond102) Function bdb_TCProcessJoiningList
          CFI (cfiCond102) Conditional ??CrossCallReturnLabel_58
          CFI (cfiCond102) R6 load(1, XDATA, add(CFA_XSP16, literal(-16)))
          CFI (cfiCond102) VB load(1, XDATA, add(CFA_XSP16, literal(-15)))
          CFI (cfiCond102) V0 load(1, XDATA, add(CFA_XSP16, literal(-14)))
          CFI (cfiCond102) V1 load(1, XDATA, add(CFA_XSP16, literal(-13)))
          CFI (cfiCond102) V2 load(1, XDATA, add(CFA_XSP16, literal(-12)))
          CFI (cfiCond102) V3 load(1, XDATA, add(CFA_XSP16, literal(-11)))
          CFI (cfiCond102) V4 load(1, XDATA, add(CFA_XSP16, literal(-10)))
          CFI (cfiCond102) V5 load(1, XDATA, add(CFA_XSP16, literal(-9)))
          CFI (cfiCond102) V6 load(1, XDATA, add(CFA_XSP16, literal(-8)))
          CFI (cfiCond102) V7 load(1, XDATA, add(CFA_XSP16, literal(-7)))
          CFI (cfiCond102) R7 load(1, XDATA, add(CFA_XSP16, literal(-6)))
          CFI (cfiCond102) ?RET_LOW load(1, XDATA, add(CFA_XSP16, literal(-5)))
          CFI (cfiCond102) ?RET_HIGH load(1, XDATA, add(CFA_XSP16, literal(-4)))
          CFI (cfiCond102) ?BRET_EXT load(1, XDATA, add(CFA_XSP16, literal(-3)))
          CFI (cfiCond102) DPL0 load(1, XDATA, add(CFA_XSP16, literal(-2)))
          CFI (cfiCond102) DPH0 load(1, XDATA, add(CFA_XSP16, literal(-1)))
          CFI (cfiCond102) CFA_SP SP+-2
          CFI (cfiCond102) CFA_XSP16 add(XSP16, 58)
          CFI Block cfiCond103 Using cfiCommon0
          CFI (cfiCond103) Function bdb_TCjoiningDeviceComplete
          CFI (cfiCond103) Conditional ??CrossCallReturnLabel_59
          CFI (cfiCond103) R6 load(1, XDATA, add(CFA_XSP16, literal(-19)))
          CFI (cfiCond103) VB load(1, XDATA, add(CFA_XSP16, literal(-18)))
          CFI (cfiCond103) V0 load(1, XDATA, add(CFA_XSP16, literal(-17)))
          CFI (cfiCond103) V1 load(1, XDATA, add(CFA_XSP16, literal(-16)))
          CFI (cfiCond103) V2 load(1, XDATA, add(CFA_XSP16, literal(-15)))
          CFI (cfiCond103) V3 load(1, XDATA, add(CFA_XSP16, literal(-14)))
          CFI (cfiCond103) V4 load(1, XDATA, add(CFA_XSP16, literal(-13)))
          CFI (cfiCond103) V5 load(1, XDATA, add(CFA_XSP16, literal(-12)))
          CFI (cfiCond103) V6 load(1, XDATA, add(CFA_XSP16, literal(-11)))
          CFI (cfiCond103) V7 load(1, XDATA, add(CFA_XSP16, literal(-10)))
          CFI (cfiCond103) V8 load(1, XDATA, add(CFA_XSP16, literal(-9)))
          CFI (cfiCond103) V9 load(1, XDATA, add(CFA_XSP16, literal(-8)))
          CFI (cfiCond103) V10 load(1, XDATA, add(CFA_XSP16, literal(-7)))
          CFI (cfiCond103) R7 load(1, XDATA, add(CFA_XSP16, literal(-6)))
          CFI (cfiCond103) ?RET_LOW load(1, XDATA, add(CFA_XSP16, literal(-5)))
          CFI (cfiCond103) ?RET_HIGH load(1, XDATA, add(CFA_XSP16, literal(-4)))
          CFI (cfiCond103) ?BRET_EXT load(1, XDATA, add(CFA_XSP16, literal(-3)))
          CFI (cfiCond103) DPL0 load(1, XDATA, add(CFA_XSP16, literal(-2)))
          CFI (cfiCond103) DPH0 load(1, XDATA, add(CFA_XSP16, literal(-1)))
          CFI (cfiCond103) CFA_SP SP+-2
          CFI (cfiCond103) CFA_XSP16 add(XSP16, 28)
          CFI Block cfiCond104 Using cfiCommon0
          CFI (cfiCond104) Function bdb_TCjoiningDeviceComplete
          CFI (cfiCond104) Conditional ??CrossCallReturnLabel_60
          CFI (cfiCond104) R6 load(1, XDATA, add(CFA_XSP16, literal(-19)))
          CFI (cfiCond104) VB load(1, XDATA, add(CFA_XSP16, literal(-18)))
          CFI (cfiCond104) V0 load(1, XDATA, add(CFA_XSP16, literal(-17)))
          CFI (cfiCond104) V1 load(1, XDATA, add(CFA_XSP16, literal(-16)))
          CFI (cfiCond104) V2 load(1, XDATA, add(CFA_XSP16, literal(-15)))
          CFI (cfiCond104) V3 load(1, XDATA, add(CFA_XSP16, literal(-14)))
          CFI (cfiCond104) V4 load(1, XDATA, add(CFA_XSP16, literal(-13)))
          CFI (cfiCond104) V5 load(1, XDATA, add(CFA_XSP16, literal(-12)))
          CFI (cfiCond104) V6 load(1, XDATA, add(CFA_XSP16, literal(-11)))
          CFI (cfiCond104) V7 load(1, XDATA, add(CFA_XSP16, literal(-10)))
          CFI (cfiCond104) V8 load(1, XDATA, add(CFA_XSP16, literal(-9)))
          CFI (cfiCond104) V9 load(1, XDATA, add(CFA_XSP16, literal(-8)))
          CFI (cfiCond104) V10 load(1, XDATA, add(CFA_XSP16, literal(-7)))
          CFI (cfiCond104) R7 load(1, XDATA, add(CFA_XSP16, literal(-6)))
          CFI (cfiCond104) ?RET_LOW load(1, XDATA, add(CFA_XSP16, literal(-5)))
          CFI (cfiCond104) ?RET_HIGH load(1, XDATA, add(CFA_XSP16, literal(-4)))
          CFI (cfiCond104) ?BRET_EXT load(1, XDATA, add(CFA_XSP16, literal(-3)))
          CFI (cfiCond104) DPL0 load(1, XDATA, add(CFA_XSP16, literal(-2)))
          CFI (cfiCond104) DPH0 load(1, XDATA, add(CFA_XSP16, literal(-1)))
          CFI (cfiCond104) CFA_SP SP+-2
          CFI (cfiCond104) CFA_XSP16 add(XSP16, 28)
          CFI Block cfiCond105 Using cfiCommon0
          CFI (cfiCond105) Function bdb_TCjoiningDeviceComplete
          CFI (cfiCond105) Conditional ??CrossCallReturnLabel_61
          CFI (cfiCond105) R6 load(1, XDATA, add(CFA_XSP16, literal(-19)))
          CFI (cfiCond105) VB load(1, XDATA, add(CFA_XSP16, literal(-18)))
          CFI (cfiCond105) V0 load(1, XDATA, add(CFA_XSP16, literal(-17)))
          CFI (cfiCond105) V1 load(1, XDATA, add(CFA_XSP16, literal(-16)))
          CFI (cfiCond105) V2 load(1, XDATA, add(CFA_XSP16, literal(-15)))
          CFI (cfiCond105) V3 load(1, XDATA, add(CFA_XSP16, literal(-14)))
          CFI (cfiCond105) V4 load(1, XDATA, add(CFA_XSP16, literal(-13)))
          CFI (cfiCond105) V5 load(1, XDATA, add(CFA_XSP16, literal(-12)))
          CFI (cfiCond105) V6 load(1, XDATA, add(CFA_XSP16, literal(-11)))
          CFI (cfiCond105) V7 load(1, XDATA, add(CFA_XSP16, literal(-10)))
          CFI (cfiCond105) V8 load(1, XDATA, add(CFA_XSP16, literal(-9)))
          CFI (cfiCond105) V9 load(1, XDATA, add(CFA_XSP16, literal(-8)))
          CFI (cfiCond105) V10 load(1, XDATA, add(CFA_XSP16, literal(-7)))
          CFI (cfiCond105) R7 load(1, XDATA, add(CFA_XSP16, literal(-6)))
          CFI (cfiCond105) ?RET_LOW load(1, XDATA, add(CFA_XSP16, literal(-5)))
          CFI (cfiCond105) ?RET_HIGH load(1, XDATA, add(CFA_XSP16, literal(-4)))
          CFI (cfiCond105) ?BRET_EXT load(1, XDATA, add(CFA_XSP16, literal(-3)))
          CFI (cfiCond105) DPL0 load(1, XDATA, add(CFA_XSP16, literal(-2)))
          CFI (cfiCond105) DPH0 load(1, XDATA, add(CFA_XSP16, literal(-1)))
          CFI (cfiCond105) CFA_SP SP+-2
          CFI (cfiCond105) CFA_XSP16 add(XSP16, 28)
          CFI Block cfiCond106 Using cfiCommon0
          CFI (cfiCond106) Function bdb_reportCommissioningState
          CFI (cfiCond106) Conditional ??CrossCallReturnLabel_62
          CFI (cfiCond106) R6 load(1, XDATA, add(CFA_XSP16, literal(-10)))
          CFI (cfiCond106) VB load(1, XDATA, add(CFA_XSP16, literal(-9)))
          CFI (cfiCond106) V0 load(1, XDATA, add(CFA_XSP16, literal(-8)))
          CFI (cfiCond106) V1 load(1, XDATA, add(CFA_XSP16, literal(-7)))
          CFI (cfiCond106) R7 load(1, XDATA, add(CFA_XSP16, literal(-6)))
          CFI (cfiCond106) ?RET_LOW load(1, XDATA, add(CFA_XSP16, literal(-5)))
          CFI (cfiCond106) ?RET_HIGH load(1, XDATA, add(CFA_XSP16, literal(-4)))
          CFI (cfiCond106) ?BRET_EXT load(1, XDATA, add(CFA_XSP16, literal(-3)))
          CFI (cfiCond106) DPL0 load(1, XDATA, add(CFA_XSP16, literal(-2)))
          CFI (cfiCond106) DPH0 load(1, XDATA, add(CFA_XSP16, literal(-1)))
          CFI (cfiCond106) CFA_SP SP+-2
          CFI (cfiCond106) CFA_XSP16 add(XSP16, 14)
          CFI Block cfiCond107 Using cfiCommon0
          CFI (cfiCond107) Function bdb_startResumeCommissioningProcess
          CFI (cfiCond107) Conditional ??CrossCallReturnLabel_63
          CFI (cfiCond107) R6 load(1, XDATA, add(CFA_XSP16, literal(-10)))
          CFI (cfiCond107) VB load(1, XDATA, add(CFA_XSP16, literal(-9)))
          CFI (cfiCond107) V0 load(1, XDATA, add(CFA_XSP16, literal(-8)))
          CFI (cfiCond107) V1 load(1, XDATA, add(CFA_XSP16, literal(-7)))
          CFI (cfiCond107) R7 load(1, XDATA, add(CFA_XSP16, literal(-6)))
          CFI (cfiCond107) ?RET_LOW load(1, XDATA, add(CFA_XSP16, literal(-5)))
          CFI (cfiCond107) ?RET_HIGH load(1, XDATA, add(CFA_XSP16, literal(-4)))
          CFI (cfiCond107) ?BRET_EXT load(1, XDATA, add(CFA_XSP16, literal(-3)))
          CFI (cfiCond107) DPL0 load(1, XDATA, add(CFA_XSP16, literal(-2)))
          CFI (cfiCond107) DPH0 load(1, XDATA, add(CFA_XSP16, literal(-1)))
          CFI (cfiCond107) CFA_SP SP+-2
          CFI (cfiCond107) CFA_XSP16 add(XSP16, 21)
          CFI Block cfiCond108 Using cfiCommon0
          CFI (cfiCond108) Function bdb_event_loop
          CFI (cfiCond108) Conditional ??CrossCallReturnLabel_64
          CFI (cfiCond108) R6 load(1, XDATA, add(CFA_XSP16, literal(-16)))
          CFI (cfiCond108) VB load(1, XDATA, add(CFA_XSP16, literal(-15)))
          CFI (cfiCond108) V0 load(1, XDATA, add(CFA_XSP16, literal(-14)))
          CFI (cfiCond108) V1 load(1, XDATA, add(CFA_XSP16, literal(-13)))
          CFI (cfiCond108) V2 load(1, XDATA, add(CFA_XSP16, literal(-12)))
          CFI (cfiCond108) V3 load(1, XDATA, add(CFA_XSP16, literal(-11)))
          CFI (cfiCond108) V4 load(1, XDATA, add(CFA_XSP16, literal(-10)))
          CFI (cfiCond108) V5 load(1, XDATA, add(CFA_XSP16, literal(-9)))
          CFI (cfiCond108) V6 load(1, XDATA, add(CFA_XSP16, literal(-8)))
          CFI (cfiCond108) V7 load(1, XDATA, add(CFA_XSP16, literal(-7)))
          CFI (cfiCond108) R7 load(1, XDATA, add(CFA_XSP16, literal(-6)))
          CFI (cfiCond108) ?RET_LOW load(1, XDATA, add(CFA_XSP16, literal(-5)))
          CFI (cfiCond108) ?RET_HIGH load(1, XDATA, add(CFA_XSP16, literal(-4)))
          CFI (cfiCond108) ?BRET_EXT load(1, XDATA, add(CFA_XSP16, literal(-3)))
          CFI (cfiCond108) DPL0 load(1, XDATA, add(CFA_XSP16, literal(-2)))
          CFI (cfiCond108) DPH0 load(1, XDATA, add(CFA_XSP16, literal(-1)))
          CFI (cfiCond108) CFA_SP SP+-2
          CFI (cfiCond108) CFA_XSP16 add(XSP16, 24)
          CFI Block cfiCond109 Using cfiCommon0
          CFI (cfiCond109) Function bdb_event_loop
          CFI (cfiCond109) Conditional ??CrossCallReturnLabel_65
          CFI (cfiCond109) R6 load(1, XDATA, add(CFA_XSP16, literal(-16)))
          CFI (cfiCond109) VB load(1, XDATA, add(CFA_XSP16, literal(-15)))
          CFI (cfiCond109) V0 load(1, XDATA, add(CFA_XSP16, literal(-14)))
          CFI (cfiCond109) V1 load(1, XDATA, add(CFA_XSP16, literal(-13)))
          CFI (cfiCond109) V2 load(1, XDATA, add(CFA_XSP16, literal(-12)))
          CFI (cfiCond109) V3 load(1, XDATA, add(CFA_XSP16, literal(-11)))
          CFI (cfiCond109) V4 load(1, XDATA, add(CFA_XSP16, literal(-10)))
          CFI (cfiCond109) V5 load(1, XDATA, add(CFA_XSP16, literal(-9)))
          CFI (cfiCond109) V6 load(1, XDATA, add(CFA_XSP16, literal(-8)))
          CFI (cfiCond109) V7 load(1, XDATA, add(CFA_XSP16, literal(-7)))
          CFI (cfiCond109) R7 load(1, XDATA, add(CFA_XSP16, literal(-6)))
          CFI (cfiCond109) ?RET_LOW load(1, XDATA, add(CFA_XSP16, literal(-5)))
          CFI (cfiCond109) ?RET_HIGH load(1, XDATA, add(CFA_XSP16, literal(-4)))
          CFI (cfiCond109) ?BRET_EXT load(1, XDATA, add(CFA_XSP16, literal(-3)))
          CFI (cfiCond109) DPL0 load(1, XDATA, add(CFA_XSP16, literal(-2)))
          CFI (cfiCond109) DPH0 load(1, XDATA, add(CFA_XSP16, literal(-1)))
          CFI (cfiCond109) CFA_SP SP+-2
          CFI (cfiCond109) CFA_XSP16 add(XSP16, 24)
          CFI Block cfiCond110 Using cfiCommon0
          CFI (cfiCond110) Function bdb_TCAddJoiningDevice
          CFI (cfiCond110) Conditional ??CrossCallReturnLabel_66
          CFI (cfiCond110) R6 load(1, XDATA, add(CFA_XSP16, literal(-19)))
          CFI (cfiCond110) VB load(1, XDATA, add(CFA_XSP16, literal(-18)))
          CFI (cfiCond110) V0 load(1, XDATA, add(CFA_XSP16, literal(-17)))
          CFI (cfiCond110) V1 load(1, XDATA, add(CFA_XSP16, literal(-16)))
          CFI (cfiCond110) V2 load(1, XDATA, add(CFA_XSP16, literal(-15)))
          CFI (cfiCond110) V3 load(1, XDATA, add(CFA_XSP16, literal(-14)))
          CFI (cfiCond110) V4 load(1, XDATA, add(CFA_XSP16, literal(-13)))
          CFI (cfiCond110) V5 load(1, XDATA, add(CFA_XSP16, literal(-12)))
          CFI (cfiCond110) V6 load(1, XDATA, add(CFA_XSP16, literal(-11)))
          CFI (cfiCond110) V7 load(1, XDATA, add(CFA_XSP16, literal(-10)))
          CFI (cfiCond110) V8 load(1, XDATA, add(CFA_XSP16, literal(-9)))
          CFI (cfiCond110) V9 load(1, XDATA, add(CFA_XSP16, literal(-8)))
          CFI (cfiCond110) V10 load(1, XDATA, add(CFA_XSP16, literal(-7)))
          CFI (cfiCond110) R7 load(1, XDATA, add(CFA_XSP16, literal(-6)))
          CFI (cfiCond110) ?RET_LOW load(1, XDATA, add(CFA_XSP16, literal(-5)))
          CFI (cfiCond110) ?RET_HIGH load(1, XDATA, add(CFA_XSP16, literal(-4)))
          CFI (cfiCond110) ?BRET_EXT load(1, XDATA, add(CFA_XSP16, literal(-3)))
          CFI (cfiCond110) DPL0 load(1, XDATA, add(CFA_XSP16, literal(-2)))
          CFI (cfiCond110) DPH0 load(1, XDATA, add(CFA_XSP16, literal(-1)))
          CFI (cfiCond110) CFA_SP SP+-2
          CFI (cfiCond110) CFA_XSP16 add(XSP16, 28)
          CFI Block cfiCond111 Using cfiCommon0
          CFI (cfiCond111) Function bdb_AddRespondentNode
          CFI (cfiCond111) Conditional ??CrossCallReturnLabel_51
          CFI (cfiCond111) R6 load(1, XDATA, add(CFA_XSP16, literal(-10)))
          CFI (cfiCond111) VB load(1, XDATA, add(CFA_XSP16, literal(-9)))
          CFI (cfiCond111) V0 load(1, XDATA, add(CFA_XSP16, literal(-8)))
          CFI (cfiCond111) V1 load(1, XDATA, add(CFA_XSP16, literal(-7)))
          CFI (cfiCond111) R7 load(1, XDATA, add(CFA_XSP16, literal(-6)))
          CFI (cfiCond111) ?RET_LOW load(1, XDATA, add(CFA_XSP16, literal(-5)))
          CFI (cfiCond111) ?RET_HIGH load(1, XDATA, add(CFA_XSP16, literal(-4)))
          CFI (cfiCond111) ?BRET_EXT load(1, XDATA, add(CFA_XSP16, literal(-3)))
          CFI (cfiCond111) DPL0 load(1, XDATA, add(CFA_XSP16, literal(-2)))
          CFI (cfiCond111) DPH0 load(1, XDATA, add(CFA_XSP16, literal(-1)))
          CFI (cfiCond111) CFA_SP SP+-2
          CFI (cfiCond111) CFA_XSP16 add(XSP16, 10)
          CFI Block cfiCond112 Using cfiCommon0
          CFI (cfiCond112) Function bdb_CreateRespondentList
          CFI (cfiCond112) Conditional ??CrossCallReturnLabel_48
          CFI (cfiCond112) R6 load(1, XDATA, add(CFA_XSP16, literal(-10)))
          CFI (cfiCond112) VB load(1, XDATA, add(CFA_XSP16, literal(-9)))
          CFI (cfiCond112) V0 load(1, XDATA, add(CFA_XSP16, literal(-8)))
          CFI (cfiCond112) V1 load(1, XDATA, add(CFA_XSP16, literal(-7)))
          CFI (cfiCond112) R7 load(1, XDATA, add(CFA_XSP16, literal(-6)))
          CFI (cfiCond112) ?RET_LOW load(1, XDATA, add(CFA_XSP16, literal(-5)))
          CFI (cfiCond112) ?RET_HIGH load(1, XDATA, add(CFA_XSP16, literal(-4)))
          CFI (cfiCond112) ?BRET_EXT load(1, XDATA, add(CFA_XSP16, literal(-3)))
          CFI (cfiCond112) DPL0 load(1, XDATA, add(CFA_XSP16, literal(-2)))
          CFI (cfiCond112) DPH0 load(1, XDATA, add(CFA_XSP16, literal(-1)))
          CFI (cfiCond112) CFA_SP SP+-2
          CFI (cfiCond112) CFA_XSP16 add(XSP16, 10)
          CFI Block cfiCond113 Using cfiCommon0
          CFI (cfiCond113) Function bdb_AddRespondentNode
          CFI (cfiCond113) Conditional ??CrossCallReturnLabel_49
          CFI (cfiCond113) R6 load(1, XDATA, add(CFA_XSP16, literal(-10)))
          CFI (cfiCond113) VB load(1, XDATA, add(CFA_XSP16, literal(-9)))
          CFI (cfiCond113) V0 load(1, XDATA, add(CFA_XSP16, literal(-8)))
          CFI (cfiCond113) V1 load(1, XDATA, add(CFA_XSP16, literal(-7)))
          CFI (cfiCond113) R7 load(1, XDATA, add(CFA_XSP16, literal(-6)))
          CFI (cfiCond113) ?RET_LOW load(1, XDATA, add(CFA_XSP16, literal(-5)))
          CFI (cfiCond113) ?RET_HIGH load(1, XDATA, add(CFA_XSP16, literal(-4)))
          CFI (cfiCond113) ?BRET_EXT load(1, XDATA, add(CFA_XSP16, literal(-3)))
          CFI (cfiCond113) DPL0 load(1, XDATA, add(CFA_XSP16, literal(-2)))
          CFI (cfiCond113) DPH0 load(1, XDATA, add(CFA_XSP16, literal(-1)))
          CFI (cfiCond113) CFA_SP SP+-2
          CFI (cfiCond113) CFA_XSP16 add(XSP16, 10)
          CFI Block cfiCond114 Using cfiCommon0
          CFI (cfiCond114) Function bdb_zclRespondentListClean
          CFI (cfiCond114) Conditional ??CrossCallReturnLabel_50
          CFI (cfiCond114) R6 load(1, XDATA, add(CFA_XSP16, literal(-12)))
          CFI (cfiCond114) VB load(1, XDATA, add(CFA_XSP16, literal(-11)))
          CFI (cfiCond114) V0 load(1, XDATA, add(CFA_XSP16, literal(-10)))
          CFI (cfiCond114) V1 load(1, XDATA, add(CFA_XSP16, literal(-9)))
          CFI (cfiCond114) V2 load(1, XDATA, add(CFA_XSP16, literal(-8)))
          CFI (cfiCond114) V3 load(1, XDATA, add(CFA_XSP16, literal(-7)))
          CFI (cfiCond114) R7 load(1, XDATA, add(CFA_XSP16, literal(-6)))
          CFI (cfiCond114) ?RET_LOW load(1, XDATA, add(CFA_XSP16, literal(-5)))
          CFI (cfiCond114) ?RET_HIGH load(1, XDATA, add(CFA_XSP16, literal(-4)))
          CFI (cfiCond114) ?BRET_EXT load(1, XDATA, add(CFA_XSP16, literal(-3)))
          CFI (cfiCond114) DPL0 load(1, XDATA, add(CFA_XSP16, literal(-2)))
          CFI (cfiCond114) DPH0 load(1, XDATA, add(CFA_XSP16, literal(-1)))
          CFI (cfiCond114) CFA_SP SP+-2
          CFI (cfiCond114) CFA_XSP16 add(XSP16, 12)
          CFI Block cfiPicker115 Using cfiCommon1
          CFI (cfiPicker115) NoFunction
          CFI (cfiPicker115) Picker
        LCALL   ?Subroutine27 & 0xFFFF
??CrossCallReturnLabel_70:
        MOV     A,R0
        ORL     A,R1
        RET
          CFI EndBlock cfiCond96
          CFI EndBlock cfiCond97
          CFI EndBlock cfiCond98
          CFI EndBlock cfiCond99
          CFI EndBlock cfiCond100
          CFI EndBlock cfiCond101
          CFI EndBlock cfiCond102
          CFI EndBlock cfiCond103
          CFI EndBlock cfiCond104
          CFI EndBlock cfiCond105
          CFI EndBlock cfiCond106
          CFI EndBlock cfiCond107
          CFI EndBlock cfiCond108
          CFI EndBlock cfiCond109
          CFI EndBlock cfiCond110
          CFI EndBlock cfiCond111
          CFI EndBlock cfiCond112
          CFI EndBlock cfiCond113
          CFI EndBlock cfiCond114
          CFI EndBlock cfiPicker115
// 2414 
// 2415 /*********************************************************************
// 2416  * @fn          bdb_event_loop
// 2417  *
// 2418  * @brief       Main event loop bdb tasks.
// 2419  *
// 2420  * @param       task_id - task id
// 2421  * @param       events - event bitmap
// 2422  *
// 2423  * @return      unprocessed events
// 2424  */

        RSEG BANKED_CODE:CODE:NOROOT(0)
// 2425 UINT16 bdb_event_loop(byte task_id, UINT16 events)
bdb_event_loop:
          CFI Block cfiBlock116 Using cfiCommon0
          CFI Function bdb_event_loop
        CODE
// 2426 {
        FUNCALL bdb_event_loop, bdb_startResumeCommissioningProcess
        LOCFRAME ISTACK, 0, STACK
        LOCFRAME PSTACK, 0, STACK
        LOCFRAME XSTACK, 24, STACK
        LOCFRAME IOVERLAY, 0, STATIC
        LOCFRAME DOVERLAY, 0, STATIC
        ARGFRAME ISTACK, 0, STACK
        ARGFRAME PSTACK, 0, STACK
        ARGFRAME XSTACK, 24, STACK
        ARGFRAME IOVERLAY, 0, STATIC
        ARGFRAME DOVERLAY, 0, STATIC
        FUNCALL bdb_event_loop, bdb_nwkSteeringDeviceOnNwk
        LOCFRAME ISTACK, 0, STACK
        LOCFRAME PSTACK, 0, STACK
        LOCFRAME XSTACK, 24, STACK
        LOCFRAME IOVERLAY, 0, STATIC
        LOCFRAME DOVERLAY, 0, STATIC
        ARGFRAME ISTACK, 0, STACK
        ARGFRAME PSTACK, 0, STACK
        ARGFRAME XSTACK, 24, STACK
        ARGFRAME IOVERLAY, 0, STATIC
        ARGFRAME DOVERLAY, 0, STATIC
        FUNCALL bdb_event_loop, bdb_reportCommissioningState
        LOCFRAME ISTACK, 0, STACK
        LOCFRAME PSTACK, 0, STACK
        LOCFRAME XSTACK, 24, STACK
        LOCFRAME IOVERLAY, 0, STATIC
        LOCFRAME DOVERLAY, 0, STATIC
        ARGFRAME ISTACK, 0, STACK
        ARGFRAME PSTACK, 0, STACK
        ARGFRAME XSTACK, 24, STACK
        ARGFRAME IOVERLAY, 0, STATIC
        ARGFRAME DOVERLAY, 0, STATIC
        FUNCALL bdb_event_loop, osal_start_timerEx
        LOCFRAME ISTACK, 0, STACK
        LOCFRAME PSTACK, 0, STACK
        LOCFRAME XSTACK, 28, STACK
        LOCFRAME IOVERLAY, 0, STATIC
        LOCFRAME DOVERLAY, 0, STATIC
        ARGFRAME ISTACK, 0, STACK
        ARGFRAME PSTACK, 0, STACK
        ARGFRAME XSTACK, 28, STACK
        ARGFRAME IOVERLAY, 0, STATIC
        ARGFRAME DOVERLAY, 0, STATIC
        FUNCALL bdb_event_loop, osal_msg_deallocate
        LOCFRAME ISTACK, 0, STACK
        LOCFRAME PSTACK, 0, STACK
        LOCFRAME XSTACK, 24, STACK
        LOCFRAME IOVERLAY, 0, STATIC
        LOCFRAME DOVERLAY, 0, STATIC
        ARGFRAME ISTACK, 0, STACK
        ARGFRAME PSTACK, 0, STACK
        ARGFRAME XSTACK, 24, STACK
        ARGFRAME IOVERLAY, 0, STATIC
        ARGFRAME DOVERLAY, 0, STATIC
        FUNCALL bdb_event_loop, osal_msg_receive
        LOCFRAME ISTACK, 0, STACK
        LOCFRAME PSTACK, 0, STACK
        LOCFRAME XSTACK, 24, STACK
        LOCFRAME IOVERLAY, 0, STATIC
        LOCFRAME DOVERLAY, 0, STATIC
        ARGFRAME ISTACK, 0, STACK
        ARGFRAME PSTACK, 0, STACK
        ARGFRAME XSTACK, 24, STACK
        ARGFRAME IOVERLAY, 0, STATIC
        ARGFRAME DOVERLAY, 0, STATIC
        FUNCALL bdb_event_loop, bdb_BindIfMatch
        LOCFRAME ISTACK, 0, STACK
        LOCFRAME PSTACK, 0, STACK
        LOCFRAME XSTACK, 24, STACK
        LOCFRAME IOVERLAY, 0, STATIC
        LOCFRAME DOVERLAY, 0, STATIC
        ARGFRAME ISTACK, 0, STACK
        ARGFRAME PSTACK, 0, STACK
        ARGFRAME XSTACK, 24, STACK
        ARGFRAME IOVERLAY, 0, STATIC
        ARGFRAME DOVERLAY, 0, STATIC
        FUNCALL bdb_event_loop, bdb_RepProcessEvent
        LOCFRAME ISTACK, 0, STACK
        LOCFRAME PSTACK, 0, STACK
        LOCFRAME XSTACK, 24, STACK
        LOCFRAME IOVERLAY, 0, STATIC
        LOCFRAME DOVERLAY, 0, STATIC
        ARGFRAME ISTACK, 0, STACK
        ARGFRAME PSTACK, 0, STACK
        ARGFRAME XSTACK, 24, STACK
        ARGFRAME IOVERLAY, 0, STATIC
        ARGFRAME DOVERLAY, 0, STATIC
        FUNCALL bdb_event_loop, bdb_TCProcessJoiningList
        LOCFRAME ISTACK, 0, STACK
        LOCFRAME PSTACK, 0, STACK
        LOCFRAME XSTACK, 24, STACK
        LOCFRAME IOVERLAY, 0, STATIC
        LOCFRAME DOVERLAY, 0, STATIC
        ARGFRAME ISTACK, 0, STACK
        ARGFRAME PSTACK, 0, STACK
        ARGFRAME XSTACK, 24, STACK
        ARGFRAME IOVERLAY, 0, STATIC
        ARGFRAME DOVERLAY, 0, STATIC
        FUNCALL bdb_event_loop, bdb_setEpDescListToActiveEndpoint
        LOCFRAME ISTACK, 0, STACK
        LOCFRAME PSTACK, 0, STACK
        LOCFRAME XSTACK, 24, STACK
        LOCFRAME IOVERLAY, 0, STATIC
        LOCFRAME DOVERLAY, 0, STATIC
        ARGFRAME ISTACK, 0, STACK
        ARGFRAME PSTACK, 0, STACK
        ARGFRAME XSTACK, 24, STACK
        ARGFRAME IOVERLAY, 0, STATIC
        ARGFRAME DOVERLAY, 0, STATIC
        FUNCALL bdb_event_loop, osal_get_timeoutEx
        LOCFRAME ISTACK, 0, STACK
        LOCFRAME PSTACK, 0, STACK
        LOCFRAME XSTACK, 24, STACK
        LOCFRAME IOVERLAY, 0, STATIC
        LOCFRAME DOVERLAY, 0, STATIC
        ARGFRAME ISTACK, 0, STACK
        ARGFRAME PSTACK, 0, STACK
        ARGFRAME XSTACK, 24, STACK
        ARGFRAME IOVERLAY, 0, STATIC
        ARGFRAME DOVERLAY, 0, STATIC
        FUNCALL bdb_event_loop, bdb_getRespondentRetry
        LOCFRAME ISTACK, 0, STACK
        LOCFRAME PSTACK, 0, STACK
        LOCFRAME XSTACK, 24, STACK
        LOCFRAME IOVERLAY, 0, STATIC
        LOCFRAME DOVERLAY, 0, STATIC
        ARGFRAME ISTACK, 0, STACK
        ARGFRAME PSTACK, 0, STACK
        ARGFRAME XSTACK, 24, STACK
        ARGFRAME IOVERLAY, 0, STATIC
        ARGFRAME DOVERLAY, 0, STATIC
        FUNCALL bdb_event_loop, bdb_SendIdentifyQuery
        LOCFRAME ISTACK, 0, STACK
        LOCFRAME PSTACK, 0, STACK
        LOCFRAME XSTACK, 24, STACK
        LOCFRAME IOVERLAY, 0, STATIC
        LOCFRAME DOVERLAY, 0, STATIC
        ARGFRAME ISTACK, 0, STACK
        ARGFRAME PSTACK, 0, STACK
        ARGFRAME XSTACK, 24, STACK
        ARGFRAME IOVERLAY, 0, STATIC
        ARGFRAME DOVERLAY, 0, STATIC
        FUNCALL bdb_event_loop, osal_start_timerEx
        LOCFRAME ISTACK, 0, STACK
        LOCFRAME PSTACK, 0, STACK
        LOCFRAME XSTACK, 28, STACK
        LOCFRAME IOVERLAY, 0, STATIC
        LOCFRAME DOVERLAY, 0, STATIC
        ARGFRAME ISTACK, 0, STACK
        ARGFRAME PSTACK, 0, STACK
        ARGFRAME XSTACK, 28, STACK
        ARGFRAME IOVERLAY, 0, STATIC
        ARGFRAME DOVERLAY, 0, STATIC
        FUNCALL bdb_event_loop, bdb_exitFindingBindingWStatus
        LOCFRAME ISTACK, 0, STACK
        LOCFRAME PSTACK, 0, STACK
        LOCFRAME XSTACK, 24, STACK
        LOCFRAME IOVERLAY, 0, STATIC
        LOCFRAME DOVERLAY, 0, STATIC
        ARGFRAME ISTACK, 0, STACK
        ARGFRAME PSTACK, 0, STACK
        ARGFRAME XSTACK, 24, STACK
        ARGFRAME IOVERLAY, 0, STATIC
        ARGFRAME DOVERLAY, 0, STATIC
        FUNCALL bdb_event_loop, zclFindAttrRec
        LOCFRAME ISTACK, 0, STACK
        LOCFRAME PSTACK, 0, STACK
        LOCFRAME XSTACK, 26, STACK
        LOCFRAME IOVERLAY, 0, STATIC
        LOCFRAME DOVERLAY, 0, STATIC
        ARGFRAME ISTACK, 0, STACK
        ARGFRAME PSTACK, 0, STACK
        ARGFRAME XSTACK, 26, STACK
        ARGFRAME IOVERLAY, 0, STATIC
        ARGFRAME DOVERLAY, 0, STATIC
        FUNCALL bdb_event_loop, osal_start_timerEx
        LOCFRAME ISTACK, 0, STACK
        LOCFRAME PSTACK, 0, STACK
        LOCFRAME XSTACK, 28, STACK
        LOCFRAME IOVERLAY, 0, STATIC
        LOCFRAME DOVERLAY, 0, STATIC
        ARGFRAME ISTACK, 0, STACK
        ARGFRAME PSTACK, 0, STACK
        ARGFRAME XSTACK, 28, STACK
        ARGFRAME IOVERLAY, 0, STATIC
        ARGFRAME DOVERLAY, 0, STATIC
        FUNCALL bdb_event_loop, osal_stop_timerEx
        LOCFRAME ISTACK, 0, STACK
        LOCFRAME PSTACK, 0, STACK
        LOCFRAME XSTACK, 24, STACK
        LOCFRAME IOVERLAY, 0, STATIC
        LOCFRAME DOVERLAY, 0, STATIC
        ARGFRAME ISTACK, 0, STACK
        ARGFRAME PSTACK, 0, STACK
        ARGFRAME XSTACK, 24, STACK
        ARGFRAME IOVERLAY, 0, STATIC
        ARGFRAME DOVERLAY, 0, STATIC
        FUNCALL bdb_event_loop, bdb_SendSimpleDescReq
        LOCFRAME ISTACK, 0, STACK
        LOCFRAME PSTACK, 0, STACK
        LOCFRAME XSTACK, 24, STACK
        LOCFRAME IOVERLAY, 0, STATIC
        LOCFRAME DOVERLAY, 0, STATIC
        ARGFRAME ISTACK, 0, STACK
        ARGFRAME PSTACK, 0, STACK
        ARGFRAME XSTACK, 24, STACK
        ARGFRAME IOVERLAY, 0, STATIC
        ARGFRAME DOVERLAY, 0, STATIC
        REQUIRE ?V0
        REQUIRE ?V1
        REQUIRE ?V2
        REQUIRE ?V3
        REQUIRE ?V4
        REQUIRE ?V6
        REQUIRE ?V7
        MOV     A,#-0x10
        LCALL   ?BANKED_ENTER_XDATA
          CFI DPH0 load(1, XDATA, add(CFA_XSP16, literal(-1)))
          CFI DPL0 load(1, XDATA, add(CFA_XSP16, literal(-2)))
          CFI ?BRET_EXT load(1, XDATA, add(CFA_XSP16, literal(-3)))
          CFI ?RET_HIGH load(1, XDATA, add(CFA_XSP16, literal(-4)))
          CFI ?RET_LOW load(1, XDATA, add(CFA_XSP16, literal(-5)))
          CFI R7 load(1, XDATA, add(CFA_XSP16, literal(-6)))
          CFI V7 load(1, XDATA, add(CFA_XSP16, literal(-7)))
          CFI V6 load(1, XDATA, add(CFA_XSP16, literal(-8)))
          CFI V5 load(1, XDATA, add(CFA_XSP16, literal(-9)))
          CFI V4 load(1, XDATA, add(CFA_XSP16, literal(-10)))
          CFI V3 load(1, XDATA, add(CFA_XSP16, literal(-11)))
          CFI V2 load(1, XDATA, add(CFA_XSP16, literal(-12)))
          CFI V1 load(1, XDATA, add(CFA_XSP16, literal(-13)))
          CFI V0 load(1, XDATA, add(CFA_XSP16, literal(-14)))
          CFI VB load(1, XDATA, add(CFA_XSP16, literal(-15)))
          CFI R6 load(1, XDATA, add(CFA_XSP16, literal(-16)))
          CFI CFA_SP SP+0
          CFI CFA_XSP16 add(XSP16, 16)
        ; Saved register size: 16
        ; Auto size: 8
        MOV     A,#-0x8
        LCALL   ?ALLOC_XSTACK8
          CFI CFA_XSP16 add(XSP16, 24)
        MOV     A,R2
        MOV     R6,A
        MOV     A,R3
        MOV     R7,A
// 2427   (void)task_id;  // Intentionally unreferenced parameter
// 2428   
// 2429 #if (BDB_FINDING_BINDING_CAPABILITY_ENABLED==1)  
// 2430   endPointDesc_t * bdb_CurrEpDescriptor;
// 2431 #endif
// 2432   
// 2433   if(events & BDB_CHANGE_COMMISSIONING_STATE)
        MOV     A,R6
        ANL     A,#0x4
        JZ      ??bdb_event_loop_0
// 2434   {
// 2435     switch(bdbCommissioningProcedureState.bdbCommissioningState)
        MOV     DPTR,#bdbCommissioningProcedureState
        MOVX    A,@DPTR
        JZ      ??bdb_event_loop_1
        ADD     A,#-0x4
        JZ      ??bdb_event_loop_2
        ADD     A,#-0x2
        JZ      ??bdb_event_loop_3
        SJMP    ??bdb_event_loop_4
// 2436     {
// 2437 
// 2438       case BDB_COMMISSIONING_STATE_START_RESUME:
// 2439         bdb_startResumeCommissioningProcess();
??bdb_event_loop_1:
        ; Setup parameters for call to function bdb_startResumeCommissioningProcess
        LCALL   `??bdb_startResumeCommissioningProcess::?relay`; Banked call to: bdb_startResumeCommissioningProcess
// 2440       break;
        SJMP    ??bdb_event_loop_4
// 2441       
// 2442       case BDB_COMMISSIONING_STATE_TC_LINK_KEY_EXCHANGE:
// 2443         if (ZG_BUILD_JOINING_TYPE)
// 2444         {
// 2445           bdb_tcLinkKeyExchangeAttempt(TRUE,BDB_REQ_TC_STACK_VERSION);
// 2446         }
// 2447       break;
// 2448       
// 2449       case BDB_COMMISSIONING_STATE_STEERING_ON_NWK:
// 2450         bdb_nwkSteeringDeviceOnNwk();
??bdb_event_loop_2:
        ; Setup parameters for call to function bdb_nwkSteeringDeviceOnNwk
        LCALL   `??bdb_nwkSteeringDeviceOnNwk::?relay`; Banked call to: bdb_nwkSteeringDeviceOnNwk
// 2451         
// 2452         bdb_reportCommissioningState(BDB_COMMISSIONING_STATE_STEERING_ON_NWK, TRUE);
        ; Setup parameters for call to function bdb_reportCommissioningState
        MOV     R2,#0x1
        MOV     R1,#0x4
        LCALL   `??bdb_reportCommissioningState::?relay`; Banked call to: bdb_reportCommissioningState
// 2453       break;
        SJMP    ??bdb_event_loop_4
// 2454       
// 2455       case BDB_COMMISSIONING_STATE_FINDING_BINDING:
// 2456         bdbAttributes.bdbCommissioningStatus = BDB_COMMISSIONING_SUCCESS;
??bdb_event_loop_3:
        MOV     DPTR,#bdbAttributes + 10
        CLR     A
        MOVX    @DPTR,A
// 2457         bdbCommissioningProcedureState.bdbCommissioningState = BDB_COMMISSIONING_STATE_START_RESUME;
        MOV     DPTR,#bdbCommissioningProcedureState
        MOVX    @DPTR,A
// 2458         osal_start_timerEx(bdb_TaskID,BDB_CHANGE_COMMISSIONING_STATE,50);
        ; Setup parameters for call to function osal_start_timerEx
        MOV     DPTR,#__Constant_32
        LCALL   ?PUSH_XSTACK8_X_FOUR
          CFI CFA_XSP16 add(XSP16, 28)
        MOV     R2,#0x4
        MOV     R3,#0x0
        MOV     DPTR,#bdb_TaskID
        MOVX    A,@DPTR
        MOV     R1,A
        LCALL   `??osal_start_timerEx::?relay`; Banked call to: osal_start_timerEx
        MOV     A,#0x4
        LCALL   ?DEALLOC_XSTACK8
          CFI CFA_XSP16 add(XSP16, 24)
// 2459       break;
// 2460       
// 2461     }
// 2462     return (events ^ BDB_CHANGE_COMMISSIONING_STATE);
??bdb_event_loop_4:
        MOV     A,R6
        XRL     A,#0x4
        LJMP    ??bdb_event_loop_5 & 0xFFFF
// 2463   }
// 2464 
// 2465   if ( events & SYS_EVENT_MSG )
??bdb_event_loop_0:
        MOV     A,R7
        ANL     A,#0x80
        JNZ     ??bdb_event_loop_6
// 2466   {
// 2467     uint8 *msg_ptr;
// 2468     
// 2469     while ( (msg_ptr = osal_msg_receive( bdb_TaskID )) )
// 2470     {
// 2471       //Validate the is receive on the right process
// 2472       if(((bdbInMsg_t*)msg_ptr)->hdr.event == bdbCommissioningProcedureState.bdbCommissioningState)
// 2473       {
// 2474         bdb_ProcessOSALMsg( (bdbInMsg_t *)msg_ptr );
// 2475       }
// 2476       //Notify the user
// 2477       else if(((bdbInMsg_t*)msg_ptr)->hdr.event == BDB_NOTIFY_USER)
// 2478       {
// 2479         if(pfnCommissioningStatusCB)
// 2480         {
// 2481           ((bdbCommissioningModeMsg_t*) ((bdbInMsg_t*)msg_ptr)->buf)->bdbRemainingCommissioningModes = bdbAttributes.bdbCommissioningMode;
// 2482           pfnCommissioningStatusCB((bdbCommissioningModeMsg_t*) (((bdbInMsg_t*)msg_ptr)->buf));
// 2483         }
// 2484         
// 2485 #ifdef MT_APP_CNF_FUNC
// 2486         //Notify the host processor about the event
// 2487         MT_AppCnfCommissioningNotification((bdbCommissioningModeMsg_t*) (((bdbInMsg_t*)msg_ptr)->buf));
// 2488 #endif
// 2489         
// 2490       }
// 2491 #if (ZG_BUILD_COORDINATOR_TYPE)
// 2492       else
// 2493       {
// 2494         if(ZG_DEVICE_COORDINATOR_TYPE)
// 2495         {
// 2496           //Notify the status 
// 2497           if(((bdbInMsg_t*)msg_ptr)->hdr.event == BDB_TC_LINK_KEY_EXCHANGE_PROCESS)
// 2498           {
// 2499             pfnTCLinkKeyExchangeProcessCB( (bdb_TCLinkKeyExchProcess_t*) ((bdbInMsg_t*)msg_ptr)->buf);
// 2500           }
// 2501         }
// 2502       }
// 2503 #endif
// 2504       
// 2505       
// 2506       // Release the memory
// 2507       osal_msg_deallocate( msg_ptr );
// 2508     }
// 2509 
// 2510     // Return unprocessed events
// 2511     return (events ^ SYS_EVENT_MSG);
// 2512   }
// 2513   
// 2514 
// 2515   if(events & BDB_PROCESS_TIMEOUT)
        MOV     A,R7
        ANL     A,#0x10
        JNZ     $+5
        LJMP    ??bdb_event_loop_7 & 0xFFFF
// 2516   {
// 2517     bdb_processTimeout();
// 2518     // Return unprocessed events
// 2519     return (events ^ BDB_PROCESS_TIMEOUT);
        MOV     A,R7
        XRL     A,#0x10
        LJMP    ??bdb_event_loop_8 & 0xFFFF
// 2520   }
??bdb_event_loop_9:
        MOV     A,#0x9
        XRL     A,R0
        JNZ     ??bdb_event_loop_10
        ; Setup parameters for indirect call
        MOV     DPTR,#pfnTCLinkKeyExchangeProcessCB
??bdb_event_loop_11:
        LCALL   ?Subroutine22 & 0xFFFF
??CrossCallReturnLabel_74:
        LCALL   ?CALL_IND
??bdb_event_loop_10:
        ; Setup parameters for call to function osal_msg_deallocate
        MOV     R2,?V0
        MOV     R3,?V1
        LCALL   `??osal_msg_deallocate::?relay`; Banked call to: osal_msg_deallocate
??bdb_event_loop_6:
        ; Setup parameters for call to function osal_msg_receive
        MOV     DPTR,#bdb_TaskID
        MOVX    A,@DPTR
        MOV     R1,A
        LCALL   `??osal_msg_receive::?relay`; Banked call to: osal_msg_receive
        MOV     ?V0,R2
        MOV     ?V1,R3
        MOV     A,R2
        ORL     A,?V1
        JZ      ??bdb_event_loop_12
        MOV     DPL,R2
        MOV     DPH,R3
        MOVX    A,@DPTR
        MOV     R0,A
        MOV     DPTR,#bdbCommissioningProcedureState
        MOVX    A,@DPTR
        XRL     A,R0
        JNZ     ??bdb_event_loop_13
        MOV     A,R0
        ADD     A,#-0x2
        JZ      ??bdb_event_loop_14
        ADD     A,#-0x4
        JNZ     ??bdb_event_loop_10
??bdb_event_loop_14:
        MOV     DPL,R2
        MOV     DPH,R3
        INC     DPTR
        MOVX    A,@DPTR
        JNZ     ??bdb_event_loop_10
        ; Setup parameters for call to function bdb_BindIfMatch
        LCALL   `??bdb_BindIfMatch::?relay`; Banked call to: bdb_BindIfMatch
        SJMP    ??bdb_event_loop_10
??bdb_event_loop_13:
        MOV     A,R2
        ADD     A,#0x2
        MOV     R2,A
        CLR     A
        ADDC    A,?V1
        MOV     R3,A
        MOV     A,#0xa
        XRL     A,R0
        JNZ     ??bdb_event_loop_9
        MOV     DPTR,#pfnCommissioningStatusCB
        LCALL   ??Subroutine41_0 & 0xFFFF
??CrossCallReturnLabel_64:
        JZ      ??bdb_event_loop_10
        MOV     DPTR,#bdbAttributes + 11
        MOVX    A,@DPTR
        MOV     DPL,?V0
        MOV     DPH,?V1
        INC     DPTR
        INC     DPTR
        INC     DPTR
        INC     DPTR
        MOVX    @DPTR,A
        ; Setup parameters for indirect call
        MOV     DPTR,#pfnCommissioningStatusCB
        SJMP    ??bdb_event_loop_11
??bdb_event_loop_12:
        MOV     A,R6
        MOV     R2,A
        MOV     A,R7
        XRL     A,#0x80
        LJMP    ??bdb_event_loop_8 & 0xFFFF
// 2521   
// 2522   if(events &  BDB_REPORT_TIMEOUT){
??bdb_event_loop_7:
        MOV     A,R6
        ANL     A,#0x80
        JZ      ??bdb_event_loop_15
// 2523 #ifdef BDB_REPORTING    
// 2524     bdb_RepProcessEvent();
        ; Setup parameters for call to function bdb_RepProcessEvent
        LCALL   `??bdb_RepProcessEvent::?relay`; Banked call to: bdb_RepProcessEvent
// 2525 #endif
// 2526     // Return unprocessed events
// 2527     return (events ^ BDB_REPORT_TIMEOUT);
        MOV     A,R6
        XRL     A,#0x80
        SJMP    ??bdb_event_loop_5
// 2528   }
// 2529   
// 2530 #if (ZG_BUILD_JOINING_TYPE)
// 2531   if(events & BDB_TC_LINK_KEY_EXCHANGE_FAIL)
// 2532   {
// 2533     if(ZG_DEVICE_JOINING_TYPE)
// 2534     {
// 2535       NLME_LeaveReq_t leaveReq;
// 2536       // Set every field to 0
// 2537       osal_memset( &leaveReq, 0, sizeof( NLME_LeaveReq_t ) );
// 2538       
// 2539       bdb_setNodeIsOnANetwork(FALSE);
// 2540 
// 2541       if ( NLME_LeaveReq( &leaveReq ) != ZSuccess )
// 2542       {
// 2543         osal_set_event( bdb_TaskID,BDB_TC_LINK_KEY_EXCHANGE_FAIL);
// 2544       }
// 2545     }
// 2546     // Return unprocessed events
// 2547     return (events ^ BDB_TC_LINK_KEY_EXCHANGE_FAIL);
// 2548   }
// 2549 #endif
// 2550   
// 2551   
// 2552   if(events & BDB_TC_JOIN_TIMEOUT)
??bdb_event_loop_15:
        MOV     A,R7
        ANL     A,#0x8
        JZ      ??bdb_event_loop_16
// 2553   {     
// 2554 #if (ZG_BUILD_COORDINATOR_TYPE)
// 2555     if(ZG_DEVICE_COORDINATOR_TYPE)
// 2556     {
// 2557       bdb_TCProcessJoiningList();
        ; Setup parameters for call to function bdb_TCProcessJoiningList
        LCALL   `??bdb_TCProcessJoiningList::?relay`; Banked call to: bdb_TCProcessJoiningList
// 2558     }
// 2559 #endif    
// 2560     return (events ^ BDB_TC_JOIN_TIMEOUT);
        MOV     A,R6
        MOV     R2,A
        MOV     A,R7
        XRL     A,#0x8
        LJMP    ??bdb_event_loop_8 & 0xFFFF
// 2561   }
// 2562 
// 2563 #if (BDB_FINDING_BINDING_CAPABILITY_ENABLED==1)  
// 2564   
// 2565   if(events & BDB_FINDING_AND_BINDING_PERIOD_TIMEOUT)
??bdb_event_loop_16:
        MOV     A,R6
        ANL     A,#0x40
        JZ      ??bdb_event_loop_17
// 2566   {
// 2567     if ( FINDING_AND_BINDING_PERIODIC_ENABLE == TRUE )
// 2568     {
// 2569       bdb_CurrEpDescriptor = bdb_setEpDescListToActiveEndpoint();
        ; Setup parameters for call to function bdb_setEpDescListToActiveEndpoint
        LCALL   `??bdb_setEpDescListToActiveEndpoint::?relay`; Banked call to: bdb_setEpDescListToActiveEndpoint
        MOV     ?V0,R2
        MOV     ?V1,R3
// 2570       
// 2571       //If we have endpoint from which to send the identify command, then proceed, otherwise finish
// 2572       if(bdb_CurrEpDescriptor != NULL) //just a safty check. The fact that we got to this functuon at all means that this cannot be NULL
        MOV     A,R2
        ORL     A,?V1
        JZ      ??bdb_event_loop_18
// 2573       {
// 2574         //Substract an attempt
// 2575         bdb_FB_InitiatorCurrentCyclesNumber--;
// 2576         
// 2577         if(bdb_FB_InitiatorCurrentCyclesNumber > 0)
        MOV     DPTR,#bdb_FB_InitiatorCurrentCyclesNumber
        MOVX    A,@DPTR
        DEC     A
        MOVX    @DPTR,A
        JZ      ??bdb_event_loop_19
// 2578         {
// 2579           //Only send Identify Query if there is no pending responses from a previous identify query
// 2580           if ((osal_get_timeoutEx(bdb_TaskID, BDB_RESPONDENT_SIMPLEDESC_TIMEOUT) == 0) && (bdb_getRespondentRetry(pRespondentHead) == NULL))
        ; Setup parameters for call to function osal_get_timeoutEx
        MOV     R2,#0x0
        MOV     R3,#0x40
        MOV     DPTR,#bdb_TaskID
        MOVX    A,@DPTR
        MOV     R1,A
        LCALL   `??osal_get_timeoutEx::?relay`; Banked call to: osal_get_timeoutEx
        MOV     A,R2
        ORL     A,R3
        ORL     A,R4
        ORL     A,R5
        JNZ     ??bdb_event_loop_20
        ; Setup parameters for call to function bdb_getRespondentRetry
        LCALL   ?Subroutine19 & 0xFFFF
??CrossCallReturnLabel_88:
        LCALL   `??bdb_getRespondentRetry::?relay`; Banked call to: bdb_getRespondentRetry
        MOV     ?V3,R3
        MOV     A,R2
        ORL     A,?V3
        JNZ     ??bdb_event_loop_20
// 2581           {
// 2582             //Send identify query with the endpoint requested
// 2583             bdb_SendIdentifyQuery(bdb_CurrEpDescriptor->endPoint);
        ; Setup parameters for call to function bdb_SendIdentifyQuery
        MOV     DPL,?V0
        MOV     DPH,?V1
        MOVX    A,@DPTR
        MOV     R1,A
        LCALL   `??bdb_SendIdentifyQuery::?relay`; Banked call to: bdb_SendIdentifyQuery
// 2584           }
// 2585 
// 2586           osal_start_timerEx(bdb_TaskID, BDB_FINDING_AND_BINDING_PERIOD_TIMEOUT, FINDING_AND_BINDING_PERIODIC_TIME * 1000);
??bdb_event_loop_20:
        ; Setup parameters for call to function osal_start_timerEx
        MOV     DPTR,#__Constant_3a98
        LCALL   ?PUSH_XSTACK8_X_FOUR
          CFI CFA_XSP16 add(XSP16, 28)
        MOV     R2,#0x40
        MOV     R3,#0x0
        MOV     DPTR,#bdb_TaskID
        MOVX    A,@DPTR
        MOV     R1,A
        LCALL   `??osal_start_timerEx::?relay`; Banked call to: osal_start_timerEx
        MOV     A,#0x4
        LCALL   ?DEALLOC_XSTACK8
          CFI CFA_XSP16 add(XSP16, 24)
// 2587         }
// 2588       }
// 2589     }
// 2590 
// 2591     if (bdb_FB_InitiatorCurrentCyclesNumber == 0)
??bdb_event_loop_18:
        MOV     DPTR,#bdb_FB_InitiatorCurrentCyclesNumber
        MOVX    A,@DPTR
        JNZ     ??bdb_event_loop_21
// 2592     {
// 2593       bdb_exitFindingBindingWStatus( BDB_COMMISSIONING_FB_NO_IDENTIFY_QUERY_RESPONSE );
??bdb_event_loop_19:
        ; Setup parameters for call to function bdb_exitFindingBindingWStatus
        MOV     R1,#0xb
        LCALL   `??bdb_exitFindingBindingWStatus::?relay`; Banked call to: bdb_exitFindingBindingWStatus
// 2594     }
// 2595     
// 2596     return (events ^ BDB_FINDING_AND_BINDING_PERIOD_TIMEOUT);
??bdb_event_loop_21:
        MOV     A,R6
        XRL     A,#0x40
??bdb_event_loop_5:
        MOV     R2,A
        MOV     A,R7
        LJMP    ??bdb_event_loop_8 & 0xFFFF
// 2597   }
// 2598   
// 2599   
// 2600   
// 2601   if(events & BDB_IDENTIFY_TIMEOUT)
??bdb_event_loop_17:
        MOV     A,R7
        ANL     A,#0x20
        JNZ     $+5
        LJMP    ??bdb_event_loop_22 & 0xFFFF
// 2602   {
// 2603     zclAttrRec_t identifyAttrRec;
// 2604     epList_t *bdb_CurrEpDescriptorNextInList = NULL;
// 2605     bdb_CurrEpDescriptorNextInList = bdb_HeadEpDescriptorList;
        MOV     DPTR,#bdb_HeadEpDescriptorList
        LCALL   ?Subroutine21 & 0xFFFF
??CrossCallReturnLabel_21:
        MOV     ?V0,R0
        MOV     ?V1,R1
// 2606     
// 2607     bool KeepIdentifyTimerRunning = FALSE;
        MOV     ?V4,#0x0
        SJMP    ??bdb_event_loop_23
// 2608     
// 2609     while(bdb_CurrEpDescriptorNextInList != NULL )
// 2610     {
// 2611       endPointDesc_t *bdb_EpDescriptor = NULL;
// 2612       bdb_EpDescriptor = bdb_CurrEpDescriptorNextInList->epDesc;
// 2613     
// 2614       //Do not check ZDO or Zigbee reserved endpoints
// 2615       if((bdb_CurrEpDescriptorList->epDesc->endPoint == 0) || (bdb_CurrEpDescriptorList->epDesc->endPoint >= BDB_ZIGBEE_RESERVED_ENDPOINTS_START))
// 2616       {
// 2617         bdb_CurrEpDescriptorNextInList = bdb_CurrEpDescriptorNextInList->nextDesc;
// 2618         continue;
// 2619       }
// 2620       
// 2621       if ( zclFindAttrRec( bdb_EpDescriptor->endPoint, ZCL_CLUSTER_ID_GEN_IDENTIFY,
// 2622                         ATTRID_IDENTIFY_TIME, &identifyAttrRec ) )
// 2623       {
// 2624         if(*((uint16*)identifyAttrRec.attr.dataPtr) > 0)
// 2625         {
// 2626           (uint16)(*((uint16*)identifyAttrRec.attr.dataPtr))--;
// 2627           KeepIdentifyTimerRunning = TRUE;
// 2628         }
// 2629         else
// 2630         {
// 2631           // Use bdb success main state
// 2632           bdbAttributes.bdbCommissioningStatus = BDB_COMMISSIONING_SUCCESS;
??bdb_event_loop_24:
        MOV     DPTR,#bdbAttributes + 10
        CLR     A
        MOVX    @DPTR,A
// 2633           if(pfnIdentifyTimeChangeCB != NULL)
        MOV     DPTR,#pfnIdentifyTimeChangeCB
        LCALL   ??Subroutine41_0 & 0xFFFF
??CrossCallReturnLabel_65:
        JZ      ??bdb_event_loop_25
// 2634           {
// 2635             pfnIdentifyTimeChangeCB(bdb_EpDescriptor->endPoint);
        ; Setup parameters for indirect call
        MOV     DPL,?V2
        MOV     DPH,?V3
        MOVX    A,@DPTR
        MOV     R1,A
        MOV     DPTR,#pfnIdentifyTimeChangeCB + 1
        LCALL   ??Subroutine42_0 & 0xFFFF
// 2636           }
// 2637         }
??CrossCallReturnLabel_72:
        LCALL   ?CALL_IND
// 2638       }
// 2639       bdb_CurrEpDescriptorNextInList = bdb_CurrEpDescriptorNextInList->nextDesc;
??bdb_event_loop_25:
        MOV     DPL,?V0
        MOV     DPH,?V1
        MOVX    A,@DPTR
        MOV     ?V0,A
        INC     DPTR
        MOVX    A,@DPTR
        MOV     ?V1,A
??bdb_event_loop_23:
        MOV     A,?V0
        ORL     A,?V1
        JZ      ??bdb_event_loop_26
        MOV     DPL,?V0
        MOV     DPH,?V1
        INC     DPTR
        INC     DPTR
        LCALL   ?Subroutine21 & 0xFFFF
??CrossCallReturnLabel_22:
        MOV     ?V2,R0
        MOV     ?V3,R1
        LCALL   ?Subroutine16 & 0xFFFF
??CrossCallReturnLabel_13:
        MOVX    A,@DPTR
        JZ      ??bdb_event_loop_25
        CLR     C
        SUBB    A,#-0xf
        JNC     ??bdb_event_loop_25
        ; Setup parameters for call to function zclFindAttrRec
        MOV     R0,?XSP + 0
        MOV     R1,?XSP + 1
        MOV     ?V6,R0
        MOV     ?V7,R1
        MOV     R0,#?V6
        LCALL   ?PUSH_XSTACK_I_TWO
          CFI CFA_XSP16 add(XSP16, 26)
        MOV     R4,#0x0
        MOV     R5,#0x0
        MOV     R2,#0x3
        MOV     R3,#0x0
        MOV     DPL,?V2
        MOV     DPH,?V3
        MOVX    A,@DPTR
        MOV     R1,A
        LCALL   `??zclFindAttrRec::?relay`; Banked call to: zclFindAttrRec
        MOV     A,#0x2
        LCALL   ?DEALLOC_XSTACK8
          CFI CFA_XSP16 add(XSP16, 24)
        MOV     A,R1
        JZ      ??bdb_event_loop_25
        MOV     A,#0x6
        LCALL   ?XSTACK_DISP0_8
        LCALL   ?Subroutine20 & 0xFFFF
??CrossCallReturnLabel_19:
        LCALL   ?Subroutine14 & 0xFFFF
??CrossCallReturnLabel_8:
        JZ      ??bdb_event_loop_24
        MOV     A,R2
        ADD     A,#-0x1
        DEC     R2
        MOV     A,R3
        ADDC    A,#-0x1
        MOV     R3,A
        MOV     DPL,R0
        MOV     DPH,R1
        MOV     A,R2
        MOVX    @DPTR,A
        INC     DPTR
        MOV     A,R3
        MOVX    @DPTR,A
        MOV     ?V4,#0x1
        SJMP    ??bdb_event_loop_25
// 2640     }
// 2641     
// 2642     //If any endpoint has identify running, keep the timer on
// 2643     if(KeepIdentifyTimerRunning)
??bdb_event_loop_26:
        MOV     A,?V4
        JZ      ??bdb_event_loop_27
// 2644     {
// 2645       osal_start_timerEx( bdb_TaskID, BDB_IDENTIFY_TIMEOUT, 1000 );
        ; Setup parameters for call to function osal_start_timerEx
        MOV     DPTR,#__Constant_3e8
        LCALL   ?PUSH_XSTACK8_X_FOUR
          CFI CFA_XSP16 add(XSP16, 28)
        MOV     R2,#0x0
        MOV     R3,#0x20
        MOV     DPTR,#bdb_TaskID
        MOVX    A,@DPTR
        MOV     R1,A
        LCALL   `??osal_start_timerEx::?relay`; Banked call to: osal_start_timerEx
        MOV     A,#0x4
        LCALL   ?DEALLOC_XSTACK8
          CFI CFA_XSP16 add(XSP16, 24)
        SJMP    ??bdb_event_loop_28
// 2646     }
// 2647     else
// 2648     {
// 2649       osal_stop_timerEx( bdb_TaskID, BDB_IDENTIFY_TIMEOUT );
??bdb_event_loop_27:
        ; Setup parameters for call to function osal_stop_timerEx
        MOV     R2,#0x0
        MOV     R3,#0x20
        MOV     DPTR,#bdb_TaskID
        MOVX    A,@DPTR
        MOV     R1,A
        LCALL   `??osal_stop_timerEx::?relay`; Banked call to: osal_stop_timerEx
// 2650     }
// 2651     
// 2652     // Return unprocessed events
// 2653     return (events ^ BDB_IDENTIFY_TIMEOUT);
??bdb_event_loop_28:
        MOV     A,R6
        MOV     R2,A
        MOV     A,R7
        XRL     A,#0x20
        SJMP    ??bdb_event_loop_8
// 2654   }
// 2655   
// 2656   if(events & BDB_RESPONDENT_SIMPLEDESC_TIMEOUT)
??bdb_event_loop_22:
        MOV     A,R7
        ANL     A,#0x40
        JZ      ??bdb_event_loop_29
// 2657   {
// 2658     // Send Simple Descriptor request to a respondent node
// 2659     bdb_SendSimpleDescReq();
        ; Setup parameters for call to function bdb_SendSimpleDescReq
        LCALL   `??bdb_SendSimpleDescReq::?relay`; Banked call to: bdb_SendSimpleDescReq
// 2660 
// 2661     return (events ^ BDB_RESPONDENT_SIMPLEDESC_TIMEOUT);
        MOV     A,R6
        MOV     R2,A
        MOV     A,R7
        XRL     A,#0x40
??bdb_event_loop_8:
        MOV     R3,A
        SJMP    ??bdb_event_loop_30
// 2662   }
// 2663 #endif
// 2664   
// 2665   return 0;
??bdb_event_loop_29:
        MOV     R2,#0x0
        MOV     R3,#0x0
??bdb_event_loop_30:
        MOV     A,#0x8
        LJMP    ?Subroutine5 & 0xFFFF
// 2666 }
          CFI EndBlock cfiBlock116

        RSEG BANKED_CODE:CODE:NOROOT(0)
?Subroutine22:
          CFI Block cfiCond117 Using cfiCommon0
          CFI Function bdb_ZclIdentifyCmdInd
          CFI Conditional ??CrossCallReturnLabel_73
          CFI R6 load(1, XDATA, add(CFA_XSP16, literal(-12)))
          CFI VB load(1, XDATA, add(CFA_XSP16, literal(-11)))
          CFI V0 load(1, XDATA, add(CFA_XSP16, literal(-10)))
          CFI V1 load(1, XDATA, add(CFA_XSP16, literal(-9)))
          CFI V2 load(1, XDATA, add(CFA_XSP16, literal(-8)))
          CFI V3 load(1, XDATA, add(CFA_XSP16, literal(-7)))
          CFI R7 load(1, XDATA, add(CFA_XSP16, literal(-6)))
          CFI ?RET_LOW load(1, XDATA, add(CFA_XSP16, literal(-5)))
          CFI ?RET_HIGH load(1, XDATA, add(CFA_XSP16, literal(-4)))
          CFI ?BRET_EXT load(1, XDATA, add(CFA_XSP16, literal(-3)))
          CFI DPL0 load(1, XDATA, add(CFA_XSP16, literal(-2)))
          CFI DPH0 load(1, XDATA, add(CFA_XSP16, literal(-1)))
          CFI CFA_SP SP+-2
          CFI CFA_XSP16 add(XSP16, 20)
          CFI Block cfiCond118 Using cfiCommon0
          CFI (cfiCond118) Function bdb_event_loop
          CFI (cfiCond118) Conditional ??CrossCallReturnLabel_74
          CFI (cfiCond118) R6 load(1, XDATA, add(CFA_XSP16, literal(-16)))
          CFI (cfiCond118) VB load(1, XDATA, add(CFA_XSP16, literal(-15)))
          CFI (cfiCond118) V0 load(1, XDATA, add(CFA_XSP16, literal(-14)))
          CFI (cfiCond118) V1 load(1, XDATA, add(CFA_XSP16, literal(-13)))
          CFI (cfiCond118) V2 load(1, XDATA, add(CFA_XSP16, literal(-12)))
          CFI (cfiCond118) V3 load(1, XDATA, add(CFA_XSP16, literal(-11)))
          CFI (cfiCond118) V4 load(1, XDATA, add(CFA_XSP16, literal(-10)))
          CFI (cfiCond118) V5 load(1, XDATA, add(CFA_XSP16, literal(-9)))
          CFI (cfiCond118) V6 load(1, XDATA, add(CFA_XSP16, literal(-8)))
          CFI (cfiCond118) V7 load(1, XDATA, add(CFA_XSP16, literal(-7)))
          CFI (cfiCond118) R7 load(1, XDATA, add(CFA_XSP16, literal(-6)))
          CFI (cfiCond118) ?RET_LOW load(1, XDATA, add(CFA_XSP16, literal(-5)))
          CFI (cfiCond118) ?RET_HIGH load(1, XDATA, add(CFA_XSP16, literal(-4)))
          CFI (cfiCond118) ?BRET_EXT load(1, XDATA, add(CFA_XSP16, literal(-3)))
          CFI (cfiCond118) DPL0 load(1, XDATA, add(CFA_XSP16, literal(-2)))
          CFI (cfiCond118) DPH0 load(1, XDATA, add(CFA_XSP16, literal(-1)))
          CFI (cfiCond118) CFA_SP SP+-2
          CFI (cfiCond118) CFA_XSP16 add(XSP16, 24)
          CFI Block cfiPicker119 Using cfiCommon1
          CFI (cfiPicker119) NoFunction
          CFI (cfiPicker119) Picker
        MOVX    A,@DPTR
        MOV     R0,A
        INC     DPTR
          CFI EndBlock cfiCond117
          CFI EndBlock cfiCond118
          CFI EndBlock cfiPicker119
        REQUIRE ??Subroutine42_0
        ; // Fall through to label ??Subroutine42_0

        RSEG BANKED_CODE:CODE:NOROOT(0)
??Subroutine42_0:
          CFI Block cfiCond120 Using cfiCommon0
          CFI Function bdb_startResumeCommissioningProcess
          CFI Conditional ??CrossCallReturnLabel_71
          CFI R6 load(1, XDATA, add(CFA_XSP16, literal(-10)))
          CFI VB load(1, XDATA, add(CFA_XSP16, literal(-9)))
          CFI V0 load(1, XDATA, add(CFA_XSP16, literal(-8)))
          CFI V1 load(1, XDATA, add(CFA_XSP16, literal(-7)))
          CFI R7 load(1, XDATA, add(CFA_XSP16, literal(-6)))
          CFI ?RET_LOW load(1, XDATA, add(CFA_XSP16, literal(-5)))
          CFI ?RET_HIGH load(1, XDATA, add(CFA_XSP16, literal(-4)))
          CFI ?BRET_EXT load(1, XDATA, add(CFA_XSP16, literal(-3)))
          CFI DPL0 load(1, XDATA, add(CFA_XSP16, literal(-2)))
          CFI DPH0 load(1, XDATA, add(CFA_XSP16, literal(-1)))
          CFI CFA_SP SP+-2
          CFI CFA_XSP16 add(XSP16, 21)
          CFI Block cfiCond121 Using cfiCommon0
          CFI (cfiCond121) Function bdb_event_loop
          CFI (cfiCond121) Conditional ??CrossCallReturnLabel_72
          CFI (cfiCond121) R6 load(1, XDATA, add(CFA_XSP16, literal(-16)))
          CFI (cfiCond121) VB load(1, XDATA, add(CFA_XSP16, literal(-15)))
          CFI (cfiCond121) V0 load(1, XDATA, add(CFA_XSP16, literal(-14)))
          CFI (cfiCond121) V1 load(1, XDATA, add(CFA_XSP16, literal(-13)))
          CFI (cfiCond121) V2 load(1, XDATA, add(CFA_XSP16, literal(-12)))
          CFI (cfiCond121) V3 load(1, XDATA, add(CFA_XSP16, literal(-11)))
          CFI (cfiCond121) V4 load(1, XDATA, add(CFA_XSP16, literal(-10)))
          CFI (cfiCond121) V5 load(1, XDATA, add(CFA_XSP16, literal(-9)))
          CFI (cfiCond121) V6 load(1, XDATA, add(CFA_XSP16, literal(-8)))
          CFI (cfiCond121) V7 load(1, XDATA, add(CFA_XSP16, literal(-7)))
          CFI (cfiCond121) R7 load(1, XDATA, add(CFA_XSP16, literal(-6)))
          CFI (cfiCond121) ?RET_LOW load(1, XDATA, add(CFA_XSP16, literal(-5)))
          CFI (cfiCond121) ?RET_HIGH load(1, XDATA, add(CFA_XSP16, literal(-4)))
          CFI (cfiCond121) ?BRET_EXT load(1, XDATA, add(CFA_XSP16, literal(-3)))
          CFI (cfiCond121) DPL0 load(1, XDATA, add(CFA_XSP16, literal(-2)))
          CFI (cfiCond121) DPH0 load(1, XDATA, add(CFA_XSP16, literal(-1)))
          CFI (cfiCond121) CFA_SP SP+-2
          CFI (cfiCond121) CFA_XSP16 add(XSP16, 24)
          CFI Block cfiCond122 Using cfiCommon0
          CFI (cfiCond122) Function bdb_ZclIdentifyCmdInd
          CFI (cfiCond122) Conditional ??CrossCallReturnLabel_73
          CFI (cfiCond122) R6 load(1, XDATA, add(CFA_XSP16, literal(-12)))
          CFI (cfiCond122) VB load(1, XDATA, add(CFA_XSP16, literal(-11)))
          CFI (cfiCond122) V0 load(1, XDATA, add(CFA_XSP16, literal(-10)))
          CFI (cfiCond122) V1 load(1, XDATA, add(CFA_XSP16, literal(-9)))
          CFI (cfiCond122) V2 load(1, XDATA, add(CFA_XSP16, literal(-8)))
          CFI (cfiCond122) V3 load(1, XDATA, add(CFA_XSP16, literal(-7)))
          CFI (cfiCond122) R7 load(1, XDATA, add(CFA_XSP16, literal(-6)))
          CFI (cfiCond122) ?RET_LOW load(1, XDATA, add(CFA_XSP16, literal(-5)))
          CFI (cfiCond122) ?RET_HIGH load(1, XDATA, add(CFA_XSP16, literal(-4)))
          CFI (cfiCond122) ?BRET_EXT load(1, XDATA, add(CFA_XSP16, literal(-3)))
          CFI (cfiCond122) DPL0 load(1, XDATA, add(CFA_XSP16, literal(-2)))
          CFI (cfiCond122) DPH0 load(1, XDATA, add(CFA_XSP16, literal(-1)))
          CFI (cfiCond122) CFA_SP SP+-2
          CFI (cfiCond122) CFA_XSP16 add(XSP16, 20)
          CFI Block cfiCond123 Using cfiCommon0
          CFI (cfiCond123) Function bdb_event_loop
          CFI (cfiCond123) Conditional ??CrossCallReturnLabel_74
          CFI (cfiCond123) R6 load(1, XDATA, add(CFA_XSP16, literal(-16)))
          CFI (cfiCond123) VB load(1, XDATA, add(CFA_XSP16, literal(-15)))
          CFI (cfiCond123) V0 load(1, XDATA, add(CFA_XSP16, literal(-14)))
          CFI (cfiCond123) V1 load(1, XDATA, add(CFA_XSP16, literal(-13)))
          CFI (cfiCond123) V2 load(1, XDATA, add(CFA_XSP16, literal(-12)))
          CFI (cfiCond123) V3 load(1, XDATA, add(CFA_XSP16, literal(-11)))
          CFI (cfiCond123) V4 load(1, XDATA, add(CFA_XSP16, literal(-10)))
          CFI (cfiCond123) V5 load(1, XDATA, add(CFA_XSP16, literal(-9)))
          CFI (cfiCond123) V6 load(1, XDATA, add(CFA_XSP16, literal(-8)))
          CFI (cfiCond123) V7 load(1, XDATA, add(CFA_XSP16, literal(-7)))
          CFI (cfiCond123) R7 load(1, XDATA, add(CFA_XSP16, literal(-6)))
          CFI (cfiCond123) ?RET_LOW load(1, XDATA, add(CFA_XSP16, literal(-5)))
          CFI (cfiCond123) ?RET_HIGH load(1, XDATA, add(CFA_XSP16, literal(-4)))
          CFI (cfiCond123) ?BRET_EXT load(1, XDATA, add(CFA_XSP16, literal(-3)))
          CFI (cfiCond123) DPL0 load(1, XDATA, add(CFA_XSP16, literal(-2)))
          CFI (cfiCond123) DPH0 load(1, XDATA, add(CFA_XSP16, literal(-1)))
          CFI (cfiCond123) CFA_SP SP+-2
          CFI (cfiCond123) CFA_XSP16 add(XSP16, 24)
          CFI Block cfiPicker124 Using cfiCommon1
          CFI (cfiPicker124) NoFunction
          CFI (cfiPicker124) Picker
        MOVX    A,@DPTR
        MOV     DPH,A
        MOV     DPL,R0
        RET
          CFI EndBlock cfiCond120
          CFI EndBlock cfiCond121
          CFI EndBlock cfiCond122
          CFI EndBlock cfiCond123
          CFI EndBlock cfiPicker124

        RSEG BANKED_CODE:CODE:NOROOT(0)
?Subroutine21:
          CFI Block cfiCond125 Using cfiCommon0
          CFI Function bdb_ZclIdentifyCmdInd
          CFI Conditional ??CrossCallReturnLabel_20
          CFI R6 load(1, XDATA, add(CFA_XSP16, literal(-12)))
          CFI VB load(1, XDATA, add(CFA_XSP16, literal(-11)))
          CFI V0 load(1, XDATA, add(CFA_XSP16, literal(-10)))
          CFI V1 load(1, XDATA, add(CFA_XSP16, literal(-9)))
          CFI V2 load(1, XDATA, add(CFA_XSP16, literal(-8)))
          CFI V3 load(1, XDATA, add(CFA_XSP16, literal(-7)))
          CFI R7 load(1, XDATA, add(CFA_XSP16, literal(-6)))
          CFI ?RET_LOW load(1, XDATA, add(CFA_XSP16, literal(-5)))
          CFI ?RET_HIGH load(1, XDATA, add(CFA_XSP16, literal(-4)))
          CFI ?BRET_EXT load(1, XDATA, add(CFA_XSP16, literal(-3)))
          CFI DPL0 load(1, XDATA, add(CFA_XSP16, literal(-2)))
          CFI DPH0 load(1, XDATA, add(CFA_XSP16, literal(-1)))
          CFI CFA_SP SP+-2
          CFI CFA_XSP16 add(XSP16, 20)
          CFI Block cfiCond126 Using cfiCommon0
          CFI (cfiCond126) Function bdb_event_loop
          CFI (cfiCond126) Conditional ??CrossCallReturnLabel_21
          CFI (cfiCond126) R6 load(1, XDATA, add(CFA_XSP16, literal(-16)))
          CFI (cfiCond126) VB load(1, XDATA, add(CFA_XSP16, literal(-15)))
          CFI (cfiCond126) V0 load(1, XDATA, add(CFA_XSP16, literal(-14)))
          CFI (cfiCond126) V1 load(1, XDATA, add(CFA_XSP16, literal(-13)))
          CFI (cfiCond126) V2 load(1, XDATA, add(CFA_XSP16, literal(-12)))
          CFI (cfiCond126) V3 load(1, XDATA, add(CFA_XSP16, literal(-11)))
          CFI (cfiCond126) V4 load(1, XDATA, add(CFA_XSP16, literal(-10)))
          CFI (cfiCond126) V5 load(1, XDATA, add(CFA_XSP16, literal(-9)))
          CFI (cfiCond126) V6 load(1, XDATA, add(CFA_XSP16, literal(-8)))
          CFI (cfiCond126) V7 load(1, XDATA, add(CFA_XSP16, literal(-7)))
          CFI (cfiCond126) R7 load(1, XDATA, add(CFA_XSP16, literal(-6)))
          CFI (cfiCond126) ?RET_LOW load(1, XDATA, add(CFA_XSP16, literal(-5)))
          CFI (cfiCond126) ?RET_HIGH load(1, XDATA, add(CFA_XSP16, literal(-4)))
          CFI (cfiCond126) ?BRET_EXT load(1, XDATA, add(CFA_XSP16, literal(-3)))
          CFI (cfiCond126) DPL0 load(1, XDATA, add(CFA_XSP16, literal(-2)))
          CFI (cfiCond126) DPH0 load(1, XDATA, add(CFA_XSP16, literal(-1)))
          CFI (cfiCond126) CFA_SP SP+-2
          CFI (cfiCond126) CFA_XSP16 add(XSP16, 24)
          CFI Block cfiCond127 Using cfiCommon0
          CFI (cfiCond127) Function bdb_event_loop
          CFI (cfiCond127) Conditional ??CrossCallReturnLabel_22
          CFI (cfiCond127) R6 load(1, XDATA, add(CFA_XSP16, literal(-16)))
          CFI (cfiCond127) VB load(1, XDATA, add(CFA_XSP16, literal(-15)))
          CFI (cfiCond127) V0 load(1, XDATA, add(CFA_XSP16, literal(-14)))
          CFI (cfiCond127) V1 load(1, XDATA, add(CFA_XSP16, literal(-13)))
          CFI (cfiCond127) V2 load(1, XDATA, add(CFA_XSP16, literal(-12)))
          CFI (cfiCond127) V3 load(1, XDATA, add(CFA_XSP16, literal(-11)))
          CFI (cfiCond127) V4 load(1, XDATA, add(CFA_XSP16, literal(-10)))
          CFI (cfiCond127) V5 load(1, XDATA, add(CFA_XSP16, literal(-9)))
          CFI (cfiCond127) V6 load(1, XDATA, add(CFA_XSP16, literal(-8)))
          CFI (cfiCond127) V7 load(1, XDATA, add(CFA_XSP16, literal(-7)))
          CFI (cfiCond127) R7 load(1, XDATA, add(CFA_XSP16, literal(-6)))
          CFI (cfiCond127) ?RET_LOW load(1, XDATA, add(CFA_XSP16, literal(-5)))
          CFI (cfiCond127) ?RET_HIGH load(1, XDATA, add(CFA_XSP16, literal(-4)))
          CFI (cfiCond127) ?BRET_EXT load(1, XDATA, add(CFA_XSP16, literal(-3)))
          CFI (cfiCond127) DPL0 load(1, XDATA, add(CFA_XSP16, literal(-2)))
          CFI (cfiCond127) DPH0 load(1, XDATA, add(CFA_XSP16, literal(-1)))
          CFI (cfiCond127) CFA_SP SP+-2
          CFI (cfiCond127) CFA_XSP16 add(XSP16, 24)
          CFI Block cfiCond128 Using cfiCommon0
          CFI (cfiCond128) Function bdb_crcInit
          CFI (cfiCond128) Conditional ??CrossCallReturnLabel_23
          CFI (cfiCond128) R6 load(1, XDATA, add(CFA_XSP16, literal(-9)))
          CFI (cfiCond128) VB load(1, XDATA, add(CFA_XSP16, literal(-8)))
          CFI (cfiCond128) V0 load(1, XDATA, add(CFA_XSP16, literal(-7)))
          CFI (cfiCond128) R7 load(1, XDATA, add(CFA_XSP16, literal(-6)))
          CFI (cfiCond128) ?RET_LOW load(1, XDATA, add(CFA_XSP16, literal(-5)))
          CFI (cfiCond128) ?RET_HIGH load(1, XDATA, add(CFA_XSP16, literal(-4)))
          CFI (cfiCond128) ?BRET_EXT load(1, XDATA, add(CFA_XSP16, literal(-3)))
          CFI (cfiCond128) DPL0 load(1, XDATA, add(CFA_XSP16, literal(-2)))
          CFI (cfiCond128) DPH0 load(1, XDATA, add(CFA_XSP16, literal(-1)))
          CFI (cfiCond128) CFA_SP SP+-2
          CFI (cfiCond128) CFA_XSP16 add(XSP16, 9)
          CFI Block cfiPicker129 Using cfiCommon1
          CFI (cfiPicker129) NoFunction
          CFI (cfiPicker129) Picker
        LCALL   ?Subroutine27 & 0xFFFF
??CrossCallReturnLabel_69:
        RET
          CFI EndBlock cfiCond125
          CFI EndBlock cfiCond126
          CFI EndBlock cfiCond127
          CFI EndBlock cfiCond128
          CFI EndBlock cfiPicker129

        RSEG BANKED_CODE:CODE:NOROOT(0)
?Subroutine27:
          CFI Block cfiCond130 Using cfiCommon0
          CFI Function bdb_TCJoiningDeviceFree
          CFI Conditional ??CrossCallReturnLabel_67, ??CrossCallReturnLabel_10
          CFI R6 load(1, XDATA, add(CFA_XSP16, literal(-15)))
          CFI VB load(1, XDATA, add(CFA_XSP16, literal(-14)))
          CFI V0 load(1, XDATA, add(CFA_XSP16, literal(-13)))
          CFI V1 load(1, XDATA, add(CFA_XSP16, literal(-12)))
          CFI V2 load(1, XDATA, add(CFA_XSP16, literal(-11)))
          CFI V3 load(1, XDATA, add(CFA_XSP16, literal(-10)))
          CFI V4 load(1, XDATA, add(CFA_XSP16, literal(-9)))
          CFI V5 load(1, XDATA, add(CFA_XSP16, literal(-8)))
          CFI V6 load(1, XDATA, add(CFA_XSP16, literal(-7)))
          CFI R7 load(1, XDATA, add(CFA_XSP16, literal(-6)))
          CFI ?RET_LOW load(1, XDATA, add(CFA_XSP16, literal(-5)))
          CFI ?RET_HIGH load(1, XDATA, add(CFA_XSP16, literal(-4)))
          CFI ?BRET_EXT load(1, XDATA, add(CFA_XSP16, literal(-3)))
          CFI DPL0 load(1, XDATA, add(CFA_XSP16, literal(-2)))
          CFI DPH0 load(1, XDATA, add(CFA_XSP16, literal(-1)))
          CFI CFA_SP SP+-4
          CFI CFA_XSP16 add(XSP16, 15)
          CFI Block cfiCond131 Using cfiCommon0
          CFI (cfiCond131) Function bdb_TCJoiningDeviceFree
          CFI (cfiCond131) Conditional ??CrossCallReturnLabel_67, ??CrossCallReturnLabel_11
          CFI (cfiCond131) R6 load(1, XDATA, add(CFA_XSP16, literal(-15)))
          CFI (cfiCond131) VB load(1, XDATA, add(CFA_XSP16, literal(-14)))
          CFI (cfiCond131) V0 load(1, XDATA, add(CFA_XSP16, literal(-13)))
          CFI (cfiCond131) V1 load(1, XDATA, add(CFA_XSP16, literal(-12)))
          CFI (cfiCond131) V2 load(1, XDATA, add(CFA_XSP16, literal(-11)))
          CFI (cfiCond131) V3 load(1, XDATA, add(CFA_XSP16, literal(-10)))
          CFI (cfiCond131) V4 load(1, XDATA, add(CFA_XSP16, literal(-9)))
          CFI (cfiCond131) V5 load(1, XDATA, add(CFA_XSP16, literal(-8)))
          CFI (cfiCond131) V6 load(1, XDATA, add(CFA_XSP16, literal(-7)))
          CFI (cfiCond131) R7 load(1, XDATA, add(CFA_XSP16, literal(-6)))
          CFI (cfiCond131) ?RET_LOW load(1, XDATA, add(CFA_XSP16, literal(-5)))
          CFI (cfiCond131) ?RET_HIGH load(1, XDATA, add(CFA_XSP16, literal(-4)))
          CFI (cfiCond131) ?BRET_EXT load(1, XDATA, add(CFA_XSP16, literal(-3)))
          CFI (cfiCond131) DPL0 load(1, XDATA, add(CFA_XSP16, literal(-2)))
          CFI (cfiCond131) DPH0 load(1, XDATA, add(CFA_XSP16, literal(-1)))
          CFI (cfiCond131) CFA_SP SP+-4
          CFI (cfiCond131) CFA_XSP16 add(XSP16, 15)
          CFI Block cfiCond132 Using cfiCommon0
          CFI (cfiCond132) Function bdb_CreateRespondentList
          CFI (cfiCond132) Conditional ??CrossCallReturnLabel_70, ??CrossCallReturnLabel_48
          CFI (cfiCond132) R6 load(1, XDATA, add(CFA_XSP16, literal(-10)))
          CFI (cfiCond132) VB load(1, XDATA, add(CFA_XSP16, literal(-9)))
          CFI (cfiCond132) V0 load(1, XDATA, add(CFA_XSP16, literal(-8)))
          CFI (cfiCond132) V1 load(1, XDATA, add(CFA_XSP16, literal(-7)))
          CFI (cfiCond132) R7 load(1, XDATA, add(CFA_XSP16, literal(-6)))
          CFI (cfiCond132) ?RET_LOW load(1, XDATA, add(CFA_XSP16, literal(-5)))
          CFI (cfiCond132) ?RET_HIGH load(1, XDATA, add(CFA_XSP16, literal(-4)))
          CFI (cfiCond132) ?BRET_EXT load(1, XDATA, add(CFA_XSP16, literal(-3)))
          CFI (cfiCond132) DPL0 load(1, XDATA, add(CFA_XSP16, literal(-2)))
          CFI (cfiCond132) DPH0 load(1, XDATA, add(CFA_XSP16, literal(-1)))
          CFI (cfiCond132) CFA_SP SP+-4
          CFI (cfiCond132) CFA_XSP16 add(XSP16, 10)
          CFI Block cfiCond133 Using cfiCommon0
          CFI (cfiCond133) Function bdb_AddRespondentNode
          CFI (cfiCond133) Conditional ??CrossCallReturnLabel_70, ??CrossCallReturnLabel_49
          CFI (cfiCond133) R6 load(1, XDATA, add(CFA_XSP16, literal(-10)))
          CFI (cfiCond133) VB load(1, XDATA, add(CFA_XSP16, literal(-9)))
          CFI (cfiCond133) V0 load(1, XDATA, add(CFA_XSP16, literal(-8)))
          CFI (cfiCond133) V1 load(1, XDATA, add(CFA_XSP16, literal(-7)))
          CFI (cfiCond133) R7 load(1, XDATA, add(CFA_XSP16, literal(-6)))
          CFI (cfiCond133) ?RET_LOW load(1, XDATA, add(CFA_XSP16, literal(-5)))
          CFI (cfiCond133) ?RET_HIGH load(1, XDATA, add(CFA_XSP16, literal(-4)))
          CFI (cfiCond133) ?BRET_EXT load(1, XDATA, add(CFA_XSP16, literal(-3)))
          CFI (cfiCond133) DPL0 load(1, XDATA, add(CFA_XSP16, literal(-2)))
          CFI (cfiCond133) DPH0 load(1, XDATA, add(CFA_XSP16, literal(-1)))
          CFI (cfiCond133) CFA_SP SP+-4
          CFI (cfiCond133) CFA_XSP16 add(XSP16, 10)
          CFI Block cfiCond134 Using cfiCommon0
          CFI (cfiCond134) Function bdb_zclRespondentListClean
          CFI (cfiCond134) Conditional ??CrossCallReturnLabel_70, ??CrossCallReturnLabel_50
          CFI (cfiCond134) R6 load(1, XDATA, add(CFA_XSP16, literal(-12)))
          CFI (cfiCond134) VB load(1, XDATA, add(CFA_XSP16, literal(-11)))
          CFI (cfiCond134) V0 load(1, XDATA, add(CFA_XSP16, literal(-10)))
          CFI (cfiCond134) V1 load(1, XDATA, add(CFA_XSP16, literal(-9)))
          CFI (cfiCond134) V2 load(1, XDATA, add(CFA_XSP16, literal(-8)))
          CFI (cfiCond134) V3 load(1, XDATA, add(CFA_XSP16, literal(-7)))
          CFI (cfiCond134) R7 load(1, XDATA, add(CFA_XSP16, literal(-6)))
          CFI (cfiCond134) ?RET_LOW load(1, XDATA, add(CFA_XSP16, literal(-5)))
          CFI (cfiCond134) ?RET_HIGH load(1, XDATA, add(CFA_XSP16, literal(-4)))
          CFI (cfiCond134) ?BRET_EXT load(1, XDATA, add(CFA_XSP16, literal(-3)))
          CFI (cfiCond134) DPL0 load(1, XDATA, add(CFA_XSP16, literal(-2)))
          CFI (cfiCond134) DPH0 load(1, XDATA, add(CFA_XSP16, literal(-1)))
          CFI (cfiCond134) CFA_SP SP+-4
          CFI (cfiCond134) CFA_XSP16 add(XSP16, 12)
          CFI Block cfiCond135 Using cfiCommon0
          CFI (cfiCond135) Function bdb_AddRespondentNode
          CFI (cfiCond135) Conditional ??CrossCallReturnLabel_70, ??CrossCallReturnLabel_51
          CFI (cfiCond135) R6 load(1, XDATA, add(CFA_XSP16, literal(-10)))
          CFI (cfiCond135) VB load(1, XDATA, add(CFA_XSP16, literal(-9)))
          CFI (cfiCond135) V0 load(1, XDATA, add(CFA_XSP16, literal(-8)))
          CFI (cfiCond135) V1 load(1, XDATA, add(CFA_XSP16, literal(-7)))
          CFI (cfiCond135) R7 load(1, XDATA, add(CFA_XSP16, literal(-6)))
          CFI (cfiCond135) ?RET_LOW load(1, XDATA, add(CFA_XSP16, literal(-5)))
          CFI (cfiCond135) ?RET_HIGH load(1, XDATA, add(CFA_XSP16, literal(-4)))
          CFI (cfiCond135) ?BRET_EXT load(1, XDATA, add(CFA_XSP16, literal(-3)))
          CFI (cfiCond135) DPL0 load(1, XDATA, add(CFA_XSP16, literal(-2)))
          CFI (cfiCond135) DPH0 load(1, XDATA, add(CFA_XSP16, literal(-1)))
          CFI (cfiCond135) CFA_SP SP+-4
          CFI (cfiCond135) CFA_XSP16 add(XSP16, 10)
          CFI Block cfiCond136 Using cfiCommon0
          CFI (cfiCond136) Function bdb_TCAddJoiningDevice
          CFI (cfiCond136) Conditional ??CrossCallReturnLabel_70, ??CrossCallReturnLabel_66
          CFI (cfiCond136) R6 load(1, XDATA, add(CFA_XSP16, literal(-19)))
          CFI (cfiCond136) VB load(1, XDATA, add(CFA_XSP16, literal(-18)))
          CFI (cfiCond136) V0 load(1, XDATA, add(CFA_XSP16, literal(-17)))
          CFI (cfiCond136) V1 load(1, XDATA, add(CFA_XSP16, literal(-16)))
          CFI (cfiCond136) V2 load(1, XDATA, add(CFA_XSP16, literal(-15)))
          CFI (cfiCond136) V3 load(1, XDATA, add(CFA_XSP16, literal(-14)))
          CFI (cfiCond136) V4 load(1, XDATA, add(CFA_XSP16, literal(-13)))
          CFI (cfiCond136) V5 load(1, XDATA, add(CFA_XSP16, literal(-12)))
          CFI (cfiCond136) V6 load(1, XDATA, add(CFA_XSP16, literal(-11)))
          CFI (cfiCond136) V7 load(1, XDATA, add(CFA_XSP16, literal(-10)))
          CFI (cfiCond136) V8 load(1, XDATA, add(CFA_XSP16, literal(-9)))
          CFI (cfiCond136) V9 load(1, XDATA, add(CFA_XSP16, literal(-8)))
          CFI (cfiCond136) V10 load(1, XDATA, add(CFA_XSP16, literal(-7)))
          CFI (cfiCond136) R7 load(1, XDATA, add(CFA_XSP16, literal(-6)))
          CFI (cfiCond136) ?RET_LOW load(1, XDATA, add(CFA_XSP16, literal(-5)))
          CFI (cfiCond136) ?RET_HIGH load(1, XDATA, add(CFA_XSP16, literal(-4)))
          CFI (cfiCond136) ?BRET_EXT load(1, XDATA, add(CFA_XSP16, literal(-3)))
          CFI (cfiCond136) DPL0 load(1, XDATA, add(CFA_XSP16, literal(-2)))
          CFI (cfiCond136) DPH0 load(1, XDATA, add(CFA_XSP16, literal(-1)))
          CFI (cfiCond136) CFA_SP SP+-4
          CFI (cfiCond136) CFA_XSP16 add(XSP16, 28)
          CFI Block cfiCond137 Using cfiCommon0
          CFI (cfiCond137) Function bdb_ZclIdentifyCmdInd
          CFI (cfiCond137) Conditional ??CrossCallReturnLabel_70, ??CrossCallReturnLabel_52
          CFI (cfiCond137) R6 load(1, XDATA, add(CFA_XSP16, literal(-12)))
          CFI (cfiCond137) VB load(1, XDATA, add(CFA_XSP16, literal(-11)))
          CFI (cfiCond137) V0 load(1, XDATA, add(CFA_XSP16, literal(-10)))
          CFI (cfiCond137) V1 load(1, XDATA, add(CFA_XSP16, literal(-9)))
          CFI (cfiCond137) V2 load(1, XDATA, add(CFA_XSP16, literal(-8)))
          CFI (cfiCond137) V3 load(1, XDATA, add(CFA_XSP16, literal(-7)))
          CFI (cfiCond137) R7 load(1, XDATA, add(CFA_XSP16, literal(-6)))
          CFI (cfiCond137) ?RET_LOW load(1, XDATA, add(CFA_XSP16, literal(-5)))
          CFI (cfiCond137) ?RET_HIGH load(1, XDATA, add(CFA_XSP16, literal(-4)))
          CFI (cfiCond137) ?BRET_EXT load(1, XDATA, add(CFA_XSP16, literal(-3)))
          CFI (cfiCond137) DPL0 load(1, XDATA, add(CFA_XSP16, literal(-2)))
          CFI (cfiCond137) DPH0 load(1, XDATA, add(CFA_XSP16, literal(-1)))
          CFI (cfiCond137) CFA_SP SP+-4
          CFI (cfiCond137) CFA_XSP16 add(XSP16, 20)
          CFI Block cfiCond138 Using cfiCommon0
          CFI (cfiCond138) Function bdb_TCAddJoiningDevice
          CFI (cfiCond138) Conditional ??CrossCallReturnLabel_70, ??CrossCallReturnLabel_53
          CFI (cfiCond138) R6 load(1, XDATA, add(CFA_XSP16, literal(-19)))
          CFI (cfiCond138) VB load(1, XDATA, add(CFA_XSP16, literal(-18)))
          CFI (cfiCond138) V0 load(1, XDATA, add(CFA_XSP16, literal(-17)))
          CFI (cfiCond138) V1 load(1, XDATA, add(CFA_XSP16, literal(-16)))
          CFI (cfiCond138) V2 load(1, XDATA, add(CFA_XSP16, literal(-15)))
          CFI (cfiCond138) V3 load(1, XDATA, add(CFA_XSP16, literal(-14)))
          CFI (cfiCond138) V4 load(1, XDATA, add(CFA_XSP16, literal(-13)))
          CFI (cfiCond138) V5 load(1, XDATA, add(CFA_XSP16, literal(-12)))
          CFI (cfiCond138) V6 load(1, XDATA, add(CFA_XSP16, literal(-11)))
          CFI (cfiCond138) V7 load(1, XDATA, add(CFA_XSP16, literal(-10)))
          CFI (cfiCond138) V8 load(1, XDATA, add(CFA_XSP16, literal(-9)))
          CFI (cfiCond138) V9 load(1, XDATA, add(CFA_XSP16, literal(-8)))
          CFI (cfiCond138) V10 load(1, XDATA, add(CFA_XSP16, literal(-7)))
          CFI (cfiCond138) R7 load(1, XDATA, add(CFA_XSP16, literal(-6)))
          CFI (cfiCond138) ?RET_LOW load(1, XDATA, add(CFA_XSP16, literal(-5)))
          CFI (cfiCond138) ?RET_HIGH load(1, XDATA, add(CFA_XSP16, literal(-4)))
          CFI (cfiCond138) ?BRET_EXT load(1, XDATA, add(CFA_XSP16, literal(-3)))
          CFI (cfiCond138) DPL0 load(1, XDATA, add(CFA_XSP16, literal(-2)))
          CFI (cfiCond138) DPH0 load(1, XDATA, add(CFA_XSP16, literal(-1)))
          CFI (cfiCond138) CFA_SP SP+-4
          CFI (cfiCond138) CFA_XSP16 add(XSP16, 28)
          CFI Block cfiCond139 Using cfiCommon0
          CFI (cfiCond139) Function bdb_TCAddJoiningDevice
          CFI (cfiCond139) Conditional ??CrossCallReturnLabel_70, ??CrossCallReturnLabel_54
          CFI (cfiCond139) R6 load(1, XDATA, add(CFA_XSP16, literal(-19)))
          CFI (cfiCond139) VB load(1, XDATA, add(CFA_XSP16, literal(-18)))
          CFI (cfiCond139) V0 load(1, XDATA, add(CFA_XSP16, literal(-17)))
          CFI (cfiCond139) V1 load(1, XDATA, add(CFA_XSP16, literal(-16)))
          CFI (cfiCond139) V2 load(1, XDATA, add(CFA_XSP16, literal(-15)))
          CFI (cfiCond139) V3 load(1, XDATA, add(CFA_XSP16, literal(-14)))
          CFI (cfiCond139) V4 load(1, XDATA, add(CFA_XSP16, literal(-13)))
          CFI (cfiCond139) V5 load(1, XDATA, add(CFA_XSP16, literal(-12)))
          CFI (cfiCond139) V6 load(1, XDATA, add(CFA_XSP16, literal(-11)))
          CFI (cfiCond139) V7 load(1, XDATA, add(CFA_XSP16, literal(-10)))
          CFI (cfiCond139) V8 load(1, XDATA, add(CFA_XSP16, literal(-9)))
          CFI (cfiCond139) V9 load(1, XDATA, add(CFA_XSP16, literal(-8)))
          CFI (cfiCond139) V10 load(1, XDATA, add(CFA_XSP16, literal(-7)))
          CFI (cfiCond139) R7 load(1, XDATA, add(CFA_XSP16, literal(-6)))
          CFI (cfiCond139) ?RET_LOW load(1, XDATA, add(CFA_XSP16, literal(-5)))
          CFI (cfiCond139) ?RET_HIGH load(1, XDATA, add(CFA_XSP16, literal(-4)))
          CFI (cfiCond139) ?BRET_EXT load(1, XDATA, add(CFA_XSP16, literal(-3)))
          CFI (cfiCond139) DPL0 load(1, XDATA, add(CFA_XSP16, literal(-2)))
          CFI (cfiCond139) DPH0 load(1, XDATA, add(CFA_XSP16, literal(-1)))
          CFI (cfiCond139) CFA_SP SP+-4
          CFI (cfiCond139) CFA_XSP16 add(XSP16, 28)
          CFI Block cfiCond140 Using cfiCommon0
          CFI (cfiCond140) Function bdb_TCAddJoiningDevice
          CFI (cfiCond140) Conditional ??CrossCallReturnLabel_70, ??CrossCallReturnLabel_55
          CFI (cfiCond140) R6 load(1, XDATA, add(CFA_XSP16, literal(-19)))
          CFI (cfiCond140) VB load(1, XDATA, add(CFA_XSP16, literal(-18)))
          CFI (cfiCond140) V0 load(1, XDATA, add(CFA_XSP16, literal(-17)))
          CFI (cfiCond140) V1 load(1, XDATA, add(CFA_XSP16, literal(-16)))
          CFI (cfiCond140) V2 load(1, XDATA, add(CFA_XSP16, literal(-15)))
          CFI (cfiCond140) V3 load(1, XDATA, add(CFA_XSP16, literal(-14)))
          CFI (cfiCond140) V4 load(1, XDATA, add(CFA_XSP16, literal(-13)))
          CFI (cfiCond140) V5 load(1, XDATA, add(CFA_XSP16, literal(-12)))
          CFI (cfiCond140) V6 load(1, XDATA, add(CFA_XSP16, literal(-11)))
          CFI (cfiCond140) V7 load(1, XDATA, add(CFA_XSP16, literal(-10)))
          CFI (cfiCond140) V8 load(1, XDATA, add(CFA_XSP16, literal(-9)))
          CFI (cfiCond140) V9 load(1, XDATA, add(CFA_XSP16, literal(-8)))
          CFI (cfiCond140) V10 load(1, XDATA, add(CFA_XSP16, literal(-7)))
          CFI (cfiCond140) R7 load(1, XDATA, add(CFA_XSP16, literal(-6)))
          CFI (cfiCond140) ?RET_LOW load(1, XDATA, add(CFA_XSP16, literal(-5)))
          CFI (cfiCond140) ?RET_HIGH load(1, XDATA, add(CFA_XSP16, literal(-4)))
          CFI (cfiCond140) ?BRET_EXT load(1, XDATA, add(CFA_XSP16, literal(-3)))
          CFI (cfiCond140) DPL0 load(1, XDATA, add(CFA_XSP16, literal(-2)))
          CFI (cfiCond140) DPH0 load(1, XDATA, add(CFA_XSP16, literal(-1)))
          CFI (cfiCond140) CFA_SP SP+-4
          CFI (cfiCond140) CFA_XSP16 add(XSP16, 28)
          CFI Block cfiCond141 Using cfiCommon0
          CFI (cfiCond141) Function bdb_TCProcessJoiningList
          CFI (cfiCond141) Conditional ??CrossCallReturnLabel_70, ??CrossCallReturnLabel_56
          CFI (cfiCond141) R6 load(1, XDATA, add(CFA_XSP16, literal(-16)))
          CFI (cfiCond141) VB load(1, XDATA, add(CFA_XSP16, literal(-15)))
          CFI (cfiCond141) V0 load(1, XDATA, add(CFA_XSP16, literal(-14)))
          CFI (cfiCond141) V1 load(1, XDATA, add(CFA_XSP16, literal(-13)))
          CFI (cfiCond141) V2 load(1, XDATA, add(CFA_XSP16, literal(-12)))
          CFI (cfiCond141) V3 load(1, XDATA, add(CFA_XSP16, literal(-11)))
          CFI (cfiCond141) V4 load(1, XDATA, add(CFA_XSP16, literal(-10)))
          CFI (cfiCond141) V5 load(1, XDATA, add(CFA_XSP16, literal(-9)))
          CFI (cfiCond141) V6 load(1, XDATA, add(CFA_XSP16, literal(-8)))
          CFI (cfiCond141) V7 load(1, XDATA, add(CFA_XSP16, literal(-7)))
          CFI (cfiCond141) R7 load(1, XDATA, add(CFA_XSP16, literal(-6)))
          CFI (cfiCond141) ?RET_LOW load(1, XDATA, add(CFA_XSP16, literal(-5)))
          CFI (cfiCond141) ?RET_HIGH load(1, XDATA, add(CFA_XSP16, literal(-4)))
          CFI (cfiCond141) ?BRET_EXT load(1, XDATA, add(CFA_XSP16, literal(-3)))
          CFI (cfiCond141) DPL0 load(1, XDATA, add(CFA_XSP16, literal(-2)))
          CFI (cfiCond141) DPH0 load(1, XDATA, add(CFA_XSP16, literal(-1)))
          CFI (cfiCond141) CFA_SP SP+-4
          CFI (cfiCond141) CFA_XSP16 add(XSP16, 58)
          CFI Block cfiCond142 Using cfiCommon0
          CFI (cfiCond142) Function bdb_TCProcessJoiningList
          CFI (cfiCond142) Conditional ??CrossCallReturnLabel_70, ??CrossCallReturnLabel_57
          CFI (cfiCond142) R6 load(1, XDATA, add(CFA_XSP16, literal(-16)))
          CFI (cfiCond142) VB load(1, XDATA, add(CFA_XSP16, literal(-15)))
          CFI (cfiCond142) V0 load(1, XDATA, add(CFA_XSP16, literal(-14)))
          CFI (cfiCond142) V1 load(1, XDATA, add(CFA_XSP16, literal(-13)))
          CFI (cfiCond142) V2 load(1, XDATA, add(CFA_XSP16, literal(-12)))
          CFI (cfiCond142) V3 load(1, XDATA, add(CFA_XSP16, literal(-11)))
          CFI (cfiCond142) V4 load(1, XDATA, add(CFA_XSP16, literal(-10)))
          CFI (cfiCond142) V5 load(1, XDATA, add(CFA_XSP16, literal(-9)))
          CFI (cfiCond142) V6 load(1, XDATA, add(CFA_XSP16, literal(-8)))
          CFI (cfiCond142) V7 load(1, XDATA, add(CFA_XSP16, literal(-7)))
          CFI (cfiCond142) R7 load(1, XDATA, add(CFA_XSP16, literal(-6)))
          CFI (cfiCond142) ?RET_LOW load(1, XDATA, add(CFA_XSP16, literal(-5)))
          CFI (cfiCond142) ?RET_HIGH load(1, XDATA, add(CFA_XSP16, literal(-4)))
          CFI (cfiCond142) ?BRET_EXT load(1, XDATA, add(CFA_XSP16, literal(-3)))
          CFI (cfiCond142) DPL0 load(1, XDATA, add(CFA_XSP16, literal(-2)))
          CFI (cfiCond142) DPH0 load(1, XDATA, add(CFA_XSP16, literal(-1)))
          CFI (cfiCond142) CFA_SP SP+-4
          CFI (cfiCond142) CFA_XSP16 add(XSP16, 58)
          CFI Block cfiCond143 Using cfiCommon0
          CFI (cfiCond143) Function bdb_TCProcessJoiningList
          CFI (cfiCond143) Conditional ??CrossCallReturnLabel_70, ??CrossCallReturnLabel_58
          CFI (cfiCond143) R6 load(1, XDATA, add(CFA_XSP16, literal(-16)))
          CFI (cfiCond143) VB load(1, XDATA, add(CFA_XSP16, literal(-15)))
          CFI (cfiCond143) V0 load(1, XDATA, add(CFA_XSP16, literal(-14)))
          CFI (cfiCond143) V1 load(1, XDATA, add(CFA_XSP16, literal(-13)))
          CFI (cfiCond143) V2 load(1, XDATA, add(CFA_XSP16, literal(-12)))
          CFI (cfiCond143) V3 load(1, XDATA, add(CFA_XSP16, literal(-11)))
          CFI (cfiCond143) V4 load(1, XDATA, add(CFA_XSP16, literal(-10)))
          CFI (cfiCond143) V5 load(1, XDATA, add(CFA_XSP16, literal(-9)))
          CFI (cfiCond143) V6 load(1, XDATA, add(CFA_XSP16, literal(-8)))
          CFI (cfiCond143) V7 load(1, XDATA, add(CFA_XSP16, literal(-7)))
          CFI (cfiCond143) R7 load(1, XDATA, add(CFA_XSP16, literal(-6)))
          CFI (cfiCond143) ?RET_LOW load(1, XDATA, add(CFA_XSP16, literal(-5)))
          CFI (cfiCond143) ?RET_HIGH load(1, XDATA, add(CFA_XSP16, literal(-4)))
          CFI (cfiCond143) ?BRET_EXT load(1, XDATA, add(CFA_XSP16, literal(-3)))
          CFI (cfiCond143) DPL0 load(1, XDATA, add(CFA_XSP16, literal(-2)))
          CFI (cfiCond143) DPH0 load(1, XDATA, add(CFA_XSP16, literal(-1)))
          CFI (cfiCond143) CFA_SP SP+-4
          CFI (cfiCond143) CFA_XSP16 add(XSP16, 58)
          CFI Block cfiCond144 Using cfiCommon0
          CFI (cfiCond144) Function bdb_TCjoiningDeviceComplete
          CFI (cfiCond144) Conditional ??CrossCallReturnLabel_70, ??CrossCallReturnLabel_59
          CFI (cfiCond144) R6 load(1, XDATA, add(CFA_XSP16, literal(-19)))
          CFI (cfiCond144) VB load(1, XDATA, add(CFA_XSP16, literal(-18)))
          CFI (cfiCond144) V0 load(1, XDATA, add(CFA_XSP16, literal(-17)))
          CFI (cfiCond144) V1 load(1, XDATA, add(CFA_XSP16, literal(-16)))
          CFI (cfiCond144) V2 load(1, XDATA, add(CFA_XSP16, literal(-15)))
          CFI (cfiCond144) V3 load(1, XDATA, add(CFA_XSP16, literal(-14)))
          CFI (cfiCond144) V4 load(1, XDATA, add(CFA_XSP16, literal(-13)))
          CFI (cfiCond144) V5 load(1, XDATA, add(CFA_XSP16, literal(-12)))
          CFI (cfiCond144) V6 load(1, XDATA, add(CFA_XSP16, literal(-11)))
          CFI (cfiCond144) V7 load(1, XDATA, add(CFA_XSP16, literal(-10)))
          CFI (cfiCond144) V8 load(1, XDATA, add(CFA_XSP16, literal(-9)))
          CFI (cfiCond144) V9 load(1, XDATA, add(CFA_XSP16, literal(-8)))
          CFI (cfiCond144) V10 load(1, XDATA, add(CFA_XSP16, literal(-7)))
          CFI (cfiCond144) R7 load(1, XDATA, add(CFA_XSP16, literal(-6)))
          CFI (cfiCond144) ?RET_LOW load(1, XDATA, add(CFA_XSP16, literal(-5)))
          CFI (cfiCond144) ?RET_HIGH load(1, XDATA, add(CFA_XSP16, literal(-4)))
          CFI (cfiCond144) ?BRET_EXT load(1, XDATA, add(CFA_XSP16, literal(-3)))
          CFI (cfiCond144) DPL0 load(1, XDATA, add(CFA_XSP16, literal(-2)))
          CFI (cfiCond144) DPH0 load(1, XDATA, add(CFA_XSP16, literal(-1)))
          CFI (cfiCond144) CFA_SP SP+-4
          CFI (cfiCond144) CFA_XSP16 add(XSP16, 28)
          CFI Block cfiCond145 Using cfiCommon0
          CFI (cfiCond145) Function bdb_TCjoiningDeviceComplete
          CFI (cfiCond145) Conditional ??CrossCallReturnLabel_70, ??CrossCallReturnLabel_60
          CFI (cfiCond145) R6 load(1, XDATA, add(CFA_XSP16, literal(-19)))
          CFI (cfiCond145) VB load(1, XDATA, add(CFA_XSP16, literal(-18)))
          CFI (cfiCond145) V0 load(1, XDATA, add(CFA_XSP16, literal(-17)))
          CFI (cfiCond145) V1 load(1, XDATA, add(CFA_XSP16, literal(-16)))
          CFI (cfiCond145) V2 load(1, XDATA, add(CFA_XSP16, literal(-15)))
          CFI (cfiCond145) V3 load(1, XDATA, add(CFA_XSP16, literal(-14)))
          CFI (cfiCond145) V4 load(1, XDATA, add(CFA_XSP16, literal(-13)))
          CFI (cfiCond145) V5 load(1, XDATA, add(CFA_XSP16, literal(-12)))
          CFI (cfiCond145) V6 load(1, XDATA, add(CFA_XSP16, literal(-11)))
          CFI (cfiCond145) V7 load(1, XDATA, add(CFA_XSP16, literal(-10)))
          CFI (cfiCond145) V8 load(1, XDATA, add(CFA_XSP16, literal(-9)))
          CFI (cfiCond145) V9 load(1, XDATA, add(CFA_XSP16, literal(-8)))
          CFI (cfiCond145) V10 load(1, XDATA, add(CFA_XSP16, literal(-7)))
          CFI (cfiCond145) R7 load(1, XDATA, add(CFA_XSP16, literal(-6)))
          CFI (cfiCond145) ?RET_LOW load(1, XDATA, add(CFA_XSP16, literal(-5)))
          CFI (cfiCond145) ?RET_HIGH load(1, XDATA, add(CFA_XSP16, literal(-4)))
          CFI (cfiCond145) ?BRET_EXT load(1, XDATA, add(CFA_XSP16, literal(-3)))
          CFI (cfiCond145) DPL0 load(1, XDATA, add(CFA_XSP16, literal(-2)))
          CFI (cfiCond145) DPH0 load(1, XDATA, add(CFA_XSP16, literal(-1)))
          CFI (cfiCond145) CFA_SP SP+-4
          CFI (cfiCond145) CFA_XSP16 add(XSP16, 28)
          CFI Block cfiCond146 Using cfiCommon0
          CFI (cfiCond146) Function bdb_TCjoiningDeviceComplete
          CFI (cfiCond146) Conditional ??CrossCallReturnLabel_70, ??CrossCallReturnLabel_61
          CFI (cfiCond146) R6 load(1, XDATA, add(CFA_XSP16, literal(-19)))
          CFI (cfiCond146) VB load(1, XDATA, add(CFA_XSP16, literal(-18)))
          CFI (cfiCond146) V0 load(1, XDATA, add(CFA_XSP16, literal(-17)))
          CFI (cfiCond146) V1 load(1, XDATA, add(CFA_XSP16, literal(-16)))
          CFI (cfiCond146) V2 load(1, XDATA, add(CFA_XSP16, literal(-15)))
          CFI (cfiCond146) V3 load(1, XDATA, add(CFA_XSP16, literal(-14)))
          CFI (cfiCond146) V4 load(1, XDATA, add(CFA_XSP16, literal(-13)))
          CFI (cfiCond146) V5 load(1, XDATA, add(CFA_XSP16, literal(-12)))
          CFI (cfiCond146) V6 load(1, XDATA, add(CFA_XSP16, literal(-11)))
          CFI (cfiCond146) V7 load(1, XDATA, add(CFA_XSP16, literal(-10)))
          CFI (cfiCond146) V8 load(1, XDATA, add(CFA_XSP16, literal(-9)))
          CFI (cfiCond146) V9 load(1, XDATA, add(CFA_XSP16, literal(-8)))
          CFI (cfiCond146) V10 load(1, XDATA, add(CFA_XSP16, literal(-7)))
          CFI (cfiCond146) R7 load(1, XDATA, add(CFA_XSP16, literal(-6)))
          CFI (cfiCond146) ?RET_LOW load(1, XDATA, add(CFA_XSP16, literal(-5)))
          CFI (cfiCond146) ?RET_HIGH load(1, XDATA, add(CFA_XSP16, literal(-4)))
          CFI (cfiCond146) ?BRET_EXT load(1, XDATA, add(CFA_XSP16, literal(-3)))
          CFI (cfiCond146) DPL0 load(1, XDATA, add(CFA_XSP16, literal(-2)))
          CFI (cfiCond146) DPH0 load(1, XDATA, add(CFA_XSP16, literal(-1)))
          CFI (cfiCond146) CFA_SP SP+-4
          CFI (cfiCond146) CFA_XSP16 add(XSP16, 28)
          CFI Block cfiCond147 Using cfiCommon0
          CFI (cfiCond147) Function bdb_reportCommissioningState
          CFI (cfiCond147) Conditional ??CrossCallReturnLabel_70, ??CrossCallReturnLabel_62
          CFI (cfiCond147) R6 load(1, XDATA, add(CFA_XSP16, literal(-10)))
          CFI (cfiCond147) VB load(1, XDATA, add(CFA_XSP16, literal(-9)))
          CFI (cfiCond147) V0 load(1, XDATA, add(CFA_XSP16, literal(-8)))
          CFI (cfiCond147) V1 load(1, XDATA, add(CFA_XSP16, literal(-7)))
          CFI (cfiCond147) R7 load(1, XDATA, add(CFA_XSP16, literal(-6)))
          CFI (cfiCond147) ?RET_LOW load(1, XDATA, add(CFA_XSP16, literal(-5)))
          CFI (cfiCond147) ?RET_HIGH load(1, XDATA, add(CFA_XSP16, literal(-4)))
          CFI (cfiCond147) ?BRET_EXT load(1, XDATA, add(CFA_XSP16, literal(-3)))
          CFI (cfiCond147) DPL0 load(1, XDATA, add(CFA_XSP16, literal(-2)))
          CFI (cfiCond147) DPH0 load(1, XDATA, add(CFA_XSP16, literal(-1)))
          CFI (cfiCond147) CFA_SP SP+-4
          CFI (cfiCond147) CFA_XSP16 add(XSP16, 14)
          CFI Block cfiCond148 Using cfiCommon0
          CFI (cfiCond148) Function bdb_startResumeCommissioningProcess
          CFI (cfiCond148) Conditional ??CrossCallReturnLabel_70, ??CrossCallReturnLabel_63
          CFI (cfiCond148) R6 load(1, XDATA, add(CFA_XSP16, literal(-10)))
          CFI (cfiCond148) VB load(1, XDATA, add(CFA_XSP16, literal(-9)))
          CFI (cfiCond148) V0 load(1, XDATA, add(CFA_XSP16, literal(-8)))
          CFI (cfiCond148) V1 load(1, XDATA, add(CFA_XSP16, literal(-7)))
          CFI (cfiCond148) R7 load(1, XDATA, add(CFA_XSP16, literal(-6)))
          CFI (cfiCond148) ?RET_LOW load(1, XDATA, add(CFA_XSP16, literal(-5)))
          CFI (cfiCond148) ?RET_HIGH load(1, XDATA, add(CFA_XSP16, literal(-4)))
          CFI (cfiCond148) ?BRET_EXT load(1, XDATA, add(CFA_XSP16, literal(-3)))
          CFI (cfiCond148) DPL0 load(1, XDATA, add(CFA_XSP16, literal(-2)))
          CFI (cfiCond148) DPH0 load(1, XDATA, add(CFA_XSP16, literal(-1)))
          CFI (cfiCond148) CFA_SP SP+-4
          CFI (cfiCond148) CFA_XSP16 add(XSP16, 21)
          CFI Block cfiCond149 Using cfiCommon0
          CFI (cfiCond149) Function bdb_event_loop
          CFI (cfiCond149) Conditional ??CrossCallReturnLabel_70, ??CrossCallReturnLabel_64
          CFI (cfiCond149) R6 load(1, XDATA, add(CFA_XSP16, literal(-16)))
          CFI (cfiCond149) VB load(1, XDATA, add(CFA_XSP16, literal(-15)))
          CFI (cfiCond149) V0 load(1, XDATA, add(CFA_XSP16, literal(-14)))
          CFI (cfiCond149) V1 load(1, XDATA, add(CFA_XSP16, literal(-13)))
          CFI (cfiCond149) V2 load(1, XDATA, add(CFA_XSP16, literal(-12)))
          CFI (cfiCond149) V3 load(1, XDATA, add(CFA_XSP16, literal(-11)))
          CFI (cfiCond149) V4 load(1, XDATA, add(CFA_XSP16, literal(-10)))
          CFI (cfiCond149) V5 load(1, XDATA, add(CFA_XSP16, literal(-9)))
          CFI (cfiCond149) V6 load(1, XDATA, add(CFA_XSP16, literal(-8)))
          CFI (cfiCond149) V7 load(1, XDATA, add(CFA_XSP16, literal(-7)))
          CFI (cfiCond149) R7 load(1, XDATA, add(CFA_XSP16, literal(-6)))
          CFI (cfiCond149) ?RET_LOW load(1, XDATA, add(CFA_XSP16, literal(-5)))
          CFI (cfiCond149) ?RET_HIGH load(1, XDATA, add(CFA_XSP16, literal(-4)))
          CFI (cfiCond149) ?BRET_EXT load(1, XDATA, add(CFA_XSP16, literal(-3)))
          CFI (cfiCond149) DPL0 load(1, XDATA, add(CFA_XSP16, literal(-2)))
          CFI (cfiCond149) DPH0 load(1, XDATA, add(CFA_XSP16, literal(-1)))
          CFI (cfiCond149) CFA_SP SP+-4
          CFI (cfiCond149) CFA_XSP16 add(XSP16, 24)
          CFI Block cfiCond150 Using cfiCommon0
          CFI (cfiCond150) Function bdb_event_loop
          CFI (cfiCond150) Conditional ??CrossCallReturnLabel_70, ??CrossCallReturnLabel_65
          CFI (cfiCond150) R6 load(1, XDATA, add(CFA_XSP16, literal(-16)))
          CFI (cfiCond150) VB load(1, XDATA, add(CFA_XSP16, literal(-15)))
          CFI (cfiCond150) V0 load(1, XDATA, add(CFA_XSP16, literal(-14)))
          CFI (cfiCond150) V1 load(1, XDATA, add(CFA_XSP16, literal(-13)))
          CFI (cfiCond150) V2 load(1, XDATA, add(CFA_XSP16, literal(-12)))
          CFI (cfiCond150) V3 load(1, XDATA, add(CFA_XSP16, literal(-11)))
          CFI (cfiCond150) V4 load(1, XDATA, add(CFA_XSP16, literal(-10)))
          CFI (cfiCond150) V5 load(1, XDATA, add(CFA_XSP16, literal(-9)))
          CFI (cfiCond150) V6 load(1, XDATA, add(CFA_XSP16, literal(-8)))
          CFI (cfiCond150) V7 load(1, XDATA, add(CFA_XSP16, literal(-7)))
          CFI (cfiCond150) R7 load(1, XDATA, add(CFA_XSP16, literal(-6)))
          CFI (cfiCond150) ?RET_LOW load(1, XDATA, add(CFA_XSP16, literal(-5)))
          CFI (cfiCond150) ?RET_HIGH load(1, XDATA, add(CFA_XSP16, literal(-4)))
          CFI (cfiCond150) ?BRET_EXT load(1, XDATA, add(CFA_XSP16, literal(-3)))
          CFI (cfiCond150) DPL0 load(1, XDATA, add(CFA_XSP16, literal(-2)))
          CFI (cfiCond150) DPH0 load(1, XDATA, add(CFA_XSP16, literal(-1)))
          CFI (cfiCond150) CFA_SP SP+-4
          CFI (cfiCond150) CFA_XSP16 add(XSP16, 24)
          CFI Block cfiCond151 Using cfiCommon0
          CFI (cfiCond151) Function bdb_ZclIdentifyCmdInd
          CFI (cfiCond151) Conditional ??CrossCallReturnLabel_69, ??CrossCallReturnLabel_20
          CFI (cfiCond151) R6 load(1, XDATA, add(CFA_XSP16, literal(-12)))
          CFI (cfiCond151) VB load(1, XDATA, add(CFA_XSP16, literal(-11)))
          CFI (cfiCond151) V0 load(1, XDATA, add(CFA_XSP16, literal(-10)))
          CFI (cfiCond151) V1 load(1, XDATA, add(CFA_XSP16, literal(-9)))
          CFI (cfiCond151) V2 load(1, XDATA, add(CFA_XSP16, literal(-8)))
          CFI (cfiCond151) V3 load(1, XDATA, add(CFA_XSP16, literal(-7)))
          CFI (cfiCond151) R7 load(1, XDATA, add(CFA_XSP16, literal(-6)))
          CFI (cfiCond151) ?RET_LOW load(1, XDATA, add(CFA_XSP16, literal(-5)))
          CFI (cfiCond151) ?RET_HIGH load(1, XDATA, add(CFA_XSP16, literal(-4)))
          CFI (cfiCond151) ?BRET_EXT load(1, XDATA, add(CFA_XSP16, literal(-3)))
          CFI (cfiCond151) DPL0 load(1, XDATA, add(CFA_XSP16, literal(-2)))
          CFI (cfiCond151) DPH0 load(1, XDATA, add(CFA_XSP16, literal(-1)))
          CFI (cfiCond151) CFA_SP SP+-4
          CFI (cfiCond151) CFA_XSP16 add(XSP16, 20)
          CFI Block cfiCond152 Using cfiCommon0
          CFI (cfiCond152) Function bdb_event_loop
          CFI (cfiCond152) Conditional ??CrossCallReturnLabel_69, ??CrossCallReturnLabel_21
          CFI (cfiCond152) R6 load(1, XDATA, add(CFA_XSP16, literal(-16)))
          CFI (cfiCond152) VB load(1, XDATA, add(CFA_XSP16, literal(-15)))
          CFI (cfiCond152) V0 load(1, XDATA, add(CFA_XSP16, literal(-14)))
          CFI (cfiCond152) V1 load(1, XDATA, add(CFA_XSP16, literal(-13)))
          CFI (cfiCond152) V2 load(1, XDATA, add(CFA_XSP16, literal(-12)))
          CFI (cfiCond152) V3 load(1, XDATA, add(CFA_XSP16, literal(-11)))
          CFI (cfiCond152) V4 load(1, XDATA, add(CFA_XSP16, literal(-10)))
          CFI (cfiCond152) V5 load(1, XDATA, add(CFA_XSP16, literal(-9)))
          CFI (cfiCond152) V6 load(1, XDATA, add(CFA_XSP16, literal(-8)))
          CFI (cfiCond152) V7 load(1, XDATA, add(CFA_XSP16, literal(-7)))
          CFI (cfiCond152) R7 load(1, XDATA, add(CFA_XSP16, literal(-6)))
          CFI (cfiCond152) ?RET_LOW load(1, XDATA, add(CFA_XSP16, literal(-5)))
          CFI (cfiCond152) ?RET_HIGH load(1, XDATA, add(CFA_XSP16, literal(-4)))
          CFI (cfiCond152) ?BRET_EXT load(1, XDATA, add(CFA_XSP16, literal(-3)))
          CFI (cfiCond152) DPL0 load(1, XDATA, add(CFA_XSP16, literal(-2)))
          CFI (cfiCond152) DPH0 load(1, XDATA, add(CFA_XSP16, literal(-1)))
          CFI (cfiCond152) CFA_SP SP+-4
          CFI (cfiCond152) CFA_XSP16 add(XSP16, 24)
          CFI Block cfiCond153 Using cfiCommon0
          CFI (cfiCond153) Function bdb_event_loop
          CFI (cfiCond153) Conditional ??CrossCallReturnLabel_69, ??CrossCallReturnLabel_22
          CFI (cfiCond153) R6 load(1, XDATA, add(CFA_XSP16, literal(-16)))
          CFI (cfiCond153) VB load(1, XDATA, add(CFA_XSP16, literal(-15)))
          CFI (cfiCond153) V0 load(1, XDATA, add(CFA_XSP16, literal(-14)))
          CFI (cfiCond153) V1 load(1, XDATA, add(CFA_XSP16, literal(-13)))
          CFI (cfiCond153) V2 load(1, XDATA, add(CFA_XSP16, literal(-12)))
          CFI (cfiCond153) V3 load(1, XDATA, add(CFA_XSP16, literal(-11)))
          CFI (cfiCond153) V4 load(1, XDATA, add(CFA_XSP16, literal(-10)))
          CFI (cfiCond153) V5 load(1, XDATA, add(CFA_XSP16, literal(-9)))
          CFI (cfiCond153) V6 load(1, XDATA, add(CFA_XSP16, literal(-8)))
          CFI (cfiCond153) V7 load(1, XDATA, add(CFA_XSP16, literal(-7)))
          CFI (cfiCond153) R7 load(1, XDATA, add(CFA_XSP16, literal(-6)))
          CFI (cfiCond153) ?RET_LOW load(1, XDATA, add(CFA_XSP16, literal(-5)))
          CFI (cfiCond153) ?RET_HIGH load(1, XDATA, add(CFA_XSP16, literal(-4)))
          CFI (cfiCond153) ?BRET_EXT load(1, XDATA, add(CFA_XSP16, literal(-3)))
          CFI (cfiCond153) DPL0 load(1, XDATA, add(CFA_XSP16, literal(-2)))
          CFI (cfiCond153) DPH0 load(1, XDATA, add(CFA_XSP16, literal(-1)))
          CFI (cfiCond153) CFA_SP SP+-4
          CFI (cfiCond153) CFA_XSP16 add(XSP16, 24)
          CFI Block cfiCond154 Using cfiCommon0
          CFI (cfiCond154) Function bdb_crcInit
          CFI (cfiCond154) Conditional ??CrossCallReturnLabel_69, ??CrossCallReturnLabel_23
          CFI (cfiCond154) R6 load(1, XDATA, add(CFA_XSP16, literal(-9)))
          CFI (cfiCond154) VB load(1, XDATA, add(CFA_XSP16, literal(-8)))
          CFI (cfiCond154) V0 load(1, XDATA, add(CFA_XSP16, literal(-7)))
          CFI (cfiCond154) R7 load(1, XDATA, add(CFA_XSP16, literal(-6)))
          CFI (cfiCond154) ?RET_LOW load(1, XDATA, add(CFA_XSP16, literal(-5)))
          CFI (cfiCond154) ?RET_HIGH load(1, XDATA, add(CFA_XSP16, literal(-4)))
          CFI (cfiCond154) ?BRET_EXT load(1, XDATA, add(CFA_XSP16, literal(-3)))
          CFI (cfiCond154) DPL0 load(1, XDATA, add(CFA_XSP16, literal(-2)))
          CFI (cfiCond154) DPH0 load(1, XDATA, add(CFA_XSP16, literal(-1)))
          CFI (cfiCond154) CFA_SP SP+-4
          CFI (cfiCond154) CFA_XSP16 add(XSP16, 9)
          CFI Block cfiCond155 Using cfiCommon0
          CFI (cfiCond155) Function bdb_startResumeCommissioningProcess
          CFI (cfiCond155) Conditional ??CrossCallReturnLabel_68, ??CrossCallReturnLabel_18
          CFI (cfiCond155) R6 load(1, XDATA, add(CFA_XSP16, literal(-10)))
          CFI (cfiCond155) VB load(1, XDATA, add(CFA_XSP16, literal(-9)))
          CFI (cfiCond155) V0 load(1, XDATA, add(CFA_XSP16, literal(-8)))
          CFI (cfiCond155) V1 load(1, XDATA, add(CFA_XSP16, literal(-7)))
          CFI (cfiCond155) R7 load(1, XDATA, add(CFA_XSP16, literal(-6)))
          CFI (cfiCond155) ?RET_LOW load(1, XDATA, add(CFA_XSP16, literal(-5)))
          CFI (cfiCond155) ?RET_HIGH load(1, XDATA, add(CFA_XSP16, literal(-4)))
          CFI (cfiCond155) ?BRET_EXT load(1, XDATA, add(CFA_XSP16, literal(-3)))
          CFI (cfiCond155) DPL0 load(1, XDATA, add(CFA_XSP16, literal(-2)))
          CFI (cfiCond155) DPH0 load(1, XDATA, add(CFA_XSP16, literal(-1)))
          CFI (cfiCond155) CFA_SP SP+-4
          CFI (cfiCond155) CFA_XSP16 add(XSP16, 21)
          CFI Block cfiCond156 Using cfiCommon0
          CFI (cfiCond156) Function bdb_event_loop
          CFI (cfiCond156) Conditional ??CrossCallReturnLabel_68, ??CrossCallReturnLabel_19
          CFI (cfiCond156) R6 load(1, XDATA, add(CFA_XSP16, literal(-16)))
          CFI (cfiCond156) VB load(1, XDATA, add(CFA_XSP16, literal(-15)))
          CFI (cfiCond156) V0 load(1, XDATA, add(CFA_XSP16, literal(-14)))
          CFI (cfiCond156) V1 load(1, XDATA, add(CFA_XSP16, literal(-13)))
          CFI (cfiCond156) V2 load(1, XDATA, add(CFA_XSP16, literal(-12)))
          CFI (cfiCond156) V3 load(1, XDATA, add(CFA_XSP16, literal(-11)))
          CFI (cfiCond156) V4 load(1, XDATA, add(CFA_XSP16, literal(-10)))
          CFI (cfiCond156) V5 load(1, XDATA, add(CFA_XSP16, literal(-9)))
          CFI (cfiCond156) V6 load(1, XDATA, add(CFA_XSP16, literal(-8)))
          CFI (cfiCond156) V7 load(1, XDATA, add(CFA_XSP16, literal(-7)))
          CFI (cfiCond156) R7 load(1, XDATA, add(CFA_XSP16, literal(-6)))
          CFI (cfiCond156) ?RET_LOW load(1, XDATA, add(CFA_XSP16, literal(-5)))
          CFI (cfiCond156) ?RET_HIGH load(1, XDATA, add(CFA_XSP16, literal(-4)))
          CFI (cfiCond156) ?BRET_EXT load(1, XDATA, add(CFA_XSP16, literal(-3)))
          CFI (cfiCond156) DPL0 load(1, XDATA, add(CFA_XSP16, literal(-2)))
          CFI (cfiCond156) DPH0 load(1, XDATA, add(CFA_XSP16, literal(-1)))
          CFI (cfiCond156) CFA_SP SP+-4
          CFI (cfiCond156) CFA_XSP16 add(XSP16, 24)
          CFI Block cfiPicker157 Using cfiCommon1
          CFI (cfiPicker157) NoFunction
          CFI (cfiPicker157) Picker
        MOVX    A,@DPTR
        MOV     R0,A
        INC     DPTR
        MOVX    A,@DPTR
        MOV     R1,A
        RET
          CFI EndBlock cfiCond130
          CFI EndBlock cfiCond131
          CFI EndBlock cfiCond132
          CFI EndBlock cfiCond133
          CFI EndBlock cfiCond134
          CFI EndBlock cfiCond135
          CFI EndBlock cfiCond136
          CFI EndBlock cfiCond137
          CFI EndBlock cfiCond138
          CFI EndBlock cfiCond139
          CFI EndBlock cfiCond140
          CFI EndBlock cfiCond141
          CFI EndBlock cfiCond142
          CFI EndBlock cfiCond143
          CFI EndBlock cfiCond144
          CFI EndBlock cfiCond145
          CFI EndBlock cfiCond146
          CFI EndBlock cfiCond147
          CFI EndBlock cfiCond148
          CFI EndBlock cfiCond149
          CFI EndBlock cfiCond150
          CFI EndBlock cfiCond151
          CFI EndBlock cfiCond152
          CFI EndBlock cfiCond153
          CFI EndBlock cfiCond154
          CFI EndBlock cfiCond155
          CFI EndBlock cfiCond156
          CFI EndBlock cfiPicker157

        RSEG BANKED_CODE:CODE:NOROOT(0)
?Subroutine20:
          CFI Block cfiCond158 Using cfiCommon0
          CFI Function bdb_startResumeCommissioningProcess
          CFI Conditional ??CrossCallReturnLabel_18
          CFI R6 load(1, XDATA, add(CFA_XSP16, literal(-10)))
          CFI VB load(1, XDATA, add(CFA_XSP16, literal(-9)))
          CFI V0 load(1, XDATA, add(CFA_XSP16, literal(-8)))
          CFI V1 load(1, XDATA, add(CFA_XSP16, literal(-7)))
          CFI R7 load(1, XDATA, add(CFA_XSP16, literal(-6)))
          CFI ?RET_LOW load(1, XDATA, add(CFA_XSP16, literal(-5)))
          CFI ?RET_HIGH load(1, XDATA, add(CFA_XSP16, literal(-4)))
          CFI ?BRET_EXT load(1, XDATA, add(CFA_XSP16, literal(-3)))
          CFI DPL0 load(1, XDATA, add(CFA_XSP16, literal(-2)))
          CFI DPH0 load(1, XDATA, add(CFA_XSP16, literal(-1)))
          CFI CFA_SP SP+-2
          CFI CFA_XSP16 add(XSP16, 21)
          CFI Block cfiCond159 Using cfiCommon0
          CFI (cfiCond159) Function bdb_event_loop
          CFI (cfiCond159) Conditional ??CrossCallReturnLabel_19
          CFI (cfiCond159) R6 load(1, XDATA, add(CFA_XSP16, literal(-16)))
          CFI (cfiCond159) VB load(1, XDATA, add(CFA_XSP16, literal(-15)))
          CFI (cfiCond159) V0 load(1, XDATA, add(CFA_XSP16, literal(-14)))
          CFI (cfiCond159) V1 load(1, XDATA, add(CFA_XSP16, literal(-13)))
          CFI (cfiCond159) V2 load(1, XDATA, add(CFA_XSP16, literal(-12)))
          CFI (cfiCond159) V3 load(1, XDATA, add(CFA_XSP16, literal(-11)))
          CFI (cfiCond159) V4 load(1, XDATA, add(CFA_XSP16, literal(-10)))
          CFI (cfiCond159) V5 load(1, XDATA, add(CFA_XSP16, literal(-9)))
          CFI (cfiCond159) V6 load(1, XDATA, add(CFA_XSP16, literal(-8)))
          CFI (cfiCond159) V7 load(1, XDATA, add(CFA_XSP16, literal(-7)))
          CFI (cfiCond159) R7 load(1, XDATA, add(CFA_XSP16, literal(-6)))
          CFI (cfiCond159) ?RET_LOW load(1, XDATA, add(CFA_XSP16, literal(-5)))
          CFI (cfiCond159) ?RET_HIGH load(1, XDATA, add(CFA_XSP16, literal(-4)))
          CFI (cfiCond159) ?BRET_EXT load(1, XDATA, add(CFA_XSP16, literal(-3)))
          CFI (cfiCond159) DPL0 load(1, XDATA, add(CFA_XSP16, literal(-2)))
          CFI (cfiCond159) DPH0 load(1, XDATA, add(CFA_XSP16, literal(-1)))
          CFI (cfiCond159) CFA_SP SP+-2
          CFI (cfiCond159) CFA_XSP16 add(XSP16, 24)
          CFI Block cfiPicker160 Using cfiCommon1
          CFI (cfiPicker160) NoFunction
          CFI (cfiPicker160) Picker
        LCALL   ?Subroutine27 & 0xFFFF
??CrossCallReturnLabel_68:
        MOV     DPL,R0
        MOV     DPH,R1
        RET
          CFI EndBlock cfiCond158
          CFI EndBlock cfiCond159
          CFI EndBlock cfiPicker160

        RSEG BANKED_CODE:CODE:NOROOT(0)
?Subroutine16:
          CFI Block cfiCond161 Using cfiCommon0
          CFI Function bdb_startResumeCommissioningProcess
          CFI Conditional ??CrossCallReturnLabel_12
          CFI R6 load(1, XDATA, add(CFA_XSP16, literal(-10)))
          CFI VB load(1, XDATA, add(CFA_XSP16, literal(-9)))
          CFI V0 load(1, XDATA, add(CFA_XSP16, literal(-8)))
          CFI V1 load(1, XDATA, add(CFA_XSP16, literal(-7)))
          CFI R7 load(1, XDATA, add(CFA_XSP16, literal(-6)))
          CFI ?RET_LOW load(1, XDATA, add(CFA_XSP16, literal(-5)))
          CFI ?RET_HIGH load(1, XDATA, add(CFA_XSP16, literal(-4)))
          CFI ?BRET_EXT load(1, XDATA, add(CFA_XSP16, literal(-3)))
          CFI DPL0 load(1, XDATA, add(CFA_XSP16, literal(-2)))
          CFI DPH0 load(1, XDATA, add(CFA_XSP16, literal(-1)))
          CFI CFA_SP SP+-2
          CFI CFA_XSP16 add(XSP16, 21)
          CFI Block cfiCond162 Using cfiCommon0
          CFI (cfiCond162) Function bdb_event_loop
          CFI (cfiCond162) Conditional ??CrossCallReturnLabel_13
          CFI (cfiCond162) R6 load(1, XDATA, add(CFA_XSP16, literal(-16)))
          CFI (cfiCond162) VB load(1, XDATA, add(CFA_XSP16, literal(-15)))
          CFI (cfiCond162) V0 load(1, XDATA, add(CFA_XSP16, literal(-14)))
          CFI (cfiCond162) V1 load(1, XDATA, add(CFA_XSP16, literal(-13)))
          CFI (cfiCond162) V2 load(1, XDATA, add(CFA_XSP16, literal(-12)))
          CFI (cfiCond162) V3 load(1, XDATA, add(CFA_XSP16, literal(-11)))
          CFI (cfiCond162) V4 load(1, XDATA, add(CFA_XSP16, literal(-10)))
          CFI (cfiCond162) V5 load(1, XDATA, add(CFA_XSP16, literal(-9)))
          CFI (cfiCond162) V6 load(1, XDATA, add(CFA_XSP16, literal(-8)))
          CFI (cfiCond162) V7 load(1, XDATA, add(CFA_XSP16, literal(-7)))
          CFI (cfiCond162) R7 load(1, XDATA, add(CFA_XSP16, literal(-6)))
          CFI (cfiCond162) ?RET_LOW load(1, XDATA, add(CFA_XSP16, literal(-5)))
          CFI (cfiCond162) ?RET_HIGH load(1, XDATA, add(CFA_XSP16, literal(-4)))
          CFI (cfiCond162) ?BRET_EXT load(1, XDATA, add(CFA_XSP16, literal(-3)))
          CFI (cfiCond162) DPL0 load(1, XDATA, add(CFA_XSP16, literal(-2)))
          CFI (cfiCond162) DPH0 load(1, XDATA, add(CFA_XSP16, literal(-1)))
          CFI (cfiCond162) CFA_SP SP+-2
          CFI (cfiCond162) CFA_XSP16 add(XSP16, 24)
          CFI Block cfiPicker163 Using cfiCommon1
          CFI (cfiPicker163) NoFunction
          CFI (cfiPicker163) Picker
        LCALL   ?Subroutine26 & 0xFFFF
??CrossCallReturnLabel_31:
        RET
          CFI EndBlock cfiCond161
          CFI EndBlock cfiCond162
          CFI EndBlock cfiPicker163

        RSEG BANKED_CODE:CODE:NOROOT(0)
?Subroutine26:
          CFI Block cfiCond164 Using cfiCommon0
          CFI Function bdb_startResumeCommissioningProcess
          CFI Conditional ??CrossCallReturnLabel_30, ??CrossCallReturnLabel_2
          CFI R6 load(1, XDATA, add(CFA_XSP16, literal(-10)))
          CFI VB load(1, XDATA, add(CFA_XSP16, literal(-9)))
          CFI V0 load(1, XDATA, add(CFA_XSP16, literal(-8)))
          CFI V1 load(1, XDATA, add(CFA_XSP16, literal(-7)))
          CFI R7 load(1, XDATA, add(CFA_XSP16, literal(-6)))
          CFI ?RET_LOW load(1, XDATA, add(CFA_XSP16, literal(-5)))
          CFI ?RET_HIGH load(1, XDATA, add(CFA_XSP16, literal(-4)))
          CFI ?BRET_EXT load(1, XDATA, add(CFA_XSP16, literal(-3)))
          CFI DPL0 load(1, XDATA, add(CFA_XSP16, literal(-2)))
          CFI DPH0 load(1, XDATA, add(CFA_XSP16, literal(-1)))
          CFI CFA_SP SP+-4
          CFI CFA_XSP16 add(XSP16, 21)
          CFI Block cfiCond165 Using cfiCommon0
          CFI (cfiCond165) Function bdb_startResumeCommissioningProcess
          CFI (cfiCond165) Conditional ??CrossCallReturnLabel_30, ??CrossCallReturnLabel_3
          CFI (cfiCond165) R6 load(1, XDATA, add(CFA_XSP16, literal(-10)))
          CFI (cfiCond165) VB load(1, XDATA, add(CFA_XSP16, literal(-9)))
          CFI (cfiCond165) V0 load(1, XDATA, add(CFA_XSP16, literal(-8)))
          CFI (cfiCond165) V1 load(1, XDATA, add(CFA_XSP16, literal(-7)))
          CFI (cfiCond165) R7 load(1, XDATA, add(CFA_XSP16, literal(-6)))
          CFI (cfiCond165) ?RET_LOW load(1, XDATA, add(CFA_XSP16, literal(-5)))
          CFI (cfiCond165) ?RET_HIGH load(1, XDATA, add(CFA_XSP16, literal(-4)))
          CFI (cfiCond165) ?BRET_EXT load(1, XDATA, add(CFA_XSP16, literal(-3)))
          CFI (cfiCond165) DPL0 load(1, XDATA, add(CFA_XSP16, literal(-2)))
          CFI (cfiCond165) DPH0 load(1, XDATA, add(CFA_XSP16, literal(-1)))
          CFI (cfiCond165) CFA_SP SP+-4
          CFI (cfiCond165) CFA_XSP16 add(XSP16, 21)
          CFI Block cfiCond166 Using cfiCommon0
          CFI (cfiCond166) Function bdb_startResumeCommissioningProcess
          CFI (cfiCond166) Conditional ??CrossCallReturnLabel_30, ??CrossCallReturnLabel_4
          CFI (cfiCond166) R6 load(1, XDATA, add(CFA_XSP16, literal(-10)))
          CFI (cfiCond166) VB load(1, XDATA, add(CFA_XSP16, literal(-9)))
          CFI (cfiCond166) V0 load(1, XDATA, add(CFA_XSP16, literal(-8)))
          CFI (cfiCond166) V1 load(1, XDATA, add(CFA_XSP16, literal(-7)))
          CFI (cfiCond166) R7 load(1, XDATA, add(CFA_XSP16, literal(-6)))
          CFI (cfiCond166) ?RET_LOW load(1, XDATA, add(CFA_XSP16, literal(-5)))
          CFI (cfiCond166) ?RET_HIGH load(1, XDATA, add(CFA_XSP16, literal(-4)))
          CFI (cfiCond166) ?BRET_EXT load(1, XDATA, add(CFA_XSP16, literal(-3)))
          CFI (cfiCond166) DPL0 load(1, XDATA, add(CFA_XSP16, literal(-2)))
          CFI (cfiCond166) DPH0 load(1, XDATA, add(CFA_XSP16, literal(-1)))
          CFI (cfiCond166) CFA_SP SP+-4
          CFI (cfiCond166) CFA_XSP16 add(XSP16, 21)
          CFI Block cfiCond167 Using cfiCommon0
          CFI (cfiCond167) Function bdb_startResumeCommissioningProcess
          CFI (cfiCond167) Conditional ??CrossCallReturnLabel_31, ??CrossCallReturnLabel_12
          CFI (cfiCond167) R6 load(1, XDATA, add(CFA_XSP16, literal(-10)))
          CFI (cfiCond167) VB load(1, XDATA, add(CFA_XSP16, literal(-9)))
          CFI (cfiCond167) V0 load(1, XDATA, add(CFA_XSP16, literal(-8)))
          CFI (cfiCond167) V1 load(1, XDATA, add(CFA_XSP16, literal(-7)))
          CFI (cfiCond167) R7 load(1, XDATA, add(CFA_XSP16, literal(-6)))
          CFI (cfiCond167) ?RET_LOW load(1, XDATA, add(CFA_XSP16, literal(-5)))
          CFI (cfiCond167) ?RET_HIGH load(1, XDATA, add(CFA_XSP16, literal(-4)))
          CFI (cfiCond167) ?BRET_EXT load(1, XDATA, add(CFA_XSP16, literal(-3)))
          CFI (cfiCond167) DPL0 load(1, XDATA, add(CFA_XSP16, literal(-2)))
          CFI (cfiCond167) DPH0 load(1, XDATA, add(CFA_XSP16, literal(-1)))
          CFI (cfiCond167) CFA_SP SP+-4
          CFI (cfiCond167) CFA_XSP16 add(XSP16, 21)
          CFI Block cfiCond168 Using cfiCommon0
          CFI (cfiCond168) Function bdb_event_loop
          CFI (cfiCond168) Conditional ??CrossCallReturnLabel_31, ??CrossCallReturnLabel_13
          CFI (cfiCond168) R6 load(1, XDATA, add(CFA_XSP16, literal(-16)))
          CFI (cfiCond168) VB load(1, XDATA, add(CFA_XSP16, literal(-15)))
          CFI (cfiCond168) V0 load(1, XDATA, add(CFA_XSP16, literal(-14)))
          CFI (cfiCond168) V1 load(1, XDATA, add(CFA_XSP16, literal(-13)))
          CFI (cfiCond168) V2 load(1, XDATA, add(CFA_XSP16, literal(-12)))
          CFI (cfiCond168) V3 load(1, XDATA, add(CFA_XSP16, literal(-11)))
          CFI (cfiCond168) V4 load(1, XDATA, add(CFA_XSP16, literal(-10)))
          CFI (cfiCond168) V5 load(1, XDATA, add(CFA_XSP16, literal(-9)))
          CFI (cfiCond168) V6 load(1, XDATA, add(CFA_XSP16, literal(-8)))
          CFI (cfiCond168) V7 load(1, XDATA, add(CFA_XSP16, literal(-7)))
          CFI (cfiCond168) R7 load(1, XDATA, add(CFA_XSP16, literal(-6)))
          CFI (cfiCond168) ?RET_LOW load(1, XDATA, add(CFA_XSP16, literal(-5)))
          CFI (cfiCond168) ?RET_HIGH load(1, XDATA, add(CFA_XSP16, literal(-4)))
          CFI (cfiCond168) ?BRET_EXT load(1, XDATA, add(CFA_XSP16, literal(-3)))
          CFI (cfiCond168) DPL0 load(1, XDATA, add(CFA_XSP16, literal(-2)))
          CFI (cfiCond168) DPH0 load(1, XDATA, add(CFA_XSP16, literal(-1)))
          CFI (cfiCond168) CFA_SP SP+-4
          CFI (cfiCond168) CFA_XSP16 add(XSP16, 24)
          CFI Block cfiPicker169 Using cfiCommon1
          CFI (cfiPicker169) NoFunction
          CFI (cfiPicker169) Picker
        MOV     DPTR,#bdb_CurrEpDescriptorList
        LCALL   ?Subroutine29 & 0xFFFF
??CrossCallReturnLabel_33:
        LCALL   ?Subroutine30 & 0xFFFF
??CrossCallReturnLabel_34:
        RET
          CFI EndBlock cfiCond164
          CFI EndBlock cfiCond165
          CFI EndBlock cfiCond166
          CFI EndBlock cfiCond167
          CFI EndBlock cfiCond168
          CFI EndBlock cfiPicker169

        RSEG BANKED_CODE:CODE:NOROOT(0)
?Subroutine30:
          CFI Block cfiCond170 Using cfiCommon0
          CFI Function bdb_startResumeCommissioningProcess
          CFI Conditional ??CrossCallReturnLabel_34, ??CrossCallReturnLabel_30, ??CrossCallReturnLabel_2
          CFI R6 load(1, XDATA, add(CFA_XSP16, literal(-10)))
          CFI VB load(1, XDATA, add(CFA_XSP16, literal(-9)))
          CFI V0 load(1, XDATA, add(CFA_XSP16, literal(-8)))
          CFI V1 load(1, XDATA, add(CFA_XSP16, literal(-7)))
          CFI R7 load(1, XDATA, add(CFA_XSP16, literal(-6)))
          CFI ?RET_LOW load(1, XDATA, add(CFA_XSP16, literal(-5)))
          CFI ?RET_HIGH load(1, XDATA, add(CFA_XSP16, literal(-4)))
          CFI ?BRET_EXT load(1, XDATA, add(CFA_XSP16, literal(-3)))
          CFI DPL0 load(1, XDATA, add(CFA_XSP16, literal(-2)))
          CFI DPH0 load(1, XDATA, add(CFA_XSP16, literal(-1)))
          CFI CFA_SP SP+-6
          CFI CFA_XSP16 add(XSP16, 21)
          CFI Block cfiCond171 Using cfiCommon0
          CFI (cfiCond171) Function bdb_startResumeCommissioningProcess
          CFI (cfiCond171) Conditional ??CrossCallReturnLabel_34, ??CrossCallReturnLabel_30, ??CrossCallReturnLabel_3
          CFI (cfiCond171) R6 load(1, XDATA, add(CFA_XSP16, literal(-10)))
          CFI (cfiCond171) VB load(1, XDATA, add(CFA_XSP16, literal(-9)))
          CFI (cfiCond171) V0 load(1, XDATA, add(CFA_XSP16, literal(-8)))
          CFI (cfiCond171) V1 load(1, XDATA, add(CFA_XSP16, literal(-7)))
          CFI (cfiCond171) R7 load(1, XDATA, add(CFA_XSP16, literal(-6)))
          CFI (cfiCond171) ?RET_LOW load(1, XDATA, add(CFA_XSP16, literal(-5)))
          CFI (cfiCond171) ?RET_HIGH load(1, XDATA, add(CFA_XSP16, literal(-4)))
          CFI (cfiCond171) ?BRET_EXT load(1, XDATA, add(CFA_XSP16, literal(-3)))
          CFI (cfiCond171) DPL0 load(1, XDATA, add(CFA_XSP16, literal(-2)))
          CFI (cfiCond171) DPH0 load(1, XDATA, add(CFA_XSP16, literal(-1)))
          CFI (cfiCond171) CFA_SP SP+-6
          CFI (cfiCond171) CFA_XSP16 add(XSP16, 21)
          CFI Block cfiCond172 Using cfiCommon0
          CFI (cfiCond172) Function bdb_startResumeCommissioningProcess
          CFI (cfiCond172) Conditional ??CrossCallReturnLabel_34, ??CrossCallReturnLabel_30, ??CrossCallReturnLabel_4
          CFI (cfiCond172) R6 load(1, XDATA, add(CFA_XSP16, literal(-10)))
          CFI (cfiCond172) VB load(1, XDATA, add(CFA_XSP16, literal(-9)))
          CFI (cfiCond172) V0 load(1, XDATA, add(CFA_XSP16, literal(-8)))
          CFI (cfiCond172) V1 load(1, XDATA, add(CFA_XSP16, literal(-7)))
          CFI (cfiCond172) R7 load(1, XDATA, add(CFA_XSP16, literal(-6)))
          CFI (cfiCond172) ?RET_LOW load(1, XDATA, add(CFA_XSP16, literal(-5)))
          CFI (cfiCond172) ?RET_HIGH load(1, XDATA, add(CFA_XSP16, literal(-4)))
          CFI (cfiCond172) ?BRET_EXT load(1, XDATA, add(CFA_XSP16, literal(-3)))
          CFI (cfiCond172) DPL0 load(1, XDATA, add(CFA_XSP16, literal(-2)))
          CFI (cfiCond172) DPH0 load(1, XDATA, add(CFA_XSP16, literal(-1)))
          CFI (cfiCond172) CFA_SP SP+-6
          CFI (cfiCond172) CFA_XSP16 add(XSP16, 21)
          CFI Block cfiCond173 Using cfiCommon0
          CFI (cfiCond173) Function bdb_startResumeCommissioningProcess
          CFI (cfiCond173) Conditional ??CrossCallReturnLabel_34, ??CrossCallReturnLabel_31, ??CrossCallReturnLabel_12
          CFI (cfiCond173) R6 load(1, XDATA, add(CFA_XSP16, literal(-10)))
          CFI (cfiCond173) VB load(1, XDATA, add(CFA_XSP16, literal(-9)))
          CFI (cfiCond173) V0 load(1, XDATA, add(CFA_XSP16, literal(-8)))
          CFI (cfiCond173) V1 load(1, XDATA, add(CFA_XSP16, literal(-7)))
          CFI (cfiCond173) R7 load(1, XDATA, add(CFA_XSP16, literal(-6)))
          CFI (cfiCond173) ?RET_LOW load(1, XDATA, add(CFA_XSP16, literal(-5)))
          CFI (cfiCond173) ?RET_HIGH load(1, XDATA, add(CFA_XSP16, literal(-4)))
          CFI (cfiCond173) ?BRET_EXT load(1, XDATA, add(CFA_XSP16, literal(-3)))
          CFI (cfiCond173) DPL0 load(1, XDATA, add(CFA_XSP16, literal(-2)))
          CFI (cfiCond173) DPH0 load(1, XDATA, add(CFA_XSP16, literal(-1)))
          CFI (cfiCond173) CFA_SP SP+-6
          CFI (cfiCond173) CFA_XSP16 add(XSP16, 21)
          CFI Block cfiCond174 Using cfiCommon0
          CFI (cfiCond174) Function bdb_event_loop
          CFI (cfiCond174) Conditional ??CrossCallReturnLabel_34, ??CrossCallReturnLabel_31, ??CrossCallReturnLabel_13
          CFI (cfiCond174) R6 load(1, XDATA, add(CFA_XSP16, literal(-16)))
          CFI (cfiCond174) VB load(1, XDATA, add(CFA_XSP16, literal(-15)))
          CFI (cfiCond174) V0 load(1, XDATA, add(CFA_XSP16, literal(-14)))
          CFI (cfiCond174) V1 load(1, XDATA, add(CFA_XSP16, literal(-13)))
          CFI (cfiCond174) V2 load(1, XDATA, add(CFA_XSP16, literal(-12)))
          CFI (cfiCond174) V3 load(1, XDATA, add(CFA_XSP16, literal(-11)))
          CFI (cfiCond174) V4 load(1, XDATA, add(CFA_XSP16, literal(-10)))
          CFI (cfiCond174) V5 load(1, XDATA, add(CFA_XSP16, literal(-9)))
          CFI (cfiCond174) V6 load(1, XDATA, add(CFA_XSP16, literal(-8)))
          CFI (cfiCond174) V7 load(1, XDATA, add(CFA_XSP16, literal(-7)))
          CFI (cfiCond174) R7 load(1, XDATA, add(CFA_XSP16, literal(-6)))
          CFI (cfiCond174) ?RET_LOW load(1, XDATA, add(CFA_XSP16, literal(-5)))
          CFI (cfiCond174) ?RET_HIGH load(1, XDATA, add(CFA_XSP16, literal(-4)))
          CFI (cfiCond174) ?BRET_EXT load(1, XDATA, add(CFA_XSP16, literal(-3)))
          CFI (cfiCond174) DPL0 load(1, XDATA, add(CFA_XSP16, literal(-2)))
          CFI (cfiCond174) DPH0 load(1, XDATA, add(CFA_XSP16, literal(-1)))
          CFI (cfiCond174) CFA_SP SP+-6
          CFI (cfiCond174) CFA_XSP16 add(XSP16, 24)
          CFI Block cfiCond175 Using cfiCommon0
          CFI (cfiCond175) Function bdb_TCJoiningDeviceFree
          CFI (cfiCond175) Conditional ??CrossCallReturnLabel_35, ??CrossCallReturnLabel_32, ??CrossCallReturnLabel_14
          CFI (cfiCond175) R6 load(1, XDATA, add(CFA_XSP16, literal(-15)))
          CFI (cfiCond175) VB load(1, XDATA, add(CFA_XSP16, literal(-14)))
          CFI (cfiCond175) V0 load(1, XDATA, add(CFA_XSP16, literal(-13)))
          CFI (cfiCond175) V1 load(1, XDATA, add(CFA_XSP16, literal(-12)))
          CFI (cfiCond175) V2 load(1, XDATA, add(CFA_XSP16, literal(-11)))
          CFI (cfiCond175) V3 load(1, XDATA, add(CFA_XSP16, literal(-10)))
          CFI (cfiCond175) V4 load(1, XDATA, add(CFA_XSP16, literal(-9)))
          CFI (cfiCond175) V5 load(1, XDATA, add(CFA_XSP16, literal(-8)))
          CFI (cfiCond175) V6 load(1, XDATA, add(CFA_XSP16, literal(-7)))
          CFI (cfiCond175) R7 load(1, XDATA, add(CFA_XSP16, literal(-6)))
          CFI (cfiCond175) ?RET_LOW load(1, XDATA, add(CFA_XSP16, literal(-5)))
          CFI (cfiCond175) ?RET_HIGH load(1, XDATA, add(CFA_XSP16, literal(-4)))
          CFI (cfiCond175) ?BRET_EXT load(1, XDATA, add(CFA_XSP16, literal(-3)))
          CFI (cfiCond175) DPL0 load(1, XDATA, add(CFA_XSP16, literal(-2)))
          CFI (cfiCond175) DPH0 load(1, XDATA, add(CFA_XSP16, literal(-1)))
          CFI (cfiCond175) CFA_SP SP+-6
          CFI (cfiCond175) CFA_XSP16 add(XSP16, 18)
          CFI Block cfiCond176 Using cfiCommon0
          CFI (cfiCond176) Function bdb_TCJoiningDeviceFree
          CFI (cfiCond176) Conditional ??CrossCallReturnLabel_35, ??CrossCallReturnLabel_32, ??CrossCallReturnLabel_15
          CFI (cfiCond176) R6 load(1, XDATA, add(CFA_XSP16, literal(-15)))
          CFI (cfiCond176) VB load(1, XDATA, add(CFA_XSP16, literal(-14)))
          CFI (cfiCond176) V0 load(1, XDATA, add(CFA_XSP16, literal(-13)))
          CFI (cfiCond176) V1 load(1, XDATA, add(CFA_XSP16, literal(-12)))
          CFI (cfiCond176) V2 load(1, XDATA, add(CFA_XSP16, literal(-11)))
          CFI (cfiCond176) V3 load(1, XDATA, add(CFA_XSP16, literal(-10)))
          CFI (cfiCond176) V4 load(1, XDATA, add(CFA_XSP16, literal(-9)))
          CFI (cfiCond176) V5 load(1, XDATA, add(CFA_XSP16, literal(-8)))
          CFI (cfiCond176) V6 load(1, XDATA, add(CFA_XSP16, literal(-7)))
          CFI (cfiCond176) R7 load(1, XDATA, add(CFA_XSP16, literal(-6)))
          CFI (cfiCond176) ?RET_LOW load(1, XDATA, add(CFA_XSP16, literal(-5)))
          CFI (cfiCond176) ?RET_HIGH load(1, XDATA, add(CFA_XSP16, literal(-4)))
          CFI (cfiCond176) ?BRET_EXT load(1, XDATA, add(CFA_XSP16, literal(-3)))
          CFI (cfiCond176) DPL0 load(1, XDATA, add(CFA_XSP16, literal(-2)))
          CFI (cfiCond176) DPH0 load(1, XDATA, add(CFA_XSP16, literal(-1)))
          CFI (cfiCond176) CFA_SP SP+-6
          CFI (cfiCond176) CFA_XSP16 add(XSP16, 18)
          CFI Block cfiCond177 Using cfiCommon0
          CFI (cfiCond177) Function bdb_startResumeCommissioningProcess
          CFI (cfiCond177) Conditional ??CrossCallReturnLabel_35, ??CrossCallReturnLabel_33, ??CrossCallReturnLabel_30, ??CrossCallReturnLabel_2
          CFI (cfiCond177) R6 load(1, XDATA, add(CFA_XSP16, literal(-10)))
          CFI (cfiCond177) VB load(1, XDATA, add(CFA_XSP16, literal(-9)))
          CFI (cfiCond177) V0 load(1, XDATA, add(CFA_XSP16, literal(-8)))
          CFI (cfiCond177) V1 load(1, XDATA, add(CFA_XSP16, literal(-7)))
          CFI (cfiCond177) R7 load(1, XDATA, add(CFA_XSP16, literal(-6)))
          CFI (cfiCond177) ?RET_LOW load(1, XDATA, add(CFA_XSP16, literal(-5)))
          CFI (cfiCond177) ?RET_HIGH load(1, XDATA, add(CFA_XSP16, literal(-4)))
          CFI (cfiCond177) ?BRET_EXT load(1, XDATA, add(CFA_XSP16, literal(-3)))
          CFI (cfiCond177) DPL0 load(1, XDATA, add(CFA_XSP16, literal(-2)))
          CFI (cfiCond177) DPH0 load(1, XDATA, add(CFA_XSP16, literal(-1)))
          CFI (cfiCond177) CFA_SP SP+-8
          CFI (cfiCond177) CFA_XSP16 add(XSP16, 21)
          CFI Block cfiCond178 Using cfiCommon0
          CFI (cfiCond178) Function bdb_startResumeCommissioningProcess
          CFI (cfiCond178) Conditional ??CrossCallReturnLabel_35, ??CrossCallReturnLabel_33, ??CrossCallReturnLabel_30, ??CrossCallReturnLabel_3
          CFI (cfiCond178) R6 load(1, XDATA, add(CFA_XSP16, literal(-10)))
          CFI (cfiCond178) VB load(1, XDATA, add(CFA_XSP16, literal(-9)))
          CFI (cfiCond178) V0 load(1, XDATA, add(CFA_XSP16, literal(-8)))
          CFI (cfiCond178) V1 load(1, XDATA, add(CFA_XSP16, literal(-7)))
          CFI (cfiCond178) R7 load(1, XDATA, add(CFA_XSP16, literal(-6)))
          CFI (cfiCond178) ?RET_LOW load(1, XDATA, add(CFA_XSP16, literal(-5)))
          CFI (cfiCond178) ?RET_HIGH load(1, XDATA, add(CFA_XSP16, literal(-4)))
          CFI (cfiCond178) ?BRET_EXT load(1, XDATA, add(CFA_XSP16, literal(-3)))
          CFI (cfiCond178) DPL0 load(1, XDATA, add(CFA_XSP16, literal(-2)))
          CFI (cfiCond178) DPH0 load(1, XDATA, add(CFA_XSP16, literal(-1)))
          CFI (cfiCond178) CFA_SP SP+-8
          CFI (cfiCond178) CFA_XSP16 add(XSP16, 21)
          CFI Block cfiCond179 Using cfiCommon0
          CFI (cfiCond179) Function bdb_startResumeCommissioningProcess
          CFI (cfiCond179) Conditional ??CrossCallReturnLabel_35, ??CrossCallReturnLabel_33, ??CrossCallReturnLabel_30, ??CrossCallReturnLabel_4
          CFI (cfiCond179) R6 load(1, XDATA, add(CFA_XSP16, literal(-10)))
          CFI (cfiCond179) VB load(1, XDATA, add(CFA_XSP16, literal(-9)))
          CFI (cfiCond179) V0 load(1, XDATA, add(CFA_XSP16, literal(-8)))
          CFI (cfiCond179) V1 load(1, XDATA, add(CFA_XSP16, literal(-7)))
          CFI (cfiCond179) R7 load(1, XDATA, add(CFA_XSP16, literal(-6)))
          CFI (cfiCond179) ?RET_LOW load(1, XDATA, add(CFA_XSP16, literal(-5)))
          CFI (cfiCond179) ?RET_HIGH load(1, XDATA, add(CFA_XSP16, literal(-4)))
          CFI (cfiCond179) ?BRET_EXT load(1, XDATA, add(CFA_XSP16, literal(-3)))
          CFI (cfiCond179) DPL0 load(1, XDATA, add(CFA_XSP16, literal(-2)))
          CFI (cfiCond179) DPH0 load(1, XDATA, add(CFA_XSP16, literal(-1)))
          CFI (cfiCond179) CFA_SP SP+-8
          CFI (cfiCond179) CFA_XSP16 add(XSP16, 21)
          CFI Block cfiCond180 Using cfiCommon0
          CFI (cfiCond180) Function bdb_startResumeCommissioningProcess
          CFI (cfiCond180) Conditional ??CrossCallReturnLabel_35, ??CrossCallReturnLabel_33, ??CrossCallReturnLabel_31, ??CrossCallReturnLabel_12
          CFI (cfiCond180) R6 load(1, XDATA, add(CFA_XSP16, literal(-10)))
          CFI (cfiCond180) VB load(1, XDATA, add(CFA_XSP16, literal(-9)))
          CFI (cfiCond180) V0 load(1, XDATA, add(CFA_XSP16, literal(-8)))
          CFI (cfiCond180) V1 load(1, XDATA, add(CFA_XSP16, literal(-7)))
          CFI (cfiCond180) R7 load(1, XDATA, add(CFA_XSP16, literal(-6)))
          CFI (cfiCond180) ?RET_LOW load(1, XDATA, add(CFA_XSP16, literal(-5)))
          CFI (cfiCond180) ?RET_HIGH load(1, XDATA, add(CFA_XSP16, literal(-4)))
          CFI (cfiCond180) ?BRET_EXT load(1, XDATA, add(CFA_XSP16, literal(-3)))
          CFI (cfiCond180) DPL0 load(1, XDATA, add(CFA_XSP16, literal(-2)))
          CFI (cfiCond180) DPH0 load(1, XDATA, add(CFA_XSP16, literal(-1)))
          CFI (cfiCond180) CFA_SP SP+-8
          CFI (cfiCond180) CFA_XSP16 add(XSP16, 21)
          CFI Block cfiCond181 Using cfiCommon0
          CFI (cfiCond181) Function bdb_event_loop
          CFI (cfiCond181) Conditional ??CrossCallReturnLabel_35, ??CrossCallReturnLabel_33, ??CrossCallReturnLabel_31, ??CrossCallReturnLabel_13
          CFI (cfiCond181) R6 load(1, XDATA, add(CFA_XSP16, literal(-16)))
          CFI (cfiCond181) VB load(1, XDATA, add(CFA_XSP16, literal(-15)))
          CFI (cfiCond181) V0 load(1, XDATA, add(CFA_XSP16, literal(-14)))
          CFI (cfiCond181) V1 load(1, XDATA, add(CFA_XSP16, literal(-13)))
          CFI (cfiCond181) V2 load(1, XDATA, add(CFA_XSP16, literal(-12)))
          CFI (cfiCond181) V3 load(1, XDATA, add(CFA_XSP16, literal(-11)))
          CFI (cfiCond181) V4 load(1, XDATA, add(CFA_XSP16, literal(-10)))
          CFI (cfiCond181) V5 load(1, XDATA, add(CFA_XSP16, literal(-9)))
          CFI (cfiCond181) V6 load(1, XDATA, add(CFA_XSP16, literal(-8)))
          CFI (cfiCond181) V7 load(1, XDATA, add(CFA_XSP16, literal(-7)))
          CFI (cfiCond181) R7 load(1, XDATA, add(CFA_XSP16, literal(-6)))
          CFI (cfiCond181) ?RET_LOW load(1, XDATA, add(CFA_XSP16, literal(-5)))
          CFI (cfiCond181) ?RET_HIGH load(1, XDATA, add(CFA_XSP16, literal(-4)))
          CFI (cfiCond181) ?BRET_EXT load(1, XDATA, add(CFA_XSP16, literal(-3)))
          CFI (cfiCond181) DPL0 load(1, XDATA, add(CFA_XSP16, literal(-2)))
          CFI (cfiCond181) DPH0 load(1, XDATA, add(CFA_XSP16, literal(-1)))
          CFI (cfiCond181) CFA_SP SP+-8
          CFI (cfiCond181) CFA_XSP16 add(XSP16, 24)
          CFI Block cfiPicker182 Using cfiCommon1
          CFI (cfiPicker182) NoFunction
          CFI (cfiPicker182) Picker
        MOVX    A,@DPTR
        MOV     R0,A
        INC     DPTR
        MOVX    A,@DPTR
        MOV     DPH,A
        MOV     DPL,R0
        RET
          CFI EndBlock cfiCond170
          CFI EndBlock cfiCond171
          CFI EndBlock cfiCond172
          CFI EndBlock cfiCond173
          CFI EndBlock cfiCond174
          CFI EndBlock cfiCond175
          CFI EndBlock cfiCond176
          CFI EndBlock cfiCond177
          CFI EndBlock cfiCond178
          CFI EndBlock cfiCond179
          CFI EndBlock cfiCond180
          CFI EndBlock cfiCond181
          CFI EndBlock cfiPicker182

        RSEG BANKED_CODE:CODE:NOROOT(0)
?Subroutine29:
          CFI Block cfiCond183 Using cfiCommon0
          CFI Function bdb_TCJoiningDeviceFree
          CFI Conditional ??CrossCallReturnLabel_32, ??CrossCallReturnLabel_14
          CFI R6 load(1, XDATA, add(CFA_XSP16, literal(-15)))
          CFI VB load(1, XDATA, add(CFA_XSP16, literal(-14)))
          CFI V0 load(1, XDATA, add(CFA_XSP16, literal(-13)))
          CFI V1 load(1, XDATA, add(CFA_XSP16, literal(-12)))
          CFI V2 load(1, XDATA, add(CFA_XSP16, literal(-11)))
          CFI V3 load(1, XDATA, add(CFA_XSP16, literal(-10)))
          CFI V4 load(1, XDATA, add(CFA_XSP16, literal(-9)))
          CFI V5 load(1, XDATA, add(CFA_XSP16, literal(-8)))
          CFI V6 load(1, XDATA, add(CFA_XSP16, literal(-7)))
          CFI R7 load(1, XDATA, add(CFA_XSP16, literal(-6)))
          CFI ?RET_LOW load(1, XDATA, add(CFA_XSP16, literal(-5)))
          CFI ?RET_HIGH load(1, XDATA, add(CFA_XSP16, literal(-4)))
          CFI ?BRET_EXT load(1, XDATA, add(CFA_XSP16, literal(-3)))
          CFI DPL0 load(1, XDATA, add(CFA_XSP16, literal(-2)))
          CFI DPH0 load(1, XDATA, add(CFA_XSP16, literal(-1)))
          CFI CFA_SP SP+-4
          CFI CFA_XSP16 add(XSP16, 18)
          CFI Block cfiCond184 Using cfiCommon0
          CFI (cfiCond184) Function bdb_TCJoiningDeviceFree
          CFI (cfiCond184) Conditional ??CrossCallReturnLabel_32, ??CrossCallReturnLabel_15
          CFI (cfiCond184) R6 load(1, XDATA, add(CFA_XSP16, literal(-15)))
          CFI (cfiCond184) VB load(1, XDATA, add(CFA_XSP16, literal(-14)))
          CFI (cfiCond184) V0 load(1, XDATA, add(CFA_XSP16, literal(-13)))
          CFI (cfiCond184) V1 load(1, XDATA, add(CFA_XSP16, literal(-12)))
          CFI (cfiCond184) V2 load(1, XDATA, add(CFA_XSP16, literal(-11)))
          CFI (cfiCond184) V3 load(1, XDATA, add(CFA_XSP16, literal(-10)))
          CFI (cfiCond184) V4 load(1, XDATA, add(CFA_XSP16, literal(-9)))
          CFI (cfiCond184) V5 load(1, XDATA, add(CFA_XSP16, literal(-8)))
          CFI (cfiCond184) V6 load(1, XDATA, add(CFA_XSP16, literal(-7)))
          CFI (cfiCond184) R7 load(1, XDATA, add(CFA_XSP16, literal(-6)))
          CFI (cfiCond184) ?RET_LOW load(1, XDATA, add(CFA_XSP16, literal(-5)))
          CFI (cfiCond184) ?RET_HIGH load(1, XDATA, add(CFA_XSP16, literal(-4)))
          CFI (cfiCond184) ?BRET_EXT load(1, XDATA, add(CFA_XSP16, literal(-3)))
          CFI (cfiCond184) DPL0 load(1, XDATA, add(CFA_XSP16, literal(-2)))
          CFI (cfiCond184) DPH0 load(1, XDATA, add(CFA_XSP16, literal(-1)))
          CFI (cfiCond184) CFA_SP SP+-4
          CFI (cfiCond184) CFA_XSP16 add(XSP16, 18)
          CFI Block cfiCond185 Using cfiCommon0
          CFI (cfiCond185) Function bdb_startResumeCommissioningProcess
          CFI (cfiCond185) Conditional ??CrossCallReturnLabel_33, ??CrossCallReturnLabel_30, ??CrossCallReturnLabel_2
          CFI (cfiCond185) R6 load(1, XDATA, add(CFA_XSP16, literal(-10)))
          CFI (cfiCond185) VB load(1, XDATA, add(CFA_XSP16, literal(-9)))
          CFI (cfiCond185) V0 load(1, XDATA, add(CFA_XSP16, literal(-8)))
          CFI (cfiCond185) V1 load(1, XDATA, add(CFA_XSP16, literal(-7)))
          CFI (cfiCond185) R7 load(1, XDATA, add(CFA_XSP16, literal(-6)))
          CFI (cfiCond185) ?RET_LOW load(1, XDATA, add(CFA_XSP16, literal(-5)))
          CFI (cfiCond185) ?RET_HIGH load(1, XDATA, add(CFA_XSP16, literal(-4)))
          CFI (cfiCond185) ?BRET_EXT load(1, XDATA, add(CFA_XSP16, literal(-3)))
          CFI (cfiCond185) DPL0 load(1, XDATA, add(CFA_XSP16, literal(-2)))
          CFI (cfiCond185) DPH0 load(1, XDATA, add(CFA_XSP16, literal(-1)))
          CFI (cfiCond185) CFA_SP SP+-6
          CFI (cfiCond185) CFA_XSP16 add(XSP16, 21)
          CFI Block cfiCond186 Using cfiCommon0
          CFI (cfiCond186) Function bdb_startResumeCommissioningProcess
          CFI (cfiCond186) Conditional ??CrossCallReturnLabel_33, ??CrossCallReturnLabel_30, ??CrossCallReturnLabel_3
          CFI (cfiCond186) R6 load(1, XDATA, add(CFA_XSP16, literal(-10)))
          CFI (cfiCond186) VB load(1, XDATA, add(CFA_XSP16, literal(-9)))
          CFI (cfiCond186) V0 load(1, XDATA, add(CFA_XSP16, literal(-8)))
          CFI (cfiCond186) V1 load(1, XDATA, add(CFA_XSP16, literal(-7)))
          CFI (cfiCond186) R7 load(1, XDATA, add(CFA_XSP16, literal(-6)))
          CFI (cfiCond186) ?RET_LOW load(1, XDATA, add(CFA_XSP16, literal(-5)))
          CFI (cfiCond186) ?RET_HIGH load(1, XDATA, add(CFA_XSP16, literal(-4)))
          CFI (cfiCond186) ?BRET_EXT load(1, XDATA, add(CFA_XSP16, literal(-3)))
          CFI (cfiCond186) DPL0 load(1, XDATA, add(CFA_XSP16, literal(-2)))
          CFI (cfiCond186) DPH0 load(1, XDATA, add(CFA_XSP16, literal(-1)))
          CFI (cfiCond186) CFA_SP SP+-6
          CFI (cfiCond186) CFA_XSP16 add(XSP16, 21)
          CFI Block cfiCond187 Using cfiCommon0
          CFI (cfiCond187) Function bdb_startResumeCommissioningProcess
          CFI (cfiCond187) Conditional ??CrossCallReturnLabel_33, ??CrossCallReturnLabel_30, ??CrossCallReturnLabel_4
          CFI (cfiCond187) R6 load(1, XDATA, add(CFA_XSP16, literal(-10)))
          CFI (cfiCond187) VB load(1, XDATA, add(CFA_XSP16, literal(-9)))
          CFI (cfiCond187) V0 load(1, XDATA, add(CFA_XSP16, literal(-8)))
          CFI (cfiCond187) V1 load(1, XDATA, add(CFA_XSP16, literal(-7)))
          CFI (cfiCond187) R7 load(1, XDATA, add(CFA_XSP16, literal(-6)))
          CFI (cfiCond187) ?RET_LOW load(1, XDATA, add(CFA_XSP16, literal(-5)))
          CFI (cfiCond187) ?RET_HIGH load(1, XDATA, add(CFA_XSP16, literal(-4)))
          CFI (cfiCond187) ?BRET_EXT load(1, XDATA, add(CFA_XSP16, literal(-3)))
          CFI (cfiCond187) DPL0 load(1, XDATA, add(CFA_XSP16, literal(-2)))
          CFI (cfiCond187) DPH0 load(1, XDATA, add(CFA_XSP16, literal(-1)))
          CFI (cfiCond187) CFA_SP SP+-6
          CFI (cfiCond187) CFA_XSP16 add(XSP16, 21)
          CFI Block cfiCond188 Using cfiCommon0
          CFI (cfiCond188) Function bdb_startResumeCommissioningProcess
          CFI (cfiCond188) Conditional ??CrossCallReturnLabel_33, ??CrossCallReturnLabel_31, ??CrossCallReturnLabel_12
          CFI (cfiCond188) R6 load(1, XDATA, add(CFA_XSP16, literal(-10)))
          CFI (cfiCond188) VB load(1, XDATA, add(CFA_XSP16, literal(-9)))
          CFI (cfiCond188) V0 load(1, XDATA, add(CFA_XSP16, literal(-8)))
          CFI (cfiCond188) V1 load(1, XDATA, add(CFA_XSP16, literal(-7)))
          CFI (cfiCond188) R7 load(1, XDATA, add(CFA_XSP16, literal(-6)))
          CFI (cfiCond188) ?RET_LOW load(1, XDATA, add(CFA_XSP16, literal(-5)))
          CFI (cfiCond188) ?RET_HIGH load(1, XDATA, add(CFA_XSP16, literal(-4)))
          CFI (cfiCond188) ?BRET_EXT load(1, XDATA, add(CFA_XSP16, literal(-3)))
          CFI (cfiCond188) DPL0 load(1, XDATA, add(CFA_XSP16, literal(-2)))
          CFI (cfiCond188) DPH0 load(1, XDATA, add(CFA_XSP16, literal(-1)))
          CFI (cfiCond188) CFA_SP SP+-6
          CFI (cfiCond188) CFA_XSP16 add(XSP16, 21)
          CFI Block cfiCond189 Using cfiCommon0
          CFI (cfiCond189) Function bdb_event_loop
          CFI (cfiCond189) Conditional ??CrossCallReturnLabel_33, ??CrossCallReturnLabel_31, ??CrossCallReturnLabel_13
          CFI (cfiCond189) R6 load(1, XDATA, add(CFA_XSP16, literal(-16)))
          CFI (cfiCond189) VB load(1, XDATA, add(CFA_XSP16, literal(-15)))
          CFI (cfiCond189) V0 load(1, XDATA, add(CFA_XSP16, literal(-14)))
          CFI (cfiCond189) V1 load(1, XDATA, add(CFA_XSP16, literal(-13)))
          CFI (cfiCond189) V2 load(1, XDATA, add(CFA_XSP16, literal(-12)))
          CFI (cfiCond189) V3 load(1, XDATA, add(CFA_XSP16, literal(-11)))
          CFI (cfiCond189) V4 load(1, XDATA, add(CFA_XSP16, literal(-10)))
          CFI (cfiCond189) V5 load(1, XDATA, add(CFA_XSP16, literal(-9)))
          CFI (cfiCond189) V6 load(1, XDATA, add(CFA_XSP16, literal(-8)))
          CFI (cfiCond189) V7 load(1, XDATA, add(CFA_XSP16, literal(-7)))
          CFI (cfiCond189) R7 load(1, XDATA, add(CFA_XSP16, literal(-6)))
          CFI (cfiCond189) ?RET_LOW load(1, XDATA, add(CFA_XSP16, literal(-5)))
          CFI (cfiCond189) ?RET_HIGH load(1, XDATA, add(CFA_XSP16, literal(-4)))
          CFI (cfiCond189) ?BRET_EXT load(1, XDATA, add(CFA_XSP16, literal(-3)))
          CFI (cfiCond189) DPL0 load(1, XDATA, add(CFA_XSP16, literal(-2)))
          CFI (cfiCond189) DPH0 load(1, XDATA, add(CFA_XSP16, literal(-1)))
          CFI (cfiCond189) CFA_SP SP+-6
          CFI (cfiCond189) CFA_XSP16 add(XSP16, 24)
          CFI Block cfiPicker190 Using cfiCommon1
          CFI (cfiPicker190) NoFunction
          CFI (cfiPicker190) Picker
        LCALL   ?Subroutine30 & 0xFFFF
??CrossCallReturnLabel_35:
        INC     DPTR
        INC     DPTR
        RET
          CFI EndBlock cfiCond183
          CFI EndBlock cfiCond184
          CFI EndBlock cfiCond185
          CFI EndBlock cfiCond186
          CFI EndBlock cfiCond187
          CFI EndBlock cfiCond188
          CFI EndBlock cfiCond189
          CFI EndBlock cfiPicker190

        RSEG BANKED_CODE:CODE:NOROOT(0)
?Subroutine14:
          CFI Block cfiCond191 Using cfiCommon0
          CFI Function bdb_ZclIdentifyCmdInd
          CFI Conditional ??CrossCallReturnLabel_7
          CFI R6 load(1, XDATA, add(CFA_XSP16, literal(-12)))
          CFI VB load(1, XDATA, add(CFA_XSP16, literal(-11)))
          CFI V0 load(1, XDATA, add(CFA_XSP16, literal(-10)))
          CFI V1 load(1, XDATA, add(CFA_XSP16, literal(-9)))
          CFI V2 load(1, XDATA, add(CFA_XSP16, literal(-8)))
          CFI V3 load(1, XDATA, add(CFA_XSP16, literal(-7)))
          CFI R7 load(1, XDATA, add(CFA_XSP16, literal(-6)))
          CFI ?RET_LOW load(1, XDATA, add(CFA_XSP16, literal(-5)))
          CFI ?RET_HIGH load(1, XDATA, add(CFA_XSP16, literal(-4)))
          CFI ?BRET_EXT load(1, XDATA, add(CFA_XSP16, literal(-3)))
          CFI DPL0 load(1, XDATA, add(CFA_XSP16, literal(-2)))
          CFI DPH0 load(1, XDATA, add(CFA_XSP16, literal(-1)))
          CFI CFA_SP SP+-2
          CFI CFA_XSP16 add(XSP16, 20)
          CFI Block cfiCond192 Using cfiCommon0
          CFI (cfiCond192) Function bdb_TCJoiningDeviceFree
          CFI (cfiCond192) Conditional ??CrossCallReturnLabel_5
          CFI (cfiCond192) R6 load(1, XDATA, add(CFA_XSP16, literal(-15)))
          CFI (cfiCond192) VB load(1, XDATA, add(CFA_XSP16, literal(-14)))
          CFI (cfiCond192) V0 load(1, XDATA, add(CFA_XSP16, literal(-13)))
          CFI (cfiCond192) V1 load(1, XDATA, add(CFA_XSP16, literal(-12)))
          CFI (cfiCond192) V2 load(1, XDATA, add(CFA_XSP16, literal(-11)))
          CFI (cfiCond192) V3 load(1, XDATA, add(CFA_XSP16, literal(-10)))
          CFI (cfiCond192) V4 load(1, XDATA, add(CFA_XSP16, literal(-9)))
          CFI (cfiCond192) V5 load(1, XDATA, add(CFA_XSP16, literal(-8)))
          CFI (cfiCond192) V6 load(1, XDATA, add(CFA_XSP16, literal(-7)))
          CFI (cfiCond192) R7 load(1, XDATA, add(CFA_XSP16, literal(-6)))
          CFI (cfiCond192) ?RET_LOW load(1, XDATA, add(CFA_XSP16, literal(-5)))
          CFI (cfiCond192) ?RET_HIGH load(1, XDATA, add(CFA_XSP16, literal(-4)))
          CFI (cfiCond192) ?BRET_EXT load(1, XDATA, add(CFA_XSP16, literal(-3)))
          CFI (cfiCond192) DPL0 load(1, XDATA, add(CFA_XSP16, literal(-2)))
          CFI (cfiCond192) DPH0 load(1, XDATA, add(CFA_XSP16, literal(-1)))
          CFI (cfiCond192) CFA_SP SP+-2
          CFI (cfiCond192) CFA_XSP16 add(XSP16, 15)
          CFI Block cfiCond193 Using cfiCommon0
          CFI (cfiCond193) Function bdb_event_loop
          CFI (cfiCond193) Conditional ??CrossCallReturnLabel_8
          CFI (cfiCond193) R6 load(1, XDATA, add(CFA_XSP16, literal(-16)))
          CFI (cfiCond193) VB load(1, XDATA, add(CFA_XSP16, literal(-15)))
          CFI (cfiCond193) V0 load(1, XDATA, add(CFA_XSP16, literal(-14)))
          CFI (cfiCond193) V1 load(1, XDATA, add(CFA_XSP16, literal(-13)))
          CFI (cfiCond193) V2 load(1, XDATA, add(CFA_XSP16, literal(-12)))
          CFI (cfiCond193) V3 load(1, XDATA, add(CFA_XSP16, literal(-11)))
          CFI (cfiCond193) V4 load(1, XDATA, add(CFA_XSP16, literal(-10)))
          CFI (cfiCond193) V5 load(1, XDATA, add(CFA_XSP16, literal(-9)))
          CFI (cfiCond193) V6 load(1, XDATA, add(CFA_XSP16, literal(-8)))
          CFI (cfiCond193) V7 load(1, XDATA, add(CFA_XSP16, literal(-7)))
          CFI (cfiCond193) R7 load(1, XDATA, add(CFA_XSP16, literal(-6)))
          CFI (cfiCond193) ?RET_LOW load(1, XDATA, add(CFA_XSP16, literal(-5)))
          CFI (cfiCond193) ?RET_HIGH load(1, XDATA, add(CFA_XSP16, literal(-4)))
          CFI (cfiCond193) ?BRET_EXT load(1, XDATA, add(CFA_XSP16, literal(-3)))
          CFI (cfiCond193) DPL0 load(1, XDATA, add(CFA_XSP16, literal(-2)))
          CFI (cfiCond193) DPH0 load(1, XDATA, add(CFA_XSP16, literal(-1)))
          CFI (cfiCond193) CFA_SP SP+-2
          CFI (cfiCond193) CFA_XSP16 add(XSP16, 24)
          CFI Block cfiCond194 Using cfiCommon0
          CFI (cfiCond194) Function bdb_AddRespondentNode
          CFI (cfiCond194) Conditional ??CrossCallReturnLabel_6
          CFI (cfiCond194) R6 load(1, XDATA, add(CFA_XSP16, literal(-10)))
          CFI (cfiCond194) VB load(1, XDATA, add(CFA_XSP16, literal(-9)))
          CFI (cfiCond194) V0 load(1, XDATA, add(CFA_XSP16, literal(-8)))
          CFI (cfiCond194) V1 load(1, XDATA, add(CFA_XSP16, literal(-7)))
          CFI (cfiCond194) R7 load(1, XDATA, add(CFA_XSP16, literal(-6)))
          CFI (cfiCond194) ?RET_LOW load(1, XDATA, add(CFA_XSP16, literal(-5)))
          CFI (cfiCond194) ?RET_HIGH load(1, XDATA, add(CFA_XSP16, literal(-4)))
          CFI (cfiCond194) ?BRET_EXT load(1, XDATA, add(CFA_XSP16, literal(-3)))
          CFI (cfiCond194) DPL0 load(1, XDATA, add(CFA_XSP16, literal(-2)))
          CFI (cfiCond194) DPH0 load(1, XDATA, add(CFA_XSP16, literal(-1)))
          CFI (cfiCond194) CFA_SP SP+-2
          CFI (cfiCond194) CFA_XSP16 add(XSP16, 10)
          CFI Block cfiCond195 Using cfiCommon0
          CFI (cfiCond195) Function bdb_zclRespondentListClean
          CFI (cfiCond195) Conditional ??CrossCallReturnLabel_9
          CFI (cfiCond195) R6 load(1, XDATA, add(CFA_XSP16, literal(-12)))
          CFI (cfiCond195) VB load(1, XDATA, add(CFA_XSP16, literal(-11)))
          CFI (cfiCond195) V0 load(1, XDATA, add(CFA_XSP16, literal(-10)))
          CFI (cfiCond195) V1 load(1, XDATA, add(CFA_XSP16, literal(-9)))
          CFI (cfiCond195) V2 load(1, XDATA, add(CFA_XSP16, literal(-8)))
          CFI (cfiCond195) V3 load(1, XDATA, add(CFA_XSP16, literal(-7)))
          CFI (cfiCond195) R7 load(1, XDATA, add(CFA_XSP16, literal(-6)))
          CFI (cfiCond195) ?RET_LOW load(1, XDATA, add(CFA_XSP16, literal(-5)))
          CFI (cfiCond195) ?RET_HIGH load(1, XDATA, add(CFA_XSP16, literal(-4)))
          CFI (cfiCond195) ?BRET_EXT load(1, XDATA, add(CFA_XSP16, literal(-3)))
          CFI (cfiCond195) DPL0 load(1, XDATA, add(CFA_XSP16, literal(-2)))
          CFI (cfiCond195) DPH0 load(1, XDATA, add(CFA_XSP16, literal(-1)))
          CFI (cfiCond195) CFA_SP SP+-2
          CFI (cfiCond195) CFA_XSP16 add(XSP16, 12)
          CFI Block cfiPicker196 Using cfiCommon1
          CFI (cfiPicker196) NoFunction
          CFI (cfiPicker196) Picker
        MOVX    A,@DPTR
        MOV     R2,A
        INC     DPTR
        MOVX    A,@DPTR
        MOV     R3,A
        MOV     A,R2
        ORL     A,R3
        RET
          CFI EndBlock cfiCond191
          CFI EndBlock cfiCond192
          CFI EndBlock cfiCond193
          CFI EndBlock cfiCond194
          CFI EndBlock cfiCond195
          CFI EndBlock cfiPicker196
// 2667 
// 2668 
// 2669 /*********************************************************************
// 2670  * @fn          bdb_touchlinkSendFNReset
// 2671  *
// 2672  * @brief       Starts the Factory New Procedure for Initiator
// 2673  *
// 2674  * @param       isOnANetwork - TRUE if the devices is not FN, FALSE otherwise
// 2675  *
// 2676  * @return      none
// 2677  */

        RSEG BANKED_CODE:CODE:NOROOT(0)
// 2678 void bdb_touchlinkSendFNReset( void )
bdb_touchlinkSendFNReset:
          CFI Block cfiBlock197 Using cfiCommon0
          CFI Function bdb_touchlinkSendFNReset
        CODE
// 2679 {
        ; Saved register size: 0
        ; Auto size: 0
// 2680 #ifdef BDB_TL_INITIATOR
// 2681   touchLinkInitiator_ResetToFNProcedure( );
// 2682 #endif
// 2683 }
        LJMP    ?BRET
          CFI EndBlock cfiBlock197
// 2684 
// 2685 
// 2686 /*********************************************************************
// 2687  * @fn          bdb_setNodeIsOnANetwork
// 2688  *
// 2689  * @brief       Sets and saves in Nv bdbNodeIsOnANetwork attribute
// 2690  *
// 2691  * @param       isOnANetwork - TRUE if the devices is not FN, FALSE otherwise
// 2692  *
// 2693  * @return      none
// 2694  */

        RSEG BANKED_CODE:CODE:NOROOT(0)
// 2695 void bdb_setNodeIsOnANetwork(bool isOnANetwork)
bdb_setNodeIsOnANetwork:
          CFI Block cfiBlock198 Using cfiCommon0
          CFI Function bdb_setNodeIsOnANetwork
        CODE
// 2696 {
        FUNCALL bdb_setNodeIsOnANetwork, osal_nv_write
        LOCFRAME ISTACK, 0, STACK
        LOCFRAME PSTACK, 0, STACK
        LOCFRAME XSTACK, 14, STACK
        LOCFRAME IOVERLAY, 0, STATIC
        LOCFRAME DOVERLAY, 0, STATIC
        ARGFRAME ISTACK, 0, STACK
        ARGFRAME PSTACK, 0, STACK
        ARGFRAME XSTACK, 14, STACK
        ARGFRAME IOVERLAY, 0, STATIC
        ARGFRAME DOVERLAY, 0, STATIC
        REQUIRE ?V0
        REQUIRE ?V1
        MOV     A,#-0xa
        LCALL   ?BANKED_ENTER_XDATA
          CFI DPH0 load(1, XDATA, add(CFA_XSP16, literal(-1)))
          CFI DPL0 load(1, XDATA, add(CFA_XSP16, literal(-2)))
          CFI ?BRET_EXT load(1, XDATA, add(CFA_XSP16, literal(-3)))
          CFI ?RET_HIGH load(1, XDATA, add(CFA_XSP16, literal(-4)))
          CFI ?RET_LOW load(1, XDATA, add(CFA_XSP16, literal(-5)))
          CFI R7 load(1, XDATA, add(CFA_XSP16, literal(-6)))
          CFI V1 load(1, XDATA, add(CFA_XSP16, literal(-7)))
          CFI V0 load(1, XDATA, add(CFA_XSP16, literal(-8)))
          CFI VB load(1, XDATA, add(CFA_XSP16, literal(-9)))
          CFI R6 load(1, XDATA, add(CFA_XSP16, literal(-10)))
          CFI CFA_SP SP+0
          CFI CFA_XSP16 add(XSP16, 10)
        ; Saved register size: 10
        ; Auto size: 0
        MOV     A,R1
        MOV     R6,A
// 2697   if((bdbAttributes.bdbNodeIsOnANetwork != isOnANetwork) || (!bdb_initialization))
        MOV     DPTR,#bdbAttributes + 14
        MOVX    A,@DPTR
        XRL     A,R6
        JNZ     ??bdb_setNodeIsOnANetwork_0
        MOV     DPTR,#bdb_initialization
        MOVX    A,@DPTR
        JNZ     ??bdb_setNodeIsOnANetwork_1
// 2698   {
// 2699     //We lose our network
// 2700     if(!isOnANetwork)
??bdb_setNodeIsOnANetwork_0:
        MOV     A,R6
        JNZ     ??bdb_setNodeIsOnANetwork_2
// 2701     {
// 2702       bdbAttributes.bdbCommissioningMode = 0;
        MOV     DPTR,#bdbAttributes + 11
        CLR     A
        MOVX    @DPTR,A
// 2703     }
// 2704     
// 2705     bdbAttributes.bdbNodeIsOnANetwork = isOnANetwork;
??bdb_setNodeIsOnANetwork_2:
        MOV     A,R6
        MOV     DPTR,#bdbAttributes + 14
        MOVX    @DPTR,A
// 2706     
// 2707     osal_nv_write(ZCD_NV_BDBNODEISONANETWORK,0,sizeof(bdbAttributes.bdbNodeIsOnANetwork),&bdbAttributes.bdbNodeIsOnANetwork);
        ; Setup parameters for call to function osal_nv_write
        MOV     ?V0,#(bdbAttributes + 14) & 0xff
        MOV     ?V1,#((bdbAttributes + 14) >> 8) & 0xff
        MOV     R0,#?V0
        LCALL   ?PUSH_XSTACK_I_TWO
          CFI CFA_XSP16 add(XSP16, 12)
        MOV     ?V0,#0x1
        MOV     ?V1,#0x0
        MOV     R0,#?V0
        LCALL   ?PUSH_XSTACK_I_TWO
          CFI CFA_XSP16 add(XSP16, 14)
        MOV     R4,#0x0
        MOV     R5,#0x0
        MOV     R2,#0x55
        MOV     R3,#0x0
        LCALL   `??osal_nv_write::?relay`; Banked call to: osal_nv_write
        MOV     A,#0x4
        LCALL   ?DEALLOC_XSTACK8
          CFI CFA_XSP16 add(XSP16, 10)
// 2708   }
// 2709 }
??bdb_setNodeIsOnANetwork_1:
        LJMP    ??Subroutine31_0 & 0xFFFF
          CFI EndBlock cfiBlock198
// 2710 
// 2711 /*********************************************************************
// 2712  * @fn          bdb_setCommissioningGroupID
// 2713  *
// 2714  * @brief       Sets the commissioning groupd ID
// 2715  *
// 2716  * @param       groupID
// 2717  *
// 2718  * @return      none
// 2719  */

        RSEG BANKED_CODE:CODE:NOROOT(0)
// 2720 void bdb_setCommissioningGroupID(uint16 groupID)
bdb_setCommissioningGroupID:
          CFI Block cfiBlock199 Using cfiCommon0
          CFI Function bdb_setCommissioningGroupID
        CODE
// 2721 {
        PUSH    DPL
          CFI DPL0 Frame(CFA_SP, 4)
          CFI CFA_SP SP+-4
        PUSH    DPH
          CFI DPH0 Frame(CFA_SP, 5)
          CFI CFA_SP SP+-5
        ; Saved register size: 2
        ; Auto size: 0
// 2722   bdbAttributes.bdbCommissioningGroupID = groupID;
        MOV     DPTR,#bdbAttributes + 8
        LJMP    ?Subroutine3 & 0xFFFF
// 2723 }
          CFI EndBlock cfiBlock199
// 2724 
// 2725 /*********************************************************************
// 2726  * @fn      bdb_CreateRespondentList
// 2727  *
// 2728  * @brief   Create respondent list for finding and binding if empty
// 2729  *
// 2730  * @param   pHead - pointer to a pointer of the list head
// 2731  *
// 2732  * @return  none
// 2733  */

        RSEG BANKED_CODE:CODE:NOROOT(0)
// 2734 void bdb_CreateRespondentList( bdbFindingBindingRespondent_t **pHead )
bdb_CreateRespondentList:
          CFI Block cfiBlock200 Using cfiCommon0
          CFI Function bdb_CreateRespondentList
        CODE
// 2735 {
        FUNCALL bdb_CreateRespondentList, osal_mem_alloc
        LOCFRAME ISTACK, 0, STACK
        LOCFRAME PSTACK, 0, STACK
        LOCFRAME XSTACK, 10, STACK
        LOCFRAME IOVERLAY, 0, STATIC
        LOCFRAME DOVERLAY, 0, STATIC
        ARGFRAME ISTACK, 0, STACK
        ARGFRAME PSTACK, 0, STACK
        ARGFRAME XSTACK, 10, STACK
        ARGFRAME IOVERLAY, 0, STATIC
        ARGFRAME DOVERLAY, 0, STATIC
        REQUIRE ?V0
        REQUIRE ?V1
        MOV     A,#-0xa
        LCALL   ?BANKED_ENTER_XDATA
          CFI DPH0 load(1, XDATA, add(CFA_XSP16, literal(-1)))
          CFI DPL0 load(1, XDATA, add(CFA_XSP16, literal(-2)))
          CFI ?BRET_EXT load(1, XDATA, add(CFA_XSP16, literal(-3)))
          CFI ?RET_HIGH load(1, XDATA, add(CFA_XSP16, literal(-4)))
          CFI ?RET_LOW load(1, XDATA, add(CFA_XSP16, literal(-5)))
          CFI R7 load(1, XDATA, add(CFA_XSP16, literal(-6)))
          CFI V1 load(1, XDATA, add(CFA_XSP16, literal(-7)))
          CFI V0 load(1, XDATA, add(CFA_XSP16, literal(-8)))
          CFI VB load(1, XDATA, add(CFA_XSP16, literal(-9)))
          CFI R6 load(1, XDATA, add(CFA_XSP16, literal(-10)))
          CFI CFA_SP SP+0
          CFI CFA_XSP16 add(XSP16, 10)
        ; Saved register size: 10
        ; Auto size: 0
        LCALL   ?Subroutine12 & 0xFFFF
// 2736 
// 2737   // Create the list if empty
// 2738   if ( *pHead == NULL )
??CrossCallReturnLabel_48:
        JNZ     ??CrossCallReturnLabel_28
// 2739   {
// 2740     *pHead = ( bdbFindingBindingRespondent_t* )osal_mem_alloc( sizeof( bdbFindingBindingRespondent_t ) );
        ; Setup parameters for call to function osal_mem_alloc
        MOV     R2,#0xf
        MOV     R3,#0x0
        LCALL   `??osal_mem_alloc::?relay`; Banked call to: osal_mem_alloc
        LCALL   ?Subroutine10 & 0xFFFF
// 2741     
// 2742     if ( *pHead != NULL )
??CrossCallReturnLabel_75:
        JZ      ??CrossCallReturnLabel_28
// 2743     {
// 2744       (*pHead)->pNext = NULL;
        LCALL   ?Subroutine25 & 0xFFFF
// 2745     }
// 2746   }
// 2747   return;
??CrossCallReturnLabel_28:
        LJMP    ??Subroutine31_0 & 0xFFFF
// 2748 }
          CFI EndBlock cfiBlock200

        RSEG BANKED_CODE:CODE:NOROOT(0)
?Subroutine10:
          CFI Block cfiCond201 Using cfiCommon0
          CFI Function bdb_CreateRespondentList
          CFI Conditional ??CrossCallReturnLabel_75
          CFI R6 load(1, XDATA, add(CFA_XSP16, literal(-10)))
          CFI VB load(1, XDATA, add(CFA_XSP16, literal(-9)))
          CFI V0 load(1, XDATA, add(CFA_XSP16, literal(-8)))
          CFI V1 load(1, XDATA, add(CFA_XSP16, literal(-7)))
          CFI R7 load(1, XDATA, add(CFA_XSP16, literal(-6)))
          CFI ?RET_LOW load(1, XDATA, add(CFA_XSP16, literal(-5)))
          CFI ?RET_HIGH load(1, XDATA, add(CFA_XSP16, literal(-4)))
          CFI ?BRET_EXT load(1, XDATA, add(CFA_XSP16, literal(-3)))
          CFI DPL0 load(1, XDATA, add(CFA_XSP16, literal(-2)))
          CFI DPH0 load(1, XDATA, add(CFA_XSP16, literal(-1)))
          CFI CFA_SP SP+-2
          CFI CFA_XSP16 add(XSP16, 10)
          CFI Block cfiCond202 Using cfiCommon0
          CFI (cfiCond202) Function bdb_AddRespondentNode
          CFI (cfiCond202) Conditional ??CrossCallReturnLabel_76
          CFI (cfiCond202) R6 load(1, XDATA, add(CFA_XSP16, literal(-10)))
          CFI (cfiCond202) VB load(1, XDATA, add(CFA_XSP16, literal(-9)))
          CFI (cfiCond202) V0 load(1, XDATA, add(CFA_XSP16, literal(-8)))
          CFI (cfiCond202) V1 load(1, XDATA, add(CFA_XSP16, literal(-7)))
          CFI (cfiCond202) R7 load(1, XDATA, add(CFA_XSP16, literal(-6)))
          CFI (cfiCond202) ?RET_LOW load(1, XDATA, add(CFA_XSP16, literal(-5)))
          CFI (cfiCond202) ?RET_HIGH load(1, XDATA, add(CFA_XSP16, literal(-4)))
          CFI (cfiCond202) ?BRET_EXT load(1, XDATA, add(CFA_XSP16, literal(-3)))
          CFI (cfiCond202) DPL0 load(1, XDATA, add(CFA_XSP16, literal(-2)))
          CFI (cfiCond202) DPH0 load(1, XDATA, add(CFA_XSP16, literal(-1)))
          CFI (cfiCond202) CFA_SP SP+-2
          CFI (cfiCond202) CFA_XSP16 add(XSP16, 10)
          CFI Block cfiPicker203 Using cfiCommon1
          CFI (cfiPicker203) NoFunction
          CFI (cfiPicker203) Picker
        MOV     ?V0,R2
        MOV     ?V1,R3
        MOV     R0,?V0
        MOV     R1,?V1
          CFI EndBlock cfiCond201
          CFI EndBlock cfiCond202
          CFI EndBlock cfiPicker203
        REQUIRE ??Subroutine43_0
        ; // Fall through to label ??Subroutine43_0

        RSEG BANKED_CODE:CODE:NOROOT(0)
??Subroutine43_0:
          CFI Block cfiCond204 Using cfiCommon0
          CFI Function bdb_TCAddJoiningDevice
          CFI Conditional ??CrossCallReturnLabel_77
          CFI R6 load(1, XDATA, add(CFA_XSP16, literal(-19)))
          CFI VB load(1, XDATA, add(CFA_XSP16, literal(-18)))
          CFI V0 load(1, XDATA, add(CFA_XSP16, literal(-17)))
          CFI V1 load(1, XDATA, add(CFA_XSP16, literal(-16)))
          CFI V2 load(1, XDATA, add(CFA_XSP16, literal(-15)))
          CFI V3 load(1, XDATA, add(CFA_XSP16, literal(-14)))
          CFI V4 load(1, XDATA, add(CFA_XSP16, literal(-13)))
          CFI V5 load(1, XDATA, add(CFA_XSP16, literal(-12)))
          CFI V6 load(1, XDATA, add(CFA_XSP16, literal(-11)))
          CFI V7 load(1, XDATA, add(CFA_XSP16, literal(-10)))
          CFI V8 load(1, XDATA, add(CFA_XSP16, literal(-9)))
          CFI V9 load(1, XDATA, add(CFA_XSP16, literal(-8)))
          CFI V10 load(1, XDATA, add(CFA_XSP16, literal(-7)))
          CFI R7 load(1, XDATA, add(CFA_XSP16, literal(-6)))
          CFI ?RET_LOW load(1, XDATA, add(CFA_XSP16, literal(-5)))
          CFI ?RET_HIGH load(1, XDATA, add(CFA_XSP16, literal(-4)))
          CFI ?BRET_EXT load(1, XDATA, add(CFA_XSP16, literal(-3)))
          CFI DPL0 load(1, XDATA, add(CFA_XSP16, literal(-2)))
          CFI DPH0 load(1, XDATA, add(CFA_XSP16, literal(-1)))
          CFI CFA_SP SP+-2
          CFI CFA_XSP16 add(XSP16, 28)
          CFI Block cfiCond205 Using cfiCommon0
          CFI (cfiCond205) Function bdb_CreateRespondentList
          CFI (cfiCond205) Conditional ??CrossCallReturnLabel_75
          CFI (cfiCond205) R6 load(1, XDATA, add(CFA_XSP16, literal(-10)))
          CFI (cfiCond205) VB load(1, XDATA, add(CFA_XSP16, literal(-9)))
          CFI (cfiCond205) V0 load(1, XDATA, add(CFA_XSP16, literal(-8)))
          CFI (cfiCond205) V1 load(1, XDATA, add(CFA_XSP16, literal(-7)))
          CFI (cfiCond205) R7 load(1, XDATA, add(CFA_XSP16, literal(-6)))
          CFI (cfiCond205) ?RET_LOW load(1, XDATA, add(CFA_XSP16, literal(-5)))
          CFI (cfiCond205) ?RET_HIGH load(1, XDATA, add(CFA_XSP16, literal(-4)))
          CFI (cfiCond205) ?BRET_EXT load(1, XDATA, add(CFA_XSP16, literal(-3)))
          CFI (cfiCond205) DPL0 load(1, XDATA, add(CFA_XSP16, literal(-2)))
          CFI (cfiCond205) DPH0 load(1, XDATA, add(CFA_XSP16, literal(-1)))
          CFI (cfiCond205) CFA_SP SP+-2
          CFI (cfiCond205) CFA_XSP16 add(XSP16, 10)
          CFI Block cfiCond206 Using cfiCommon0
          CFI (cfiCond206) Function bdb_AddRespondentNode
          CFI (cfiCond206) Conditional ??CrossCallReturnLabel_76
          CFI (cfiCond206) R6 load(1, XDATA, add(CFA_XSP16, literal(-10)))
          CFI (cfiCond206) VB load(1, XDATA, add(CFA_XSP16, literal(-9)))
          CFI (cfiCond206) V0 load(1, XDATA, add(CFA_XSP16, literal(-8)))
          CFI (cfiCond206) V1 load(1, XDATA, add(CFA_XSP16, literal(-7)))
          CFI (cfiCond206) R7 load(1, XDATA, add(CFA_XSP16, literal(-6)))
          CFI (cfiCond206) ?RET_LOW load(1, XDATA, add(CFA_XSP16, literal(-5)))
          CFI (cfiCond206) ?RET_HIGH load(1, XDATA, add(CFA_XSP16, literal(-4)))
          CFI (cfiCond206) ?BRET_EXT load(1, XDATA, add(CFA_XSP16, literal(-3)))
          CFI (cfiCond206) DPL0 load(1, XDATA, add(CFA_XSP16, literal(-2)))
          CFI (cfiCond206) DPH0 load(1, XDATA, add(CFA_XSP16, literal(-1)))
          CFI (cfiCond206) CFA_SP SP+-2
          CFI (cfiCond206) CFA_XSP16 add(XSP16, 10)
          CFI Block cfiPicker207 Using cfiCommon1
          CFI (cfiPicker207) NoFunction
          CFI (cfiPicker207) Picker
        MOV     DPL,R6
        MOV     DPH,R7
        MOV     A,R0
        MOVX    @DPTR,A
        INC     DPTR
        MOV     A,R1
        MOVX    @DPTR,A
        MOV     A,R0
        ORL     A,R1
        RET
          CFI EndBlock cfiCond204
          CFI EndBlock cfiCond205
          CFI EndBlock cfiCond206
          CFI EndBlock cfiPicker207
// 2749 
// 2750 /*********************************************************************
// 2751  * @fn      bdb_AddRespondentNode
// 2752  *
// 2753  * @brief   Add node to respondent list for finding and binding
// 2754  *
// 2755  * @param   pHead - pointer to a pointer of the list head
// 2756  *
// 2757  * @return  pointer to new node
// 2758  */

        RSEG BANKED_CODE:CODE:NOROOT(0)
// 2759 bdbFindingBindingRespondent_t* bdb_AddRespondentNode( bdbFindingBindingRespondent_t **pHead, zclIdentifyQueryRsp_t *pCmd )
bdb_AddRespondentNode:
          CFI Block cfiBlock208 Using cfiCommon0
          CFI Function bdb_AddRespondentNode
        CODE
// 2760 {
        FUNCALL bdb_AddRespondentNode, bdb_CreateRespondentList
        LOCFRAME ISTACK, 0, STACK
        LOCFRAME PSTACK, 0, STACK
        LOCFRAME XSTACK, 10, STACK
        LOCFRAME IOVERLAY, 0, STATIC
        LOCFRAME DOVERLAY, 0, STATIC
        ARGFRAME ISTACK, 0, STACK
        ARGFRAME PSTACK, 0, STACK
        ARGFRAME XSTACK, 10, STACK
        ARGFRAME IOVERLAY, 0, STATIC
        ARGFRAME DOVERLAY, 0, STATIC
        FUNCALL bdb_AddRespondentNode, osal_mem_alloc
        LOCFRAME ISTACK, 0, STACK
        LOCFRAME PSTACK, 0, STACK
        LOCFRAME XSTACK, 10, STACK
        LOCFRAME IOVERLAY, 0, STATIC
        LOCFRAME DOVERLAY, 0, STATIC
        ARGFRAME ISTACK, 0, STACK
        ARGFRAME PSTACK, 0, STACK
        ARGFRAME XSTACK, 10, STACK
        ARGFRAME IOVERLAY, 0, STATIC
        ARGFRAME DOVERLAY, 0, STATIC
        REQUIRE ?V0
        REQUIRE ?V1
        MOV     A,#-0xa
        LCALL   ?BANKED_ENTER_XDATA
          CFI DPH0 load(1, XDATA, add(CFA_XSP16, literal(-1)))
          CFI DPL0 load(1, XDATA, add(CFA_XSP16, literal(-2)))
          CFI ?BRET_EXT load(1, XDATA, add(CFA_XSP16, literal(-3)))
          CFI ?RET_HIGH load(1, XDATA, add(CFA_XSP16, literal(-4)))
          CFI ?RET_LOW load(1, XDATA, add(CFA_XSP16, literal(-5)))
          CFI R7 load(1, XDATA, add(CFA_XSP16, literal(-6)))
          CFI V1 load(1, XDATA, add(CFA_XSP16, literal(-7)))
          CFI V0 load(1, XDATA, add(CFA_XSP16, literal(-8)))
          CFI VB load(1, XDATA, add(CFA_XSP16, literal(-9)))
          CFI R6 load(1, XDATA, add(CFA_XSP16, literal(-10)))
          CFI CFA_SP SP+0
          CFI CFA_XSP16 add(XSP16, 10)
        ; Saved register size: 10
        ; Auto size: 0
        LCALL   ?Subroutine12 & 0xFFFF
// 2761   bdbFindingBindingRespondent_t **pCurr;
// 2762   bdbFindingBindingRespondent_t *temp;
// 2763   
// 2764     // Create respondent list if empty
// 2765   if ( *pHead == NULL )
??CrossCallReturnLabel_49:
        JNZ     ??bdb_AddRespondentNode_0
// 2766   {
// 2767     bdb_CreateRespondentList( pHead );
        ; Setup parameters for call to function bdb_CreateRespondentList
        LCALL   `??bdb_CreateRespondentList::?relay`; Banked call to: bdb_CreateRespondentList
// 2768     return *pHead;
        LJMP    ??CrossCallReturnLabel_29 & 0xFFFF
// 2769   }
// 2770   else
// 2771   {
// 2772     // if pCmd is equal to NULL, don't look for duplucates
// 2773     if( pCmd != NULL )
??bdb_AddRespondentNode_0:
        MOV     A,R4
        ORL     A,R5
        JZ      ??bdb_AddRespondentNode_1
// 2774     {
// 2775       //Find if any duplicate in the list
// 2776       temp = *pHead;
        MOV     A,R0
        MOV     R2,A
        MOV     A,R1
        MOV     R3,A
        MOV     DPL,R4
        MOV     DPH,R5
        MOVX    A,@DPTR
        MOV     R4,A
        INC     DPTR
        MOVX    A,@DPTR
        MOV     R5,A
// 2777       
// 2778       while(temp != NULL)
// 2779       {
// 2780         if((temp->data.endPoint == pCmd->srcAddr->endPoint) && (temp->data.panId == pCmd->srcAddr->panId))
??bdb_AddRespondentNode_2:
        MOV     DPL,R2
        MOV     DPH,R3
        INC     DPTR
        INC     DPTR
        INC     DPTR
        INC     DPTR
        INC     DPTR
        INC     DPTR
        INC     DPTR
        INC     DPTR
        INC     DPTR
        MOVX    A,@DPTR
        MOV     R6,A
        MOV     DPL,R4
        MOV     DPH,R5
        INC     DPTR
        INC     DPTR
        INC     DPTR
        INC     DPTR
        INC     DPTR
        INC     DPTR
        INC     DPTR
        INC     DPTR
        INC     DPTR
        MOVX    A,@DPTR
        XRL     A,R6
        JNZ     ??bdb_AddRespondentNode_3
        MOV     DPL,R2
        MOV     DPH,R3
        INC     DPTR
        INC     DPTR
        INC     DPTR
        INC     DPTR
        INC     DPTR
        INC     DPTR
        INC     DPTR
        INC     DPTR
        INC     DPTR
        INC     DPTR
        LCALL   ?Subroutine23 & 0xFFFF
??CrossCallReturnLabel_24:
        INC     DPTR
        INC     DPTR
        INC     DPTR
        INC     DPTR
        INC     DPTR
        INC     DPTR
        INC     DPTR
        INC     DPTR
        INC     DPTR
        INC     DPTR
        MOVX    A,@DPTR
        XRL     A,R6
        JNZ     ??bdb_AddRespondentNode_4
        INC     DPTR
        MOVX    A,@DPTR
        XRL     A,R7
??bdb_AddRespondentNode_4:
        JNZ     ??bdb_AddRespondentNode_3
// 2781         {
// 2782           //Duplicate
// 2783           if(temp->data.addr.shortAddr == pCmd->srcAddr->addr.shortAddr)
        MOV     DPL,R2
        MOV     DPH,R3
        LCALL   ?Subroutine23 & 0xFFFF
// 2784           {
// 2785             return NULL;
// 2786           }
// 2787         }
??CrossCallReturnLabel_25:
        MOVX    A,@DPTR
        XRL     A,R6
        JNZ     ??bdb_AddRespondentNode_5
        INC     DPTR
        MOVX    A,@DPTR
        XRL     A,R7
??bdb_AddRespondentNode_5:
        JZ      ??bdb_AddRespondentNode_6
// 2788         temp = temp->pNext;
??bdb_AddRespondentNode_3:
        MOV     A,R2
        ADD     A,#0xd
        MOV     DPL,A
        CLR     A
        ADDC    A,R3
        MOV     DPH,A
        LCALL   ?Subroutine14 & 0xFFFF
// 2789       }
// 2790     }
??CrossCallReturnLabel_6:
        JNZ     ??bdb_AddRespondentNode_2
// 2791     
// 2792     pCurr = &((*pHead)->pNext);
// 2793     
// 2794     while ( *pCurr != NULL )
// 2795     {
// 2796       pCurr = &((*pCurr)->pNext);
??bdb_AddRespondentNode_1:
        MOV     A,R0
        ADD     A,#0xd
        MOV     R6,A
        CLR     A
        ADDC    A,R1
        LCALL   ??Subroutine39_0 & 0xFFFF
// 2797     }
??CrossCallReturnLabel_51:
        JNZ     ??bdb_AddRespondentNode_1
// 2798 
// 2799     *pCurr = ( bdbFindingBindingRespondent_t* )osal_mem_alloc( sizeof( bdbFindingBindingRespondent_t ) );
        ; Setup parameters for call to function osal_mem_alloc
        MOV     R2,#0xf
        MOV     R3,#0x0
        LCALL   `??osal_mem_alloc::?relay`; Banked call to: osal_mem_alloc
        LCALL   ?Subroutine10 & 0xFFFF
// 2800     
// 2801     if(*pCurr == NULL)
??CrossCallReturnLabel_76:
        JNZ     ??bdb_AddRespondentNode_7
// 2802     {
// 2803       //No memory
// 2804       return NULL;
??bdb_AddRespondentNode_6:
        MOV     R2,#0x0
        MOV     R3,#0x0
        SJMP    ??CrossCallReturnLabel_85
// 2805     }
// 2806     
// 2807     (*pCurr)->pNext = NULL;
??bdb_AddRespondentNode_7:
        LCALL   ?Subroutine25 & 0xFFFF
// 2808   }
// 2809   
// 2810   return *pCurr;
??CrossCallReturnLabel_29:
        MOV     DPL,R6
        MOV     DPH,R7
        LCALL   ??Subroutine45_0 & 0xFFFF
??CrossCallReturnLabel_85:
        LJMP    ??Subroutine31_0 & 0xFFFF
// 2811 }
          CFI EndBlock cfiBlock208

        RSEG BANKED_CODE:CODE:NOROOT(0)
?Subroutine25:
          CFI Block cfiCond209 Using cfiCommon0
          CFI Function bdb_CreateRespondentList
          CFI Conditional ??CrossCallReturnLabel_28
          CFI R6 load(1, XDATA, add(CFA_XSP16, literal(-10)))
          CFI VB load(1, XDATA, add(CFA_XSP16, literal(-9)))
          CFI V0 load(1, XDATA, add(CFA_XSP16, literal(-8)))
          CFI V1 load(1, XDATA, add(CFA_XSP16, literal(-7)))
          CFI R7 load(1, XDATA, add(CFA_XSP16, literal(-6)))
          CFI ?RET_LOW load(1, XDATA, add(CFA_XSP16, literal(-5)))
          CFI ?RET_HIGH load(1, XDATA, add(CFA_XSP16, literal(-4)))
          CFI ?BRET_EXT load(1, XDATA, add(CFA_XSP16, literal(-3)))
          CFI DPL0 load(1, XDATA, add(CFA_XSP16, literal(-2)))
          CFI DPH0 load(1, XDATA, add(CFA_XSP16, literal(-1)))
          CFI CFA_SP SP+-2
          CFI CFA_XSP16 add(XSP16, 10)
          CFI Block cfiCond210 Using cfiCommon0
          CFI (cfiCond210) Function bdb_AddRespondentNode
          CFI (cfiCond210) Conditional ??CrossCallReturnLabel_29
          CFI (cfiCond210) R6 load(1, XDATA, add(CFA_XSP16, literal(-10)))
          CFI (cfiCond210) VB load(1, XDATA, add(CFA_XSP16, literal(-9)))
          CFI (cfiCond210) V0 load(1, XDATA, add(CFA_XSP16, literal(-8)))
          CFI (cfiCond210) V1 load(1, XDATA, add(CFA_XSP16, literal(-7)))
          CFI (cfiCond210) R7 load(1, XDATA, add(CFA_XSP16, literal(-6)))
          CFI (cfiCond210) ?RET_LOW load(1, XDATA, add(CFA_XSP16, literal(-5)))
          CFI (cfiCond210) ?RET_HIGH load(1, XDATA, add(CFA_XSP16, literal(-4)))
          CFI (cfiCond210) ?BRET_EXT load(1, XDATA, add(CFA_XSP16, literal(-3)))
          CFI (cfiCond210) DPL0 load(1, XDATA, add(CFA_XSP16, literal(-2)))
          CFI (cfiCond210) DPH0 load(1, XDATA, add(CFA_XSP16, literal(-1)))
          CFI (cfiCond210) CFA_SP SP+-2
          CFI (cfiCond210) CFA_XSP16 add(XSP16, 10)
          CFI Block cfiPicker211 Using cfiCommon1
          CFI (cfiPicker211) NoFunction
          CFI (cfiPicker211) Picker
        MOV     A,R0
        ADD     A,#0xd
        MOV     DPL,A
        CLR     A
        ADDC    A,R1
        MOV     DPH,A
        CLR     A
        MOVX    @DPTR,A
        INC     DPTR
        MOVX    @DPTR,A
        RET
          CFI EndBlock cfiCond209
          CFI EndBlock cfiCond210
          CFI EndBlock cfiPicker211

        RSEG BANKED_CODE:CODE:NOROOT(0)
?Subroutine23:
          CFI Block cfiCond212 Using cfiCommon0
          CFI Function bdb_AddRespondentNode
          CFI Conditional ??CrossCallReturnLabel_24
          CFI R6 load(1, XDATA, add(CFA_XSP16, literal(-10)))
          CFI VB load(1, XDATA, add(CFA_XSP16, literal(-9)))
          CFI V0 load(1, XDATA, add(CFA_XSP16, literal(-8)))
          CFI V1 load(1, XDATA, add(CFA_XSP16, literal(-7)))
          CFI R7 load(1, XDATA, add(CFA_XSP16, literal(-6)))
          CFI ?RET_LOW load(1, XDATA, add(CFA_XSP16, literal(-5)))
          CFI ?RET_HIGH load(1, XDATA, add(CFA_XSP16, literal(-4)))
          CFI ?BRET_EXT load(1, XDATA, add(CFA_XSP16, literal(-3)))
          CFI DPL0 load(1, XDATA, add(CFA_XSP16, literal(-2)))
          CFI DPH0 load(1, XDATA, add(CFA_XSP16, literal(-1)))
          CFI CFA_SP SP+-2
          CFI CFA_XSP16 add(XSP16, 10)
          CFI Block cfiCond213 Using cfiCommon0
          CFI (cfiCond213) Function bdb_AddRespondentNode
          CFI (cfiCond213) Conditional ??CrossCallReturnLabel_25
          CFI (cfiCond213) R6 load(1, XDATA, add(CFA_XSP16, literal(-10)))
          CFI (cfiCond213) VB load(1, XDATA, add(CFA_XSP16, literal(-9)))
          CFI (cfiCond213) V0 load(1, XDATA, add(CFA_XSP16, literal(-8)))
          CFI (cfiCond213) V1 load(1, XDATA, add(CFA_XSP16, literal(-7)))
          CFI (cfiCond213) R7 load(1, XDATA, add(CFA_XSP16, literal(-6)))
          CFI (cfiCond213) ?RET_LOW load(1, XDATA, add(CFA_XSP16, literal(-5)))
          CFI (cfiCond213) ?RET_HIGH load(1, XDATA, add(CFA_XSP16, literal(-4)))
          CFI (cfiCond213) ?BRET_EXT load(1, XDATA, add(CFA_XSP16, literal(-3)))
          CFI (cfiCond213) DPL0 load(1, XDATA, add(CFA_XSP16, literal(-2)))
          CFI (cfiCond213) DPH0 load(1, XDATA, add(CFA_XSP16, literal(-1)))
          CFI (cfiCond213) CFA_SP SP+-2
          CFI (cfiCond213) CFA_XSP16 add(XSP16, 10)
          CFI Block cfiPicker214 Using cfiCommon1
          CFI (cfiPicker214) NoFunction
          CFI (cfiPicker214) Picker
        LCALL   ??Subroutine44_0 & 0xFFFF
??CrossCallReturnLabel_79:
        MOV     DPL,R4
        MOV     DPH,R5
        RET
          CFI EndBlock cfiCond212
          CFI EndBlock cfiCond213
          CFI EndBlock cfiPicker214

        RSEG BANKED_CODE:CODE:NOROOT(0)
?Subroutine28:
          CFI Block cfiCond215 Using cfiCommon0
          CFI Function bdb_TCAddJoiningDevice
          CFI Conditional ??CrossCallReturnLabel_80
          CFI R6 load(1, XDATA, add(CFA_XSP16, literal(-19)))
          CFI VB load(1, XDATA, add(CFA_XSP16, literal(-18)))
          CFI V0 load(1, XDATA, add(CFA_XSP16, literal(-17)))
          CFI V1 load(1, XDATA, add(CFA_XSP16, literal(-16)))
          CFI V2 load(1, XDATA, add(CFA_XSP16, literal(-15)))
          CFI V3 load(1, XDATA, add(CFA_XSP16, literal(-14)))
          CFI V4 load(1, XDATA, add(CFA_XSP16, literal(-13)))
          CFI V5 load(1, XDATA, add(CFA_XSP16, literal(-12)))
          CFI V6 load(1, XDATA, add(CFA_XSP16, literal(-11)))
          CFI V7 load(1, XDATA, add(CFA_XSP16, literal(-10)))
          CFI V8 load(1, XDATA, add(CFA_XSP16, literal(-9)))
          CFI V9 load(1, XDATA, add(CFA_XSP16, literal(-8)))
          CFI V10 load(1, XDATA, add(CFA_XSP16, literal(-7)))
          CFI R7 load(1, XDATA, add(CFA_XSP16, literal(-6)))
          CFI ?RET_LOW load(1, XDATA, add(CFA_XSP16, literal(-5)))
          CFI ?RET_HIGH load(1, XDATA, add(CFA_XSP16, literal(-4)))
          CFI ?BRET_EXT load(1, XDATA, add(CFA_XSP16, literal(-3)))
          CFI DPL0 load(1, XDATA, add(CFA_XSP16, literal(-2)))
          CFI DPH0 load(1, XDATA, add(CFA_XSP16, literal(-1)))
          CFI CFA_SP SP+-2
          CFI CFA_XSP16 add(XSP16, 28)
          CFI Block cfiCond216 Using cfiCommon0
          CFI (cfiCond216) Function bdb_TCjoiningDeviceComplete
          CFI (cfiCond216) Conditional ??CrossCallReturnLabel_81
          CFI (cfiCond216) R6 load(1, XDATA, add(CFA_XSP16, literal(-19)))
          CFI (cfiCond216) VB load(1, XDATA, add(CFA_XSP16, literal(-18)))
          CFI (cfiCond216) V0 load(1, XDATA, add(CFA_XSP16, literal(-17)))
          CFI (cfiCond216) V1 load(1, XDATA, add(CFA_XSP16, literal(-16)))
          CFI (cfiCond216) V2 load(1, XDATA, add(CFA_XSP16, literal(-15)))
          CFI (cfiCond216) V3 load(1, XDATA, add(CFA_XSP16, literal(-14)))
          CFI (cfiCond216) V4 load(1, XDATA, add(CFA_XSP16, literal(-13)))
          CFI (cfiCond216) V5 load(1, XDATA, add(CFA_XSP16, literal(-12)))
          CFI (cfiCond216) V6 load(1, XDATA, add(CFA_XSP16, literal(-11)))
          CFI (cfiCond216) V7 load(1, XDATA, add(CFA_XSP16, literal(-10)))
          CFI (cfiCond216) V8 load(1, XDATA, add(CFA_XSP16, literal(-9)))
          CFI (cfiCond216) V9 load(1, XDATA, add(CFA_XSP16, literal(-8)))
          CFI (cfiCond216) V10 load(1, XDATA, add(CFA_XSP16, literal(-7)))
          CFI (cfiCond216) R7 load(1, XDATA, add(CFA_XSP16, literal(-6)))
          CFI (cfiCond216) ?RET_LOW load(1, XDATA, add(CFA_XSP16, literal(-5)))
          CFI (cfiCond216) ?RET_HIGH load(1, XDATA, add(CFA_XSP16, literal(-4)))
          CFI (cfiCond216) ?BRET_EXT load(1, XDATA, add(CFA_XSP16, literal(-3)))
          CFI (cfiCond216) DPL0 load(1, XDATA, add(CFA_XSP16, literal(-2)))
          CFI (cfiCond216) DPH0 load(1, XDATA, add(CFA_XSP16, literal(-1)))
          CFI (cfiCond216) CFA_SP SP+-2
          CFI (cfiCond216) CFA_XSP16 add(XSP16, 28)
          CFI Block cfiPicker217 Using cfiCommon1
          CFI (cfiPicker217) NoFunction
          CFI (cfiPicker217) Picker
        MOV     DPTR,#bdb_joiningDeviceList
          CFI EndBlock cfiCond215
          CFI EndBlock cfiCond216
          CFI EndBlock cfiPicker217
        REQUIRE ??Subroutine44_0
        ; // Fall through to label ??Subroutine44_0

        RSEG BANKED_CODE:CODE:NOROOT(0)
??Subroutine44_0:
          CFI Block cfiCond218 Using cfiCommon0
          CFI Function bdb_TCjoiningDeviceComplete
          CFI Conditional ??CrossCallReturnLabel_78
          CFI R6 load(1, XDATA, add(CFA_XSP16, literal(-19)))
          CFI VB load(1, XDATA, add(CFA_XSP16, literal(-18)))
          CFI V0 load(1, XDATA, add(CFA_XSP16, literal(-17)))
          CFI V1 load(1, XDATA, add(CFA_XSP16, literal(-16)))
          CFI V2 load(1, XDATA, add(CFA_XSP16, literal(-15)))
          CFI V3 load(1, XDATA, add(CFA_XSP16, literal(-14)))
          CFI V4 load(1, XDATA, add(CFA_XSP16, literal(-13)))
          CFI V5 load(1, XDATA, add(CFA_XSP16, literal(-12)))
          CFI V6 load(1, XDATA, add(CFA_XSP16, literal(-11)))
          CFI V7 load(1, XDATA, add(CFA_XSP16, literal(-10)))
          CFI V8 load(1, XDATA, add(CFA_XSP16, literal(-9)))
          CFI V9 load(1, XDATA, add(CFA_XSP16, literal(-8)))
          CFI V10 load(1, XDATA, add(CFA_XSP16, literal(-7)))
          CFI R7 load(1, XDATA, add(CFA_XSP16, literal(-6)))
          CFI ?RET_LOW load(1, XDATA, add(CFA_XSP16, literal(-5)))
          CFI ?RET_HIGH load(1, XDATA, add(CFA_XSP16, literal(-4)))
          CFI ?BRET_EXT load(1, XDATA, add(CFA_XSP16, literal(-3)))
          CFI DPL0 load(1, XDATA, add(CFA_XSP16, literal(-2)))
          CFI DPH0 load(1, XDATA, add(CFA_XSP16, literal(-1)))
          CFI CFA_SP SP+-2
          CFI CFA_XSP16 add(XSP16, 28)
          CFI Block cfiCond219 Using cfiCommon0
          CFI (cfiCond219) Function bdb_AddRespondentNode
          CFI (cfiCond219) Conditional ??CrossCallReturnLabel_79, ??CrossCallReturnLabel_24
          CFI (cfiCond219) R6 load(1, XDATA, add(CFA_XSP16, literal(-10)))
          CFI (cfiCond219) VB load(1, XDATA, add(CFA_XSP16, literal(-9)))
          CFI (cfiCond219) V0 load(1, XDATA, add(CFA_XSP16, literal(-8)))
          CFI (cfiCond219) V1 load(1, XDATA, add(CFA_XSP16, literal(-7)))
          CFI (cfiCond219) R7 load(1, XDATA, add(CFA_XSP16, literal(-6)))
          CFI (cfiCond219) ?RET_LOW load(1, XDATA, add(CFA_XSP16, literal(-5)))
          CFI (cfiCond219) ?RET_HIGH load(1, XDATA, add(CFA_XSP16, literal(-4)))
          CFI (cfiCond219) ?BRET_EXT load(1, XDATA, add(CFA_XSP16, literal(-3)))
          CFI (cfiCond219) DPL0 load(1, XDATA, add(CFA_XSP16, literal(-2)))
          CFI (cfiCond219) DPH0 load(1, XDATA, add(CFA_XSP16, literal(-1)))
          CFI (cfiCond219) CFA_SP SP+-4
          CFI (cfiCond219) CFA_XSP16 add(XSP16, 10)
          CFI Block cfiCond220 Using cfiCommon0
          CFI (cfiCond220) Function bdb_AddRespondentNode
          CFI (cfiCond220) Conditional ??CrossCallReturnLabel_79, ??CrossCallReturnLabel_25
          CFI (cfiCond220) R6 load(1, XDATA, add(CFA_XSP16, literal(-10)))
          CFI (cfiCond220) VB load(1, XDATA, add(CFA_XSP16, literal(-9)))
          CFI (cfiCond220) V0 load(1, XDATA, add(CFA_XSP16, literal(-8)))
          CFI (cfiCond220) V1 load(1, XDATA, add(CFA_XSP16, literal(-7)))
          CFI (cfiCond220) R7 load(1, XDATA, add(CFA_XSP16, literal(-6)))
          CFI (cfiCond220) ?RET_LOW load(1, XDATA, add(CFA_XSP16, literal(-5)))
          CFI (cfiCond220) ?RET_HIGH load(1, XDATA, add(CFA_XSP16, literal(-4)))
          CFI (cfiCond220) ?BRET_EXT load(1, XDATA, add(CFA_XSP16, literal(-3)))
          CFI (cfiCond220) DPL0 load(1, XDATA, add(CFA_XSP16, literal(-2)))
          CFI (cfiCond220) DPH0 load(1, XDATA, add(CFA_XSP16, literal(-1)))
          CFI (cfiCond220) CFA_SP SP+-4
          CFI (cfiCond220) CFA_XSP16 add(XSP16, 10)
          CFI Block cfiCond221 Using cfiCommon0
          CFI (cfiCond221) Function bdb_TCAddJoiningDevice
          CFI (cfiCond221) Conditional ??CrossCallReturnLabel_80
          CFI (cfiCond221) R6 load(1, XDATA, add(CFA_XSP16, literal(-19)))
          CFI (cfiCond221) VB load(1, XDATA, add(CFA_XSP16, literal(-18)))
          CFI (cfiCond221) V0 load(1, XDATA, add(CFA_XSP16, literal(-17)))
          CFI (cfiCond221) V1 load(1, XDATA, add(CFA_XSP16, literal(-16)))
          CFI (cfiCond221) V2 load(1, XDATA, add(CFA_XSP16, literal(-15)))
          CFI (cfiCond221) V3 load(1, XDATA, add(CFA_XSP16, literal(-14)))
          CFI (cfiCond221) V4 load(1, XDATA, add(CFA_XSP16, literal(-13)))
          CFI (cfiCond221) V5 load(1, XDATA, add(CFA_XSP16, literal(-12)))
          CFI (cfiCond221) V6 load(1, XDATA, add(CFA_XSP16, literal(-11)))
          CFI (cfiCond221) V7 load(1, XDATA, add(CFA_XSP16, literal(-10)))
          CFI (cfiCond221) V8 load(1, XDATA, add(CFA_XSP16, literal(-9)))
          CFI (cfiCond221) V9 load(1, XDATA, add(CFA_XSP16, literal(-8)))
          CFI (cfiCond221) V10 load(1, XDATA, add(CFA_XSP16, literal(-7)))
          CFI (cfiCond221) R7 load(1, XDATA, add(CFA_XSP16, literal(-6)))
          CFI (cfiCond221) ?RET_LOW load(1, XDATA, add(CFA_XSP16, literal(-5)))
          CFI (cfiCond221) ?RET_HIGH load(1, XDATA, add(CFA_XSP16, literal(-4)))
          CFI (cfiCond221) ?BRET_EXT load(1, XDATA, add(CFA_XSP16, literal(-3)))
          CFI (cfiCond221) DPL0 load(1, XDATA, add(CFA_XSP16, literal(-2)))
          CFI (cfiCond221) DPH0 load(1, XDATA, add(CFA_XSP16, literal(-1)))
          CFI (cfiCond221) CFA_SP SP+-2
          CFI (cfiCond221) CFA_XSP16 add(XSP16, 28)
          CFI Block cfiCond222 Using cfiCommon0
          CFI (cfiCond222) Function bdb_TCjoiningDeviceComplete
          CFI (cfiCond222) Conditional ??CrossCallReturnLabel_81
          CFI (cfiCond222) R6 load(1, XDATA, add(CFA_XSP16, literal(-19)))
          CFI (cfiCond222) VB load(1, XDATA, add(CFA_XSP16, literal(-18)))
          CFI (cfiCond222) V0 load(1, XDATA, add(CFA_XSP16, literal(-17)))
          CFI (cfiCond222) V1 load(1, XDATA, add(CFA_XSP16, literal(-16)))
          CFI (cfiCond222) V2 load(1, XDATA, add(CFA_XSP16, literal(-15)))
          CFI (cfiCond222) V3 load(1, XDATA, add(CFA_XSP16, literal(-14)))
          CFI (cfiCond222) V4 load(1, XDATA, add(CFA_XSP16, literal(-13)))
          CFI (cfiCond222) V5 load(1, XDATA, add(CFA_XSP16, literal(-12)))
          CFI (cfiCond222) V6 load(1, XDATA, add(CFA_XSP16, literal(-11)))
          CFI (cfiCond222) V7 load(1, XDATA, add(CFA_XSP16, literal(-10)))
          CFI (cfiCond222) V8 load(1, XDATA, add(CFA_XSP16, literal(-9)))
          CFI (cfiCond222) V9 load(1, XDATA, add(CFA_XSP16, literal(-8)))
          CFI (cfiCond222) V10 load(1, XDATA, add(CFA_XSP16, literal(-7)))
          CFI (cfiCond222) R7 load(1, XDATA, add(CFA_XSP16, literal(-6)))
          CFI (cfiCond222) ?RET_LOW load(1, XDATA, add(CFA_XSP16, literal(-5)))
          CFI (cfiCond222) ?RET_HIGH load(1, XDATA, add(CFA_XSP16, literal(-4)))
          CFI (cfiCond222) ?BRET_EXT load(1, XDATA, add(CFA_XSP16, literal(-3)))
          CFI (cfiCond222) DPL0 load(1, XDATA, add(CFA_XSP16, literal(-2)))
          CFI (cfiCond222) DPH0 load(1, XDATA, add(CFA_XSP16, literal(-1)))
          CFI (cfiCond222) CFA_SP SP+-2
          CFI (cfiCond222) CFA_XSP16 add(XSP16, 28)
          CFI Block cfiPicker223 Using cfiCommon1
          CFI (cfiPicker223) NoFunction
          CFI (cfiPicker223) Picker
        MOVX    A,@DPTR
        MOV     R6,A
        INC     DPTR
        MOVX    A,@DPTR
        MOV     R7,A
        RET
          CFI EndBlock cfiCond218
          CFI EndBlock cfiCond219
          CFI EndBlock cfiCond220
          CFI EndBlock cfiCond221
          CFI EndBlock cfiCond222
          CFI EndBlock cfiPicker223

        RSEG BANKED_CODE:CODE:NOROOT(0)
?Subroutine19:
          CFI Block cfiCond224 Using cfiCommon0
          CFI Function bdb_reportCommissioningState
          CFI Conditional ??CrossCallReturnLabel_87
          CFI R6 load(1, XDATA, add(CFA_XSP16, literal(-10)))
          CFI VB load(1, XDATA, add(CFA_XSP16, literal(-9)))
          CFI V0 load(1, XDATA, add(CFA_XSP16, literal(-8)))
          CFI V1 load(1, XDATA, add(CFA_XSP16, literal(-7)))
          CFI R7 load(1, XDATA, add(CFA_XSP16, literal(-6)))
          CFI ?RET_LOW load(1, XDATA, add(CFA_XSP16, literal(-5)))
          CFI ?RET_HIGH load(1, XDATA, add(CFA_XSP16, literal(-4)))
          CFI ?BRET_EXT load(1, XDATA, add(CFA_XSP16, literal(-3)))
          CFI DPL0 load(1, XDATA, add(CFA_XSP16, literal(-2)))
          CFI DPH0 load(1, XDATA, add(CFA_XSP16, literal(-1)))
          CFI CFA_SP SP+-2
          CFI CFA_XSP16 add(XSP16, 14)
          CFI Block cfiCond225 Using cfiCommon0
          CFI (cfiCond225) Function bdb_event_loop
          CFI (cfiCond225) Conditional ??CrossCallReturnLabel_88
          CFI (cfiCond225) R6 load(1, XDATA, add(CFA_XSP16, literal(-16)))
          CFI (cfiCond225) VB load(1, XDATA, add(CFA_XSP16, literal(-15)))
          CFI (cfiCond225) V0 load(1, XDATA, add(CFA_XSP16, literal(-14)))
          CFI (cfiCond225) V1 load(1, XDATA, add(CFA_XSP16, literal(-13)))
          CFI (cfiCond225) V2 load(1, XDATA, add(CFA_XSP16, literal(-12)))
          CFI (cfiCond225) V3 load(1, XDATA, add(CFA_XSP16, literal(-11)))
          CFI (cfiCond225) V4 load(1, XDATA, add(CFA_XSP16, literal(-10)))
          CFI (cfiCond225) V5 load(1, XDATA, add(CFA_XSP16, literal(-9)))
          CFI (cfiCond225) V6 load(1, XDATA, add(CFA_XSP16, literal(-8)))
          CFI (cfiCond225) V7 load(1, XDATA, add(CFA_XSP16, literal(-7)))
          CFI (cfiCond225) R7 load(1, XDATA, add(CFA_XSP16, literal(-6)))
          CFI (cfiCond225) ?RET_LOW load(1, XDATA, add(CFA_XSP16, literal(-5)))
          CFI (cfiCond225) ?RET_HIGH load(1, XDATA, add(CFA_XSP16, literal(-4)))
          CFI (cfiCond225) ?BRET_EXT load(1, XDATA, add(CFA_XSP16, literal(-3)))
          CFI (cfiCond225) DPL0 load(1, XDATA, add(CFA_XSP16, literal(-2)))
          CFI (cfiCond225) DPH0 load(1, XDATA, add(CFA_XSP16, literal(-1)))
          CFI (cfiCond225) CFA_SP SP+-2
          CFI (cfiCond225) CFA_XSP16 add(XSP16, 24)
          CFI Block cfiPicker226 Using cfiCommon1
          CFI (cfiPicker226) NoFunction
          CFI (cfiPicker226) Picker
        MOV     DPTR,#pRespondentHead
          CFI EndBlock cfiCond224
          CFI EndBlock cfiCond225
          CFI EndBlock cfiPicker226
        REQUIRE ??Subroutine45_0
        ; // Fall through to label ??Subroutine45_0

        RSEG BANKED_CODE:CODE:NOROOT(0)
??Subroutine45_0:
          CFI Block cfiCond227 Using cfiCommon0
          CFI Function bdb_TCProcessJoiningList
          CFI Conditional ??CrossCallReturnLabel_82
          CFI R6 load(1, XDATA, add(CFA_XSP16, literal(-16)))
          CFI VB load(1, XDATA, add(CFA_XSP16, literal(-15)))
          CFI V0 load(1, XDATA, add(CFA_XSP16, literal(-14)))
          CFI V1 load(1, XDATA, add(CFA_XSP16, literal(-13)))
          CFI V2 load(1, XDATA, add(CFA_XSP16, literal(-12)))
          CFI V3 load(1, XDATA, add(CFA_XSP16, literal(-11)))
          CFI V4 load(1, XDATA, add(CFA_XSP16, literal(-10)))
          CFI V5 load(1, XDATA, add(CFA_XSP16, literal(-9)))
          CFI V6 load(1, XDATA, add(CFA_XSP16, literal(-8)))
          CFI V7 load(1, XDATA, add(CFA_XSP16, literal(-7)))
          CFI R7 load(1, XDATA, add(CFA_XSP16, literal(-6)))
          CFI ?RET_LOW load(1, XDATA, add(CFA_XSP16, literal(-5)))
          CFI ?RET_HIGH load(1, XDATA, add(CFA_XSP16, literal(-4)))
          CFI ?BRET_EXT load(1, XDATA, add(CFA_XSP16, literal(-3)))
          CFI DPL0 load(1, XDATA, add(CFA_XSP16, literal(-2)))
          CFI DPH0 load(1, XDATA, add(CFA_XSP16, literal(-1)))
          CFI CFA_SP SP+-2
          CFI CFA_XSP16 add(XSP16, 60)
          CFI Block cfiCond228 Using cfiCommon0
          CFI (cfiCond228) Function bdb_TCJoiningDeviceFree
          CFI (cfiCond228) Conditional ??CrossCallReturnLabel_83
          CFI (cfiCond228) R6 load(1, XDATA, add(CFA_XSP16, literal(-15)))
          CFI (cfiCond228) VB load(1, XDATA, add(CFA_XSP16, literal(-14)))
          CFI (cfiCond228) V0 load(1, XDATA, add(CFA_XSP16, literal(-13)))
          CFI (cfiCond228) V1 load(1, XDATA, add(CFA_XSP16, literal(-12)))
          CFI (cfiCond228) V2 load(1, XDATA, add(CFA_XSP16, literal(-11)))
          CFI (cfiCond228) V3 load(1, XDATA, add(CFA_XSP16, literal(-10)))
          CFI (cfiCond228) V4 load(1, XDATA, add(CFA_XSP16, literal(-9)))
          CFI (cfiCond228) V5 load(1, XDATA, add(CFA_XSP16, literal(-8)))
          CFI (cfiCond228) V6 load(1, XDATA, add(CFA_XSP16, literal(-7)))
          CFI (cfiCond228) R7 load(1, XDATA, add(CFA_XSP16, literal(-6)))
          CFI (cfiCond228) ?RET_LOW load(1, XDATA, add(CFA_XSP16, literal(-5)))
          CFI (cfiCond228) ?RET_HIGH load(1, XDATA, add(CFA_XSP16, literal(-4)))
          CFI (cfiCond228) ?BRET_EXT load(1, XDATA, add(CFA_XSP16, literal(-3)))
          CFI (cfiCond228) DPL0 load(1, XDATA, add(CFA_XSP16, literal(-2)))
          CFI (cfiCond228) DPH0 load(1, XDATA, add(CFA_XSP16, literal(-1)))
          CFI (cfiCond228) CFA_SP SP+-2
          CFI (cfiCond228) CFA_XSP16 add(XSP16, 15)
          CFI Block cfiCond229 Using cfiCommon0
          CFI (cfiCond229) Function bdb_StartCommissioning
          CFI (cfiCond229) Conditional ??CrossCallReturnLabel_84
          CFI (cfiCond229) R6 load(1, XDATA, add(CFA_XSP16, literal(-12)))
          CFI (cfiCond229) VB load(1, XDATA, add(CFA_XSP16, literal(-11)))
          CFI (cfiCond229) V0 load(1, XDATA, add(CFA_XSP16, literal(-10)))
          CFI (cfiCond229) V1 load(1, XDATA, add(CFA_XSP16, literal(-9)))
          CFI (cfiCond229) V2 load(1, XDATA, add(CFA_XSP16, literal(-8)))
          CFI (cfiCond229) V3 load(1, XDATA, add(CFA_XSP16, literal(-7)))
          CFI (cfiCond229) R7 load(1, XDATA, add(CFA_XSP16, literal(-6)))
          CFI (cfiCond229) ?RET_LOW load(1, XDATA, add(CFA_XSP16, literal(-5)))
          CFI (cfiCond229) ?RET_HIGH load(1, XDATA, add(CFA_XSP16, literal(-4)))
          CFI (cfiCond229) ?BRET_EXT load(1, XDATA, add(CFA_XSP16, literal(-3)))
          CFI (cfiCond229) DPL0 load(1, XDATA, add(CFA_XSP16, literal(-2)))
          CFI (cfiCond229) DPH0 load(1, XDATA, add(CFA_XSP16, literal(-1)))
          CFI (cfiCond229) CFA_SP SP+-2
          CFI (cfiCond229) CFA_XSP16 add(XSP16, 32)
          CFI Block cfiCond230 Using cfiCommon0
          CFI (cfiCond230) Function bdb_AddRespondentNode
          CFI (cfiCond230) Conditional ??CrossCallReturnLabel_85
          CFI (cfiCond230) R6 load(1, XDATA, add(CFA_XSP16, literal(-10)))
          CFI (cfiCond230) VB load(1, XDATA, add(CFA_XSP16, literal(-9)))
          CFI (cfiCond230) V0 load(1, XDATA, add(CFA_XSP16, literal(-8)))
          CFI (cfiCond230) V1 load(1, XDATA, add(CFA_XSP16, literal(-7)))
          CFI (cfiCond230) R7 load(1, XDATA, add(CFA_XSP16, literal(-6)))
          CFI (cfiCond230) ?RET_LOW load(1, XDATA, add(CFA_XSP16, literal(-5)))
          CFI (cfiCond230) ?RET_HIGH load(1, XDATA, add(CFA_XSP16, literal(-4)))
          CFI (cfiCond230) ?BRET_EXT load(1, XDATA, add(CFA_XSP16, literal(-3)))
          CFI (cfiCond230) DPL0 load(1, XDATA, add(CFA_XSP16, literal(-2)))
          CFI (cfiCond230) DPH0 load(1, XDATA, add(CFA_XSP16, literal(-1)))
          CFI (cfiCond230) CFA_SP SP+-2
          CFI (cfiCond230) CFA_XSP16 add(XSP16, 10)
          CFI Block cfiCond231 Using cfiCommon0
          CFI (cfiCond231) Function bdb_GenerateInstallCodeCRC
          CFI (cfiCond231) Conditional ??CrossCallReturnLabel_86
          CFI (cfiCond231) DPL0 Frame(CFA_SP, 4)
          CFI (cfiCond231) DPH0 Frame(CFA_SP, 5)
          CFI (cfiCond231) CFA_SP SP+-7
          CFI (cfiCond231) CFA_XSP16 add(XSP16, 2)
          CFI Block cfiCond232 Using cfiCommon0
          CFI (cfiCond232) Function bdb_reportCommissioningState
          CFI (cfiCond232) Conditional ??CrossCallReturnLabel_87
          CFI (cfiCond232) R6 load(1, XDATA, add(CFA_XSP16, literal(-10)))
          CFI (cfiCond232) VB load(1, XDATA, add(CFA_XSP16, literal(-9)))
          CFI (cfiCond232) V0 load(1, XDATA, add(CFA_XSP16, literal(-8)))
          CFI (cfiCond232) V1 load(1, XDATA, add(CFA_XSP16, literal(-7)))
          CFI (cfiCond232) R7 load(1, XDATA, add(CFA_XSP16, literal(-6)))
          CFI (cfiCond232) ?RET_LOW load(1, XDATA, add(CFA_XSP16, literal(-5)))
          CFI (cfiCond232) ?RET_HIGH load(1, XDATA, add(CFA_XSP16, literal(-4)))
          CFI (cfiCond232) ?BRET_EXT load(1, XDATA, add(CFA_XSP16, literal(-3)))
          CFI (cfiCond232) DPL0 load(1, XDATA, add(CFA_XSP16, literal(-2)))
          CFI (cfiCond232) DPH0 load(1, XDATA, add(CFA_XSP16, literal(-1)))
          CFI (cfiCond232) CFA_SP SP+-2
          CFI (cfiCond232) CFA_XSP16 add(XSP16, 14)
          CFI Block cfiCond233 Using cfiCommon0
          CFI (cfiCond233) Function bdb_event_loop
          CFI (cfiCond233) Conditional ??CrossCallReturnLabel_88
          CFI (cfiCond233) R6 load(1, XDATA, add(CFA_XSP16, literal(-16)))
          CFI (cfiCond233) VB load(1, XDATA, add(CFA_XSP16, literal(-15)))
          CFI (cfiCond233) V0 load(1, XDATA, add(CFA_XSP16, literal(-14)))
          CFI (cfiCond233) V1 load(1, XDATA, add(CFA_XSP16, literal(-13)))
          CFI (cfiCond233) V2 load(1, XDATA, add(CFA_XSP16, literal(-12)))
          CFI (cfiCond233) V3 load(1, XDATA, add(CFA_XSP16, literal(-11)))
          CFI (cfiCond233) V4 load(1, XDATA, add(CFA_XSP16, literal(-10)))
          CFI (cfiCond233) V5 load(1, XDATA, add(CFA_XSP16, literal(-9)))
          CFI (cfiCond233) V6 load(1, XDATA, add(CFA_XSP16, literal(-8)))
          CFI (cfiCond233) V7 load(1, XDATA, add(CFA_XSP16, literal(-7)))
          CFI (cfiCond233) R7 load(1, XDATA, add(CFA_XSP16, literal(-6)))
          CFI (cfiCond233) ?RET_LOW load(1, XDATA, add(CFA_XSP16, literal(-5)))
          CFI (cfiCond233) ?RET_HIGH load(1, XDATA, add(CFA_XSP16, literal(-4)))
          CFI (cfiCond233) ?BRET_EXT load(1, XDATA, add(CFA_XSP16, literal(-3)))
          CFI (cfiCond233) DPL0 load(1, XDATA, add(CFA_XSP16, literal(-2)))
          CFI (cfiCond233) DPH0 load(1, XDATA, add(CFA_XSP16, literal(-1)))
          CFI (cfiCond233) CFA_SP SP+-2
          CFI (cfiCond233) CFA_XSP16 add(XSP16, 24)
          CFI Block cfiPicker234 Using cfiCommon1
          CFI (cfiPicker234) NoFunction
          CFI (cfiPicker234) Picker
        MOVX    A,@DPTR
        MOV     R2,A
        INC     DPTR
        MOVX    A,@DPTR
        MOV     R3,A
        RET
          CFI EndBlock cfiCond227
          CFI EndBlock cfiCond228
          CFI EndBlock cfiCond229
          CFI EndBlock cfiCond230
          CFI EndBlock cfiCond231
          CFI EndBlock cfiCond232
          CFI EndBlock cfiCond233
          CFI EndBlock cfiPicker234
// 2812 
// 2813 /*********************************************************************
// 2814  * @fn      bdb_zclRespondentListClean
// 2815  *
// 2816  * @brief   This function free reserved memory for respondent list
// 2817  *
// 2818  * @param   pHead - begin of the respondent list
// 2819  *
// 2820  * @return  status
// 2821  */

        RSEG BANKED_CODE:CODE:NOROOT(0)
// 2822 void bdb_zclRespondentListClean( bdbFindingBindingRespondent_t **pHead )
bdb_zclRespondentListClean:
          CFI Block cfiBlock235 Using cfiCommon0
          CFI Function bdb_zclRespondentListClean
        CODE
// 2823 {
        FUNCALL bdb_zclRespondentListClean, osal_mem_free
        LOCFRAME ISTACK, 0, STACK
        LOCFRAME PSTACK, 0, STACK
        LOCFRAME XSTACK, 12, STACK
        LOCFRAME IOVERLAY, 0, STATIC
        LOCFRAME DOVERLAY, 0, STATIC
        ARGFRAME ISTACK, 0, STACK
        ARGFRAME PSTACK, 0, STACK
        ARGFRAME XSTACK, 12, STACK
        ARGFRAME IOVERLAY, 0, STATIC
        ARGFRAME DOVERLAY, 0, STATIC
        REQUIRE ?V0
        REQUIRE ?V1
        REQUIRE ?V2
        REQUIRE ?V3
        MOV     A,#-0xc
        LCALL   ?BANKED_ENTER_XDATA
          CFI DPH0 load(1, XDATA, add(CFA_XSP16, literal(-1)))
          CFI DPL0 load(1, XDATA, add(CFA_XSP16, literal(-2)))
          CFI ?BRET_EXT load(1, XDATA, add(CFA_XSP16, literal(-3)))
          CFI ?RET_HIGH load(1, XDATA, add(CFA_XSP16, literal(-4)))
          CFI ?RET_LOW load(1, XDATA, add(CFA_XSP16, literal(-5)))
          CFI R7 load(1, XDATA, add(CFA_XSP16, literal(-6)))
          CFI V3 load(1, XDATA, add(CFA_XSP16, literal(-7)))
          CFI V2 load(1, XDATA, add(CFA_XSP16, literal(-8)))
          CFI V1 load(1, XDATA, add(CFA_XSP16, literal(-9)))
          CFI V0 load(1, XDATA, add(CFA_XSP16, literal(-10)))
          CFI VB load(1, XDATA, add(CFA_XSP16, literal(-11)))
          CFI R6 load(1, XDATA, add(CFA_XSP16, literal(-12)))
          CFI CFA_SP SP+0
          CFI CFA_XSP16 add(XSP16, 12)
        ; Saved register size: 12
        ; Auto size: 0
        LCALL   ?Subroutine12 & 0xFFFF
// 2824   bdbFindingBindingRespondent_t **pCurr;
// 2825   bdbFindingBindingRespondent_t **pNext;
// 2826   
// 2827   if ( *pHead == NULL )
??CrossCallReturnLabel_50:
        JZ      ??bdb_zclRespondentListClean_0
// 2828   {
// 2829     return;
// 2830   }
// 2831   
// 2832   pCurr = pHead;
        MOV     ?V0,R6
        MOV     ?V1,R7
        SJMP    ??bdb_zclRespondentListClean_1
// 2833   
// 2834   while( *pCurr != NULL )
// 2835   {
// 2836     pNext = &((*pCurr)->pNext);
??bdb_zclRespondentListClean_2:
        MOV     A,R2
        ADD     A,#0xd
        MOV     ?V2,A
        CLR     A
        ADDC    A,R3
        MOV     ?V3,A
// 2837     osal_mem_free( *pCurr );
        ; Setup parameters for call to function osal_mem_free
        LCALL   `??osal_mem_free::?relay`; Banked call to: osal_mem_free
// 2838     *pCurr = ( bdbFindingBindingRespondent_t* )NULL;
        MOV     DPL,?V0
        MOV     DPH,?V1
        CLR     A
        MOVX    @DPTR,A
        INC     DPTR
        MOVX    @DPTR,A
// 2839     pCurr = pNext;
        MOV     ?V0,?V2
        MOV     ?V1,?V3
// 2840   }
??bdb_zclRespondentListClean_1:
        MOV     DPL,?V0
        MOV     DPH,?V1
        LCALL   ?Subroutine14 & 0xFFFF
??CrossCallReturnLabel_9:
        JNZ     ??bdb_zclRespondentListClean_2
// 2841   *pHead = NULL;
        MOV     DPL,R6
        MOV     DPH,R7
        CLR     A
        MOVX    @DPTR,A
        INC     DPTR
        MOVX    @DPTR,A
// 2842 }
??bdb_zclRespondentListClean_0:
        LJMP    ??Subroutine38_0 & 0xFFFF
          CFI EndBlock cfiBlock235
// 2843 
// 2844  /*********************************************************************
// 2845  * PRIVATE FUNCTIONS
// 2846  *********************************************************************/
// 2847 
// 2848 /*********************************************************************
// 2849  * @fn      bdb_ProcessOSALMsg
// 2850  *
// 2851  * @brief   Process the incoming task message.
// 2852  *
// 2853  * @param   msgPtr - message to process
// 2854  *
// 2855  * @return  none
// 2856  */
// 2857 void bdb_ProcessOSALMsg( bdbInMsg_t *msgPtr )
// 2858 {
// 2859   
// 2860   switch(msgPtr->hdr.event)
// 2861   {
// 2862 #if (ZG_BUILD_JOINING_TYPE)
// 2863     case BDB_COMMISSIONING_STATE_JOINING:
// 2864       if(ZG_DEVICE_JOINING_TYPE)
// 2865       {
// 2866         switch(msgPtr->buf[0])
// 2867         {
// 2868           case BDB_JOIN_EVENT_NWK_DISCOVERY:
// 2869             if(msgPtr->hdr.status == BDB_MSG_EVENT_SUCCESS)
// 2870             {
// 2871               bdb_filterNwkDisc();
// 2872               bdb_tryNwkAssoc();
// 2873             }
// 2874             else
// 2875             {
// 2876               bdb_nwkDiscoveryAttempt(FALSE);
// 2877             }
// 2878           break;
// 2879           
// 2880           case BDB_JOIN_EVENT_ASSOCIATION:
// 2881             if(msgPtr->hdr.status == BDB_MSG_EVENT_SUCCESS)
// 2882             {
// 2883               bdbCommissioningProcedureState.bdbJoinState = BDB_JOIN_STATE_WAITING_NWK_KEY;
// 2884               //Nwk key timeout get right timing
// 2885               osal_start_timerEx(bdb_TaskID,BDB_PROCESS_TIMEOUT, BDB_DEFAULT_DEVICE_UNAUTH_TIMEOUT);
// 2886             }
// 2887             else
// 2888             {
// 2889               if ( (NLME_GetShortAddr() != INVALID_NODE_ADDR) ||
// 2890                    (_NIB.nwkDevAddress != INVALID_NODE_ADDR) )
// 2891               {
// 2892                 uint16 addr = INVALID_NODE_ADDR;
// 2893                 // Invalidate nwk addr so end device does not use in its data reqs.
// 2894                 _NIB.nwkDevAddress = INVALID_NODE_ADDR;
// 2895                 ZMacSetReq( ZMacShortAddress, (uint8 *)&addr );
// 2896               }
// 2897 
// 2898               //Clear the neighbor Table and network discovery tables.
// 2899               nwkNeighborInitTable();
// 2900               NLME_NwkDiscTerm();
// 2901               _NIB.nwkState = NWK_INIT;
// 2902               
// 2903               bdb_tryNwkAssoc();
// 2904             }
// 2905           break;
// 2906         }
// 2907       }
// 2908     break;
// 2909     
// 2910     case BDB_COMMISSIONING_STATE_TC_LINK_KEY_EXCHANGE:
// 2911       if(ZG_DEVICE_JOINING_TYPE)
// 2912       {
// 2913         if(msgPtr->hdr.status != BDB_MSG_EVENT_SUCCESS)
// 2914         {
// 2915           bdbAttributes.bdbTCLinkKeyExchangeAttempts++;
// 2916           if(bdbAttributes.bdbTCLinkKeyExchangeAttempts > bdbAttributes.bdbTCLinkKeyExchangeAttemptsMax)
// 2917           {
// 2918             //TCLK process fail due to many attempts fails
// 2919             bdb_reportCommissioningState(BDB_COMMISSIONING_STATE_TC_LINK_KEY_EXCHANGE, FALSE);
// 2920             return;
// 2921           }
// 2922         }
// 2923         switch(bdbCommissioningProcedureState.bdbTCExchangeState)
// 2924         {
// 2925           case BDB_REQ_TC_STACK_VERSION:
// 2926             bdb_requestTCStackVersion();
// 2927           break;
// 2928           case BDB_REQ_TC_LINK_KEY:
// 2929             bdb_requestTCLinkKey();
// 2930           break;
// 2931           case BDB_REQ_VERIFY_TC_LINK_KEY:
// 2932             bdb_requestVerifyTCLinkKey();
// 2933           break;
// 2934         }
// 2935       }
// 2936    break;
// 2937 #endif
// 2938 #if (BDB_FINDING_BINDING_CAPABILITY_ENABLED==1)
// 2939     case BDB_COMMISSIONING_STATE_TL:
// 2940     case BDB_COMMISSIONING_STATE_FINDING_BINDING:
// 2941       
// 2942       if(msgPtr->hdr.status == BDB_MSG_EVENT_SUCCESS)
// 2943       {
// 2944         bdb_BindIfMatch( msgPtr );
// 2945       }
// 2946     break;
// 2947 #endif
// 2948    }
// 2949 }
// 2950 
// 2951 
// 2952 /*********************************************************************
// 2953  * @fn      bdb_processTimeout
// 2954  *
// 2955  * @brief   Handles timeout of the bdb process
// 2956  *
// 2957  * @param   msgPtr - message to process
// 2958  *
// 2959  * @return  none
// 2960  */
// 2961 void bdb_processTimeout(void)
// 2962 {
// 2963 #if (ZG_BUILD_JOINING_TYPE)
// 2964   if(ZG_DEVICE_JOINING_TYPE)
// 2965   {
// 2966     switch(bdbCommissioningProcedureState.bdbCommissioningState)
// 2967     {
// 2968       case BDB_COMMISSIONING_STATE_TC_LINK_KEY_EXCHANGE:
// 2969         
// 2970         bdb_tcLinkKeyExchangeAttempt(FALSE,bdbCommissioningProcedureState.bdbTCExchangeState);
// 2971       break;
// 2972       case BDB_COMMISSIONING_STATE_JOINING:
// 2973         if(bdbCommissioningProcedureState.bdbJoinState == BDB_JOIN_STATE_WAITING_NWK_KEY)
// 2974         {
// 2975           //If nwk key fails, then try association again
// 2976           bdbCommissioningProcedureState.bdbJoinState = BDB_JOIN_STATE_ASSOC;
// 2977           bdb_nwkAssocAttemt(FALSE);
// 2978         }
// 2979       break;
// 2980     }
// 2981   }
// 2982 #endif
// 2983   
// 2984 }
// 2985 
// 2986 
// 2987 /*********************************************************************
// 2988  * @fn      bdb_SendMsg
// 2989  *
// 2990  * @brief   Send messages to bdb processing with the expected format
// 2991  *
// 2992  * @param   msgPtr - message to process
// 2993  *
// 2994  * @return  none
// 2995  */

        RSEG BANKED_CODE:CODE:NOROOT(0)
// 2996 void bdb_SendMsg(uint8 taskID, uint8 toCommissioningState,uint8 status, uint8 len, uint8 *buf)
bdb_SendMsg:
          CFI Block cfiBlock236 Using cfiCommon0
          CFI Function bdb_SendMsg
        CODE
// 2997 {
        FUNCALL bdb_SendMsg, osal_msg_allocate
        LOCFRAME ISTACK, 0, STACK
        LOCFRAME PSTACK, 0, STACK
        LOCFRAME XSTACK, 17, STACK
        LOCFRAME IOVERLAY, 0, STATIC
        LOCFRAME DOVERLAY, 0, STATIC
        ARGFRAME ISTACK, 0, STACK
        ARGFRAME PSTACK, 0, STACK
        ARGFRAME XSTACK, 17, STACK
        ARGFRAME IOVERLAY, 0, STATIC
        ARGFRAME DOVERLAY, 0, STATIC
        FUNCALL bdb_SendMsg, osal_memcpy
        LOCFRAME ISTACK, 0, STACK
        LOCFRAME PSTACK, 0, STACK
        LOCFRAME XSTACK, 20, STACK
        LOCFRAME IOVERLAY, 0, STATIC
        LOCFRAME DOVERLAY, 0, STATIC
        ARGFRAME ISTACK, 0, STACK
        ARGFRAME PSTACK, 0, STACK
        ARGFRAME XSTACK, 20, STACK
        ARGFRAME IOVERLAY, 0, STATIC
        ARGFRAME DOVERLAY, 0, STATIC
        FUNCALL bdb_SendMsg, osal_msg_send
        LOCFRAME ISTACK, 0, STACK
        LOCFRAME PSTACK, 0, STACK
        LOCFRAME XSTACK, 17, STACK
        LOCFRAME IOVERLAY, 0, STATIC
        LOCFRAME DOVERLAY, 0, STATIC
        ARGFRAME ISTACK, 0, STACK
        ARGFRAME PSTACK, 0, STACK
        ARGFRAME XSTACK, 17, STACK
        ARGFRAME IOVERLAY, 0, STATIC
        ARGFRAME DOVERLAY, 0, STATIC
        REQUIRE ?V0
        REQUIRE ?V1
        REQUIRE ?V2
        REQUIRE ?V3
        REQUIRE ?V4
        REQUIRE ?V5
        REQUIRE ?V6
        REQUIRE ?V7
        REQUIRE ?V8
        MOV     A,#-0x11
        LCALL   ?BANKED_ENTER_XDATA
          CFI DPH0 load(1, XDATA, add(CFA_XSP16, literal(-1)))
          CFI DPL0 load(1, XDATA, add(CFA_XSP16, literal(-2)))
          CFI ?BRET_EXT load(1, XDATA, add(CFA_XSP16, literal(-3)))
          CFI ?RET_HIGH load(1, XDATA, add(CFA_XSP16, literal(-4)))
          CFI ?RET_LOW load(1, XDATA, add(CFA_XSP16, literal(-5)))
          CFI R7 load(1, XDATA, add(CFA_XSP16, literal(-6)))
          CFI V8 load(1, XDATA, add(CFA_XSP16, literal(-7)))
          CFI V7 load(1, XDATA, add(CFA_XSP16, literal(-8)))
          CFI V6 load(1, XDATA, add(CFA_XSP16, literal(-9)))
          CFI V5 load(1, XDATA, add(CFA_XSP16, literal(-10)))
          CFI V4 load(1, XDATA, add(CFA_XSP16, literal(-11)))
          CFI V3 load(1, XDATA, add(CFA_XSP16, literal(-12)))
          CFI V2 load(1, XDATA, add(CFA_XSP16, literal(-13)))
          CFI V1 load(1, XDATA, add(CFA_XSP16, literal(-14)))
          CFI V0 load(1, XDATA, add(CFA_XSP16, literal(-15)))
          CFI VB load(1, XDATA, add(CFA_XSP16, literal(-16)))
          CFI R6 load(1, XDATA, add(CFA_XSP16, literal(-17)))
          CFI CFA_SP SP+0
          CFI CFA_XSP16 add(XSP16, 17)
        ; Saved register size: 17
        ; Auto size: 0
        MOV     ?V2,R1
        MOV     ?V7,R2
        MOV     ?V8,R3
        MOV     ?V3,R4
// 2998   bdbInMsg_t *msgPtr = NULL;
// 2999 
// 3000   if ( (len > 0) && (buf != NULL) )
        MOV     A,R4
        JZ      ??bdb_SendMsg_0
        MOV     A,#0x11
        LCALL   ?XSTACK_DISP0_8
        MOVX    A,@DPTR
        MOV     ?V0,A
        INC     DPTR
        MOVX    A,@DPTR
        MOV     ?V1,A
        MOV     A,?V0
        ORL     A,?V1
        JZ      ??bdb_SendMsg_0
// 3001   {
// 3002     uint8 tmpLength;
// 3003     tmpLength = len;
// 3004     tmpLength += sizeof(osal_event_hdr_t);
// 3005     
// 3006     msgPtr = (bdbInMsg_t *)osal_msg_allocate( tmpLength );
        ; Setup parameters for call to function osal_msg_allocate
        MOV     A,#0x2
        ADD     A,R4
        MOV     R2,A
        MOV     R3,#0x0
        LCALL   `??osal_msg_allocate::?relay`; Banked call to: osal_msg_allocate
        MOV     ?V4,R2
        MOV     ?V5,R3
        MOV     R6,?V4
        MOV     R7,?V5
// 3007     
// 3008     if ( msgPtr )
        MOV     A,R6
        ORL     A,R7
        JZ      ??bdb_SendMsg_0
// 3009     {
// 3010       osal_memcpy( msgPtr->buf, buf, len );
        ; Setup parameters for call to function osal_memcpy
        MOV     ?V4,?V0
        MOV     ?V5,?V1
        MOV     ?V6,#0x0
        MOV     R0,#?V4
        LCALL   ?PUSH_XSTACK_I_THREE
          CFI CFA_XSP16 add(XSP16, 20)
        MOV     R4,?V3
        MOV     R5,#0x0
        MOV     A,R6
        ADD     A,#0x2
        MOV     R2,A
        CLR     A
        ADDC    A,R7
        MOV     R3,A
        LCALL   `??osal_memcpy::?relay`; Banked call to: osal_memcpy
        MOV     A,#0x3
        LCALL   ?DEALLOC_XSTACK8
          CFI CFA_XSP16 add(XSP16, 17)
// 3011     
// 3012       msgPtr->hdr.event = toCommissioningState;
        MOV     DPL,R6
        MOV     DPH,R7
        MOV     A,?V7
        MOVX    @DPTR,A
// 3013       msgPtr->hdr.status = status;
        INC     DPTR
        MOV     A,?V8
        MOVX    @DPTR,A
// 3014       osal_msg_send( taskID, (uint8 *)msgPtr );
        ; Setup parameters for call to function osal_msg_send
        MOV     A,R6
        MOV     R2,A
        MOV     A,R7
        MOV     R3,A
        MOV     R1,?V2
        LCALL   `??osal_msg_send::?relay`; Banked call to: osal_msg_send
// 3015     }
// 3016   }
// 3017 }
??bdb_SendMsg_0:
        MOV     R7,#0x9
        LJMP    ?BANKED_LEAVE_XDATA
          CFI EndBlock cfiBlock236
// 3018 
// 3019 
// 3020 /*********************************************************************
// 3021  * @fn      bdb_RegisterCommissioningStatusCB
// 3022  *
// 3023  * @brief   Register a callback in which the status of the procedures done in
// 3024  *          BDB commissioning process will be reported
// 3025  *
// 3026  * @param   bdbGCB_CommissioningStatus - application callback
// 3027  *
// 3028  * @return  none
// 3029  */

        RSEG BANKED_CODE:CODE:NOROOT(0)
// 3030 void bdb_RegisterCommissioningStatusCB(bdbGCB_CommissioningStatus_t bdbGCB_CommissioningStatus)
bdb_RegisterCommissioningStatusCB:
          CFI Block cfiBlock237 Using cfiCommon0
          CFI Function bdb_RegisterCommissioningStatusCB
        CODE
// 3031 {
        PUSH    DPL
          CFI DPL0 Frame(CFA_SP, 4)
          CFI CFA_SP SP+-4
        PUSH    DPH
          CFI DPH0 Frame(CFA_SP, 5)
          CFI CFA_SP SP+-5
        ; Saved register size: 2
        ; Auto size: 0
// 3032   pfnCommissioningStatusCB = bdbGCB_CommissioningStatus;
        MOV     DPTR,#pfnCommissioningStatusCB
        LJMP    ?Subroutine3 & 0xFFFF
// 3033 }
          CFI EndBlock cfiBlock237
// 3034 
// 3035 /*********************************************************************
// 3036  * @fn      bdb_ClearNetworkParams
// 3037  *
// 3038  * @brief   Restore nwk parameters to invalid if the device is not on a network
// 3039  *
// 3040  * @param   void
// 3041  *
// 3042  * @return  void
// 3043  */

        RSEG BANKED_CODE:CODE:NOROOT(0)
// 3044 void bdb_ClearNetworkParams(void)
bdb_ClearNetworkParams:
          CFI Block cfiBlock238 Using cfiCommon0
          CFI Function bdb_ClearNetworkParams
        CODE
// 3045 {
        ; Saved register size: 0
        ; Auto size: 0
// 3046 #if (BDB_TOUCHLINK_CAPABILITY_ENABLED == TRUE)
// 3047   if ( bdbAttributes.bdbNodeIsOnANetwork == FALSE )
// 3048   {
// 3049     //Clear the event
// 3050     _NIB.nwkPanId = INVALID_NODE_ADDR;
// 3051     _NIB.nwkLogicalChannel = 0;
// 3052     _NIB.nwkDevAddress = INVALID_NODE_ADDR;
// 3053     touchLink_SetMacNwkParams( _NIB.nwkDevAddress, _NIB.nwkPanId, _NIB.nwkLogicalChannel );
// 3054   }
// 3055 #endif
// 3056 }
        LJMP    ?BRET
          CFI EndBlock cfiBlock238
// 3057 
// 3058 /*********************************************************************
// 3059  * @fn      bdb_getZCLFrameCounter
// 3060  *
// 3061  * @brief   Get the next ZCL Frame Counter for packet sequence number
// 3062  *
// 3063  * @param   none
// 3064  *
// 3065  * @return  next ZCL frame counter
// 3066  */

        RSEG BANKED_CODE:CODE:NOROOT(0)
// 3067 uint8 bdb_getZCLFrameCounter(void)
bdb_getZCLFrameCounter:
          CFI Block cfiBlock239 Using cfiCommon0
          CFI Function bdb_getZCLFrameCounter
        CODE
// 3068 {
        PUSH    DPL
          CFI DPL0 Frame(CFA_SP, 4)
          CFI CFA_SP SP+-4
        PUSH    DPH
          CFI DPH0 Frame(CFA_SP, 5)
          CFI CFA_SP SP+-5
        ; Saved register size: 2
        ; Auto size: 0
// 3069   bdb_ZclTransactionSequenceNumber++;
        MOV     DPTR,#bdb_ZclTransactionSequenceNumber
        MOVX    A,@DPTR
        INC     A
        MOVX    @DPTR,A
// 3070   return bdb_ZclTransactionSequenceNumber;
        MOV     R1,A
        LJMP    ??Subroutine35_0 & 0xFFFF
// 3071 
// 3072 }
          CFI EndBlock cfiBlock239
// 3073 
// 3074 
// 3075 #if (ZG_BUILD_JOINING_TYPE)
// 3076 /*********************************************************************
// 3077  * @fn      bdb_RegisterCBKETCLinkKeyExchangeCB
// 3078  *
// 3079  * @brief   Register a callback in which the TC link key exchange procedure will 
// 3080  *          be performed by application.
// 3081  *          Upon fail or success bdb must be notified, see bdb_CBKETCLinkKeyExchangeAttempt
// 3082  *
// 3083  * @param   bdbGCB_TCLinkKeyExchangeMethod - application callback
// 3084  *
// 3085  * @return  none
// 3086  */
// 3087 void bdb_RegisterCBKETCLinkKeyExchangeCB(bdbGCB_CBKETCLinkKeyExchange_t bdbGCB_CBKETCLinkKeyExchange)
// 3088 {
// 3089   if(bdbGCB_CBKETCLinkKeyExchange)
// 3090   {
// 3091     pfnCBKETCLinkKeyExchange = bdbGCB_CBKETCLinkKeyExchange;
// 3092     bdbAttributes.bdbTCLinkKeyExchangeMethod = BDB_TC_LINK_KEY_EXCHANGE_CBKE;
// 3093   }
// 3094   else
// 3095   {
// 3096     pfnCBKETCLinkKeyExchange = NULL;
// 3097     bdbAttributes.bdbTCLinkKeyExchangeMethod = BDB_TC_LINK_KEY_EXCHANGE_APS_KEY;
// 3098   }
// 3099 }
// 3100 
// 3101 /*********************************************************************
// 3102  * @fn      bdb_RegisterForFilterNwkDescCB
// 3103  *
// 3104  * @brief   Register a callback in which the application gets the list of network
// 3105  *          descriptors got from active scan.
// 3106  *          Use bdb_nwkDescFree to release the network descriptors that are not 
// 3107  *          of interest and leave those which are to be attempted.
// 3108  *
// 3109  * @param   bdbGCB_FilterNwkDesc - application callback
// 3110  *
// 3111  * @return  none
// 3112  */
// 3113 void bdb_RegisterForFilterNwkDescCB(bdbGCB_FilterNwkDesc_t bdbGCB_FilterNwkDesc)
// 3114 {
// 3115   if(bdbGCB_FilterNwkDesc)
// 3116   {
// 3117     pfnFilterNwkDesc = bdbGCB_FilterNwkDesc;
// 3118   }
// 3119 }
// 3120 
// 3121 
// 3122 /*********************************************************************
// 3123  * @fn          bdb_CBKETCLinkKeyExchangeAttempt
// 3124  *
// 3125  * @brief       Tell BDB module the result of the TC link key exchange, to try
// 3126  *              the default process or to keep going with the joining process.
// 3127  *
// 3128  * @param       didSuccess - TRUE if the process was succes, False otherwise
// 3129  *
// 3130  * @return      unprocessed events
// 3131  */
// 3132 void bdb_CBKETCLinkKeyExchangeAttempt(bool didSuccess)
// 3133 {
// 3134   if(didSuccess)
// 3135   {
// 3136     bdb_setNodeJoinLinkKeyType(BDB_DEFAULT_GLOBAL_TRUST_CENTER_LINK_KEY);
// 3137     bdb_reportCommissioningState(BDB_COMMISSIONING_STATE_TC_LINK_KEY_EXCHANGE, TRUE);
// 3138   }
// 3139   else
// 3140   {
// 3141     bdbAttributes.bdbTCLinkKeyExchangeMethod = BDB_TC_LINK_KEY_EXCHANGE_APS_KEY;
// 3142     //We are going back one state to try it again
// 3143     bdbCommissioningProcedureState.bdbTCExchangeState -= BDB_TC_EXCHANGE_NEXT_STATE;
// 3144     bdb_tcLinkKeyExchangeAttempt(TRUE,BDB_REQ_TC_STACK_VERSION);
// 3145   }
// 3146 
// 3147 }
// 3148 #endif
// 3149 
// 3150 //GP_UPDATE
// 3151 #if (ZG_BUILD_RTR_TYPE)
// 3152 #ifndef ZNP_ENABLED
// 3153 /*********************************************************************
// 3154  * @fn      gp_ChangeChannelReq
// 3155  *
// 3156  * @brief   Callback function to notify the BDB about a GP commissioning 
// 3157  * request that will change the current channel for at most 
// 3158  * gpBirectionalCommissioningChangeChannelTimeout ms
// 3159  *
// 3160  * @param   channel - Channel in which the commissioning will take place
// 3161  *
// 3162  * @return  TRUE to allow change channel, FALSE to do not allow
// 3163  */

        RSEG BANKED_CODE:CODE:NOROOT(0)
// 3164 static uint8 gp_ChangeChannelReq(void)
gp_ChangeChannelReq:
          CFI Block cfiBlock240 Using cfiCommon0
          CFI Function gp_ChangeChannelReq
        CODE
// 3165 {
        PUSH    DPL
          CFI DPL0 Frame(CFA_SP, 4)
          CFI CFA_SP SP+-4
        PUSH    DPH
          CFI DPH0 Frame(CFA_SP, 5)
          CFI CFA_SP SP+-5
        ; Saved register size: 2
        ; Auto size: 0
// 3166   uint8 allowChangeChannel = TRUE;
        MOV     R1,#0x1
// 3167   
// 3168   //Do not allow changes of channel if any process is in place
// 3169   if(bdbAttributes.bdbCommissioningMode)
        MOV     DPTR,#bdbAttributes + 11
        MOVX    A,@DPTR
        JZ      ??gp_ChangeChannelReq_0
// 3170   {
// 3171     allowChangeChannel = FALSE;
        MOV     R1,#0x0
// 3172   }
// 3173   
// 3174   //Check application state to decide if allow change channel or not
// 3175   
// 3176   return allowChangeChannel;
??gp_ChangeChannelReq_0:
        LJMP    ??Subroutine35_0 & 0xFFFF
// 3177 }
          CFI EndBlock cfiBlock240
// 3178 
// 3179 
// 3180 /*********************************************************************
// 3181  * @fn          gp_CBInit
// 3182  *
// 3183  * @brief       Register the callbacks for GP endpoint
// 3184  *
// 3185  * @param       none
// 3186  *
// 3187  * @return      none
// 3188  */
// 3189 void gp_CBInit(void)
// 3190 {
// 3191   GP_DataCnfGCB = GP_DataCnf;
// 3192   GP_endpointInitGCB = gp_endpointInit;  
// 3193   GP_expireDuplicateFilteringGCB = gp_expireDuplicateFiltering;
// 3194   GP_stopCommissioningModeGCB = gp_stopCommissioningMode;
// 3195   GP_returnOperationalChannelGCB = gp_returnOperationalChannel;
// 3196   GP_DataIndGCB = GP_DataInd;
// 3197   GP_SecReqGCB = GP_SecReq;   
// 3198   GP_CheckAnnouncedDeviceGCB = gp_CheckAnnouncedDevice;
// 3199     
// 3200   GP_aliasConflictAnnce = &aliasConflictAnnce;
// 3201   
// 3202   GP_endpointInitGCB();
// 3203 }
// 3204 
// 3205 #endif
// 3206 #endif
// 3207 
// 3208 
// 3209 /*********************************************************************
// 3210 *********************************************************************/
// 3211 
// 3212 
// 3213 /******************************************************************************
// 3214  * @fn          bdb_GenerateInstallCodeCRC
// 3215  *
// 3216  * @brief       Creates a CRC for the install code passed.
// 3217  *
// 3218  * @param       installCode - install code from which CRC will be generated
// 3219  *
// 3220  * @return      CRC
// 3221  */

        RSEG BANKED_CODE:CODE:NOROOT(0)
// 3222 uint16 bdb_GenerateInstallCodeCRC(uint8 *installCode)
bdb_GenerateInstallCodeCRC:
          CFI Block cfiBlock241 Using cfiCommon0
          CFI Function bdb_GenerateInstallCodeCRC
        CODE
// 3223 {
        FUNCALL bdb_GenerateInstallCodeCRC, bdb_calculateCCITT_CRC
        LOCFRAME ISTACK, 2, STACK
        LOCFRAME PSTACK, 0, STACK
        LOCFRAME XSTACK, 6, STACK
        LOCFRAME IOVERLAY, 0, STATIC
        LOCFRAME DOVERLAY, 0, STATIC
        ARGFRAME ISTACK, 2, STACK
        ARGFRAME PSTACK, 0, STACK
        ARGFRAME XSTACK, 6, STACK
        ARGFRAME IOVERLAY, 0, STATIC
        ARGFRAME DOVERLAY, 0, STATIC
        PUSH    DPL
          CFI DPL0 Frame(CFA_SP, 4)
          CFI CFA_SP SP+-4
        PUSH    DPH
          CFI DPH0 Frame(CFA_SP, 5)
          CFI CFA_SP SP+-5
        ; Saved register size: 2
        ; Auto size: 2
        MOV     A,#-0x2
        LCALL   ?ALLOC_XSTACK8
          CFI CFA_XSP16 add(XSP16, 2)
// 3224   uint16 CRC;
// 3225   
// 3226   bdb_calculateCCITT_CRC(installCode, INSTALL_CODE_LEN, &CRC);
        ; Setup parameters for call to function bdb_calculateCCITT_CRC
        MOV     DPTR,#__Constant_10
        LCALL   ?PUSH_XSTACK8_X_FOUR
          CFI CFA_XSP16 add(XSP16, 6)
        MOV     A,#0x4
        LCALL   ?XSTACK_DISP102_8
        LCALL   `??bdb_calculateCCITT_CRC::?relay`; Banked call to: bdb_calculateCCITT_CRC
        MOV     A,#0x4
        LCALL   ?DEALLOC_XSTACK8
          CFI CFA_XSP16 add(XSP16, 2)
// 3227 
// 3228   return CRC;
        MOV     DPL,?XSP + 0
        MOV     DPH,?XSP + 1
        LCALL   ??Subroutine45_0 & 0xFFFF
??CrossCallReturnLabel_86:
        MOV     A,#0x2
        LJMP    ?Subroutine6 & 0xFFFF
// 3229 }
          CFI EndBlock cfiBlock241
// 3230 
// 3231 /******************************************************************************
// 3232  * @fn          bdb_calculateCCITT_CRC
// 3233  *
// 3234  * @brief       Creates a CRC for the install code passed.
// 3235  *
// 3236  * @param       Mb - install code from which CRC will be generated
// 3237  * @param       msglen - install code length
// 3238  * @param       crc - 
// 3239  *
// 3240  * @return      none
// 3241  */

        RSEG BANKED_CODE:CODE:NOROOT(0)
// 3242 void bdb_calculateCCITT_CRC (uint8 *Mb, uint32 msglen, uint16 *crc)
bdb_calculateCCITT_CRC:
          CFI Block cfiBlock242 Using cfiCommon0
          CFI Function bdb_calculateCCITT_CRC
        CODE
// 3243 {
        FUNCALL bdb_calculateCCITT_CRC, bdb_crcInit
        LOCFRAME ISTACK, 0, STACK
        LOCFRAME PSTACK, 0, STACK
        LOCFRAME XSTACK, 18, STACK
        LOCFRAME IOVERLAY, 0, STATIC
        LOCFRAME DOVERLAY, 0, STATIC
        ARGFRAME ISTACK, 0, STACK
        ARGFRAME PSTACK, 0, STACK
        ARGFRAME XSTACK, 18, STACK
        ARGFRAME IOVERLAY, 0, STATIC
        ARGFRAME DOVERLAY, 0, STATIC
        FUNCALL bdb_calculateCCITT_CRC, bdb_crcBitByBitFast
        LOCFRAME ISTACK, 0, STACK
        LOCFRAME PSTACK, 0, STACK
        LOCFRAME XSTACK, 22, STACK
        LOCFRAME IOVERLAY, 0, STATIC
        LOCFRAME DOVERLAY, 0, STATIC
        ARGFRAME ISTACK, 0, STACK
        ARGFRAME PSTACK, 0, STACK
        ARGFRAME XSTACK, 22, STACK
        ARGFRAME IOVERLAY, 0, STATIC
        ARGFRAME DOVERLAY, 0, STATIC
        REQUIRE ?V0
        REQUIRE ?V1
        REQUIRE ?V2
        REQUIRE ?V3
        MOV     A,#-0xc
        LCALL   ?BANKED_ENTER_XDATA
          CFI DPH0 load(1, XDATA, add(CFA_XSP16, literal(-1)))
          CFI DPL0 load(1, XDATA, add(CFA_XSP16, literal(-2)))
          CFI ?BRET_EXT load(1, XDATA, add(CFA_XSP16, literal(-3)))
          CFI ?RET_HIGH load(1, XDATA, add(CFA_XSP16, literal(-4)))
          CFI ?RET_LOW load(1, XDATA, add(CFA_XSP16, literal(-5)))
          CFI R7 load(1, XDATA, add(CFA_XSP16, literal(-6)))
          CFI V3 load(1, XDATA, add(CFA_XSP16, literal(-7)))
          CFI V2 load(1, XDATA, add(CFA_XSP16, literal(-8)))
          CFI V1 load(1, XDATA, add(CFA_XSP16, literal(-9)))
          CFI V0 load(1, XDATA, add(CFA_XSP16, literal(-10)))
          CFI VB load(1, XDATA, add(CFA_XSP16, literal(-11)))
          CFI R6 load(1, XDATA, add(CFA_XSP16, literal(-12)))
          CFI CFA_SP SP+0
          CFI CFA_XSP16 add(XSP16, 12)
        ; Saved register size: 12
        ; Auto size: 4
        MOV     A,#-0x4
        LCALL   ?ALLOC_XSTACK8
          CFI CFA_XSP16 add(XSP16, 16)
        MOV     A,R2
        MOV     R6,A
        MOV     A,R3
        MOV     R7,A
        MOV     ?V0,R4
        MOV     ?V1,R5
// 3244   uint16 crcinit_direct; 
// 3245   uint16 crcinit_nondirect;
// 3246   bdb_crcInit(crc, &crcinit_direct, &crcinit_nondirect);
        ; Setup parameters for call to function bdb_crcInit
        MOV     R0,?XSP + 0
        MOV     R1,?XSP + 1
        MOV     ?V2,R0
        MOV     ?V3,R1
        MOV     R0,#?V2
        LCALL   ?PUSH_XSTACK_I_TWO
          CFI CFA_XSP16 add(XSP16, 18)
        MOV     A,#0x4
        LCALL   ?XSTACK_DISP102_8
        MOV     R2,?V0
        MOV     R3,?V1
        LCALL   `??bdb_crcInit::?relay`; Banked call to: bdb_crcInit
        MOV     A,#0x2
        LCALL   ?DEALLOC_XSTACK8
          CFI CFA_XSP16 add(XSP16, 16)
// 3247   *crc = bdb_crcBitByBitFast(Mb, msglen, crcinit_direct, crcinit_nondirect);
        ; Setup parameters for call to function bdb_crcBitByBitFast
        MOV     DPL,?XSP + 0
        MOV     DPH,?XSP + 1
        LCALL   ?PUSH_XSTACK8_X_TWO
          CFI CFA_XSP16 add(XSP16, 18)
        MOV     A,#0x12
        LCALL   ?XSTACK_DISP0_8
        LCALL   ?PUSH_XSTACK8_X_FOUR
          CFI CFA_XSP16 add(XSP16, 22)
        MOV     A,#0x8
        LCALL   ?XSTACK_DISP0_8
        MOVX    A,@DPTR
        MOV     R4,A
        INC     DPTR
        MOVX    A,@DPTR
        MOV     R5,A
        MOV     A,R6
        MOV     R2,A
        MOV     A,R7
        MOV     R3,A
        LCALL   `??bdb_crcBitByBitFast::?relay`; Banked call to: bdb_crcBitByBitFast
        MOV     A,#0x6
        LCALL   ?DEALLOC_XSTACK8
          CFI CFA_XSP16 add(XSP16, 16)
        MOV     DPL,?V0
        MOV     DPH,?V1
        MOV     A,R2
        MOVX    @DPTR,A
        INC     DPTR
        MOV     A,R3
        MOVX    @DPTR,A
// 3248 }
        LJMP    ?Subroutine2 & 0xFFFF
          CFI EndBlock cfiBlock242
// 3249 
// 3250 
// 3251 /******************************************************************************
// 3252  * @fn          bdb_crcInit
// 3253  *
// 3254  * @brief       Initialize CRC calculation
// 3255  *
// 3256  * @param       crc - 
// 3257  * @param       crcinit_direct -
// 3258  * @param       crcinit_nondirect - 
// 3259  *
// 3260  * @return      none
// 3261  */

        RSEG BANKED_CODE:CODE:NOROOT(0)
// 3262 void bdb_crcInit(uint16 *crc, uint16 *crcinit_direct, uint16 *crcinit_nondirect)
bdb_crcInit:
          CFI Block cfiBlock243 Using cfiCommon0
          CFI Function bdb_crcInit
        CODE
// 3263 {
        MOV     A,#-0x9
        LCALL   ?BANKED_ENTER_XDATA
          CFI DPH0 load(1, XDATA, add(CFA_XSP16, literal(-1)))
          CFI DPL0 load(1, XDATA, add(CFA_XSP16, literal(-2)))
          CFI ?BRET_EXT load(1, XDATA, add(CFA_XSP16, literal(-3)))
          CFI ?RET_HIGH load(1, XDATA, add(CFA_XSP16, literal(-4)))
          CFI ?RET_LOW load(1, XDATA, add(CFA_XSP16, literal(-5)))
          CFI R7 load(1, XDATA, add(CFA_XSP16, literal(-6)))
          CFI V0 load(1, XDATA, add(CFA_XSP16, literal(-7)))
          CFI VB load(1, XDATA, add(CFA_XSP16, literal(-8)))
          CFI R6 load(1, XDATA, add(CFA_XSP16, literal(-9)))
          CFI CFA_SP SP+0
          CFI CFA_XSP16 add(XSP16, 9)
        ; Saved register size: 9
        ; Auto size: 0
// 3264 
// 3265   uint16 i;
// 3266   uint16 bit;
// 3267 
// 3268   *crcinit_direct = CRC_INIT;
        MOV     DPL,R4
        MOV     DPH,R5
        MOV     A,#-0x1
        MOVX    @DPTR,A
        INC     DPTR
        MOVX    @DPTR,A
// 3269   *crc = CRC_INIT;
        MOV     DPL,R2
        MOV     DPH,R3
        MOVX    @DPTR,A
        INC     DPTR
        MOVX    @DPTR,A
// 3270   for (i=0; i<CRC_ORDER; i++) 
        MOV     R6,#0x10
// 3271   {
// 3272     bit = *crc & 1;
??bdb_crcInit_0:
        MOV     DPL,R2
        MOV     DPH,R3
        MOVX    A,@DPTR
        ANL     A,#0x1
        MOV     R0,A
// 3273     if (bit) *crc^= CRC_POLYNOM;
        MOV     C,0xE0 /* A   */.0
        JNC     ??bdb_crcInit_1
        MOVX    A,@DPTR
        XRL     A,#0x21
        MOVX    @DPTR,A
        INC     DPTR
        MOVX    A,@DPTR
        XRL     A,#0x10
        MOVX    @DPTR,A
// 3274     *crc >>= 1;
??bdb_crcInit_1:
        MOV     DPL,R2
        MOV     DPH,R3
        MOVX    A,@DPTR
        MOV     R4,A
        INC     DPTR
        MOVX    A,@DPTR
        CLR     C
        RRC     A
        MOV     R5,A
        MOV     A,R4
        RRC     A
        MOV     DPL,R2
        MOV     DPH,R3
        MOVX    @DPTR,A
        INC     DPTR
        MOV     A,R5
        MOVX    @DPTR,A
// 3275     if (bit) *crc|= CRC_HIGHBIT;
        MOV     A,R0
        MOV     C,0xE0 /* A   */.0
        JNC     ??bdb_crcInit_2
        MOV     DPL,R2
        MOV     DPH,R3
        INC     DPTR
        MOVX    A,@DPTR
        ORL     A,#0x80
        MOVX    @DPTR,A
// 3276   }	
??bdb_crcInit_2:
        DEC     R6
        MOV     A,R6
        JNZ     ??bdb_crcInit_0
// 3277   *crcinit_nondirect = *crc;
        MOV     DPL,R2
        MOV     DPH,R3
        LCALL   ?Subroutine21 & 0xFFFF
??CrossCallReturnLabel_23:
        MOV     A,#0x9
        LCALL   ?XSTACK_DISP0_8
        MOVX    A,@DPTR
        MOV     R2,A
        INC     DPTR
        MOVX    A,@DPTR
        MOV     DPH,A
        MOV     DPL,R2
        MOV     A,R0
        MOVX    @DPTR,A
        INC     DPTR
        MOV     A,R1
        MOVX    @DPTR,A
// 3278 
// 3279 }
        LJMP    ?Subroutine0 & 0xFFFF
          CFI EndBlock cfiBlock243
// 3280 
// 3281 
// 3282 /******************************************************************************
// 3283  * @fn          bdb_crcReflect
// 3284  *
// 3285  * @brief       
// 3286  *
// 3287  * @param       crc - 
// 3288  * @param       bitnum -
// 3289  *
// 3290  * @return      none
// 3291  */

        RSEG BANKED_CODE:CODE:NOROOT(0)
// 3292 uint16 bdb_crcReflect (uint16 crc, uint16 bitnum)
bdb_crcReflect:
          CFI Block cfiBlock244 Using cfiCommon0
          CFI Function bdb_crcReflect
        CODE
// 3293 {
        REQUIRE ?V0
        REQUIRE ?V1
        REQUIRE ?V2
        REQUIRE ?V3
        MOV     A,#-0xc
        LCALL   ?BANKED_ENTER_XDATA
          CFI DPH0 load(1, XDATA, add(CFA_XSP16, literal(-1)))
          CFI DPL0 load(1, XDATA, add(CFA_XSP16, literal(-2)))
          CFI ?BRET_EXT load(1, XDATA, add(CFA_XSP16, literal(-3)))
          CFI ?RET_HIGH load(1, XDATA, add(CFA_XSP16, literal(-4)))
          CFI ?RET_LOW load(1, XDATA, add(CFA_XSP16, literal(-5)))
          CFI R7 load(1, XDATA, add(CFA_XSP16, literal(-6)))
          CFI V3 load(1, XDATA, add(CFA_XSP16, literal(-7)))
          CFI V2 load(1, XDATA, add(CFA_XSP16, literal(-8)))
          CFI V1 load(1, XDATA, add(CFA_XSP16, literal(-9)))
          CFI V0 load(1, XDATA, add(CFA_XSP16, literal(-10)))
          CFI VB load(1, XDATA, add(CFA_XSP16, literal(-11)))
          CFI R6 load(1, XDATA, add(CFA_XSP16, literal(-12)))
          CFI CFA_SP SP+0
          CFI CFA_XSP16 add(XSP16, 12)
        ; Saved register size: 12
        ; Auto size: 0
// 3294 
// 3295   // reflects the lower 'bitnum' bits of 'crc'
// 3296 
// 3297   uint16 i, j=1, crcout=0;
        MOV     R6,#0x1
        MOV     R7,#0x0
        MOV     ?V0,R7
        MOV     ?V1,R7
// 3298 
// 3299   for (i=(uint16)1<<(bitnum-1); i; i>>=1) {
        MOV     ?V2,R6
        MOV     ?V3,R7
        MOV     A,R4
        DEC     A
        MOV     R0,#?V2
        LCALL   ?S_SHL
        MOV     R0,?V2
        MOV     R1,?V3
        SJMP    ??bdb_crcReflect_0
// 3300     if (crc & i) crcout|=j;
??bdb_crcReflect_1:
        MOV     A,R2
        ANL     A,R0
        MOV     R4,A
        MOV     A,R3
        ANL     A,R1
        MOV     R5,A
        MOV     A,R4
        ORL     A,R5
        JZ      ??bdb_crcReflect_2
        MOV     A,R6
        ORL     A,?V0
        MOV     ?V0,A
        MOV     A,R7
        ORL     A,?V1
        MOV     ?V1,A
// 3301     j<<= 1;
??bdb_crcReflect_2:
        MOV     A,R6
        ADD     A,0xE0 /* A   */
        MOV     R6,A
        MOV     A,R7
        RLC     A
        MOV     R7,A
// 3302   }
        MOV     A,R1
        CLR     C
        RRC     A
        MOV     R1,A
        MOV     A,R0
        RRC     A
        MOV     R0,A
??bdb_crcReflect_0:
        MOV     A,R0
        ORL     A,R1
        JNZ     ??bdb_crcReflect_1
// 3303   return (crcout);
        MOV     R2,?V0
        MOV     R3,?V1
        LJMP    ??Subroutine38_0 & 0xFFFF
// 3304 }
          CFI EndBlock cfiBlock244
// 3305 
// 3306 
// 3307 /******************************************************************************
// 3308  * @fn          bdb_crcBitByBitFast
// 3309  *
// 3310  * @brief       
// 3311  *
// 3312  * @param       p - 
// 3313  * @param       len -
// 3314  * @param       crcinit_direct - 
// 3315  * @param       crcinit_nondirect -
// 3316  *
// 3317  * @return      crc
// 3318  */

        RSEG BANKED_CODE:CODE:NOROOT(0)
// 3319 uint16 bdb_crcBitByBitFast(uint8 * p, uint32 len, uint16 crcinit_direct, uint16 crcinit_nondirect) 
bdb_crcBitByBitFast:
          CFI Block cfiBlock245 Using cfiCommon0
          CFI Function bdb_crcBitByBitFast
        CODE
// 3320 {
        FUNCALL bdb_crcBitByBitFast, bdb_crcReflect
        LOCFRAME ISTACK, 0, STACK
        LOCFRAME PSTACK, 0, STACK
        LOCFRAME XSTACK, 20, STACK
        LOCFRAME IOVERLAY, 0, STATIC
        LOCFRAME DOVERLAY, 0, STATIC
        ARGFRAME ISTACK, 0, STACK
        ARGFRAME PSTACK, 0, STACK
        ARGFRAME XSTACK, 20, STACK
        ARGFRAME IOVERLAY, 0, STATIC
        ARGFRAME DOVERLAY, 0, STATIC
        FUNCALL bdb_crcBitByBitFast, bdb_crcReflect
        LOCFRAME ISTACK, 0, STACK
        LOCFRAME PSTACK, 0, STACK
        LOCFRAME XSTACK, 20, STACK
        LOCFRAME IOVERLAY, 0, STATIC
        LOCFRAME DOVERLAY, 0, STATIC
        ARGFRAME ISTACK, 0, STACK
        ARGFRAME PSTACK, 0, STACK
        ARGFRAME XSTACK, 20, STACK
        ARGFRAME IOVERLAY, 0, STATIC
        ARGFRAME DOVERLAY, 0, STATIC
        REQUIRE ?V0
        REQUIRE ?V1
        REQUIRE ?V2
        REQUIRE ?V3
        REQUIRE ?V4
        REQUIRE ?V5
        REQUIRE ?V6
        REQUIRE ?V7
        REQUIRE ?V8
        REQUIRE ?V9
        REQUIRE ?V10
        REQUIRE ?V11
        MOV     A,#-0x14
        LCALL   ?BANKED_ENTER_XDATA
          CFI DPH0 load(1, XDATA, add(CFA_XSP16, literal(-1)))
          CFI DPL0 load(1, XDATA, add(CFA_XSP16, literal(-2)))
          CFI ?BRET_EXT load(1, XDATA, add(CFA_XSP16, literal(-3)))
          CFI ?RET_HIGH load(1, XDATA, add(CFA_XSP16, literal(-4)))
          CFI ?RET_LOW load(1, XDATA, add(CFA_XSP16, literal(-5)))
          CFI R7 load(1, XDATA, add(CFA_XSP16, literal(-6)))
          CFI V11 load(1, XDATA, add(CFA_XSP16, literal(-7)))
          CFI V10 load(1, XDATA, add(CFA_XSP16, literal(-8)))
          CFI V9 load(1, XDATA, add(CFA_XSP16, literal(-9)))
          CFI V8 load(1, XDATA, add(CFA_XSP16, literal(-10)))
          CFI V7 load(1, XDATA, add(CFA_XSP16, literal(-11)))
          CFI V6 load(1, XDATA, add(CFA_XSP16, literal(-12)))
          CFI V5 load(1, XDATA, add(CFA_XSP16, literal(-13)))
          CFI V4 load(1, XDATA, add(CFA_XSP16, literal(-14)))
          CFI V3 load(1, XDATA, add(CFA_XSP16, literal(-15)))
          CFI V2 load(1, XDATA, add(CFA_XSP16, literal(-16)))
          CFI V1 load(1, XDATA, add(CFA_XSP16, literal(-17)))
          CFI V0 load(1, XDATA, add(CFA_XSP16, literal(-18)))
          CFI VB load(1, XDATA, add(CFA_XSP16, literal(-19)))
          CFI R6 load(1, XDATA, add(CFA_XSP16, literal(-20)))
          CFI CFA_SP SP+0
          CFI CFA_XSP16 add(XSP16, 20)
        ; Saved register size: 20
        ; Auto size: 0
        MOV     ?V2,R2
        MOV     ?V3,R3
// 3321   // fast bit by bit algorithm without augmented zero bytes.
// 3322   // does not use lookup table, suited for polynom orders between 1...32.
// 3323 
// 3324   uint16 i, j, c, bit;
// 3325   uint16 crc = crcinit_direct;
        MOV     A,R4
        MOV     R6,A
        MOV     A,R5
        MOV     R7,A
// 3326 
// 3327   for (i=0; i<len; i++) {
        MOV     ?V0,#0x0
        MOV     ?V1,#0x0
        MOV     A,#0x14
        LCALL   ?XSTACK_DISP0_8
        MOV     R0,#?V8
        LCALL   ?L_MOV_X
        SJMP    ??bdb_crcBitByBitFast_0
// 3328 
// 3329     c = (uint16)*p++;
??bdb_crcBitByBitFast_1:
        MOV     DPL,?V2
        MOV     DPH,?V3
        MOVX    A,@DPTR
        MOV     R2,A
        MOV     R3,#0x0
        INC     DPTR
        MOV     ?V2,DPL
        MOV     ?V3,DPH
// 3330     c = bdb_crcReflect(c, 8);
        ; Setup parameters for call to function bdb_crcReflect
        MOV     R4,#0x8
        MOV     R5,#0x0
        LCALL   `??bdb_crcReflect::?relay`; Banked call to: bdb_crcReflect
// 3331 
// 3332     for (j=0x80; j; j>>=1) {
        MOV     R0,#-0x80
// 3333 
// 3334       bit = crc & CRC_HIGHBIT;
??bdb_crcBitByBitFast_2:
        MOV     A,R7
        ANL     A,#0x80
        MOV     R5,A
// 3335       crc<<= 1;
        MOV     A,R6
        ADD     A,0xE0 /* A   */
        MOV     R6,A
        MOV     A,R7
        RLC     A
        MOV     R7,A
// 3336       if (c & j) bit^= CRC_HIGHBIT;
        MOV     A,R2
        ANL     A,R0
        JZ      ??bdb_crcBitByBitFast_3
        MOV     A,#-0x80
        XRL     A,R5
        MOV     R5,A
// 3337       if (bit) crc^= CRC_POLYNOM;
??bdb_crcBitByBitFast_3:
        MOV     A,R5
        JZ      ??bdb_crcBitByBitFast_4
        MOV     A,#0x21
        XRL     A,R6
        MOV     R6,A
        MOV     A,#0x10
        XRL     A,R7
        MOV     R7,A
// 3338     }
??bdb_crcBitByBitFast_4:
        CLR     C
        MOV     A,R0
        RRC     A
        MOV     R0,A
        JNZ     ??bdb_crcBitByBitFast_2
// 3339   }	
        INC     ?V0
        MOV     A,?V0
        JNZ     ??bdb_crcBitByBitFast_0
        INC     ?V1
??bdb_crcBitByBitFast_0:
        MOV     ?V4,?V0
        MOV     ?V5,?V1
        CLR     A
        MOV     ?V6,A
        MOV     ?V7,A
        MOV     R0,#?V8
        MOV     R1,#?V4
        LCALL   ?UL_GT
        JC      ??bdb_crcBitByBitFast_1
// 3340 
// 3341   crc=bdb_crcReflect(crc, CRC_ORDER);
// 3342   crc^= CRC_XOR;
// 3343 
// 3344   return(crc);
        ; Setup parameters for call to function bdb_crcReflect
        MOV     R4,#0x10
        MOV     R5,#0x0
        MOV     A,R6
        MOV     R2,A
        MOV     A,R7
        MOV     R3,A
        LCALL   `??bdb_crcReflect::?relay`; Banked call to: bdb_crcReflect
        MOV     A,R2
        CPL     A
        MOV     R2,A
        MOV     A,R3
        CPL     A
        MOV     R3,A
        MOV     R7,#0xc
        LJMP    ?BANKED_LEAVE_XDATA
// 3345 }
          CFI EndBlock cfiBlock245

        RSEG XDATA_ID:CODE:NOROOT(0)
`?<Initializer for bdbAttributes>`:
        DATA32
        DD 134213632
        DD 2048
        DATA16
        DW 65535
        DATA8
        DB 0
        DB 0
        DB 7
        DB 4
        DB 0
        DB 0
        DB 15
        DB 1

        RSEG XDATA_ID:CODE:NOROOT(0)
`?<Initializer for vDoPrimaryScan>`:
        DATA8
        DB 1

        RSEG XDATA_ID:CODE:NOROOT(0)
`?<Initializer for zgBdbInstallCodeCRC>`:
        DATA8
        DB 131
        DB 254
        DB 211
        DB 64
        DB 122
        DB 147
        DB 151
        DB 35
        DB 165
        DB 198
        DB 57
        DB 178
        DB 105
        DB 22
        DB 213
        DB 5
        DB 195
        DB 181

        RSEG XDATA_ROM_C:CONST:REORDER:NOROOT(0)
        DATA32
__Constant_3e8:
        DD 1000

        RSEG XDATA_ROM_C:CONST:REORDER:NOROOT(0)
        DATA32
__Constant_32:
        DD 50

        RSEG XDATA_ROM_C:CONST:REORDER:NOROOT(0)
        DATA32
__Constant_c8:
        DD 200

        RSEG XDATA_ROM_C:CONST:REORDER:NOROOT(0)
        DATA32
__Constant_3a98:
        DD 15000

        RSEG XDATA_ROM_C:CONST:REORDER:NOROOT(0)
        DATA32
__Constant_10:
        DD 16

        RSEG BANK_RELAYS:CODE:REORDER:NOROOT(0)
`??bdb_Init::?relay`:
        CODE
        LCALL   ?BDISPATCH
        DATA24
        DC24    bdb_Init

        RSEG BANK_RELAYS:CODE:REORDER:NOROOT(0)
`??bdb_RegisterSimpleDescriptor::?relay`:
        CODE
        LCALL   ?BDISPATCH
        DATA24
        DC24    bdb_RegisterSimpleDescriptor

        RSEG BANK_RELAYS:CODE:REORDER:NOROOT(0)
`??bdb_ZclIdentifyCmdInd::?relay`:
        CODE
        LCALL   ?BDISPATCH
        DATA24
        DC24    bdb_ZclIdentifyCmdInd

        RSEG BANK_RELAYS:CODE:REORDER:NOROOT(0)
`??bdb_addInstallCode::?relay`:
        CODE
        LCALL   ?BDISPATCH
        DATA24
        DC24    bdb_addInstallCode

        RSEG BANK_RELAYS:CODE:REORDER:NOROOT(0)
`??bdb_RegisterTCLinkKeyExchangeProcessCB::?rela`:
        CODE
        LCALL   ?BDISPATCH
        DATA24
        DC24    bdb_RegisterTCLinkKeyExchangeProcessCB

        RSEG BANK_RELAYS:CODE:REORDER:NOROOT(0)
`??bdb_setTCRequireKeyExchange::?relay`:
        CODE
        LCALL   ?BDISPATCH
        DATA24
        DC24    bdb_setTCRequireKeyExchange

        RSEG BANK_RELAYS:CODE:REORDER:NOROOT(0)
`??bdb_TCAddJoiningDevice::?relay`:
        CODE
        LCALL   ?BDISPATCH
        DATA24
        DC24    bdb_TCAddJoiningDevice

        RSEG BANK_RELAYS:CODE:REORDER:NOROOT(0)
`??bdb_TCProcessJoiningList::?relay`:
        CODE
        LCALL   ?BDISPATCH
        DATA24
        DC24    bdb_TCProcessJoiningList

        RSEG BANK_RELAYS:CODE:REORDER:NOROOT(0)
`??bdb_TCjoiningDeviceComplete::?relay`:
        CODE
        LCALL   ?BDISPATCH
        DATA24
        DC24    bdb_TCjoiningDeviceComplete

        RSEG BANK_RELAYS:CODE:REORDER:NOROOT(0)
`??bdb_TCJoiningDeviceFree::?relay`:
        CODE
        LCALL   ?BDISPATCH
        DATA24
        DC24    bdb_TCJoiningDeviceFree

        RSEG BANK_RELAYS:CODE:REORDER:NOROOT(0)
`??bdb_setJoinUsesInstallCodeKey::?relay`:
        CODE
        LCALL   ?BDISPATCH
        DATA24
        DC24    bdb_setJoinUsesInstallCodeKey

        RSEG BANK_RELAYS:CODE:REORDER:NOROOT(0)
`??bdb_StartCommissioning::?relay`:
        CODE
        LCALL   ?BDISPATCH
        DATA24
        DC24    bdb_StartCommissioning

        RSEG BANK_RELAYS:CODE:REORDER:NOROOT(0)
`??bdb_NotifyCommissioningModeStart::?relay`:
        CODE
        LCALL   ?BDISPATCH
        DATA24
        DC24    bdb_NotifyCommissioningModeStart

        RSEG BANK_RELAYS:CODE:REORDER:NOROOT(0)
`??bdb_setFN::?relay`:
        CODE
        LCALL   ?BDISPATCH
        DATA24
        DC24    bdb_setFN

        RSEG BANK_RELAYS:CODE:REORDER:NOROOT(0)
`??bdb_resetLocalAction::?relay`:
        CODE
        LCALL   ?BDISPATCH
        DATA24
        DC24    bdb_resetLocalAction

        RSEG BANK_RELAYS:CODE:REORDER:NOROOT(0)
`??bdb_parentLost::?relay`:
        CODE
        LCALL   ?BDISPATCH
        DATA24
        DC24    bdb_parentLost

        RSEG BANK_RELAYS:CODE:REORDER:NOROOT(0)
`??bdb_NetworkRestoredResumeState::?relay`:
        CODE
        LCALL   ?BDISPATCH
        DATA24
        DC24    bdb_NetworkRestoredResumeState

        RSEG BANK_RELAYS:CODE:REORDER:NOROOT(0)
`??bdb_reportCommissioningState::?relay`:
        CODE
        LCALL   ?BDISPATCH
        DATA24
        DC24    bdb_reportCommissioningState

        RSEG BANK_RELAYS:CODE:REORDER:NOROOT(0)
`??bdb_nwkFormationAttempt::?relay`:
        CODE
        LCALL   ?BDISPATCH
        DATA24
        DC24    bdb_nwkFormationAttempt

        RSEG BANK_RELAYS:CODE:REORDER:NOROOT(0)
`??bdb_isDeviceNonFactoryNew::?relay`:
        CODE
        LCALL   ?BDISPATCH
        DATA24
        DC24    bdb_isDeviceNonFactoryNew

        RSEG BANK_RELAYS:CODE:REORDER:NOROOT(0)
`??bdb_rejoinNwk::?relay`:
        CODE
        LCALL   ?BDISPATCH
        DATA24
        DC24    bdb_rejoinNwk

        RSEG BANK_RELAYS:CODE:REORDER:NOROOT(0)
`??bdb_setChannelAttribute::?relay`:
        CODE
        LCALL   ?BDISPATCH
        DATA24
        DC24    bdb_setChannelAttribute

        RSEG BANK_RELAYS:CODE:REORDER:NOROOT(0)
`??bdb_setChannel::?relay`:
        CODE
        LCALL   ?BDISPATCH
        DATA24
        DC24    bdb_setChannel

        RSEG BANK_RELAYS:CODE:REORDER:NOROOT(0)
`??bdb_nwkJoiningFormation::?relay`:
        CODE
        LCALL   ?BDISPATCH
        DATA24
        DC24    bdb_nwkJoiningFormation

        RSEG BANK_RELAYS:CODE:REORDER:NOROOT(0)
`??bdb_nwkSteeringDeviceOnNwk::?relay`:
        CODE
        LCALL   ?BDISPATCH
        DATA24
        DC24    bdb_nwkSteeringDeviceOnNwk

        RSEG BANK_RELAYS:CODE:REORDER:NOROOT(0)
`??bdb_startResumeCommissioningProcess::?relay`:
        CODE
        LCALL   ?BDISPATCH
        DATA24
        DC24    bdb_startResumeCommissioningProcess

        RSEG BANK_RELAYS:CODE:REORDER:NOROOT(0)
`??bdb_event_loop::?relay`:
        CODE
        LCALL   ?BDISPATCH
        DATA24
        DC24    bdb_event_loop

        RSEG BANK_RELAYS:CODE:REORDER:NOROOT(0)
`??bdb_touchlinkSendFNReset::?relay`:
        CODE
        LCALL   ?BDISPATCH
        DATA24
        DC24    bdb_touchlinkSendFNReset

        RSEG BANK_RELAYS:CODE:REORDER:NOROOT(0)
`??bdb_setNodeIsOnANetwork::?relay`:
        CODE
        LCALL   ?BDISPATCH
        DATA24
        DC24    bdb_setNodeIsOnANetwork

        RSEG BANK_RELAYS:CODE:REORDER:NOROOT(0)
`??bdb_setCommissioningGroupID::?relay`:
        CODE
        LCALL   ?BDISPATCH
        DATA24
        DC24    bdb_setCommissioningGroupID

        RSEG BANK_RELAYS:CODE:REORDER:NOROOT(0)
`??bdb_CreateRespondentList::?relay`:
        CODE
        LCALL   ?BDISPATCH
        DATA24
        DC24    bdb_CreateRespondentList

        RSEG BANK_RELAYS:CODE:REORDER:NOROOT(0)
`??bdb_AddRespondentNode::?relay`:
        CODE
        LCALL   ?BDISPATCH
        DATA24
        DC24    bdb_AddRespondentNode

        RSEG BANK_RELAYS:CODE:REORDER:NOROOT(0)
`??bdb_zclRespondentListClean::?relay`:
        CODE
        LCALL   ?BDISPATCH
        DATA24
        DC24    bdb_zclRespondentListClean

        RSEG BANK_RELAYS:CODE:REORDER:NOROOT(0)
`??bdb_SendMsg::?relay`:
        CODE
        LCALL   ?BDISPATCH
        DATA24
        DC24    bdb_SendMsg

        RSEG BANK_RELAYS:CODE:REORDER:NOROOT(0)
`??bdb_RegisterCommissioningStatusCB::?relay`:
        CODE
        LCALL   ?BDISPATCH
        DATA24
        DC24    bdb_RegisterCommissioningStatusCB

        RSEG BANK_RELAYS:CODE:REORDER:NOROOT(0)
`??bdb_ClearNetworkParams::?relay`:
        CODE
        LCALL   ?BDISPATCH
        DATA24
        DC24    bdb_ClearNetworkParams

        RSEG BANK_RELAYS:CODE:REORDER:NOROOT(0)
`??bdb_getZCLFrameCounter::?relay`:
        CODE
        LCALL   ?BDISPATCH
        DATA24
        DC24    bdb_getZCLFrameCounter

        RSEG BANK_RELAYS:CODE:REORDER:NOROOT(0)
`??gp_ChangeChannelReq::?relay`:
        CODE
        LCALL   ?BDISPATCH
        DATA24
        DC24    gp_ChangeChannelReq

        RSEG BANK_RELAYS:CODE:REORDER:NOROOT(0)
`??bdb_GenerateInstallCodeCRC::?relay`:
        CODE
        LCALL   ?BDISPATCH
        DATA24
        DC24    bdb_GenerateInstallCodeCRC

        RSEG BANK_RELAYS:CODE:REORDER:NOROOT(0)
`??bdb_calculateCCITT_CRC::?relay`:
        CODE
        LCALL   ?BDISPATCH
        DATA24
        DC24    bdb_calculateCCITT_CRC

        RSEG BANK_RELAYS:CODE:REORDER:NOROOT(0)
`??bdb_crcInit::?relay`:
        CODE
        LCALL   ?BDISPATCH
        DATA24
        DC24    bdb_crcInit

        RSEG BANK_RELAYS:CODE:REORDER:NOROOT(0)
`??bdb_crcReflect::?relay`:
        CODE
        LCALL   ?BDISPATCH
        DATA24
        DC24    bdb_crcReflect

        RSEG BANK_RELAYS:CODE:REORDER:NOROOT(0)
`??bdb_crcBitByBitFast::?relay`:
        CODE
        LCALL   ?BDISPATCH
        DATA24
        DC24    bdb_crcBitByBitFast

        END
// 3346 
// 3347 
// 
// 5 668 bytes in segment BANKED_CODE
//   258 bytes in segment BANK_RELAYS
//    37 bytes in segment XDATA_I
//    37 bytes in segment XDATA_ID
//    20 bytes in segment XDATA_ROM_C
//    26 bytes in segment XDATA_Z
// 
// 5 963 bytes of CODE  memory
//     0 bytes of CONST memory (+ 20 bytes shared)
//    63 bytes of XDATA memory
//
//Errors: none
//Warnings: none
