///////////////////////////////////////////////////////////////////////////////
//
// IAR C/C++ Compiler V9.30.1.3056 for 8051               26/Oct/2017  13:47:11
// Copyright 2004-2015 IAR Systems AB.
// Standalone license - IAR Embedded Workbench for 8051
//
//    Core               =  plain
//    Code model         =  banked
//    Data model         =  large
//    Calling convention =  xdata reentrant
//    Constant location  =  data_rom
//    Dptr setup         =  1,16
//                          
//    Source file        =  
//        C:\Texas Instruments\Z-Stack 3.0.0\Components\stack\bdb\bdb.c
//    Command line       =  
//        -f "C:\Texas Instruments\Z-Stack
//        3.0.0\Projects\zstack\HomeAutomation\SampleLight\CC2530DB\..\..\..\Tools\CC2530DB\f8wCoord.cfg"
//        (-DCPU32MHZ -DROOT=__near_func -DMAC_CFG_APP_PENDING_QUEUE=TRUE
//        -DMAC_CFG_TX_DATA_MAX=5 -DMAC_CFG_TX_MAX=8 -DMAC_CFG_RX_MAX=5
//        -DZDO_COORDINATOR -DRTR_NWK) -f "C:\Texas Instruments\Z-Stack
//        3.0.0\Projects\zstack\HomeAutomation\SampleLight\CC2530DB\..\..\..\Tools\CC2530DB\f8wConfig.cfg"
//        (-DZIGBEEPRO -DSECURE=1 -DZG_SECURE_DYNAMIC=0 -DREFLECTOR
//        -DDEFAULT_CHANLIST=0x00000800 -DZDAPP_CONFIG_PAN_ID=0xFFFF
//        -DNWK_START_DELAY=100 -DEXTENDED_JOINING_RANDOM_MASK=0x007F
//        -DBEACON_REQUEST_DELAY=100 -DBEACON_REQ_DELAY_MASK=0x00FF
//        -DLINK_STATUS_JITTER_MASK=0x007F -DROUTE_EXPIRY_TIME=30
//        -DAPSC_ACK_WAIT_DURATION_POLLED=3000 -DNWK_INDIRECT_MSG_TIMEOUT=7
//        -DMAX_RREQ_ENTRIES=8 -DAPSC_MAX_FRAME_RETRIES=3
//        -DNWK_MAX_DATA_RETRIES=2 -DMAX_POLL_FAILURE_RETRIES=2 -DMAX_BCAST=9
//        -DAPS_MAX_GROUPS=16 -DMAX_RTG_ENTRIES=40 -DNWK_MAX_BINDING_ENTRIES=4
//        -DMAX_BINDING_CLUSTER_IDS=4 -DDEFAULT_KEY={0}
//        -DMAC_MAX_FRAME_SIZE=116 -DZDNWKMGR_MIN_TRANSMISSIONS=20
//        "-DCONST=const __code" -DGENERIC=__generic -DRFD_RCVC_ALWAYS_ON=FALSE
//        -DPOLL_RATE=1000 -DQUEUED_POLL_RATE=100 -DRESPONSE_POLL_RATE=100
//        -DREJOIN_POLL_RATE=440 -DREJOIN_BACKOFF=900000 -DREJOIN_SCAN=900000
//        -DENABLE_LED4_DISABLE_S1) -f "C:\Texas Instruments\Z-Stack
//        3.0.0\Projects\zstack\HomeAutomation\SampleLight\CC2530DB\..\..\..\Tools\CC2530DB\f8wZCL.cfg"
//        "C:\Texas Instruments\Z-Stack 3.0.0\Components\stack\bdb\bdb.c" -D
//        BDB_REPORTING -D SECURE=1 -D TC_LINKKEY_JOIN -D NV_INIT -D NV_RESTORE
//        -D xZTOOL_P1 -D xMT_TASK -D xMT_APP_FUNC -D xMT_SYS_FUNC -D
//        xMT_ZDO_FUNC -D xMT_ZDO_MGMT -D xMT_APP_CNF_FUNC -D
//        LCD_SUPPORTED=DEBUG -D MULTICAST_ENABLED=FALSE -D ZCL_READ -D
//        ZCL_WRITE -D ZCL_BASIC -D ZCL_IDENTIFY -D ZCL_ON_OFF -D ZCL_SCENES -D
//        ZCL_GROUPS -D xZCL_LEVEL_CTRL -lC "C:\Texas Instruments\Z-Stack
//        3.0.0\Projects\zstack\HomeAutomation\SampleLight\CC2530DB\CoordinatorEB\List"
//        -lA "C:\Texas Instruments\Z-Stack
//        3.0.0\Projects\zstack\HomeAutomation\SampleLight\CC2530DB\CoordinatorEB\List"
//        --diag_suppress Pe001,Pa010 -o "C:\Texas Instruments\Z-Stack
//        3.0.0\Projects\zstack\HomeAutomation\SampleLight\CC2530DB\CoordinatorEB\Obj"
//        -e --debug --core=plain --dptr=16,1 --data_model=large
//        --code_model=banked --calling_convention=xdata_reentrant
//        --place_constants=data_rom --nr_virtual_regs 16 -I "C:\Texas
//        Instruments\Z-Stack
//        3.0.0\Projects\zstack\HomeAutomation\SampleLight\CC2530DB\" -I
//        "C:\Texas Instruments\Z-Stack
//        3.0.0\Projects\zstack\HomeAutomation\SampleLight\CC2530DB\..\Source\"
//        -I "C:\Texas Instruments\Z-Stack
//        3.0.0\Projects\zstack\HomeAutomation\SampleLight\CC2530DB\..\..\Source\"
//        -I "C:\Texas Instruments\Z-Stack
//        3.0.0\Projects\zstack\HomeAutomation\SampleLight\CC2530DB\..\..\..\ZMain\TI2530DB\"
//        -I "C:\Texas Instruments\Z-Stack
//        3.0.0\Projects\zstack\HomeAutomation\SampleLight\CC2530DB\..\..\..\..\..\Components\hal\include\"
//        -I "C:\Texas Instruments\Z-Stack
//        3.0.0\Projects\zstack\HomeAutomation\SampleLight\CC2530DB\..\..\..\..\..\Components\hal\target\CC2530EB\"
//        -I "C:\Texas Instruments\Z-Stack
//        3.0.0\Projects\zstack\HomeAutomation\SampleLight\CC2530DB\..\..\..\..\..\Components\mac\include\"
//        -I "C:\Texas Instruments\Z-Stack
//        3.0.0\Projects\zstack\HomeAutomation\SampleLight\CC2530DB\..\..\..\..\..\Components\mac\high_level\"
//        -I "C:\Texas Instruments\Z-Stack
//        3.0.0\Projects\zstack\HomeAutomation\SampleLight\CC2530DB\..\..\..\..\..\Components\mac\low_level\srf04\"
//        -I "C:\Texas Instruments\Z-Stack
//        3.0.0\Projects\zstack\HomeAutomation\SampleLight\CC2530DB\..\..\..\..\..\Components\mac\low_level\srf04\single_chip\"
//        -I "C:\Texas Instruments\Z-Stack
//        3.0.0\Projects\zstack\HomeAutomation\SampleLight\CC2530DB\..\..\..\..\..\Components\mt\"
//        -I "C:\Texas Instruments\Z-Stack
//        3.0.0\Projects\zstack\HomeAutomation\SampleLight\CC2530DB\..\..\..\..\..\Components\osal\include\"
//        -I "C:\Texas Instruments\Z-Stack
//        3.0.0\Projects\zstack\HomeAutomation\SampleLight\CC2530DB\..\..\..\..\..\Components\services\saddr\"
//        -I "C:\Texas Instruments\Z-Stack
//        3.0.0\Projects\zstack\HomeAutomation\SampleLight\CC2530DB\..\..\..\..\..\Components\services\sdata\"
//        -I "C:\Texas Instruments\Z-Stack
//        3.0.0\Projects\zstack\HomeAutomation\SampleLight\CC2530DB\..\..\..\..\..\Components\stack\af\"
//        -I "C:\Texas Instruments\Z-Stack
//        3.0.0\Projects\zstack\HomeAutomation\SampleLight\CC2530DB\..\..\..\..\..\Components\stack\bdb\"
//        -I "C:\Texas Instruments\Z-Stack
//        3.0.0\Projects\zstack\HomeAutomation\SampleLight\CC2530DB\..\..\..\..\..\Components\stack\gp\"
//        -I "C:\Texas Instruments\Z-Stack
//        3.0.0\Projects\zstack\HomeAutomation\SampleLight\CC2530DB\..\..\..\..\..\Components\stack\nwk\"
//        -I "C:\Texas Instruments\Z-Stack
//        3.0.0\Projects\zstack\HomeAutomation\SampleLight\CC2530DB\..\..\..\..\..\Components\stack\sapi\"
//        -I "C:\Texas Instruments\Z-Stack
//        3.0.0\Projects\zstack\HomeAutomation\SampleLight\CC2530DB\..\..\..\..\..\Components\stack\sec\"
//        -I "C:\Texas Instruments\Z-Stack
//        3.0.0\Projects\zstack\HomeAutomation\SampleLight\CC2530DB\..\..\..\..\..\Components\stack\sys\"
//        -I "C:\Texas Instruments\Z-Stack
//        3.0.0\Projects\zstack\HomeAutomation\SampleLight\CC2530DB\..\..\..\..\..\Components\stack\zcl\"
//        -I "C:\Texas Instruments\Z-Stack
//        3.0.0\Projects\zstack\HomeAutomation\SampleLight\CC2530DB\..\..\..\..\..\Components\stack\zdo\"
//        -I "C:\Texas Instruments\Z-Stack
//        3.0.0\Projects\zstack\HomeAutomation\SampleLight\CC2530DB\..\..\..\..\..\Components\zmac\"
//        -I "C:\Texas Instruments\Z-Stack
//        3.0.0\Projects\zstack\HomeAutomation\SampleLight\CC2530DB\..\..\..\..\..\Components\zmac\f8w\"
//        -Ohz --require_prototypes
//    List file          =  
//        C:\Texas Instruments\Z-Stack
//        3.0.0\Projects\zstack\HomeAutomation\SampleLight\CC2530DB\CoordinatorEB\List\bdb.s51
//
///////////////////////////////////////////////////////////////////////////////

        NAME bdb

        RTMODEL "__SystemLibrary", "CLib"
        RTMODEL "__calling_convention", "xdata_reentrant"
        RTMODEL "__code_model", "banked"
        RTMODEL "__core", "plain"
        RTMODEL "__data_model", "large"
        RTMODEL "__dptr_size", "16"
        RTMODEL "__extended_stack", "disabled"
        RTMODEL "__location_for_constants", "data"
        RTMODEL "__number_of_dptrs", "1"
        RTMODEL "__rt_version", "1"

        RSEG DOVERLAY:DATA:NOROOT(0)
        RSEG IOVERLAY:IDATA:NOROOT(0)
        RSEG ISTACK:IDATA:NOROOT(0)
        RSEG PSTACK:XDATA:NOROOT(0)
        RSEG XSTACK:XDATA:NOROOT(0)

        EXTERN ?V0
        EXTERN ?V1
        EXTERN ?V2
        EXTERN ?V3
        EXTERN ?V4
        EXTERN ?V5
        EXTERN ?V6
        EXTERN ?V7
        EXTERN ?V8
        EXTERN ?V9
        EXTERN ?V10
        EXTERN ?V11
        EXTERN ?ALLOC_XSTACK8
        EXTERN ?BANKED_ENTER_XDATA
        EXTERN ?BANKED_LEAVE_XDATA
        EXTERN ?BDISPATCH
        EXTERN ?BRET
        EXTERN ?CALL_IND
        EXTERN ?DEALLOC_XSTACK8
        EXTERN ?L_MOV_TO_X
        EXTERN ?L_MOV_X
        EXTERN ?PUSH_XSTACK8_X_FOUR
        EXTERN ?PUSH_XSTACK8_X_TWO
        EXTERN ?PUSH_XSTACK_I_THREE
        EXTERN ?PUSH_XSTACK_I_TWO
        EXTERN ?S_SHL
        EXTERN ?UL_GT
        EXTERN ?XLOAD_R0123
        EXTERN ?XLOAD_R2345
        EXTERN ?XSP
        EXTERN ?XSTACK_DISP0_8
        EXTERN ?XSTACK_DISP100_8
        EXTERN ?XSTACK_DISP101_8
        EXTERN ?XSTACK_DISP102_8
        EXTERN __INIT_XDATA_I
        EXTERN __INIT_XDATA_Z

        PUBLIC `??bdb_AddRespondentNode::?relay`
        FUNCTION `??bdb_AddRespondentNode::?relay`,0203H
        PUBLIC `??bdb_ClearNetworkParams::?relay`
        FUNCTION `??bdb_ClearNetworkParams::?relay`,0203H
        PUBLIC `??bdb_CreateRespondentList::?relay`
        FUNCTION `??bdb_CreateRespondentList::?relay`,0203H
        PUBLIC `??bdb_GenerateInstallCodeCRC::?relay`
        FUNCTION `??bdb_GenerateInstallCodeCRC::?relay`,0203H
        PUBLIC `??bdb_Init::?relay`
        FUNCTION `??bdb_Init::?relay`,0203H
        PUBLIC `??bdb_NetworkRestoredResumeState::?relay`
        FUNCTION `??bdb_NetworkRestoredResumeState::?relay`,0203H
        PUBLIC `??bdb_NotifyCommissioningModeStart::?relay`
        FUNCTION `??bdb_NotifyCommissioningModeStart::?relay`,0203H
        PUBLIC `??bdb_RegisterCommissioningStatusCB::?relay`
        FUNCTION `??bdb_RegisterCommissioningStatusCB::?relay`,0203H
        PUBLIC `??bdb_RegisterSimpleDescriptor::?relay`
        FUNCTION `??bdb_RegisterSimpleDescriptor::?relay`,0203H
        PUBLIC `??bdb_RegisterTCLinkKeyExchangeProcessCB::?rela`
        FUNCTION `??bdb_RegisterTCLinkKeyExchangeProcessCB::?rela`,0203H
        PUBLIC `??bdb_SendMsg::?relay`
        FUNCTION `??bdb_SendMsg::?relay`,0203H
        PUBLIC `??bdb_StartCommissioning::?relay`
        FUNCTION `??bdb_StartCommissioning::?relay`,0203H
        PUBLIC `??bdb_TCAddJoiningDevice::?relay`
        FUNCTION `??bdb_TCAddJoiningDevice::?relay`,0203H
        FUNCTION `??bdb_TCJoiningDeviceFree::?relay`,0203H
        FUNCTION `??bdb_TCProcessJoiningList::?relay`,0203H
        PUBLIC `??bdb_TCjoiningDeviceComplete::?relay`
        FUNCTION `??bdb_TCjoiningDeviceComplete::?relay`,0203H
        PUBLIC `??bdb_ZclIdentifyCmdInd::?relay`
        FUNCTION `??bdb_ZclIdentifyCmdInd::?relay`,0203H
        PUBLIC `??bdb_addInstallCode::?relay`
        FUNCTION `??bdb_addInstallCode::?relay`,0203H
        PUBLIC `??bdb_calculateCCITT_CRC::?relay`
        FUNCTION `??bdb_calculateCCITT_CRC::?relay`,0203H
        PUBLIC `??bdb_crcBitByBitFast::?relay`
        FUNCTION `??bdb_crcBitByBitFast::?relay`,0203H
        PUBLIC `??bdb_crcInit::?relay`
        FUNCTION `??bdb_crcInit::?relay`,0203H
        PUBLIC `??bdb_crcReflect::?relay`
        FUNCTION `??bdb_crcReflect::?relay`,0203H
        PUBLIC `??bdb_event_loop::?relay`
        FUNCTION `??bdb_event_loop::?relay`,0203H
        PUBLIC `??bdb_getZCLFrameCounter::?relay`
        FUNCTION `??bdb_getZCLFrameCounter::?relay`,0203H
        PUBLIC `??bdb_isDeviceNonFactoryNew::?relay`
        FUNCTION `??bdb_isDeviceNonFactoryNew::?relay`,0203H
        PUBLIC `??bdb_nwkFormationAttempt::?relay`
        FUNCTION `??bdb_nwkFormationAttempt::?relay`,0203H
        FUNCTION `??bdb_nwkJoiningFormation::?relay`,0203H
        FUNCTION `??bdb_nwkSteeringDeviceOnNwk::?relay`,0203H
        PUBLIC `??bdb_parentLost::?relay`
        FUNCTION `??bdb_parentLost::?relay`,0203H
        PUBLIC `??bdb_rejoinNwk::?relay`
        FUNCTION `??bdb_rejoinNwk::?relay`,0203H
        PUBLIC `??bdb_reportCommissioningState::?relay`
        FUNCTION `??bdb_reportCommissioningState::?relay`,0203H
        PUBLIC `??bdb_resetLocalAction::?relay`
        FUNCTION `??bdb_resetLocalAction::?relay`,0203H
        PUBLIC `??bdb_setChannel::?relay`
        FUNCTION `??bdb_setChannel::?relay`,0203H
        PUBLIC `??bdb_setChannelAttribute::?relay`
        FUNCTION `??bdb_setChannelAttribute::?relay`,0203H
        PUBLIC `??bdb_setCommissioningGroupID::?relay`
        FUNCTION `??bdb_setCommissioningGroupID::?relay`,0203H
        PUBLIC `??bdb_setFN::?relay`
        FUNCTION `??bdb_setFN::?relay`,0203H
        PUBLIC `??bdb_setJoinUsesInstallCodeKey::?relay`
        FUNCTION `??bdb_setJoinUsesInstallCodeKey::?relay`,0203H
        PUBLIC `??bdb_setNodeIsOnANetwork::?relay`
        FUNCTION `??bdb_setNodeIsOnANetwork::?relay`,0203H
        PUBLIC `??bdb_setTCRequireKeyExchange::?relay`
        FUNCTION `??bdb_setTCRequireKeyExchange::?relay`,0203H
        FUNCTION `??bdb_startResumeCommissioningProcess::?relay`,0203H
        PUBLIC `??bdb_touchlinkSendFNReset::?relay`
        FUNCTION `??bdb_touchlinkSendFNReset::?relay`,0203H
        PUBLIC `??bdb_zclRespondentListClean::?relay`
        FUNCTION `??bdb_zclRespondentListClean::?relay`,0203H
        FUNCTION `??gp_ChangeChannelReq::?relay`,0203H
        PUBWEAK __Constant_10
        PUBWEAK __Constant_32
        PUBWEAK __Constant_3a98
        PUBWEAK __Constant_3e8
        PUBWEAK __Constant_c8
        PUBLIC bdbAttributes
        PUBLIC bdbCommissioningProcedureState
        PUBLIC bdb_AddRespondentNode
        FUNCTION bdb_AddRespondentNode,0a1203H
        ARGFRAME XSTACK, 0, STACK
        LOCFRAME XSTACK, 10, STACK
        PUBLIC bdb_ClearNetworkParams
        FUNCTION bdb_ClearNetworkParams,0203H
        ARGFRAME XSTACK, 0, STACK
        PUBLIC bdb_CreateRespondentList
        FUNCTION bdb_CreateRespondentList,0a1203H
        ARGFRAME XSTACK, 10, STACK
        ARGFRAME IOVERLAY, 0, STATIC
        ARGFRAME DOVERLAY, 0, STATIC
        LOCFRAME XSTACK, 10, STACK
        PUBLIC bdb_CurrEpDescriptorList
        PUBLIC bdb_FB_InitiatorCurrentCyclesNumber
        PUBLIC bdb_GenerateInstallCodeCRC
        FUNCTION bdb_GenerateInstallCodeCRC,021203H
        ARGFRAME XSTACK, 30, STACK
        ARGFRAME IOVERLAY, 0, STATIC
        ARGFRAME DOVERLAY, 0, STATIC
        LOCFRAME ISTACK, 2, STACK
        LOCFRAME XSTACK, 6, STACK
        PUBLIC bdb_HeadEpDescriptorList
        PUBLIC bdb_Init
        FUNCTION bdb_Init,021203H
        ARGFRAME XSTACK, 0, STACK
        LOCFRAME XSTACK, 9, STACK
        PUBLIC bdb_NetworkRestoredResumeState
        FUNCTION bdb_NetworkRestoredResumeState,0203H
        ARGFRAME XSTACK, 0, STACK
        PUBLIC bdb_NotifyCommissioningModeStart
        FUNCTION bdb_NotifyCommissioningModeStart,0a1203H
        ARGFRAME XSTACK, 21, STACK
        ARGFRAME IOVERLAY, 0, STATIC
        ARGFRAME DOVERLAY, 0, STATIC
        LOCFRAME ISTACK, 1, STACK
        LOCFRAME XSTACK, 15, STACK
        PUBLIC bdb_RegisterCommissioningStatusCB
        FUNCTION bdb_RegisterCommissioningStatusCB,0203H
        ARGFRAME XSTACK, 0, STACK
        LOCFRAME ISTACK, 2, STACK
        PUBLIC bdb_RegisterSimpleDescriptor
        FUNCTION bdb_RegisterSimpleDescriptor,0a1203H
        ARGFRAME XSTACK, 0, STACK
        LOCFRAME ISTACK, 1, STACK
        LOCFRAME XSTACK, 10, STACK
        PUBLIC bdb_RegisterTCLinkKeyExchangeProcessCB
        FUNCTION bdb_RegisterTCLinkKeyExchangeProcessCB,0203H
        ARGFRAME XSTACK, 0, STACK
        LOCFRAME ISTACK, 2, STACK
        PUBLIC bdb_SendMsg
        FUNCTION bdb_SendMsg,0a1203H
        ARGFRAME XSTACK, 60, STACK
        ARGFRAME IOVERLAY, 0, STATIC
        ARGFRAME DOVERLAY, 0, STATIC
        LOCFRAME ISTACK, 1, STACK
        LOCFRAME XSTACK, 20, STACK
        PUBLIC bdb_StartCommissioning
        FUNCTION bdb_StartCommissioning,0a1203H
        ARGFRAME XSTACK, 0, STACK
        LOCFRAME XSTACK, 36, STACK
        PUBLIC bdb_TCAddJoiningDevice
        FUNCTION bdb_TCAddJoiningDevice,0a1203H
        ARGFRAME XSTACK, 0, STACK
        LOCFRAME ISTACK, 1, STACK
        LOCFRAME XSTACK, 32, STACK
        FUNCTION bdb_TCJoiningDeviceFree,0a1203H
        ARGFRAME XSTACK, 58, STACK
        ARGFRAME IOVERLAY, 0, STATIC
        ARGFRAME DOVERLAY, 0, STATIC
        LOCFRAME XSTACK, 18, STACK
        FUNCTION bdb_TCProcessJoiningList,0a1203H
        ARGFRAME XSTACK, 24, STACK
        ARGFRAME IOVERLAY, 0, STATIC
        ARGFRAME DOVERLAY, 0, STATIC
        LOCFRAME XSTACK, 62, STACK
        PUBLIC bdb_TCjoiningDeviceComplete
        FUNCTION bdb_TCjoiningDeviceComplete,0a1203H
        ARGFRAME XSTACK, 0, STACK
        LOCFRAME XSTACK, 31, STACK
        PUBLIC bdb_TaskID
        PUBLIC bdb_ZclIdentifyCmdInd
        FUNCTION bdb_ZclIdentifyCmdInd,0a1203H
        ARGFRAME XSTACK, 0, STACK
        LOCFRAME XSTACK, 24, STACK
        PUBLIC bdb_ZclTransactionSequenceNumber
        PUBLIC bdb_addInstallCode
        FUNCTION bdb_addInstallCode,0a1203H
        ARGFRAME XSTACK, 0, STACK
        LOCFRAME XSTACK, 34, STACK
        PUBLIC bdb_calculateCCITT_CRC
        FUNCTION bdb_calculateCCITT_CRC,0a1203H
        ARGFRAME XSTACK, 6, STACK
        ARGFRAME IOVERLAY, 0, STATIC
        ARGFRAME DOVERLAY, 0, STATIC
        LOCFRAME XSTACK, 22, STACK
        PUBLIC bdb_crcBitByBitFast
        FUNCTION bdb_crcBitByBitFast,0a1203H
        ARGFRAME XSTACK, 22, STACK
        ARGFRAME IOVERLAY, 0, STATIC
        ARGFRAME DOVERLAY, 0, STATIC
        LOCFRAME XSTACK, 20, STACK
        PUBLIC bdb_crcInit
        FUNCTION bdb_crcInit,0203H
        ARGFRAME XSTACK, 18, STACK
        ARGFRAME IOVERLAY, 0, STATIC
        ARGFRAME DOVERLAY, 0, STATIC
        LOCFRAME XSTACK, 9, STACK
        PUBLIC bdb_crcReflect
        FUNCTION bdb_crcReflect,080203H
        ARGFRAME XSTACK, 20, STACK
        ARGFRAME IOVERLAY, 0, STATIC
        ARGFRAME DOVERLAY, 0, STATIC
        LOCFRAME XSTACK, 12, STACK
        PUBLIC bdb_event_loop
        FUNCTION bdb_event_loop,0a1203H
        ARGFRAME XSTACK, 0, STACK
        LOCFRAME ISTACK, 1, STACK
        LOCFRAME XSTACK, 28, STACK
        PUBLIC bdb_getZCLFrameCounter
        FUNCTION bdb_getZCLFrameCounter,0203H
        ARGFRAME XSTACK, 0, STACK
        LOCFRAME ISTACK, 2, STACK
        PUBLIC bdb_initialization
        PUBLIC bdb_isDeviceNonFactoryNew
        FUNCTION bdb_isDeviceNonFactoryNew,0203H
        ARGFRAME XSTACK, 0, STACK
        LOCFRAME ISTACK, 2, STACK
        PUBLIC bdb_nwkFormationAttempt
        FUNCTION bdb_nwkFormationAttempt,021203H
        ARGFRAME XSTACK, 0, STACK
        LOCFRAME XSTACK, 9, STACK
        FUNCTION bdb_nwkJoiningFormation,0a1203H
        ARGFRAME XSTACK, 21, STACK
        ARGFRAME IOVERLAY, 0, STATIC
        ARGFRAME DOVERLAY, 0, STATIC
        LOCFRAME XSTACK, 12, STACK
        FUNCTION bdb_nwkSteeringDeviceOnNwk,021203H
        ARGFRAME XSTACK, 32, STACK
        ARGFRAME IOVERLAY, 0, STATIC
        ARGFRAME DOVERLAY, 0, STATIC
        LOCFRAME ISTACK, 2, STACK
        LOCFRAME XSTACK, 9, STACK
        PUBLIC bdb_parentLost
        FUNCTION bdb_parentLost,0203H
        ARGFRAME XSTACK, 0, STACK
        PUBLIC bdb_rejoinNwk
        FUNCTION bdb_rejoinNwk,021203H
        ARGFRAME XSTACK, 0, STACK
        LOCFRAME XSTACK, 10, STACK
        PUBLIC bdb_reportCommissioningState
        FUNCTION bdb_reportCommissioningState,0a1203H
        ARGFRAME XSTACK, 32, STACK
        ARGFRAME IOVERLAY, 0, STATIC
        ARGFRAME DOVERLAY, 0, STATIC
        LOCFRAME ISTACK, 1, STACK
        LOCFRAME XSTACK, 18, STACK
        PUBLIC bdb_resetLocalAction
        FUNCTION bdb_resetLocalAction,021203H
        ARGFRAME XSTACK, 0, STACK
        LOCFRAME ISTACK, 2, STACK
        PUBLIC bdb_setChannel
        FUNCTION bdb_setChannel,0a1203H
        ARGFRAME XSTACK, 12, STACK
        ARGFRAME IOVERLAY, 0, STATIC
        ARGFRAME DOVERLAY, 0, STATIC
        LOCFRAME XSTACK, 16, STACK
        PUBLIC bdb_setChannelAttribute
        FUNCTION bdb_setChannelAttribute,080203H
        ARGFRAME XSTACK, 0, STACK
        LOCFRAME XSTACK, 12, STACK
        PUBLIC bdb_setCommissioningGroupID
        FUNCTION bdb_setCommissioningGroupID,0203H
        ARGFRAME XSTACK, 0, STACK
        LOCFRAME ISTACK, 2, STACK
        PUBLIC bdb_setFN
        FUNCTION bdb_setFN,021203H
        ARGFRAME XSTACK, 14, STACK
        ARGFRAME IOVERLAY, 0, STATIC
        ARGFRAME DOVERLAY, 0, STATIC
        LOCFRAME ISTACK, 2, STACK
        PUBLIC bdb_setJoinUsesInstallCodeKey
        FUNCTION bdb_setJoinUsesInstallCodeKey,0203H
        ARGFRAME XSTACK, 0, STACK
        LOCFRAME ISTACK, 2, STACK
        PUBLIC bdb_setNodeIsOnANetwork
        FUNCTION bdb_setNodeIsOnANetwork,0a1203H
        ARGFRAME XSTACK, 32, STACK
        ARGFRAME IOVERLAY, 0, STATIC
        ARGFRAME DOVERLAY, 0, STATIC
        LOCFRAME XSTACK, 14, STACK
        PUBLIC bdb_setTCRequireKeyExchange
        FUNCTION bdb_setTCRequireKeyExchange,0203H
        ARGFRAME XSTACK, 0, STACK
        LOCFRAME ISTACK, 2, STACK
        FUNCTION bdb_startResumeCommissioningProcess,0a1203H
        ARGFRAME XSTACK, 24, STACK
        ARGFRAME IOVERLAY, 0, STATIC
        ARGFRAME DOVERLAY, 0, STATIC
        LOCFRAME XSTACK, 25, STACK
        PUBLIC bdb_touchlinkSendFNReset
        FUNCTION bdb_touchlinkSendFNReset,0203H
        ARGFRAME XSTACK, 0, STACK
        PUBLIC bdb_zclRespondentListClean
        FUNCTION bdb_zclRespondentListClean,0a1203H
        ARGFRAME XSTACK, 14, STACK
        ARGFRAME IOVERLAY, 0, STATIC
        ARGFRAME DOVERLAY, 0, STATIC
        LOCFRAME XSTACK, 12, STACK
        FUNCTION gp_ChangeChannelReq,0603H
        ARGFRAME XSTACK, 0, STACK
        LOCFRAME ISTACK, 2, STACK
        PUBLIC pRespondentCurr
        PUBLIC pRespondentHead
        PUBLIC pRespondentNext
        PUBLIC touchLinkTargetEnabled
        PUBLIC vDoPrimaryScan
        PUBLIC zgBdbInstallCodeCRC
        
          CFI Names cfiNames0
          CFI StackFrame CFA_SP SP IDATA
          CFI StackFrame CFA_PSP16 PSP16 XDATA
          CFI StackFrame CFA_XSP16 XSP16 XDATA
          CFI StaticOverlayFrame CFA_IOVERLAY IOVERLAY
          CFI StaticOverlayFrame CFA_DOVERLAY DOVERLAY
          CFI Resource `PSW.CY`:1, `B.BR0`:1, `B.BR1`:1, `B.BR2`:1, `B.BR3`:1
          CFI Resource `B.BR4`:1, `B.BR5`:1, `B.BR6`:1, `B.BR7`:1, `VB.BR8`:1
          CFI Resource `VB.BR9`:1, `VB.BR10`:1, `VB.BR11`:1, `VB.BR12`:1
          CFI Resource `VB.BR13`:1, `VB.BR14`:1, `VB.BR15`:1, VB:8, B:8, A:8
          CFI Resource PSW:8, DPL0:8, DPH0:8, R0:8, R1:8, R2:8, R3:8, R4:8, R5:8
          CFI Resource R6:8, R7:8, V0:8, V1:8, V2:8, V3:8, V4:8, V5:8, V6:8, V7:8
          CFI Resource V8:8, V9:8, V10:8, V11:8, V12:8, V13:8, V14:8, V15:8, SP:8
          CFI Resource PSPH:8, PSPL:8, PSP16:16, XSPH:8, XSPL:8, XSP16:16
          CFI VirtualResource ?RET:24
          CFI Resource ?BRET_EXT:8
          CFI VirtualResource ?RET_HIGH:8, ?RET_LOW:8
          CFI ResourceParts PSP16 PSPH, PSPL
          CFI ResourceParts XSP16 XSPH, XSPL
          CFI ResourceParts ?RET ?BRET_EXT, ?RET_HIGH, ?RET_LOW
          CFI EndNames cfiNames0
        
          CFI Common cfiCommon0 Using cfiNames0
          CFI CodeAlign 1
          CFI DataAlign -1
          CFI ReturnAddress ?RET CODE
          CFI CFA_DOVERLAY Used
          CFI CFA_IOVERLAY Used
          CFI CFA_SP SP+-3
          CFI CFA_PSP16 PSP16+0
          CFI CFA_XSP16 XSP16+0
          CFI `PSW.CY` SameValue
          CFI `B.BR0` SameValue
          CFI `B.BR1` SameValue
          CFI `B.BR2` SameValue
          CFI `B.BR3` SameValue
          CFI `B.BR4` SameValue
          CFI `B.BR5` SameValue
          CFI `B.BR6` SameValue
          CFI `B.BR7` SameValue
          CFI `VB.BR8` SameValue
          CFI `VB.BR9` SameValue
          CFI `VB.BR10` SameValue
          CFI `VB.BR11` SameValue
          CFI `VB.BR12` SameValue
          CFI `VB.BR13` SameValue
          CFI `VB.BR14` SameValue
          CFI `VB.BR15` SameValue
          CFI VB SameValue
          CFI B Undefined
          CFI A Undefined
          CFI PSW SameValue
          CFI DPL0 SameValue
          CFI DPH0 SameValue
          CFI R0 Undefined
          CFI R1 Undefined
          CFI R2 Undefined
          CFI R3 Undefined
          CFI R4 Undefined
          CFI R5 Undefined
          CFI R6 SameValue
          CFI R7 SameValue
          CFI V0 SameValue
          CFI V1 SameValue
          CFI V2 SameValue
          CFI V3 SameValue
          CFI V4 SameValue
          CFI V5 SameValue
          CFI V6 SameValue
          CFI V7 SameValue
          CFI V8 SameValue
          CFI V9 SameValue
          CFI V10 SameValue
          CFI V11 SameValue
          CFI V12 SameValue
          CFI V13 SameValue
          CFI V14 SameValue
          CFI V15 SameValue
          CFI PSPH Undefined
          CFI PSPL Undefined
          CFI XSPH Undefined
          CFI XSPL Undefined
          CFI ?RET Concat
          CFI ?BRET_EXT Frame(CFA_SP, 3)
          CFI ?RET_HIGH Frame(CFA_SP, 2)
          CFI ?RET_LOW Frame(CFA_SP, 1)
          CFI EndCommon cfiCommon0
        
        
          CFI Common cfiCommon1 Using cfiNames0
          CFI CodeAlign 1
          CFI DataAlign -1
          CFI ReturnAddress ?RET CODE
          CFI CFA_DOVERLAY Used
          CFI CFA_IOVERLAY Used
          CFI CFA_SP SP+-2
          CFI CFA_PSP16 PSP16+0
          CFI CFA_XSP16 XSP16+0
          CFI `PSW.CY` SameValue
          CFI `B.BR0` SameValue
          CFI `B.BR1` SameValue
          CFI `B.BR2` SameValue
          CFI `B.BR3` SameValue
          CFI `B.BR4` SameValue
          CFI `B.BR5` SameValue
          CFI `B.BR6` SameValue
          CFI `B.BR7` SameValue
          CFI `VB.BR8` SameValue
          CFI `VB.BR9` SameValue
          CFI `VB.BR10` SameValue
          CFI `VB.BR11` SameValue
          CFI `VB.BR12` SameValue
          CFI `VB.BR13` SameValue
          CFI `VB.BR14` SameValue
          CFI `VB.BR15` SameValue
          CFI VB SameValue
          CFI B SameValue
          CFI A SameValue
          CFI PSW SameValue
          CFI DPL0 SameValue
          CFI DPH0 SameValue
          CFI R0 SameValue
          CFI R1 SameValue
          CFI R2 SameValue
          CFI R3 SameValue
          CFI R4 SameValue
          CFI R5 SameValue
          CFI R6 SameValue
          CFI R7 SameValue
          CFI V0 SameValue
          CFI V1 SameValue
          CFI V2 SameValue
          CFI V3 SameValue
          CFI V4 SameValue
          CFI V5 SameValue
          CFI V6 SameValue
          CFI V7 SameValue
          CFI V8 SameValue
          CFI V9 SameValue
          CFI V10 SameValue
          CFI V11 SameValue
          CFI V12 SameValue
          CFI V13 SameValue
          CFI V14 SameValue
          CFI V15 SameValue
          CFI PSPH Undefined
          CFI PSPL Undefined
          CFI XSPH Undefined
          CFI XSPL Undefined
          CFI ?RET Concat
          CFI ?BRET_EXT SameValue
          CFI ?RET_HIGH Frame(CFA_SP, 2)
          CFI ?RET_LOW Frame(CFA_SP, 1)
          CFI EndCommon cfiCommon1
        
APSME_AddTCLinkKey  SYMBOL "APSME_AddTCLinkKey"
`??APSME_AddTCLinkKey::?relay` SYMBOL "?relay", APSME_AddTCLinkKey
APSME_IsDistributedSecurity SYMBOL "APSME_IsDistributedSecurity"
`??APSME_IsDistributedSecurity::?relay` SYMBOL "?relay", APSME_IsDistributedSecurity
APSME_SearchTCLinkKeyEntry SYMBOL "APSME_SearchTCLinkKeyEntry"
`??APSME_SearchTCLinkKeyEntry::?relay` SYMBOL "?relay", APSME_SearchTCLinkKeyEntry
AddrMgrEntryLookupExt SYMBOL "AddrMgrEntryLookupExt"
`??AddrMgrEntryLookupExt::?relay` SYMBOL "?relay", AddrMgrEntryLookupExt
`?<Name GP_DataCnf 8>` SYMBOL "GP_DataCnf"
`??GP_DataCnf::?relay` SYMBOL "?relay", `?<Name GP_DataCnf 8>`
`?<Name GP_DataInd 10>` SYMBOL "GP_DataInd"
`??GP_DataInd::?relay` SYMBOL "?relay", `?<Name GP_DataInd 10>`
`?<Name GP_SecReq 12>` SYMBOL "GP_SecReq"
`??GP_SecReq::?relay` SYMBOL "?relay", `?<Name GP_SecReq 12>`
NLME_ReJoinRequest  SYMBOL "NLME_ReJoinRequest"
`??NLME_ReJoinRequest::?relay` SYMBOL "?relay", NLME_ReJoinRequest
NLME_ReJoinRequestUnsecure SYMBOL "NLME_ReJoinRequestUnsecure"
`??NLME_ReJoinRequestUnsecure::?relay` SYMBOL "?relay", NLME_ReJoinRequestUnsecure
NLME_ResetRequest   SYMBOL "NLME_ResetRequest"
`??NLME_ResetRequest::?relay` SYMBOL "?relay", NLME_ResetRequest
ZDApp_ChangeState   SYMBOL "ZDApp_ChangeState"
`??ZDApp_ChangeState::?relay` SYMBOL "?relay", ZDApp_ChangeState
ZDApp_ReadNetworkRestoreState SYMBOL "ZDApp_ReadNetworkRestoreState"
`??ZDApp_ReadNetworkRestoreState::?relay` SYMBOL "?relay", ZDApp_ReadNetworkRestoreState
ZDApp_ResetTimerStart SYMBOL "ZDApp_ResetTimerStart"
`??ZDApp_ResetTimerStart::?relay` SYMBOL "?relay", ZDApp_ResetTimerStart
ZDApp_RestoreNwkKey SYMBOL "ZDApp_RestoreNwkKey"
`??ZDApp_RestoreNwkKey::?relay` SYMBOL "?relay", ZDApp_RestoreNwkKey
ZDApp_RestoreNwkSecMaterial SYMBOL "ZDApp_RestoreNwkSecMaterial"
`??ZDApp_RestoreNwkSecMaterial::?relay` SYMBOL "?relay", ZDApp_RestoreNwkSecMaterial
ZDOInitDeviceEx     SYMBOL "ZDOInitDeviceEx"
`??ZDOInitDeviceEx::?relay` SYMBOL "?relay", ZDOInitDeviceEx
ZDP_MgmtPermitJoinReq SYMBOL "ZDP_MgmtPermitJoinReq"
`??ZDP_MgmtPermitJoinReq::?relay` SYMBOL "?relay", ZDP_MgmtPermitJoinReq
ZDSecMgrAPSRemove   SYMBOL "ZDSecMgrAPSRemove"
`??ZDSecMgrAPSRemove::?relay` SYMBOL "?relay", ZDSecMgrAPSRemove
ZDSecMgrAddrClear   SYMBOL "ZDSecMgrAddrClear"
`??ZDSecMgrAddrClear::?relay` SYMBOL "?relay", ZDSecMgrAddrClear
ZMacSetReq          SYMBOL "ZMacSetReq"
`??ZMacSetReq::?relay` SYMBOL "?relay", ZMacSetReq
afRegister          SYMBOL "afRegister"
`??afRegister::?relay` SYMBOL "?relay", afRegister
bdb_BindIfMatch     SYMBOL "bdb_BindIfMatch"
`??bdb_BindIfMatch::?relay` SYMBOL "?relay", bdb_BindIfMatch
bdb_RepConstructReportingData SYMBOL "bdb_RepConstructReportingData"
`??bdb_RepConstructReportingData::?relay` SYMBOL "?relay", bdb_RepConstructReportingData
bdb_RepInit         SYMBOL "bdb_RepInit"
`??bdb_RepInit::?relay` SYMBOL "?relay", bdb_RepInit
bdb_RepProcessEvent SYMBOL "bdb_RepProcessEvent"
`??bdb_RepProcessEvent::?relay` SYMBOL "?relay", bdb_RepProcessEvent
bdb_RepUpdateMarkBindings SYMBOL "bdb_RepUpdateMarkBindings"
`??bdb_RepUpdateMarkBindings::?relay` SYMBOL "?relay", bdb_RepUpdateMarkBindings
bdb_SendIdentifyQuery SYMBOL "bdb_SendIdentifyQuery"
`??bdb_SendIdentifyQuery::?relay` SYMBOL "?relay", bdb_SendIdentifyQuery
bdb_SendSimpleDescReq SYMBOL "bdb_SendSimpleDescReq"
`??bdb_SendSimpleDescReq::?relay` SYMBOL "?relay", bdb_SendSimpleDescReq
bdb_exitFindingBindingWStatus SYMBOL "bdb_exitFindingBindingWStatus"
`??bdb_exitFindingBindingWStatus::?relay` SYMBOL "?relay", bdb_exitFindingBindingWStatus
bdb_getRespondentRetry SYMBOL "bdb_getRespondentRetry"
`??bdb_getRespondentRetry::?relay` SYMBOL "?relay", bdb_getRespondentRetry
bdb_setEpDescListToActiveEndpoint SYMBOL "bdb_setEpDescListToActiveEndpoint"
`??bdb_setEpDescListToActiveEndpoint::?relay` SYMBOL "?relay", bdb_setEpDescListToActiveEndpoint
`?<Name gp_CheckAnnouncedDev 62>` SYMBOL "gp_CheckAnnouncedDevice"
`??gp_CheckAnnouncedDevice::?relay` SYMBOL "?relay", `?<Name gp_CheckAnnouncedDev 62>`
gp_RegisterGPChangeChannelReqForBDBCB SYMBOL "gp_RegisterGPChangeChannelReqForBDBCB"
`??gp_RegisterGPChangeChannelReqForBDBCB::?relay` SYMBOL "?relay", gp_RegisterGPChangeChannelReqForBDBCB
gp_endpointInit     SYMBOL "gp_endpointInit"
`??gp_endpointInit::?relay` SYMBOL "?relay", gp_endpointInit
`?<Name gp_expireDuplicateFi 68>` SYMBOL "gp_expireDuplicateFiltering"
`??gp_expireDuplicateFiltering::?relay` SYMBOL "?relay", `?<Name gp_expireDuplicateFi 68>`
`?<Name gp_returnOperational 70>` SYMBOL "gp_returnOperationalChannel"
`??gp_returnOperationalChannel::?relay` SYMBOL "?relay", `?<Name gp_returnOperational 70>`
`?<Name gp_stopCommissioning 72>` SYMBOL "gp_stopCommissioningMode"
`??gp_stopCommissioningMode::?relay` SYMBOL "?relay", `?<Name gp_stopCommissioning 72>`
nwk_setStateIdle    SYMBOL "nwk_setStateIdle"
`??nwk_setStateIdle::?relay` SYMBOL "?relay", nwk_setStateIdle
osal_build_uint16   SYMBOL "osal_build_uint16"
`??osal_build_uint16::?relay` SYMBOL "?relay", osal_build_uint16
osal_get_timeoutEx  SYMBOL "osal_get_timeoutEx"
`??osal_get_timeoutEx::?relay` SYMBOL "?relay", osal_get_timeoutEx
osal_isbufset       SYMBOL "osal_isbufset"
`??osal_isbufset::?relay` SYMBOL "?relay", osal_isbufset
osal_mem_alloc      SYMBOL "osal_mem_alloc"
`??osal_mem_alloc::?relay` SYMBOL "?relay", osal_mem_alloc
osal_mem_free       SYMBOL "osal_mem_free"
`??osal_mem_free::?relay` SYMBOL "?relay", osal_mem_free
osal_memcmp         SYMBOL "osal_memcmp"
`??osal_memcmp::?relay` SYMBOL "?relay", osal_memcmp
osal_memcpy         SYMBOL "osal_memcpy"
`??osal_memcpy::?relay` SYMBOL "?relay", osal_memcpy
osal_memset         SYMBOL "osal_memset"
`??osal_memset::?relay` SYMBOL "?relay", osal_memset
osal_msg_allocate   SYMBOL "osal_msg_allocate"
`??osal_msg_allocate::?relay` SYMBOL "?relay", osal_msg_allocate
osal_msg_deallocate SYMBOL "osal_msg_deallocate"
`??osal_msg_deallocate::?relay` SYMBOL "?relay", osal_msg_deallocate
osal_msg_receive    SYMBOL "osal_msg_receive"
`??osal_msg_receive::?relay` SYMBOL "?relay", osal_msg_receive
osal_msg_send       SYMBOL "osal_msg_send"
`??osal_msg_send::?relay` SYMBOL "?relay", osal_msg_send
osal_nv_delete      SYMBOL "osal_nv_delete"
`??osal_nv_delete::?relay` SYMBOL "?relay", osal_nv_delete
osal_nv_item_len    SYMBOL "osal_nv_item_len"
`??osal_nv_item_len::?relay` SYMBOL "?relay", osal_nv_item_len
osal_nv_read        SYMBOL "osal_nv_read"
`??osal_nv_read::?relay` SYMBOL "?relay", osal_nv_read
osal_nv_write       SYMBOL "osal_nv_write"
`??osal_nv_write::?relay` SYMBOL "?relay", osal_nv_write
osal_set_event      SYMBOL "osal_set_event"
`??osal_set_event::?relay` SYMBOL "?relay", osal_set_event
osal_start_reload_timer SYMBOL "osal_start_reload_timer"
`??osal_start_reload_timer::?relay` SYMBOL "?relay", osal_start_reload_timer
osal_start_timerEx  SYMBOL "osal_start_timerEx"
`??osal_start_timerEx::?relay` SYMBOL "?relay", osal_start_timerEx
osal_stop_timerEx   SYMBOL "osal_stop_timerEx"
`??osal_stop_timerEx::?relay` SYMBOL "?relay", osal_stop_timerEx
sspMMOHash          SYMBOL "sspMMOHash"
`??sspMMOHash::?relay` SYMBOL "?relay", sspMMOHash
zclFindAttrRec      SYMBOL "zclFindAttrRec"
`??zclFindAttrRec::?relay` SYMBOL "?relay", zclFindAttrRec
zgWriteStartupOptions SYMBOL "zgWriteStartupOptions"
`??zgWriteStartupOptions::?relay` SYMBOL "?relay", zgWriteStartupOptions
bdb_AddRespondentNode SYMBOL "bdb_AddRespondentNode"
`??bdb_AddRespondentNode::?relay` SYMBOL "?relay", bdb_AddRespondentNode
bdb_ClearNetworkParams SYMBOL "bdb_ClearNetworkParams"
`??bdb_ClearNetworkParams::?relay` SYMBOL "?relay", bdb_ClearNetworkParams
bdb_CreateRespondentList SYMBOL "bdb_CreateRespondentList"
`??bdb_CreateRespondentList::?relay` SYMBOL "?relay", bdb_CreateRespondentList
bdb_GenerateInstallCodeCRC SYMBOL "bdb_GenerateInstallCodeCRC"
`??bdb_GenerateInstallCodeCRC::?relay` SYMBOL "?relay", bdb_GenerateInstallCodeCRC
bdb_Init            SYMBOL "bdb_Init"
`??bdb_Init::?relay` SYMBOL "?relay", bdb_Init
bdb_NetworkRestoredResumeState SYMBOL "bdb_NetworkRestoredResumeState"
`??bdb_NetworkRestoredResumeState::?relay` SYMBOL "?relay", bdb_NetworkRestoredResumeState
bdb_NotifyCommissioningModeStart SYMBOL "bdb_NotifyCommissioningModeStart"
`??bdb_NotifyCommissioningModeStart::?relay` SYMBOL "?relay", bdb_NotifyCommissioningModeStart
bdb_RegisterCommissioningStatusCB SYMBOL "bdb_RegisterCommissioningStatusCB"
`??bdb_RegisterCommissioningStatusCB::?relay` SYMBOL "?relay", bdb_RegisterCommissioningStatusCB
bdb_RegisterSimpleDescriptor SYMBOL "bdb_RegisterSimpleDescriptor"
`??bdb_RegisterSimpleDescriptor::?relay` SYMBOL "?relay", bdb_RegisterSimpleDescriptor
bdb_RegisterTCLinkKeyExchangeProcessCB SYMBOL "bdb_RegisterTCLinkKeyExchangeProcessCB"
`??bdb_RegisterTCLinkKeyExchangeProcessCB::?rela` SYMBOL "?relay", bdb_RegisterTCLinkKeyExchangeProcessCB
bdb_SendMsg         SYMBOL "bdb_SendMsg"
`??bdb_SendMsg::?relay` SYMBOL "?relay", bdb_SendMsg
bdb_StartCommissioning SYMBOL "bdb_StartCommissioning"
`??bdb_StartCommissioning::?relay` SYMBOL "?relay", bdb_StartCommissioning
bdb_TCAddJoiningDevice SYMBOL "bdb_TCAddJoiningDevice"
`??bdb_TCAddJoiningDevice::?relay` SYMBOL "?relay", bdb_TCAddJoiningDevice
bdb_TCjoiningDeviceComplete SYMBOL "bdb_TCjoiningDeviceComplete"
`??bdb_TCjoiningDeviceComplete::?relay` SYMBOL "?relay", bdb_TCjoiningDeviceComplete
bdb_ZclIdentifyCmdInd SYMBOL "bdb_ZclIdentifyCmdInd"
`??bdb_ZclIdentifyCmdInd::?relay` SYMBOL "?relay", bdb_ZclIdentifyCmdInd
bdb_addInstallCode  SYMBOL "bdb_addInstallCode"
`??bdb_addInstallCode::?relay` SYMBOL "?relay", bdb_addInstallCode
bdb_calculateCCITT_CRC SYMBOL "bdb_calculateCCITT_CRC"
`??bdb_calculateCCITT_CRC::?relay` SYMBOL "?relay", bdb_calculateCCITT_CRC
bdb_crcBitByBitFast SYMBOL "bdb_crcBitByBitFast"
`??bdb_crcBitByBitFast::?relay` SYMBOL "?relay", bdb_crcBitByBitFast
bdb_crcInit         SYMBOL "bdb_crcInit"
`??bdb_crcInit::?relay` SYMBOL "?relay", bdb_crcInit
bdb_crcReflect      SYMBOL "bdb_crcReflect"
`??bdb_crcReflect::?relay` SYMBOL "?relay", bdb_crcReflect
bdb_event_loop      SYMBOL "bdb_event_loop"
`??bdb_event_loop::?relay` SYMBOL "?relay", bdb_event_loop
bdb_getZCLFrameCounter SYMBOL "bdb_getZCLFrameCounter"
`??bdb_getZCLFrameCounter::?relay` SYMBOL "?relay", bdb_getZCLFrameCounter
bdb_isDeviceNonFactoryNew SYMBOL "bdb_isDeviceNonFactoryNew"
`??bdb_isDeviceNonFactoryNew::?relay` SYMBOL "?relay", bdb_isDeviceNonFactoryNew
bdb_nwkFormationAttempt SYMBOL "bdb_nwkFormationAttempt"
`??bdb_nwkFormationAttempt::?relay` SYMBOL "?relay", bdb_nwkFormationAttempt
bdb_parentLost      SYMBOL "bdb_parentLost"
`??bdb_parentLost::?relay` SYMBOL "?relay", bdb_parentLost
bdb_rejoinNwk       SYMBOL "bdb_rejoinNwk"
`??bdb_rejoinNwk::?relay` SYMBOL "?relay", bdb_rejoinNwk
bdb_reportCommissioningState SYMBOL "bdb_reportCommissioningState"
`??bdb_reportCommissioningState::?relay` SYMBOL "?relay", bdb_reportCommissioningState
bdb_resetLocalAction SYMBOL "bdb_resetLocalAction"
`??bdb_resetLocalAction::?relay` SYMBOL "?relay", bdb_resetLocalAction
bdb_setChannel      SYMBOL "bdb_setChannel"
`??bdb_setChannel::?relay` SYMBOL "?relay", bdb_setChannel
bdb_setChannelAttribute SYMBOL "bdb_setChannelAttribute"
`??bdb_setChannelAttribute::?relay` SYMBOL "?relay", bdb_setChannelAttribute
bdb_setCommissioningGroupID SYMBOL "bdb_setCommissioningGroupID"
`??bdb_setCommissioningGroupID::?relay` SYMBOL "?relay", bdb_setCommissioningGroupID
bdb_setFN           SYMBOL "bdb_setFN"
`??bdb_setFN::?relay` SYMBOL "?relay", bdb_setFN
bdb_setJoinUsesInstallCodeKey SYMBOL "bdb_setJoinUsesInstallCodeKey"
`??bdb_setJoinUsesInstallCodeKey::?relay` SYMBOL "?relay", bdb_setJoinUsesInstallCodeKey
bdb_setNodeIsOnANetwork SYMBOL "bdb_setNodeIsOnANetwork"
`??bdb_setNodeIsOnANetwork::?relay` SYMBOL "?relay", bdb_setNodeIsOnANetwork
bdb_setTCRequireKeyExchange SYMBOL "bdb_setTCRequireKeyExchange"
`??bdb_setTCRequireKeyExchange::?relay` SYMBOL "?relay", bdb_setTCRequireKeyExchange
bdb_touchlinkSendFNReset SYMBOL "bdb_touchlinkSendFNReset"
`??bdb_touchlinkSendFNReset::?relay` SYMBOL "?relay", bdb_touchlinkSendFNReset
bdb_zclRespondentListClean SYMBOL "bdb_zclRespondentListClean"
`??bdb_zclRespondentListClean::?relay` SYMBOL "?relay", bdb_zclRespondentListClean

        EXTERN `??APSME_AddTCLinkKey::?relay`
        FUNCTION `??APSME_AddTCLinkKey::?relay`,00H
        EXTERN `??APSME_IsDistributedSecurity::?relay`
        FUNCTION `??APSME_IsDistributedSecurity::?relay`,00H
        EXTERN `??APSME_SearchTCLinkKeyEntry::?relay`
        FUNCTION `??APSME_SearchTCLinkKeyEntry::?relay`,00H
        EXTERN `??AddrMgrEntryLookupExt::?relay`
        FUNCTION `??AddrMgrEntryLookupExt::?relay`,00H
        EXTERN `??GP_DataCnf::?relay`
        FUNCTION `??GP_DataCnf::?relay`,00H
        EXTERN `??GP_DataInd::?relay`
        FUNCTION `??GP_DataInd::?relay`,00H
        EXTERN `??GP_SecReq::?relay`
        FUNCTION `??GP_SecReq::?relay`,00H
        EXTERN `??NLME_ReJoinRequest::?relay`
        FUNCTION `??NLME_ReJoinRequest::?relay`,00H
        EXTERN `??NLME_ReJoinRequestUnsecure::?relay`
        FUNCTION `??NLME_ReJoinRequestUnsecure::?relay`,00H
        EXTERN `??NLME_ResetRequest::?relay`
        FUNCTION `??NLME_ResetRequest::?relay`,00H
        EXTERN `??ZDApp_ChangeState::?relay`
        FUNCTION `??ZDApp_ChangeState::?relay`,00H
        EXTERN `??ZDApp_ReadNetworkRestoreState::?relay`
        FUNCTION `??ZDApp_ReadNetworkRestoreState::?relay`,00H
        EXTERN `??ZDApp_ResetTimerStart::?relay`
        FUNCTION `??ZDApp_ResetTimerStart::?relay`,00H
        EXTERN `??ZDApp_RestoreNwkKey::?relay`
        FUNCTION `??ZDApp_RestoreNwkKey::?relay`,00H
        EXTERN `??ZDApp_RestoreNwkSecMaterial::?relay`
        FUNCTION `??ZDApp_RestoreNwkSecMaterial::?relay`,00H
        EXTERN `??ZDOInitDeviceEx::?relay`
        FUNCTION `??ZDOInitDeviceEx::?relay`,00H
        EXTERN `??ZDP_MgmtPermitJoinReq::?relay`
        FUNCTION `??ZDP_MgmtPermitJoinReq::?relay`,00H
        EXTERN `??ZDSecMgrAPSRemove::?relay`
        FUNCTION `??ZDSecMgrAPSRemove::?relay`,00H
        EXTERN `??ZDSecMgrAddrClear::?relay`
        FUNCTION `??ZDSecMgrAddrClear::?relay`,00H
        EXTERN `??ZMacSetReq::?relay`
        FUNCTION `??ZMacSetReq::?relay`,00H
        EXTERN `??afRegister::?relay`
        FUNCTION `??afRegister::?relay`,00H
        EXTERN `??bdb_BindIfMatch::?relay`
        FUNCTION `??bdb_BindIfMatch::?relay`,00H
        EXTERN `??bdb_RepConstructReportingData::?relay`
        FUNCTION `??bdb_RepConstructReportingData::?relay`,00H
        EXTERN `??bdb_RepInit::?relay`
        FUNCTION `??bdb_RepInit::?relay`,00H
        EXTERN `??bdb_RepProcessEvent::?relay`
        FUNCTION `??bdb_RepProcessEvent::?relay`,00H
        EXTERN `??bdb_RepUpdateMarkBindings::?relay`
        FUNCTION `??bdb_RepUpdateMarkBindings::?relay`,00H
        EXTERN `??bdb_SendIdentifyQuery::?relay`
        FUNCTION `??bdb_SendIdentifyQuery::?relay`,00H
        EXTERN `??bdb_SendSimpleDescReq::?relay`
        FUNCTION `??bdb_SendSimpleDescReq::?relay`,00H
        EXTERN `??bdb_exitFindingBindingWStatus::?relay`
        FUNCTION `??bdb_exitFindingBindingWStatus::?relay`,00H
        EXTERN `??bdb_getRespondentRetry::?relay`
        FUNCTION `??bdb_getRespondentRetry::?relay`,00H
        EXTERN `??bdb_setEpDescListToActiveEndpoint::?relay`
        FUNCTION `??bdb_setEpDescListToActiveEndpoint::?relay`,00H
        EXTERN `??gp_CheckAnnouncedDevice::?relay`
        FUNCTION `??gp_CheckAnnouncedDevice::?relay`,00H
        EXTERN `??gp_RegisterGPChangeChannelReqForBDBCB::?relay`
        FUNCTION `??gp_RegisterGPChangeChannelReqForBDBCB::?relay`,00H
        EXTERN `??gp_endpointInit::?relay`
        FUNCTION `??gp_endpointInit::?relay`,00H
        EXTERN `??gp_expireDuplicateFiltering::?relay`
        FUNCTION `??gp_expireDuplicateFiltering::?relay`,00H
        EXTERN `??gp_returnOperationalChannel::?relay`
        FUNCTION `??gp_returnOperationalChannel::?relay`,00H
        EXTERN `??gp_stopCommissioningMode::?relay`
        FUNCTION `??gp_stopCommissioningMode::?relay`,00H
        EXTERN `??nwk_setStateIdle::?relay`
        FUNCTION `??nwk_setStateIdle::?relay`,00H
        EXTERN `??osal_build_uint16::?relay`
        FUNCTION `??osal_build_uint16::?relay`,00H
        EXTERN `??osal_get_timeoutEx::?relay`
        FUNCTION `??osal_get_timeoutEx::?relay`,00H
        EXTERN `??osal_isbufset::?relay`
        FUNCTION `??osal_isbufset::?relay`,00H
        EXTERN `??osal_mem_alloc::?relay`
        FUNCTION `??osal_mem_alloc::?relay`,00H
        EXTERN `??osal_mem_free::?relay`
        FUNCTION `??osal_mem_free::?relay`,00H
        EXTERN `??osal_memcmp::?relay`
        FUNCTION `??osal_memcmp::?relay`,00H
        EXTERN `??osal_memcpy::?relay`
        FUNCTION `??osal_memcpy::?relay`,00H
        EXTERN `??osal_memset::?relay`
        FUNCTION `??osal_memset::?relay`,00H
        EXTERN `??osal_msg_allocate::?relay`
        FUNCTION `??osal_msg_allocate::?relay`,00H
        EXTERN `??osal_msg_deallocate::?relay`
        FUNCTION `??osal_msg_deallocate::?relay`,00H
        EXTERN `??osal_msg_receive::?relay`
        FUNCTION `??osal_msg_receive::?relay`,00H
        EXTERN `??osal_msg_send::?relay`
        FUNCTION `??osal_msg_send::?relay`,00H
        EXTERN `??osal_nv_delete::?relay`
        FUNCTION `??osal_nv_delete::?relay`,00H
        EXTERN `??osal_nv_item_len::?relay`
        FUNCTION `??osal_nv_item_len::?relay`,00H
        EXTERN `??osal_nv_read::?relay`
        FUNCTION `??osal_nv_read::?relay`,00H
        EXTERN `??osal_nv_write::?relay`
        FUNCTION `??osal_nv_write::?relay`,00H
        EXTERN `??osal_set_event::?relay`
        FUNCTION `??osal_set_event::?relay`,00H
        EXTERN `??osal_start_reload_timer::?relay`
        FUNCTION `??osal_start_reload_timer::?relay`,00H
        EXTERN `??osal_start_timerEx::?relay`
        FUNCTION `??osal_start_timerEx::?relay`,00H
        EXTERN `??osal_stop_timerEx::?relay`
        FUNCTION `??osal_stop_timerEx::?relay`,00H
        EXTERN `??sspMMOHash::?relay`
        FUNCTION `??sspMMOHash::?relay`,00H
        EXTERN `??zclFindAttrRec::?relay`
        FUNCTION `??zclFindAttrRec::?relay`,00H
        EXTERN `??zgWriteStartupOptions::?relay`
        FUNCTION `??zgWriteStartupOptions::?relay`,00H
        EXTERN AIB_apsTrustCenterAddress
        EXTERN APSME_AddTCLinkKey
        FUNCTION APSME_AddTCLinkKey,0202H
        ARGFRAME ISTACK, 0, STACK
        ARGFRAME PSTACK, 0, STACK
        ARGFRAME XSTACK, 30, STACK
        ARGFRAME IOVERLAY, 0, STATIC
        ARGFRAME DOVERLAY, 0, STATIC
        EXTERN APSME_IsDistributedSecurity
        FUNCTION APSME_IsDistributedSecurity,0202H
        ARGFRAME ISTACK, 0, STACK
        ARGFRAME PSTACK, 0, STACK
        ARGFRAME XSTACK, 32, STACK
        ARGFRAME IOVERLAY, 0, STATIC
        ARGFRAME DOVERLAY, 0, STATIC
        EXTERN APSME_SearchTCLinkKeyEntry
        FUNCTION APSME_SearchTCLinkKeyEntry,0202H
        ARGFRAME ISTACK, 0, STACK
        ARGFRAME PSTACK, 0, STACK
        ARGFRAME XSTACK, 60, STACK
        ARGFRAME IOVERLAY, 0, STATIC
        ARGFRAME DOVERLAY, 0, STATIC
        EXTERN AddrMgrEntryLookupExt
        FUNCTION AddrMgrEntryLookupExt,0202H
        ARGFRAME ISTACK, 0, STACK
        ARGFRAME PSTACK, 0, STACK
        ARGFRAME XSTACK, 58, STACK
        ARGFRAME IOVERLAY, 0, STATIC
        ARGFRAME DOVERLAY, 0, STATIC
        EXTERN GP_CheckAnnouncedDeviceGCB
        EXTERN GP_DataCnfGCB
        EXTERN GP_DataIndGCB
        EXTERN GP_SecReqGCB
        EXTERN GP_aliasConflictAnnce
        EXTERN GP_endpointInitGCB
        EXTERN GP_expireDuplicateFilteringGCB
        EXTERN GP_returnOperationalChannelGCB
        EXTERN GP_stopCommissioningModeGCB
        EXTERN NLME_ReJoinRequest
        FUNCTION NLME_ReJoinRequest,0202H
        ARGFRAME ISTACK, 0, STACK
        ARGFRAME PSTACK, 0, STACK
        ARGFRAME XSTACK, 10, STACK
        ARGFRAME IOVERLAY, 0, STATIC
        ARGFRAME DOVERLAY, 0, STATIC
        EXTERN NLME_ReJoinRequestUnsecure
        FUNCTION NLME_ReJoinRequestUnsecure,0202H
        ARGFRAME ISTACK, 0, STACK
        ARGFRAME PSTACK, 0, STACK
        ARGFRAME XSTACK, 10, STACK
        ARGFRAME IOVERLAY, 0, STATIC
        ARGFRAME DOVERLAY, 0, STATIC
        EXTERN NLME_ResetRequest
        FUNCTION NLME_ResetRequest,0202H
        ARGFRAME ISTACK, 0, STACK
        ARGFRAME PSTACK, 0, STACK
        ARGFRAME XSTACK, 14, STACK
        ARGFRAME IOVERLAY, 0, STATIC
        ARGFRAME DOVERLAY, 0, STATIC
        EXTERN TCLinkKeyFrmCntr
        EXTERN ZDApp_ChangeState
        FUNCTION ZDApp_ChangeState,0202H
        ARGFRAME ISTACK, 0, STACK
        ARGFRAME PSTACK, 0, STACK
        ARGFRAME XSTACK, 14, STACK
        ARGFRAME IOVERLAY, 0, STATIC
        ARGFRAME DOVERLAY, 0, STATIC
        EXTERN ZDApp_ReadNetworkRestoreState
        FUNCTION ZDApp_ReadNetworkRestoreState,0202H
        ARGFRAME ISTACK, 0, STACK
        ARGFRAME PSTACK, 0, STACK
        ARGFRAME XSTACK, 32, STACK
        ARGFRAME IOVERLAY, 0, STATIC
        ARGFRAME DOVERLAY, 0, STATIC
        EXTERN ZDApp_ResetTimerStart
        FUNCTION ZDApp_ResetTimerStart,0202H
        ARGFRAME ISTACK, 2, STACK
        ARGFRAME PSTACK, 0, STACK
        ARGFRAME XSTACK, 0, STACK
        ARGFRAME IOVERLAY, 0, STATIC
        ARGFRAME DOVERLAY, 0, STATIC
        EXTERN ZDApp_RestoreNwkKey
        FUNCTION ZDApp_RestoreNwkKey,0202H
        ARGFRAME ISTACK, 0, STACK
        ARGFRAME PSTACK, 0, STACK
        ARGFRAME XSTACK, 10, STACK
        ARGFRAME IOVERLAY, 0, STATIC
        ARGFRAME DOVERLAY, 0, STATIC
        EXTERN ZDApp_RestoreNwkSecMaterial
        FUNCTION ZDApp_RestoreNwkSecMaterial,0202H
        ARGFRAME ISTACK, 0, STACK
        ARGFRAME PSTACK, 0, STACK
        ARGFRAME XSTACK, 14, STACK
        ARGFRAME IOVERLAY, 0, STATIC
        ARGFRAME DOVERLAY, 0, STATIC
        EXTERN ZDOInitDeviceEx
        FUNCTION ZDOInitDeviceEx,0202H
        ARGFRAME ISTACK, 0, STACK
        ARGFRAME PSTACK, 0, STACK
        ARGFRAME XSTACK, 32, STACK
        ARGFRAME IOVERLAY, 0, STATIC
        ARGFRAME DOVERLAY, 0, STATIC
        EXTERN ZDO_UseExtendedPANID
        EXTERN ZDP_MgmtPermitJoinReq
        FUNCTION ZDP_MgmtPermitJoinReq,0202H
        ARGFRAME ISTACK, 2, STACK
        ARGFRAME PSTACK, 0, STACK
        ARGFRAME XSTACK, 9, STACK
        ARGFRAME IOVERLAY, 0, STATIC
        ARGFRAME DOVERLAY, 0, STATIC
        EXTERN ZDSecMgrAPSRemove
        FUNCTION ZDSecMgrAPSRemove,0202H
        ARGFRAME ISTACK, 0, STACK
        ARGFRAME PSTACK, 0, STACK
        ARGFRAME XSTACK, 60, STACK
        ARGFRAME IOVERLAY, 0, STATIC
        ARGFRAME DOVERLAY, 0, STATIC
        EXTERN ZDSecMgrAddrClear
        FUNCTION ZDSecMgrAddrClear,0202H
        ARGFRAME ISTACK, 0, STACK
        ARGFRAME PSTACK, 0, STACK
        ARGFRAME XSTACK, 58, STACK
        ARGFRAME IOVERLAY, 0, STATIC
        ARGFRAME DOVERLAY, 0, STATIC
        EXTERN ZMacSetReq
        FUNCTION ZMacSetReq,0202H
        ARGFRAME ISTACK, 0, STACK
        ARGFRAME PSTACK, 0, STACK
        ARGFRAME XSTACK, 14, STACK
        ARGFRAME IOVERLAY, 0, STATIC
        ARGFRAME DOVERLAY, 0, STATIC
        EXTERN _NIB
        EXTERN afRegister
        FUNCTION afRegister,0202H
        ARGFRAME ISTACK, 0, STACK
        ARGFRAME PSTACK, 0, STACK
        ARGFRAME XSTACK, 10, STACK
        ARGFRAME IOVERLAY, 0, STATIC
        ARGFRAME DOVERLAY, 0, STATIC
        EXTERN aliasConflictAnnce
        EXTERN bdbIndentifyActiveEndpoint
        EXTERN bdb_BindIfMatch
        FUNCTION bdb_BindIfMatch,0202H
        ARGFRAME ISTACK, 0, STACK
        ARGFRAME PSTACK, 0, STACK
        ARGFRAME XSTACK, 24, STACK
        ARGFRAME IOVERLAY, 0, STATIC
        ARGFRAME DOVERLAY, 0, STATIC
        EXTERN bdb_RepConstructReportingData
        FUNCTION bdb_RepConstructReportingData,0202H
        ARGFRAME ISTACK, 0, STACK
        ARGFRAME PSTACK, 0, STACK
        ARGFRAME XSTACK, 32, STACK
        ARGFRAME IOVERLAY, 0, STATIC
        ARGFRAME DOVERLAY, 0, STATIC
        EXTERN bdb_RepInit
        FUNCTION bdb_RepInit,0202H
        ARGFRAME ISTACK, 0, STACK
        ARGFRAME PSTACK, 0, STACK
        ARGFRAME XSTACK, 9, STACK
        ARGFRAME IOVERLAY, 0, STATIC
        ARGFRAME DOVERLAY, 0, STATIC
        EXTERN bdb_RepProcessEvent
        FUNCTION bdb_RepProcessEvent,0202H
        ARGFRAME ISTACK, 0, STACK
        ARGFRAME PSTACK, 0, STACK
        ARGFRAME XSTACK, 24, STACK
        ARGFRAME IOVERLAY, 0, STATIC
        ARGFRAME DOVERLAY, 0, STATIC
        EXTERN bdb_RepUpdateMarkBindings
        FUNCTION bdb_RepUpdateMarkBindings,0202H
        ARGFRAME ISTACK, 0, STACK
        ARGFRAME PSTACK, 0, STACK
        ARGFRAME XSTACK, 32, STACK
        ARGFRAME IOVERLAY, 0, STATIC
        ARGFRAME DOVERLAY, 0, STATIC
        EXTERN bdb_SendIdentifyQuery
        FUNCTION bdb_SendIdentifyQuery,0202H
        ARGFRAME ISTACK, 0, STACK
        ARGFRAME PSTACK, 0, STACK
        ARGFRAME XSTACK, 24, STACK
        ARGFRAME IOVERLAY, 0, STATIC
        ARGFRAME DOVERLAY, 0, STATIC
        EXTERN bdb_SendSimpleDescReq
        FUNCTION bdb_SendSimpleDescReq,0202H
        ARGFRAME ISTACK, 0, STACK
        ARGFRAME PSTACK, 0, STACK
        ARGFRAME XSTACK, 24, STACK
        ARGFRAME IOVERLAY, 0, STATIC
        ARGFRAME DOVERLAY, 0, STATIC
        EXTERN bdb_exitFindingBindingWStatus
        FUNCTION bdb_exitFindingBindingWStatus,0202H
        ARGFRAME ISTACK, 0, STACK
        ARGFRAME PSTACK, 0, STACK
        ARGFRAME XSTACK, 24, STACK
        ARGFRAME IOVERLAY, 0, STATIC
        ARGFRAME DOVERLAY, 0, STATIC
        EXTERN bdb_getRespondentRetry
        FUNCTION bdb_getRespondentRetry,0202H
        ARGFRAME ISTACK, 0, STACK
        ARGFRAME PSTACK, 0, STACK
        ARGFRAME XSTACK, 24, STACK
        ARGFRAME IOVERLAY, 0, STATIC
        ARGFRAME DOVERLAY, 0, STATIC
        EXTERN bdb_setEpDescListToActiveEndpoint
        FUNCTION bdb_setEpDescListToActiveEndpoint,0202H
        ARGFRAME ISTACK, 0, STACK
        ARGFRAME PSTACK, 0, STACK
        ARGFRAME XSTACK, 24, STACK
        ARGFRAME IOVERLAY, 0, STATIC
        ARGFRAME DOVERLAY, 0, STATIC
        EXTERN gp_RegisterGPChangeChannelReqForBDBCB
        FUNCTION gp_RegisterGPChangeChannelReqForBDBCB,0202H
        ARGFRAME ISTACK, 0, STACK
        ARGFRAME PSTACK, 0, STACK
        ARGFRAME XSTACK, 9, STACK
        ARGFRAME IOVERLAY, 0, STATIC
        ARGFRAME DOVERLAY, 0, STATIC
        EXTERN gp_endpointInit
        FUNCTION gp_endpointInit,0602H
        ARGFRAME ISTACK, 0, STACK
        ARGFRAME PSTACK, 0, STACK
        ARGFRAME XSTACK, 9, STACK
        ARGFRAME IOVERLAY, 0, STATIC
        ARGFRAME DOVERLAY, 0, STATIC
        EXTERN nwk_setStateIdle
        FUNCTION nwk_setStateIdle,0202H
        ARGFRAME ISTACK, 0, STACK
        ARGFRAME PSTACK, 0, STACK
        ARGFRAME XSTACK, 14, STACK
        ARGFRAME IOVERLAY, 0, STATIC
        ARGFRAME DOVERLAY, 0, STATIC
        EXTERN osal_build_uint16
        FUNCTION osal_build_uint16,0202H
        ARGFRAME ISTACK, 0, STACK
        ARGFRAME PSTACK, 0, STACK
        ARGFRAME XSTACK, 30, STACK
        ARGFRAME IOVERLAY, 0, STATIC
        ARGFRAME DOVERLAY, 0, STATIC
        EXTERN osal_get_timeoutEx
        FUNCTION osal_get_timeoutEx,0202H
        ARGFRAME ISTACK, 0, STACK
        ARGFRAME PSTACK, 0, STACK
        ARGFRAME XSTACK, 32, STACK
        ARGFRAME IOVERLAY, 0, STATIC
        ARGFRAME DOVERLAY, 0, STATIC
        EXTERN osal_isbufset
        FUNCTION osal_isbufset,0202H
        ARGFRAME ISTACK, 0, STACK
        ARGFRAME PSTACK, 0, STACK
        ARGFRAME XSTACK, 32, STACK
        ARGFRAME IOVERLAY, 0, STATIC
        ARGFRAME DOVERLAY, 0, STATIC
        EXTERN osal_mem_alloc
        FUNCTION osal_mem_alloc,0202H
        ARGFRAME ISTACK, 0, STACK
        ARGFRAME PSTACK, 0, STACK
        ARGFRAME XSTACK, 28, STACK
        ARGFRAME IOVERLAY, 0, STATIC
        ARGFRAME DOVERLAY, 0, STATIC
        EXTERN osal_mem_free
        FUNCTION osal_mem_free,0202H
        ARGFRAME ISTACK, 0, STACK
        ARGFRAME PSTACK, 0, STACK
        ARGFRAME XSTACK, 15, STACK
        ARGFRAME IOVERLAY, 0, STATIC
        ARGFRAME DOVERLAY, 0, STATIC
        EXTERN osal_memcmp
        FUNCTION osal_memcmp,0202H
        ARGFRAME ISTACK, 0, STACK
        ARGFRAME PSTACK, 0, STACK
        ARGFRAME XSTACK, 31, STACK
        ARGFRAME IOVERLAY, 0, STATIC
        ARGFRAME DOVERLAY, 0, STATIC
        EXTERN osal_memcpy
        FUNCTION osal_memcpy,0202H
        ARGFRAME ISTACK, 0, STACK
        ARGFRAME PSTACK, 0, STACK
        ARGFRAME XSTACK, 61, STACK
        ARGFRAME IOVERLAY, 0, STATIC
        ARGFRAME DOVERLAY, 0, STATIC
        EXTERN osal_memset
        FUNCTION osal_memset,0202H
        ARGFRAME ISTACK, 0, STACK
        ARGFRAME PSTACK, 0, STACK
        ARGFRAME XSTACK, 58, STACK
        ARGFRAME IOVERLAY, 0, STATIC
        ARGFRAME DOVERLAY, 0, STATIC
        EXTERN osal_msg_allocate
        FUNCTION osal_msg_allocate,0202H
        ARGFRAME ISTACK, 0, STACK
        ARGFRAME PSTACK, 0, STACK
        ARGFRAME XSTACK, 17, STACK
        ARGFRAME IOVERLAY, 0, STATIC
        ARGFRAME DOVERLAY, 0, STATIC
        EXTERN osal_msg_deallocate
        FUNCTION osal_msg_deallocate,0202H
        ARGFRAME ISTACK, 0, STACK
        ARGFRAME PSTACK, 0, STACK
        ARGFRAME XSTACK, 24, STACK
        ARGFRAME IOVERLAY, 0, STATIC
        ARGFRAME DOVERLAY, 0, STATIC
        EXTERN osal_msg_receive
        FUNCTION osal_msg_receive,0202H
        ARGFRAME ISTACK, 0, STACK
        ARGFRAME PSTACK, 0, STACK
        ARGFRAME XSTACK, 24, STACK
        ARGFRAME IOVERLAY, 0, STATIC
        ARGFRAME DOVERLAY, 0, STATIC
        EXTERN osal_msg_send
        FUNCTION osal_msg_send,0202H
        ARGFRAME ISTACK, 0, STACK
        ARGFRAME PSTACK, 0, STACK
        ARGFRAME XSTACK, 17, STACK
        ARGFRAME IOVERLAY, 0, STATIC
        ARGFRAME DOVERLAY, 0, STATIC
        EXTERN osal_nv_delete
        FUNCTION osal_nv_delete,0202H
        ARGFRAME ISTACK, 0, STACK
        ARGFRAME PSTACK, 0, STACK
        ARGFRAME XSTACK, 32, STACK
        ARGFRAME IOVERLAY, 0, STATIC
        ARGFRAME DOVERLAY, 0, STATIC
        EXTERN osal_nv_item_len
        FUNCTION osal_nv_item_len,0202H
        ARGFRAME ISTACK, 0, STACK
        ARGFRAME PSTACK, 0, STACK
        ARGFRAME XSTACK, 32, STACK
        ARGFRAME IOVERLAY, 0, STATIC
        ARGFRAME DOVERLAY, 0, STATIC
        EXTERN osal_nv_read
        FUNCTION osal_nv_read,0202H
        ARGFRAME ISTACK, 0, STACK
        ARGFRAME PSTACK, 0, STACK
        ARGFRAME XSTACK, 36, STACK
        ARGFRAME IOVERLAY, 0, STATIC
        ARGFRAME DOVERLAY, 0, STATIC
        EXTERN osal_nv_write
        FUNCTION osal_nv_write,0202H
        ARGFRAME ISTACK, 0, STACK
        ARGFRAME PSTACK, 0, STACK
        ARGFRAME XSTACK, 62, STACK
        ARGFRAME IOVERLAY, 0, STATIC
        ARGFRAME DOVERLAY, 0, STATIC
        EXTERN osal_set_event
        FUNCTION osal_set_event,0202H
        ARGFRAME ISTACK, 0, STACK
        ARGFRAME PSTACK, 0, STACK
        ARGFRAME XSTACK, 32, STACK
        ARGFRAME IOVERLAY, 0, STATIC
        ARGFRAME DOVERLAY, 0, STATIC
        EXTERN osal_start_reload_timer
        FUNCTION osal_start_reload_timer,0202H
        ARGFRAME ISTACK, 0, STACK
        ARGFRAME PSTACK, 0, STACK
        ARGFRAME XSTACK, 32, STACK
        ARGFRAME IOVERLAY, 0, STATIC
        ARGFRAME DOVERLAY, 0, STATIC
        EXTERN osal_start_timerEx
        FUNCTION osal_start_timerEx,0202H
        ARGFRAME ISTACK, 0, STACK
        ARGFRAME PSTACK, 0, STACK
        ARGFRAME XSTACK, 28, STACK
        ARGFRAME IOVERLAY, 0, STATIC
        ARGFRAME DOVERLAY, 0, STATIC
        EXTERN osal_stop_timerEx
        FUNCTION osal_stop_timerEx,0202H
        ARGFRAME ISTACK, 0, STACK
        ARGFRAME PSTACK, 0, STACK
        ARGFRAME XSTACK, 58, STACK
        ARGFRAME IOVERLAY, 0, STATIC
        ARGFRAME DOVERLAY, 0, STATIC
        EXTERN pfnIdentifyTimeChangeCB
        EXTERN runtimeChannel
        EXTERN sspMMOHash
        FUNCTION sspMMOHash,0202H
        ARGFRAME ISTACK, 0, STACK
        ARGFRAME PSTACK, 0, STACK
        ARGFRAME XSTACK, 34, STACK
        ARGFRAME IOVERLAY, 0, STATIC
        ARGFRAME DOVERLAY, 0, STATIC
        EXTERN zclFindAttrRec
        FUNCTION zclFindAttrRec,0202H
        ARGFRAME ISTACK, 0, STACK
        ARGFRAME PSTACK, 0, STACK
        ARGFRAME XSTACK, 26, STACK
        ARGFRAME IOVERLAY, 0, STATIC
        ARGFRAME DOVERLAY, 0, STATIC
        EXTERN zcl_TaskID
        EXTERN zgAllowInstallCodes
        EXTERN zgDefaultChannelList
        EXTERN zgDeviceLogicalType
        EXTERN zgWriteStartupOptions
        FUNCTION zgWriteStartupOptions,0202H
        ARGFRAME ISTACK, 2, STACK
        ARGFRAME PSTACK, 0, STACK
        ARGFRAME XSTACK, 32, STACK
        ARGFRAME IOVERLAY, 0, STATIC
        ARGFRAME DOVERLAY, 0, STATIC

// C:\Texas Instruments\Z-Stack 3.0.0\Components\stack\bdb\bdb.c
//    1 /**************************************************************************************************
//    2   Filename:       bdb.c
//    3   Revised:        $Date: 2016-02-25 11:51:49 -0700 (Thu, 25 Feb 2016) $
//    4   Revision:       $Revision: - $
//    5 
//    6   Description:    This file contains the Base Device Behavior functions and attributes.
//    7 
//    8 
//    9   Copyright 2006-2015 Texas Instruments Incorporated. All rights reserved.
//   10 
//   11   IMPORTANT: Your use of this Software is limited to those specific rights
//   12   granted under the terms of a software license agreement between the user
//   13   who downloaded the software, his/her employer (which must be your employer)
//   14   and Texas Instruments Incorporated (the "License").  You may not use this
//   15   Software unless you agree to abide by the terms of the License. The License
//   16   limits your use, and you acknowledge, that the Software may not be modified,
//   17   copied or distributed unless embedded on a Texas Instruments microcontroller
//   18   or used solely and exclusively in conjunction with a Texas Instruments radio
//   19   frequency transceiver, which is integrated into your product.  Other than for
//   20   the foregoing purpose, you may not use, reproduce, copy, prepare derivative
//   21   works of, modify, distribute, perform, display or sell this Software and/or
//   22   its documentation for any purpose.
//   23 
//   24   YOU FURTHER ACKNOWLEDGE AND AGREE THAT THE SOFTWARE AND DOCUMENTATION ARE
//   25   PROVIDED "AS IS" WITHOUT WARRANTY OF ANY KIND, EITHER EXPRESS OR IMPLIED,
//   26   INCLUDING WITHOUT LIMITATION, ANY WARRANTY OF MERCHANTABILITY, TITLE,
//   27   NON-INFRINGEMENT AND FITNESS FOR A PARTICULAR PURPOSE. IN NO EVENT SHALL
//   28   TEXAS INSTRUMENTS OR ITS LICENSORS BE LIABLE OR OBLIGATED UNDER CONTRACT,
//   29   NEGLIGENCE, STRICT LIABILITY, CONTRIBUTION, BREACH OF WARRANTY, OR OTHER
//   30   LEGAL EQUITABLE THEORY ANY DIRECT OR INDIRECT DAMAGES OR EXPENSES
//   31   INCLUDING BUT NOT LIMITED TO ANY INCIDENTAL, SPECIAL, INDIRECT, PUNITIVE
//   32   OR CONSEQUENTIAL DAMAGES, LOST PROFITS OR LOST DATA, COST OF PROCUREMENT
//   33   OF SUBSTITUTE GOODS, TECHNOLOGY, SERVICES, OR ANY CLAIMS BY THIRD PARTIES
//   34   (INCLUDING BUT NOT LIMITED TO ANY DEFENSE THEREOF), OR OTHER SIMILAR COSTS.
//   35 
//   36   Should you have any questions regarding your right to use this Software,
//   37   contact Texas Instruments Incorporated at www.TI.com.
//   38 **************************************************************************************************/
//   39 
//   40 /*********************************************************************
//   41  * INCLUDES
//   42  */
//   43 
//   44 #include "bdb.h"
//   45 #include "ZDApp.h"
//   46 #include "OSAL.h"
//   47 #include "ZDConfig.h"
//   48 #include "hal_led.h"
//   49 #include "ZDObject.h"
//   50 #include "OSAL_Nv.h"
//   51 #include "AddrMgr.h"
//   52 #include "ZDSecMgr.h"
//   53 #include "nwk.h"
//   54 #include "nwk_util.h"
//   55 #include "ssp_hash.h"
//   56 #ifdef BDB_REPORTING
//   57 #include "bdb_Reporting.h"
//   58 #endif 
//   59 
//   60 //GP_UPDATE
//   61 #include "gp_interface.h"
//   62 #include "gp_common.h"
//   63 #include "bdb_interface.h"
//   64 #include "dgp_stub.h"
//   65 
//   66 #if defined ( INTER_PAN ) 
//   67 #if defined ( BDB_TL_INITIATOR )  
//   68 #include "bdb_touchlink_initiator.h"
//   69 #endif
//   70 #if defined ( BDB_TL_TARGET )  
//   71 #include "bdb_touchlink_target.h"
//   72 #endif
//   73 #endif
//   74    
//   75 #if defined ( INTER_PAN ) && ( defined ( BDB_TL_INITIATOR ) || defined ( BDB_TL_TARGET ) )
//   76   #include "bdb_touchlink.h"
//   77 #endif
//   78  
//   79 #ifdef MT_APP_CNF_FUNC
//   80 #include "MT_APP_CONFIG.h"
//   81 #endif
//   82    
//   83  /*********************************************************************
//   84  * MACROS
//   85  */
//   86 //This is actually the channels used
//   87 #define vScanChannels  zgDefaultChannelList
//   88    
//   89  /*********************************************************************
//   90  * CONSTANTS
//   91  */
//   92 
//   93 #define NUMBER_OF_CHANNELS     16
//   94 
//   95 #define CHANNEL_11_MASK_POS    11
//   96 #define CHANNEL_26_MASK_POS    26
//   97    

        RSEG XDATA_Z:XDATA:NOROOT(0)
        DATA8
//   98 uint8 bdb_FB_InitiatorCurrentCyclesNumber = 0; //last cycle is #1 (i.e. cycles-left = (bdb_FB_InitiatorCurrentCyclesNumber - 1))
bdb_FB_InitiatorCurrentCyclesNumber:
        DS 1
        REQUIRE __INIT_XDATA_Z
//   99 
//  100 /*********************************************************************
//  101  * TYPEDEFS
//  102  */
//  103  
//  104  
//  105  /*********************************************************************
//  106  * GLOBAL VARIABLES
//  107  */
//  108 

        RSEG XDATA_Z:XDATA:NOROOT(0)
        DATA8
//  109 byte bdb_TaskID;
bdb_TaskID:
        DS 1
        REQUIRE __INIT_XDATA_Z

        RSEG XDATA_I:XDATA:NOROOT(0)
//  110 bdbAttributes_t bdbAttributes = BDB_ATTRIBUTES_DEFAULT_CONFIG;
bdbAttributes:
        DATA8
        DS 18
        REQUIRE `?<Initializer for bdbAttributes>`
        REQUIRE __INIT_XDATA_I

        RSEG XDATA_Z:XDATA:NOROOT(0)
        DATA16
//  111 epList_t *bdb_HeadEpDescriptorList = NULL;
bdb_HeadEpDescriptorList:
        DS 2
        REQUIRE __INIT_XDATA_Z

        RSEG XDATA_Z:XDATA:NOROOT(0)
        DATA16
//  112 epList_t *bdb_CurrEpDescriptorList = NULL;
bdb_CurrEpDescriptorList:
        DS 2
        REQUIRE __INIT_XDATA_Z
//  113 

        RSEG XDATA_Z:XDATA:NOROOT(0)
        DATA16
//  114 bdbFindingBindingRespondent_t *pRespondentHead = NULL;
pRespondentHead:
        DS 2
        REQUIRE __INIT_XDATA_Z

        RSEG XDATA_Z:XDATA:NOROOT(0)
        DATA16
//  115 bdbFindingBindingRespondent_t *pRespondentCurr = NULL;
pRespondentCurr:
        DS 2
        REQUIRE __INIT_XDATA_Z

        RSEG XDATA_Z:XDATA:NOROOT(0)
        DATA16
//  116 bdbFindingBindingRespondent_t *pRespondentNext = NULL;
pRespondentNext:
        DS 2
        REQUIRE __INIT_XDATA_Z
//  117 

        RSEG XDATA_Z:XDATA:NOROOT(0)
        DATA32
//  118 bdbCommissioningProcedureState_t bdbCommissioningProcedureState; 
bdbCommissioningProcedureState:
        DS 4
        REQUIRE __INIT_XDATA_Z

        RSEG XDATA_Z:XDATA:NOROOT(0)
        DATA8
//  119 bool bdb_initialization = FALSE;  //Variable to tell if the initialization process has been started
bdb_initialization:
        DS 1
        REQUIRE __INIT_XDATA_Z
//  120 
//  121 //Nwk formation and nwk steering for nodes not in nwk

        RSEG XDATA_I:XDATA:NOROOT(0)
//  122 bool vDoPrimaryScan = TRUE;
vDoPrimaryScan:
        DATA8
        DS 1
        REQUIRE `?<Initializer for vDoPrimaryScan>`
        REQUIRE __INIT_XDATA_I
//  123 

        RSEG XDATA_I:XDATA:NOROOT(0)
//  124 uint8 zgBdbInstallCodeCRC[INSTALL_CODE_LEN + INSTALL_CODE_CRC_LEN] = {0x83,0xFE,0xD3,0x40,0x7A,0x93,0x97,0x23,0xA5,0xC6,0x39,0xB2,0x69,0x16,0xD5,0x05,0xC3,0xB5};
zgBdbInstallCodeCRC:
        DATA8
        DS 18
        REQUIRE `?<Initializer for zgBdbInstallCodeCRC>`
        REQUIRE __INIT_XDATA_I
//  125 
//  126 //Pointer of the nwk being tried in association process
//  127 #if (ZG_BUILD_JOINING_TYPE)
//  128 static networkDesc_t *pBDBListNwk = NULL;
//  129 #endif
//  130 

        RSEG XDATA_Z:XDATA:NOROOT(0)
        DATA8
//  131 uint8 bdb_ZclTransactionSequenceNumber=0x00;
bdb_ZclTransactionSequenceNumber:
        DS 1
        REQUIRE __INIT_XDATA_Z
//  132 

        RSEG XDATA_Z:XDATA:NOROOT(0)
        DATA8
//  133 bool touchLinkTargetEnabled = FALSE;
touchLinkTargetEnabled:
        DS 1
        REQUIRE __INIT_XDATA_Z
//  134 
//  135  /*********************************************************************
//  136  * EXTERNAL VARIABLES
//  137  */
//  138 
//  139 extern devStartModes_t devStartMode;
//  140 extern bool  requestNewTrustCenterLinkKey;
//  141 extern uint32 requestLinkKeyTimeout;
//  142 extern uint32 ZDApp_SavedPollRate;
//  143 
//  144 #if (BDB_FINDING_BINDING_CAPABILITY_ENABLED==1)
//  145 extern bdbGCB_IdentifyTimeChange_t pfnIdentifyTimeChangeCB;
//  146 extern uint8 bdbIndentifyActiveEndpoint;
//  147 #endif
//  148 
//  149 extern bdbFindingBindingRespondent_t *pRespondentNext;
//  150 
//  151 #ifndef ZNP_ENABLED
//  152 extern ZDO_DeviceAnnce_t aliasConflictAnnce;
//  153 #endif
//  154 
//  155 /*********************************************************************
//  156  * EXTERNAL FUNCTIONS
//  157  */
//  158 
//  159 extern void ZDApp_ResetTimerStart( uint16 delay );
//  160 extern void ZDApp_NodeProfileSync( uint8 stackProfile );
//  161 extern uint8 ZDApp_RestoreNwkKey( uint8 incrFrmCnt );
//  162 extern uint8 ZDApp_ReadNetworkRestoreState( void );
//  163 
//  164 extern bdbFindingBindingRespondent_t* bdb_getRespondentRetry(bdbFindingBindingRespondent_t* pRespondentHead);
//  165 
//  166 /*********************************************************************
//  167  * LOCAL VARIABLES
//  168  */
//  169 #if (ZG_BUILD_JOINING_TYPE)
//  170   static uint8 bdb_nwkAssocRetriesCount = 0;
//  171 #endif
//  172 #if (ZG_BUILD_COORDINATOR_TYPE)

        RSEG XDATA_Z:XDATA:NOROOT(0)
        DATA16
//  173   static bdb_joiningDeviceList_t *bdb_joiningDeviceList = NULL;
bdb_joiningDeviceList:
        DS 2
        REQUIRE __INIT_XDATA_Z
//  174 #endif
//  175   
//  176 #if (BDB_FINDING_BINDING_CAPABILITY_ENABLED==1) 
//  177 //Latch to save the status success of any attempt in the periodic F&B process  

        RSEG XDATA_Z:XDATA:NOROOT(0)
        DATA8
//  178 static uint8 bdb_FBStateSuccessLatch = FALSE;
bdb_FBStateSuccessLatch:
        DS 1
        REQUIRE __INIT_XDATA_Z
//  179 #endif
//  180  /*********************************************************************
//  181  * LOCAL FUNCTIONS
//  182  */
//  183 static void bdb_ProcessOSALMsg(bdbInMsg_t *msgPtr);
//  184 void bdb_NotifyCommissioningModeStart(uint8 commissioningMode);
//  185 
//  186 #if (ZG_BUILD_JOINING_TYPE)
//  187 static void bdb_requestTCStackVersion(void);
//  188 static void bdb_requestTCLinkKey(void);
//  189 static void bdb_requestVerifyTCLinkKey(void);
//  190 static void bdb_tryNwkAssoc(void);
//  191 #endif
//  192 
//  193 
//  194 static void bdb_processTimeout(void);
//  195 static void bdb_startResumeCommissioningProcess(void);
//  196 static void bdb_nwkSteeringDeviceOnNwk(void);
//  197 static void bdb_nwkJoiningFormation(bool isJoining);
//  198 
//  199 //GP_UPDATE
//  200 #if (ZG_BUILD_RTR_TYPE)
//  201 #ifndef ZNP_ENABLED
//  202 static uint8 gp_ChangeChannelReq(void);
//  203 static void gp_CBInit(void);
//  204 #endif
//  205 #endif
//  206 
//  207 #if (ZG_BUILD_COORDINATOR_TYPE)
//  208 static void bdb_TCProcessJoiningList(void);
//  209 static ZStatus_t bdb_TCJoiningDeviceFree(bdb_joiningDeviceList_t* JoiningDeviceToRemove);
//  210 #endif
//  211 #if (ZG_BUILD_COORDINATOR_TYPE)

        RSEG XDATA_Z:XDATA:NOROOT(0)
        DATA16
//  212 static bdbGCB_TCLinkKeyExchangeProcess_t  pfnTCLinkKeyExchangeProcessCB = NULL;
pfnTCLinkKeyExchangeProcessCB:
        DS 2
        REQUIRE __INIT_XDATA_Z
//  213 #endif

        RSEG XDATA_Z:XDATA:NOROOT(0)
        DATA16
//  214 static bdbGCB_CommissioningStatus_t       pfnCommissioningStatusCB = NULL; 
pfnCommissioningStatusCB:
        DS 2
        REQUIRE __INIT_XDATA_Z
//  215 #if (ZG_BUILD_JOINING_TYPE)
//  216 static bdbGCB_CBKETCLinkKeyExchange_t     pfnCBKETCLinkKeyExchange = NULL;
//  217 static bdbGCB_FilterNwkDesc_t             pfnFilterNwkDesc = NULL;   
//  218 #endif
//  219 
//  220 
//  221 
//  222 void bdb_calculateCCITT_CRC (uint8 *Mb, uint32 msglen, uint16 *crc);
//  223 void bdb_crcInit(uint16 *crc, uint16 *crcinit_direct, uint16 *crcinit_nondirect);
//  224 uint16 bdb_crcReflect (uint16 crc, uint16 bitnum);
//  225 uint16 bdb_crcBitByBitFast(uint8 * p, uint32 len, uint16 crcinit_direct, uint16 crcinit_nondirect);
//  226 
//  227 
//  228 /*********************************************************************
//  229  * PUBLIC FUNCTIONS
//  230  *********************************************************************/
//  231 void bdb_filterNwkDisc(void);
//  232 ZStatus_t bdb_joinProcess(networkDesc_t *pChosenNwk);
//  233 
//  234 ZStatus_t bdb_TCAddJoiningDevice(uint16 parentAddr, uint8* JoiningExtAddr);
//  235 void bdb_TCjoiningDeviceComplete(uint8* JoiningExtAddr);
//  236 
//  237  /*********************************************************************
//  238  * @fn          bdb_Init
//  239  *
//  240  * @brief       Initialization function for the Base Device Behavior.
//  241  *
//  242  * @param       task_id - bdb_TaskID Task ID
//  243  *
//  244  * @return      none
//  245  */

        RSEG BANKED_CODE:CODE:NOROOT(0)
//  246 void bdb_Init( byte task_id )
bdb_Init:
          CFI Block cfiBlock0 Using cfiCommon0
          CFI Function bdb_Init
        CODE
//  247 {
        FUNCALL bdb_Init, bdb_RepInit
        LOCFRAME ISTACK, 0, STACK
        LOCFRAME PSTACK, 0, STACK
        LOCFRAME XSTACK, 9, STACK
        LOCFRAME IOVERLAY, 0, STATIC
        LOCFRAME DOVERLAY, 0, STATIC
        ARGFRAME ISTACK, 0, STACK
        ARGFRAME PSTACK, 0, STACK
        ARGFRAME XSTACK, 9, STACK
        ARGFRAME IOVERLAY, 0, STATIC
        ARGFRAME DOVERLAY, 0, STATIC
        FUNCALL bdb_Init, gp_RegisterGPChangeChannelReqForBDBCB
        LOCFRAME ISTACK, 0, STACK
        LOCFRAME PSTACK, 0, STACK
        LOCFRAME XSTACK, 9, STACK
        LOCFRAME IOVERLAY, 0, STATIC
        LOCFRAME DOVERLAY, 0, STATIC
        ARGFRAME ISTACK, 0, STACK
        ARGFRAME PSTACK, 0, STACK
        ARGFRAME XSTACK, 9, STACK
        ARGFRAME IOVERLAY, 0, STATIC
        ARGFRAME DOVERLAY, 0, STATIC
        FUNCALL bdb_Init, gp_endpointInit
        LOCFRAME ISTACK, 0, STACK
        LOCFRAME PSTACK, 0, STACK
        LOCFRAME XSTACK, 9, STACK
        LOCFRAME IOVERLAY, 0, STATIC
        LOCFRAME DOVERLAY, 0, STATIC
        ARGFRAME ISTACK, 0, STACK
        ARGFRAME PSTACK, 0, STACK
        ARGFRAME XSTACK, 9, STACK
        ARGFRAME IOVERLAY, 0, STATIC
        ARGFRAME DOVERLAY, 0, STATIC
        MOV     A,#-0x9
        LCALL   ?BANKED_ENTER_XDATA
          CFI DPH0 load(1, XDATA, add(CFA_XSP16, literal(-1)))
          CFI DPL0 load(1, XDATA, add(CFA_XSP16, literal(-2)))
          CFI ?BRET_EXT load(1, XDATA, add(CFA_XSP16, literal(-3)))
          CFI ?RET_HIGH load(1, XDATA, add(CFA_XSP16, literal(-4)))
          CFI ?RET_LOW load(1, XDATA, add(CFA_XSP16, literal(-5)))
          CFI R7 load(1, XDATA, add(CFA_XSP16, literal(-6)))
          CFI V0 load(1, XDATA, add(CFA_XSP16, literal(-7)))
          CFI VB load(1, XDATA, add(CFA_XSP16, literal(-8)))
          CFI R6 load(1, XDATA, add(CFA_XSP16, literal(-9)))
          CFI CFA_SP SP+0
          CFI CFA_XSP16 add(XSP16, 9)
        ; Saved register size: 9
        ; Auto size: 0
        MOV     A,R1
//  248   bdb_TaskID = task_id;
        MOV     DPTR,#bdb_TaskID
        MOVX    @DPTR,A
//  249     
//  250 #if (ZG_BUILD_COORDINATOR_TYPE)
//  251   if(ZG_DEVICE_COORDINATOR_TYPE)
//  252   {
//  253     if(bdbAttributes.bdbJoinUsesInstallCodeKey)
        MOV     DPTR,#bdbAttributes + 15
        MOVX    A,@DPTR
        JZ      ??bdb_Init_0
//  254     {
//  255       zgAllowInstallCodes = ZG_IC_MUST_USED;
        MOV     DPTR,#zgAllowInstallCodes
        MOV     A,#0x2
        MOVX    @DPTR,A
//  256     }
//  257   }
//  258 #endif
//  259   
//  260 #if defined ( INTER_PAN ) && defined ( BDB_TL_INITIATOR )  
//  261   touchLinkInitiator_InitDevice( );
//  262 #endif
//  263 
//  264 #if (BDB_REPORTING)
//  265   bdb_RepInit();
??bdb_Init_0:
        ; Setup parameters for call to function bdb_RepInit
        LCALL   `??bdb_RepInit::?relay`; Banked call to: bdb_RepInit
//  266 #endif  
//  267   
//  268 //GP_UPDATE
//  269 #if (ZG_BUILD_RTR_TYPE)
//  270 #ifndef ZNP_ENABLED
//  271   gp_RegisterGPChangeChannelReqForBDBCB(gp_ChangeChannelReq);
        ; Setup parameters for call to function gp_RegisterGPChangeChannelReqForBDBCB
        MOV     R2,#`??gp_ChangeChannelReq::?relay` & 0xff
        MOV     R3,#(`??gp_ChangeChannelReq::?relay` >> 8) & 0xff
        LCALL   `??gp_RegisterGPChangeChannelReqForBDBCB::?relay`; Banked call to: gp_RegisterGPChangeChannelReqForBDBCB
//  272   gp_CBInit();
        MOV     DPTR,#GP_DataCnfGCB
        MOV     A,#`??GP_DataCnf::?relay` & 0xff
        MOVX    @DPTR,A
        INC     DPTR
        MOV     A,#(`??GP_DataCnf::?relay` >> 8) & 0xff
        MOVX    @DPTR,A
        MOV     DPTR,#GP_endpointInitGCB
        MOV     A,#`??gp_endpointInit::?relay` & 0xff
        MOVX    @DPTR,A
        INC     DPTR
        MOV     A,#(`??gp_endpointInit::?relay` >> 8) & 0xff
        MOVX    @DPTR,A
        MOV     DPTR,#GP_expireDuplicateFilteringGCB
        MOV     A,#`??gp_expireDuplicateFiltering::?relay` & 0xff
        MOVX    @DPTR,A
        INC     DPTR
        MOV     A,#(`??gp_expireDuplicateFiltering::?relay` >> 8) & 0xff
        MOVX    @DPTR,A
        MOV     DPTR,#GP_stopCommissioningModeGCB
        MOV     A,#`??gp_stopCommissioningMode::?relay` & 0xff
        MOVX    @DPTR,A
        INC     DPTR
        MOV     A,#(`??gp_stopCommissioningMode::?relay` >> 8) & 0xff
        MOVX    @DPTR,A
        MOV     DPTR,#GP_returnOperationalChannelGCB
        MOV     A,#`??gp_returnOperationalChannel::?relay` & 0xff
        MOVX    @DPTR,A
        INC     DPTR
        MOV     A,#(`??gp_returnOperationalChannel::?relay` >> 8) & 0xff
        MOVX    @DPTR,A
        MOV     DPTR,#GP_DataIndGCB
        MOV     A,#`??GP_DataInd::?relay` & 0xff
        MOVX    @DPTR,A
        INC     DPTR
        MOV     A,#(`??GP_DataInd::?relay` >> 8) & 0xff
        MOVX    @DPTR,A
        MOV     DPTR,#GP_SecReqGCB
        MOV     A,#`??GP_SecReq::?relay` & 0xff
        MOVX    @DPTR,A
        INC     DPTR
        MOV     A,#(`??GP_SecReq::?relay` >> 8) & 0xff
        MOVX    @DPTR,A
        MOV     DPTR,#GP_CheckAnnouncedDeviceGCB
        MOV     A,#`??gp_CheckAnnouncedDevice::?relay` & 0xff
        MOVX    @DPTR,A
        INC     DPTR
        MOV     A,#(`??gp_CheckAnnouncedDevice::?relay` >> 8) & 0xff
        MOVX    @DPTR,A
        MOV     DPTR,#GP_aliasConflictAnnce
        MOV     A,#aliasConflictAnnce & 0xff
        MOVX    @DPTR,A
        INC     DPTR
        MOV     A,#(aliasConflictAnnce >> 8) & 0xff
        MOVX    @DPTR,A
        ; Setup parameters for call to function gp_endpointInit
        LCALL   `??gp_endpointInit::?relay`; Banked call to: gp_endpointInit
//  273 #endif
//  274 #endif
//  275 }
        LJMP    ?Subroutine0 & 0xFFFF
          CFI EndBlock cfiBlock0
//  276 
//  277 /*********************************************************************
//  278  * @fn      bdb_RegisterSimpleDescriptor
//  279  *
//  280  * @brief   Register the Simple descriptor. This function also registers 
//  281  *          the profile's cluster conversion table.
//  282  *
//  283  * @param   simpleDesc - a pointer to a valid SimpleDescriptionFormat_t, must not be NULL.
//  284  *
//  285  * @return  none
//  286  */

        RSEG BANKED_CODE:CODE:NOROOT(0)
//  287 void bdb_RegisterSimpleDescriptor( SimpleDescriptionFormat_t *simpleDesc )
bdb_RegisterSimpleDescriptor:
          CFI Block cfiBlock1 Using cfiCommon0
          CFI Function bdb_RegisterSimpleDescriptor
        CODE
//  288 {
        FUNCALL bdb_RegisterSimpleDescriptor, osal_mem_alloc
        LOCFRAME ISTACK, 0, STACK
        LOCFRAME PSTACK, 0, STACK
        LOCFRAME XSTACK, 10, STACK
        LOCFRAME IOVERLAY, 0, STATIC
        LOCFRAME DOVERLAY, 0, STATIC
        ARGFRAME ISTACK, 0, STACK
        ARGFRAME PSTACK, 0, STACK
        ARGFRAME XSTACK, 10, STACK
        ARGFRAME IOVERLAY, 0, STATIC
        ARGFRAME DOVERLAY, 0, STATIC
        FUNCALL bdb_RegisterSimpleDescriptor, afRegister
        LOCFRAME ISTACK, 0, STACK
        LOCFRAME PSTACK, 0, STACK
        LOCFRAME XSTACK, 10, STACK
        LOCFRAME IOVERLAY, 0, STATIC
        LOCFRAME DOVERLAY, 0, STATIC
        ARGFRAME ISTACK, 0, STACK
        ARGFRAME PSTACK, 0, STACK
        ARGFRAME XSTACK, 10, STACK
        ARGFRAME IOVERLAY, 0, STATIC
        ARGFRAME DOVERLAY, 0, STATIC
        REQUIRE ?V0
        REQUIRE ?V1
        MOV     A,#-0xa
        LCALL   ?BANKED_ENTER_XDATA
          CFI DPH0 load(1, XDATA, add(CFA_XSP16, literal(-1)))
          CFI DPL0 load(1, XDATA, add(CFA_XSP16, literal(-2)))
          CFI ?BRET_EXT load(1, XDATA, add(CFA_XSP16, literal(-3)))
          CFI ?RET_HIGH load(1, XDATA, add(CFA_XSP16, literal(-4)))
          CFI ?RET_LOW load(1, XDATA, add(CFA_XSP16, literal(-5)))
          CFI R7 load(1, XDATA, add(CFA_XSP16, literal(-6)))
          CFI V1 load(1, XDATA, add(CFA_XSP16, literal(-7)))
          CFI V0 load(1, XDATA, add(CFA_XSP16, literal(-8)))
          CFI VB load(1, XDATA, add(CFA_XSP16, literal(-9)))
          CFI R6 load(1, XDATA, add(CFA_XSP16, literal(-10)))
          CFI CFA_SP SP+0
          CFI CFA_XSP16 add(XSP16, 10)
        ; Saved register size: 10
        ; Auto size: 0
        MOV     A,R2
        MOV     R6,A
        MOV     A,R3
        MOV     R7,A
//  289   endPointDesc_t *epDesc;
//  290 
//  291   // Register the application's endpoint descriptor
//  292   //  - This memory is allocated and never freed.
//  293   epDesc = osal_mem_alloc( sizeof ( endPointDesc_t ) );
        ; Setup parameters for call to function osal_mem_alloc
        MOV     R2,#0x7
        MOV     R3,#0x0
        LCALL   `??osal_mem_alloc::?relay`; Banked call to: osal_mem_alloc
//  294   if ( epDesc )
        MOV     A,R2
        ORL     A,R3
        JZ      ??bdb_RegisterSimpleDescriptor_0
//  295   {
//  296     // Fill out the endpoint description.
//  297     epDesc->endPoint = simpleDesc->EndPoint;
        MOV     DPL,R6
        MOV     DPH,R7
        MOVX    A,@DPTR
        MOV     DPL,R2
        MOV     DPH,R3
        MOVX    @DPTR,A
//  298     epDesc->task_id = &zcl_TaskID;   // all messages get sent to ZCL first
        INC     DPTR
        INC     DPTR
        MOV     A,#zcl_TaskID & 0xff
        MOVX    @DPTR,A
        INC     DPTR
        MOV     A,#(zcl_TaskID >> 8) & 0xff
        LCALL   ?Subroutine11 & 0xFFFF
//  299     epDesc->simpleDesc = simpleDesc;
??CrossCallReturnLabel_0:
        MOV     A,R6
        MOVX    @DPTR,A
        INC     DPTR
        MOV     A,R7
        LCALL   ?Subroutine11 & 0xFFFF
//  300     epDesc->latencyReq = noLatencyReqs;
??CrossCallReturnLabel_1:
        INC     DPTR
        INC     DPTR
        CLR     A
        MOVX    @DPTR,A
//  301 
//  302     // Register the endpoint description with the AF
//  303     afRegister( epDesc );
        ; Setup parameters for call to function afRegister
        LCALL   `??afRegister::?relay`; Banked call to: afRegister
//  304   }
//  305 }
??bdb_RegisterSimpleDescriptor_0:
        SJMP    ??Subroutine31_0
          CFI EndBlock cfiBlock1

        RSEG BANKED_CODE:CODE:NOROOT(0)
?Subroutine11:
          CFI Block cfiCond2 Using cfiCommon0
          CFI Function bdb_RegisterSimpleDescriptor
          CFI Conditional ??CrossCallReturnLabel_0
          CFI R6 load(1, XDATA, add(CFA_XSP16, literal(-10)))
          CFI VB load(1, XDATA, add(CFA_XSP16, literal(-9)))
          CFI V0 load(1, XDATA, add(CFA_XSP16, literal(-8)))
          CFI V1 load(1, XDATA, add(CFA_XSP16, literal(-7)))
          CFI R7 load(1, XDATA, add(CFA_XSP16, literal(-6)))
          CFI ?RET_LOW load(1, XDATA, add(CFA_XSP16, literal(-5)))
          CFI ?RET_HIGH load(1, XDATA, add(CFA_XSP16, literal(-4)))
          CFI ?BRET_EXT load(1, XDATA, add(CFA_XSP16, literal(-3)))
          CFI DPL0 load(1, XDATA, add(CFA_XSP16, literal(-2)))
          CFI DPH0 load(1, XDATA, add(CFA_XSP16, literal(-1)))
          CFI CFA_SP SP+-2
          CFI CFA_XSP16 add(XSP16, 10)
          CFI Block cfiCond3 Using cfiCommon0
          CFI (cfiCond3) Function bdb_RegisterSimpleDescriptor
          CFI (cfiCond3) Conditional ??CrossCallReturnLabel_1
          CFI (cfiCond3) R6 load(1, XDATA, add(CFA_XSP16, literal(-10)))
          CFI (cfiCond3) VB load(1, XDATA, add(CFA_XSP16, literal(-9)))
          CFI (cfiCond3) V0 load(1, XDATA, add(CFA_XSP16, literal(-8)))
          CFI (cfiCond3) V1 load(1, XDATA, add(CFA_XSP16, literal(-7)))
          CFI (cfiCond3) R7 load(1, XDATA, add(CFA_XSP16, literal(-6)))
          CFI (cfiCond3) ?RET_LOW load(1, XDATA, add(CFA_XSP16, literal(-5)))
          CFI (cfiCond3) ?RET_HIGH load(1, XDATA, add(CFA_XSP16, literal(-4)))
          CFI (cfiCond3) ?BRET_EXT load(1, XDATA, add(CFA_XSP16, literal(-3)))
          CFI (cfiCond3) DPL0 load(1, XDATA, add(CFA_XSP16, literal(-2)))
          CFI (cfiCond3) DPH0 load(1, XDATA, add(CFA_XSP16, literal(-1)))
          CFI (cfiCond3) CFA_SP SP+-2
          CFI (cfiCond3) CFA_XSP16 add(XSP16, 10)
          CFI Block cfiPicker4 Using cfiCommon1
          CFI (cfiPicker4) NoFunction
          CFI (cfiPicker4) Picker
        MOVX    @DPTR,A
        MOV     DPL,R2
        MOV     DPH,R3
        INC     DPTR
        INC     DPTR
        INC     DPTR
        INC     DPTR
        RET
          CFI EndBlock cfiCond2
          CFI EndBlock cfiCond3
          CFI EndBlock cfiPicker4

        RSEG BANKED_CODE:CODE:NOROOT(0)
?Subroutine1:
          CFI Block cfiBlock5 Using cfiCommon0
          CFI NoFunction
          CFI CFA_SP SP+0
          CFI CFA_XSP16 add(XSP16, 13)
          CFI VB load(1, XDATA, add(CFA_XSP16, literal(-9)))
          CFI DPL0 load(1, XDATA, add(CFA_XSP16, literal(-2)))
          CFI DPH0 load(1, XDATA, add(CFA_XSP16, literal(-1)))
          CFI R6 load(1, XDATA, add(CFA_XSP16, literal(-10)))
          CFI R7 load(1, XDATA, add(CFA_XSP16, literal(-6)))
          CFI V0 load(1, XDATA, add(CFA_XSP16, literal(-8)))
          CFI V1 load(1, XDATA, add(CFA_XSP16, literal(-7)))
          CFI ?BRET_EXT load(1, XDATA, add(CFA_XSP16, literal(-3)))
          CFI ?RET_HIGH load(1, XDATA, add(CFA_XSP16, literal(-4)))
          CFI ?RET_LOW load(1, XDATA, add(CFA_XSP16, literal(-5)))
          CFI Invalid
        LCALL   ?DEALLOC_XSTACK8
          CFI EndBlock cfiBlock5
        REQUIRE ??Subroutine31_0
        ; // Fall through to label ??Subroutine31_0

        RSEG BANKED_CODE:CODE:NOROOT(0)
??Subroutine31_0:
          CFI Block cfiBlock6 Using cfiCommon0
          CFI NoFunction
          CFI CFA_SP SP+0
          CFI CFA_XSP16 add(XSP16, 10)
          CFI VB load(1, XDATA, add(CFA_XSP16, literal(-9)))
          CFI DPL0 load(1, XDATA, add(CFA_XSP16, literal(-2)))
          CFI DPH0 load(1, XDATA, add(CFA_XSP16, literal(-1)))
          CFI R6 load(1, XDATA, add(CFA_XSP16, literal(-10)))
          CFI R7 load(1, XDATA, add(CFA_XSP16, literal(-6)))
          CFI V0 load(1, XDATA, add(CFA_XSP16, literal(-8)))
          CFI V1 load(1, XDATA, add(CFA_XSP16, literal(-7)))
          CFI ?BRET_EXT load(1, XDATA, add(CFA_XSP16, literal(-3)))
          CFI ?RET_HIGH load(1, XDATA, add(CFA_XSP16, literal(-4)))
          CFI ?RET_LOW load(1, XDATA, add(CFA_XSP16, literal(-5)))
        MOV     R7,#0x2
        LJMP    ?BANKED_LEAVE_XDATA
          CFI EndBlock cfiBlock6
//  306 
//  307 #if (BDB_FINDING_BINDING_CAPABILITY_ENABLED==1)  
//  308 /*********************************************************************
//  309  * @fn      bdb_ZclIdentifyCmdInd
//  310  *
//  311  * @brief   Callback from the ZCL General Cluster Library when
//  312  *          it received an Identity Command for this application.
//  313  *
//  314  * @param   srcAddr - source address and endpoint of the response message
//  315  * @param   identifyTime - the number of seconds to identify yourself
//  316  * @param   endpoint - destination endpoint
//  317  *
//  318  * @return  none
//  319  */

        RSEG BANKED_CODE:CODE:NOROOT(0)
//  320 void bdb_ZclIdentifyCmdInd( zclIdentify_t *pCmd, uint8 endpoint )
bdb_ZclIdentifyCmdInd:
          CFI Block cfiBlock7 Using cfiCommon0
          CFI Function bdb_ZclIdentifyCmdInd
        CODE
//  321 {
        FUNCALL bdb_ZclIdentifyCmdInd, zclFindAttrRec
        LOCFRAME ISTACK, 0, STACK
        LOCFRAME PSTACK, 0, STACK
        LOCFRAME XSTACK, 22, STACK
        LOCFRAME IOVERLAY, 0, STATIC
        LOCFRAME DOVERLAY, 0, STATIC
        ARGFRAME ISTACK, 0, STACK
        ARGFRAME PSTACK, 0, STACK
        ARGFRAME XSTACK, 22, STACK
        ARGFRAME IOVERLAY, 0, STATIC
        ARGFRAME DOVERLAY, 0, STATIC
        FUNCALL bdb_ZclIdentifyCmdInd, osal_start_timerEx
        LOCFRAME ISTACK, 0, STACK
        LOCFRAME PSTACK, 0, STACK
        LOCFRAME XSTACK, 24, STACK
        LOCFRAME IOVERLAY, 0, STATIC
        LOCFRAME DOVERLAY, 0, STATIC
        ARGFRAME ISTACK, 0, STACK
        ARGFRAME PSTACK, 0, STACK
        ARGFRAME XSTACK, 24, STACK
        ARGFRAME IOVERLAY, 0, STATIC
        ARGFRAME DOVERLAY, 0, STATIC
        REQUIRE ?V0
        REQUIRE ?V2
        REQUIRE ?V3
        MOV     A,#-0xc
        LCALL   ?BANKED_ENTER_XDATA
          CFI DPH0 load(1, XDATA, add(CFA_XSP16, literal(-1)))
          CFI DPL0 load(1, XDATA, add(CFA_XSP16, literal(-2)))
          CFI ?BRET_EXT load(1, XDATA, add(CFA_XSP16, literal(-3)))
          CFI ?RET_HIGH load(1, XDATA, add(CFA_XSP16, literal(-4)))
          CFI ?RET_LOW load(1, XDATA, add(CFA_XSP16, literal(-5)))
          CFI R7 load(1, XDATA, add(CFA_XSP16, literal(-6)))
          CFI V3 load(1, XDATA, add(CFA_XSP16, literal(-7)))
          CFI V2 load(1, XDATA, add(CFA_XSP16, literal(-8)))
          CFI V1 load(1, XDATA, add(CFA_XSP16, literal(-9)))
          CFI V0 load(1, XDATA, add(CFA_XSP16, literal(-10)))
          CFI VB load(1, XDATA, add(CFA_XSP16, literal(-11)))
          CFI R6 load(1, XDATA, add(CFA_XSP16, literal(-12)))
          CFI CFA_SP SP+0
          CFI CFA_XSP16 add(XSP16, 12)
        ; Saved register size: 12
        ; Auto size: 8
        MOV     A,#-0x8
        LCALL   ?ALLOC_XSTACK8
          CFI CFA_XSP16 add(XSP16, 20)
        MOV     A,R2
        MOV     R6,A
        MOV     A,R3
        MOV     R7,A
        MOV     ?V0,R1
//  322   zclAttrRec_t identifyAttrRec;
//  323   
//  324   if ( zclFindAttrRec( endpoint, ZCL_CLUSTER_ID_GEN_IDENTIFY,
//  325                       ATTRID_IDENTIFY_TIME, &identifyAttrRec ) )
        ; Setup parameters for call to function zclFindAttrRec
        MOV     R0,?XSP + 0
        MOV     R1,?XSP + 1
        MOV     ?V2,R0
        MOV     ?V3,R1
        MOV     R0,#?V2
        LCALL   ?PUSH_XSTACK_I_TWO
          CFI CFA_XSP16 add(XSP16, 22)
        MOV     R4,#0x0
        MOV     R5,#0x0
        MOV     R2,#0x3
        MOV     R3,#0x0
        MOV     R1,?V0
        LCALL   `??zclFindAttrRec::?relay`; Banked call to: zclFindAttrRec
        MOV     A,#0x2
        LCALL   ?DEALLOC_XSTACK8
          CFI CFA_XSP16 add(XSP16, 20)
        MOV     A,R1
        JZ      ??bdb_ZclIdentifyCmdInd_0
//  326   {
//  327     if ( pCmd->identifyTime > 0 )
        MOV     A,#0x6
        LCALL   ?XSTACK_DISP0_8
        LCALL   ?Subroutine21 & 0xFFFF
??CrossCallReturnLabel_20:
        MOV     DPL,R6
        MOV     DPH,R7
        INC     DPTR
        INC     DPTR
        LCALL   ?Subroutine14 & 0xFFFF
??CrossCallReturnLabel_7:
        MOV     DPL,R0
        MOV     DPH,R1
        JZ      ??bdb_ZclIdentifyCmdInd_1
//  328     {
//  329       *((uint16*)identifyAttrRec.attr.dataPtr) += pCmd->identifyTime;
        MOVX    A,@DPTR
        ADD     A,R2
        MOV     R2,A
        INC     DPTR
        MOVX    A,@DPTR
        ADDC    A,R3
        MOV     R3,A
        MOV     DPL,R0
        MOV     DPH,R1
        MOV     A,R2
        MOVX    @DPTR,A
        INC     DPTR
        MOV     A,R3
        SJMP    ??bdb_ZclIdentifyCmdInd_2
//  330     }
//  331     else if ( pCmd->identifyTime <= 0 )
//  332     {
//  333       *((uint16*)identifyAttrRec.attr.dataPtr) = 0;
??bdb_ZclIdentifyCmdInd_1:
        CLR     A
        MOVX    @DPTR,A
        INC     DPTR
??bdb_ZclIdentifyCmdInd_2:
        MOVX    @DPTR,A
//  334     }
//  335     osal_start_timerEx( bdb_TaskID, BDB_IDENTIFY_TIMEOUT, 1000 );
        ; Setup parameters for call to function osal_start_timerEx
        MOV     DPTR,#__Constant_3e8
        LCALL   ?PUSH_XSTACK8_X_FOUR
          CFI CFA_XSP16 add(XSP16, 24)
        MOV     R2,#0x0
        MOV     R3,#0x20
        MOV     DPTR,#bdb_TaskID
        MOVX    A,@DPTR
        MOV     R1,A
        LCALL   `??osal_start_timerEx::?relay`; Banked call to: osal_start_timerEx
        MOV     A,#0x4
        LCALL   ?DEALLOC_XSTACK8
          CFI CFA_XSP16 add(XSP16, 20)
//  336     
//  337     if(pfnIdentifyTimeChangeCB != NULL)
        MOV     DPTR,#pfnIdentifyTimeChangeCB
        LCALL   ??Subroutine41_0 & 0xFFFF
??CrossCallReturnLabel_52:
        JZ      ??bdb_ZclIdentifyCmdInd_0
//  338     {
//  339       pfnIdentifyTimeChangeCB(pCmd->srcAddr->endPoint);
        ; Setup parameters for indirect call
        MOV     DPL,R6
        MOV     DPH,R7
        MOVX    A,@DPTR
        MOV     R0,A
        INC     DPTR
        MOVX    A,@DPTR
        XCH     A,R0
        ADD     A,#0x9
        MOV     DPL,A
        CLR     A
        ADDC    A,R0
        MOV     DPH,A
        MOVX    A,@DPTR
        MOV     R1,A
        MOV     DPTR,#pfnIdentifyTimeChangeCB
        LCALL   ?Subroutine22 & 0xFFFF
//  340     }
//  341   }
??CrossCallReturnLabel_73:
        LCALL   ?CALL_IND
//  342 }
??bdb_ZclIdentifyCmdInd_0:
        MOV     A,#0x8
        LJMP    ??Subroutine37_0 & 0xFFFF
          CFI EndBlock cfiBlock7
//  343 #endif
//  344 
//  345 
//  346 #if (ZG_BUILD_JOINING_TYPE) 
//  347  /*********************************************************************
//  348  * @fn          bdb_setActiveCentralizedLinkKey
//  349  *
//  350  * @brief       Set the active centralized key to be used, Global or IC derived.
//  351  *
//  352  * @param       useGlobal - If TRUE, then use default TC link key, if FALSE use 
//  353  *                          pBuf as source for IC key derived input
//  354  * @param       pBuf - The expected format and length of the IC is defined by 
//  355  *                     BDB_INSTALL_CODE_USE
//  356  *
//  357  * @return      ZStatus_t - ZFailure when no valid BDB_INSTALL_CODE_USE is used
//  358  *                          ZInvalidParameter when IC buffer is null
//  359  */
//  360 ZStatus_t bdb_setActiveCentralizedLinkKey(bool useGlobal, uint8* pBuf)
//  361 {
//  362   uint8 extAddr[Z_EXTADDR_LEN];
//  363   osal_memset(extAddr,0x00,Z_EXTADDR_LEN);
//  364   ZStatus_t Status = ZSuccess;
//  365 
//  366   if(useGlobal)
//  367   {
//  368     APSME_AddTCLinkKey((uint8*)defaultTCLinkKey,extAddr);
//  369     Status = ZSuccess;
//  370   } 
//  371   else
//  372   {
//  373     if(pBuf != NULL)
//  374     {
//  375   #if (BDB_INSTALL_CODE_USE==BDB_INSTALL_CODE_USE_IC_CRC)
//  376       //Set the install code as default key
//  377       Status = bdb_addInstallCode(pBuf,extAddr);
//  378     
//  379   #elif (BDB_INSTALL_CODE_USE==BDB_INSTALL_CODE_USE_KEY)
//  380 
//  381       //Set the key as global default
//  382       APSME_AddTCLinkKey(pBuf,extAddr);
//  383   #else
//  384     
//  385       //BDB_INSTALL_CODE_USE not supported
//  386       Status = ZFailure;
//  387   #endif
//  388     }
//  389     else
//  390     {
//  391       Status = ZInvalidParameter;
//  392     }
//  393   }
//  394   return Status;
//  395 }
//  396 #endif
//  397 
//  398 
//  399     
//  400   
//  401 /******************************************************************************
//  402  * @fn          bdb_addInstallCode
//  403  *
//  404  * @brief       Interface to add an install codes and adds a APS TC Link key.
//  405  *
//  406  * @param       pInstallCode - [in] Install Code with CRC (buffer size of 18 bytes).
//  407  *              pExt - [in] Extended address of the node.
//  408  *
//  409  * @return      ZStatus_t
//  410  */

        RSEG BANKED_CODE:CODE:NOROOT(0)
//  411 ZStatus_t bdb_addInstallCode(uint8* pInstallCode, uint8* pExt)
bdb_addInstallCode:
          CFI Block cfiBlock8 Using cfiCommon0
          CFI Function bdb_addInstallCode
        CODE
//  412 {
        FUNCALL bdb_addInstallCode, bdb_GenerateInstallCodeCRC
        LOCFRAME ISTACK, 0, STACK
        LOCFRAME PSTACK, 0, STACK
        LOCFRAME XSTACK, 30, STACK
        LOCFRAME IOVERLAY, 0, STATIC
        LOCFRAME DOVERLAY, 0, STATIC
        ARGFRAME ISTACK, 0, STACK
        ARGFRAME PSTACK, 0, STACK
        ARGFRAME XSTACK, 30, STACK
        ARGFRAME IOVERLAY, 0, STATIC
        ARGFRAME DOVERLAY, 0, STATIC
        FUNCALL bdb_addInstallCode, osal_build_uint16
        LOCFRAME ISTACK, 0, STACK
        LOCFRAME PSTACK, 0, STACK
        LOCFRAME XSTACK, 30, STACK
        LOCFRAME IOVERLAY, 0, STATIC
        LOCFRAME DOVERLAY, 0, STATIC
        ARGFRAME ISTACK, 0, STACK
        ARGFRAME PSTACK, 0, STACK
        ARGFRAME XSTACK, 30, STACK
        ARGFRAME IOVERLAY, 0, STATIC
        ARGFRAME DOVERLAY, 0, STATIC
        FUNCALL bdb_addInstallCode, sspMMOHash
        LOCFRAME ISTACK, 0, STACK
        LOCFRAME PSTACK, 0, STACK
        LOCFRAME XSTACK, 34, STACK
        LOCFRAME IOVERLAY, 0, STATIC
        LOCFRAME DOVERLAY, 0, STATIC
        ARGFRAME ISTACK, 0, STACK
        ARGFRAME PSTACK, 0, STACK
        ARGFRAME XSTACK, 34, STACK
        ARGFRAME IOVERLAY, 0, STATIC
        ARGFRAME DOVERLAY, 0, STATIC
        FUNCALL bdb_addInstallCode, APSME_AddTCLinkKey
        LOCFRAME ISTACK, 0, STACK
        LOCFRAME PSTACK, 0, STACK
        LOCFRAME XSTACK, 30, STACK
        LOCFRAME IOVERLAY, 0, STATIC
        LOCFRAME DOVERLAY, 0, STATIC
        ARGFRAME ISTACK, 0, STACK
        ARGFRAME PSTACK, 0, STACK
        ARGFRAME XSTACK, 30, STACK
        ARGFRAME IOVERLAY, 0, STATIC
        ARGFRAME DOVERLAY, 0, STATIC
        REQUIRE ?V0
        REQUIRE ?V1
        REQUIRE ?V2
        REQUIRE ?V3
        REQUIRE ?V4
        REQUIRE ?V5
        MOV     A,#-0xe
        LCALL   ?BANKED_ENTER_XDATA
          CFI DPH0 load(1, XDATA, add(CFA_XSP16, literal(-1)))
          CFI DPL0 load(1, XDATA, add(CFA_XSP16, literal(-2)))
          CFI ?BRET_EXT load(1, XDATA, add(CFA_XSP16, literal(-3)))
          CFI ?RET_HIGH load(1, XDATA, add(CFA_XSP16, literal(-4)))
          CFI ?RET_LOW load(1, XDATA, add(CFA_XSP16, literal(-5)))
          CFI R7 load(1, XDATA, add(CFA_XSP16, literal(-6)))
          CFI V5 load(1, XDATA, add(CFA_XSP16, literal(-7)))
          CFI V4 load(1, XDATA, add(CFA_XSP16, literal(-8)))
          CFI V3 load(1, XDATA, add(CFA_XSP16, literal(-9)))
          CFI V2 load(1, XDATA, add(CFA_XSP16, literal(-10)))
          CFI V1 load(1, XDATA, add(CFA_XSP16, literal(-11)))
          CFI V0 load(1, XDATA, add(CFA_XSP16, literal(-12)))
          CFI VB load(1, XDATA, add(CFA_XSP16, literal(-13)))
          CFI R6 load(1, XDATA, add(CFA_XSP16, literal(-14)))
          CFI CFA_SP SP+0
          CFI CFA_XSP16 add(XSP16, 14)
        ; Saved register size: 14
        ; Auto size: 16
        MOV     A,#-0x10
        LCALL   ?ALLOC_XSTACK8
          CFI CFA_XSP16 add(XSP16, 30)
        MOV     A,R2
        MOV     R6,A
        MOV     A,R3
        MOV     R7,A
        MOV     ?V0,R4
        MOV     ?V1,R5
//  413   uint8  hashOutput[16];
//  414   uint16 CRC;
//  415   
//  416 #if (ZG_BUILD_COORDINATOR_TYPE)
//  417   if(ZG_DEVICE_COORDINATOR_TYPE)
//  418   {
//  419     if(zgAllowInstallCodes == ZG_IC_NOT_SUPPORTED)
        MOV     DPTR,#zgAllowInstallCodes
        MOVX    A,@DPTR
        JNZ     ??bdb_addInstallCode_0
//  420     {
//  421       return ZFailure;
        MOV     R1,#0x1
        SJMP    ??bdb_addInstallCode_1
//  422     }
//  423   }
//  424 #endif
//  425        
//  426   if((pInstallCode == NULL) || (pExt == NULL))
??bdb_addInstallCode_0:
        MOV     A,R6
        ORL     A,R7
        JZ      ??bdb_addInstallCode_2
        MOV     A,R4
        ORL     A,?V1
        JZ      ??bdb_addInstallCode_2
//  427   {
//  428     return ZInvalidParameter;
//  429   }
//  430   
//  431   CRC = bdb_GenerateInstallCodeCRC(pInstallCode);
        ; Setup parameters for call to function bdb_GenerateInstallCodeCRC
        LCALL   `??bdb_GenerateInstallCodeCRC::?relay`; Banked call to: bdb_GenerateInstallCodeCRC
        MOV     ?V2,R2
        MOV     ?V3,R3
//  432   //Validate CRC
//  433   if(CRC != osal_build_uint16(&pInstallCode[INSTALL_CODE_LEN]))
        ; Setup parameters for call to function osal_build_uint16
        MOV     A,R6
        ADD     A,#0x10
        MOV     R2,A
        CLR     A
        ADDC    A,R7
        MOV     R3,A
        LCALL   `??osal_build_uint16::?relay`; Banked call to: osal_build_uint16
        MOV     A,R2
        XRL     A,?V2
        JNZ     ??bdb_addInstallCode_3
        MOV     A,R3
        XRL     A,?V3
??bdb_addInstallCode_3:
        JZ      ??bdb_addInstallCode_4
//  434   {
//  435     return ZInvalidParameter;
??bdb_addInstallCode_2:
        MOV     R1,#0x2
        SJMP    ??bdb_addInstallCode_1
//  436   }
//  437 
//  438   sspMMOHash (NULL, 0, pInstallCode,(INSTALL_CODE_LEN + INSTALL_CODE_CRC_LEN) * BITS_PER_BYTE, hashOutput);
??bdb_addInstallCode_4:
        ; Setup parameters for call to function sspMMOHash
        MOV     R0,?XSP + 0
        MOV     R1,?XSP + 1
        MOV     ?V2,R0
        MOV     ?V3,R1
        MOV     R0,#?V2
        LCALL   ?PUSH_XSTACK_I_TWO
          CFI CFA_XSP16 add(XSP16, 32)
        MOV     ?V2,#-0x70
        MOV     ?V3,#0x0
        MOV     R0,#?V2
        LCALL   ?PUSH_XSTACK_I_TWO
          CFI CFA_XSP16 add(XSP16, 34)
        MOV     A,R6
        MOV     R4,A
        MOV     A,R7
        MOV     R5,A
        MOV     R1,#0x0
        MOV     R2,#0x0
        MOV     R3,#0x0
        LCALL   `??sspMMOHash::?relay`; Banked call to: sspMMOHash
        MOV     A,#0x4
        LCALL   ?DEALLOC_XSTACK8
          CFI CFA_XSP16 add(XSP16, 30)
//  439 
//  440   return APSME_AddTCLinkKey(hashOutput,pExt);
        ; Setup parameters for call to function APSME_AddTCLinkKey
        MOV     R4,?V0
        MOV     R5,?V1
        MOV     R2,?XSP + 0
        MOV     R3,?XSP + 1
        LCALL   `??APSME_AddTCLinkKey::?relay`; Banked call to: APSME_AddTCLinkKey
??bdb_addInstallCode_1:
        MOV     A,#0x10
        LCALL   ?DEALLOC_XSTACK8
          CFI CFA_XSP16 add(XSP16, 14)
        MOV     R7,#0x6
        LJMP    ?BANKED_LEAVE_XDATA
//  441 }    
          CFI EndBlock cfiBlock8
//  442     
//  443 
//  444 #if (ZG_BUILD_COORDINATOR_TYPE)
//  445  /*********************************************************************
//  446  * @fn      bdb_RegisterTCLinkKeyExchangeProcessCB
//  447  *
//  448  * @brief   Register a callback to receive notifications on the joining devices 
//  449  *          and its status on TC link key exchange
//  450  *
//  451  * @param   bdbGCB_TCLinkKeyExchangeProcess - application callback 
//  452  *          (extended address of device, status: 0 = Joining, 1 = TC link key exchange success, 2 = TC link key exchange failed)
//  453  *
//  454  * @return  none
//  455  */

        RSEG BANKED_CODE:CODE:NOROOT(0)
//  456 void bdb_RegisterTCLinkKeyExchangeProcessCB(bdbGCB_TCLinkKeyExchangeProcess_t bdbGCB_TCLinkKeyExchangeProcess)
bdb_RegisterTCLinkKeyExchangeProcessCB:
          CFI Block cfiBlock9 Using cfiCommon0
          CFI Function bdb_RegisterTCLinkKeyExchangeProcessCB
        CODE
//  457 {
        PUSH    DPL
          CFI DPL0 Frame(CFA_SP, 4)
          CFI CFA_SP SP+-4
        PUSH    DPH
          CFI DPH0 Frame(CFA_SP, 5)
          CFI CFA_SP SP+-5
        ; Saved register size: 2
        ; Auto size: 0
//  458   if(bdbGCB_TCLinkKeyExchangeProcess != NULL)
        MOV     A,R2
        ORL     A,R3
        JZ      ??bdb_RegisterTCLinkKeyExchangeProcessCB_0
//  459   {
//  460     pfnTCLinkKeyExchangeProcessCB = bdbGCB_TCLinkKeyExchangeProcess;
        MOV     DPTR,#pfnTCLinkKeyExchangeProcessCB
        MOV     A,R2
        MOVX    @DPTR,A
        INC     DPTR
        MOV     A,R3
        MOVX    @DPTR,A
//  461   }
//  462 }
??bdb_RegisterTCLinkKeyExchangeProcessCB_0:
        LJMP    ??Subroutine35_0 & 0xFFFF
          CFI EndBlock cfiBlock9
//  463 
//  464 
//  465 
//  466  /*********************************************************************
//  467  * @fn          bdb_setTCRequireKeyExchange
//  468  *
//  469  * @brief       Set the bdb_setTCRequireKeyExchange attribute
//  470  *
//  471  * @param       isKeyExchangeRequired - True if TC will remove devices that do 
//  472  *              not perform key exchange after bdbTrustCenterNodeJoinTimeout, 
//  473  *              False to not remove devices.
//  474  *
//  475  * @return      none
//  476  */

        RSEG BANKED_CODE:CODE:NOROOT(0)
//  477 void bdb_setTCRequireKeyExchange(bool isKeyExchangeRequired)
bdb_setTCRequireKeyExchange:
          CFI Block cfiBlock10 Using cfiCommon0
          CFI Function bdb_setTCRequireKeyExchange
        CODE
//  478 {
        PUSH    DPL
          CFI DPL0 Frame(CFA_SP, 4)
          CFI CFA_SP SP+-4
        PUSH    DPH
          CFI DPH0 Frame(CFA_SP, 5)
          CFI CFA_SP SP+-5
        ; Saved register size: 2
        ; Auto size: 0
//  479   bdbAttributes.bdbTrustCenterRequireKeyExchange = isKeyExchangeRequired;
        MOV     A,R1
        MOV     DPTR,#bdbAttributes + 17
        LJMP    ??Subroutine34_0 & 0xFFFF
//  480 }
          CFI EndBlock cfiBlock10
//  481 
//  482 
//  483 
//  484  /*********************************************************************
//  485  * @fn          bdb_TCAddJoiningDevice
//  486  *
//  487  * @brief       Add a joining device to the list of devices that must request a 
//  488  *              key before bdbTrustCenterNodeJoinTimeout.
//  489  *
//  490  * @param       parentAddr - Address of the parent device
//  491  * @param       JoiningExtAddr - IEEE address of the joining device
//  492  *
//  493  * @return      ZStatus_t - ZFailure No memory to allocate the device in the list
//  494  *                          ZInvalidParameter
//  495  */

        RSEG BANKED_CODE:CODE:NOROOT(0)
//  496 ZStatus_t bdb_TCAddJoiningDevice(uint16 parentAddr, uint8* JoiningExtAddr)
bdb_TCAddJoiningDevice:
          CFI Block cfiBlock11 Using cfiCommon0
          CFI Function bdb_TCAddJoiningDevice
        CODE
//  497 {
        FUNCALL bdb_TCAddJoiningDevice, osal_mem_alloc
        LOCFRAME ISTACK, 0, STACK
        LOCFRAME PSTACK, 0, STACK
        LOCFRAME XSTACK, 28, STACK
        LOCFRAME IOVERLAY, 0, STATIC
        LOCFRAME DOVERLAY, 0, STATIC
        ARGFRAME ISTACK, 0, STACK
        ARGFRAME PSTACK, 0, STACK
        ARGFRAME XSTACK, 28, STACK
        ARGFRAME IOVERLAY, 0, STATIC
        ARGFRAME DOVERLAY, 0, STATIC
        FUNCALL bdb_TCAddJoiningDevice, osal_start_reload_timer
        LOCFRAME ISTACK, 0, STACK
        LOCFRAME PSTACK, 0, STACK
        LOCFRAME XSTACK, 32, STACK
        LOCFRAME IOVERLAY, 0, STATIC
        LOCFRAME DOVERLAY, 0, STATIC
        ARGFRAME ISTACK, 0, STACK
        ARGFRAME PSTACK, 0, STACK
        ARGFRAME XSTACK, 32, STACK
        ARGFRAME IOVERLAY, 0, STATIC
        ARGFRAME DOVERLAY, 0, STATIC
        FUNCALL bdb_TCAddJoiningDevice, osal_memcmp
        LOCFRAME ISTACK, 0, STACK
        LOCFRAME PSTACK, 0, STACK
        LOCFRAME XSTACK, 31, STACK
        LOCFRAME IOVERLAY, 0, STATIC
        LOCFRAME DOVERLAY, 0, STATIC
        ARGFRAME ISTACK, 0, STACK
        ARGFRAME PSTACK, 0, STACK
        ARGFRAME XSTACK, 31, STACK
        ARGFRAME IOVERLAY, 0, STATIC
        ARGFRAME DOVERLAY, 0, STATIC
        FUNCALL bdb_TCAddJoiningDevice, osal_memcmp
        LOCFRAME ISTACK, 0, STACK
        LOCFRAME PSTACK, 0, STACK
        LOCFRAME XSTACK, 31, STACK
        LOCFRAME IOVERLAY, 0, STATIC
        LOCFRAME DOVERLAY, 0, STATIC
        ARGFRAME ISTACK, 0, STACK
        ARGFRAME PSTACK, 0, STACK
        ARGFRAME XSTACK, 31, STACK
        ARGFRAME IOVERLAY, 0, STATIC
        ARGFRAME DOVERLAY, 0, STATIC
        FUNCALL bdb_TCAddJoiningDevice, osal_mem_alloc
        LOCFRAME ISTACK, 0, STACK
        LOCFRAME PSTACK, 0, STACK
        LOCFRAME XSTACK, 28, STACK
        LOCFRAME IOVERLAY, 0, STATIC
        LOCFRAME DOVERLAY, 0, STATIC
        ARGFRAME ISTACK, 0, STACK
        ARGFRAME PSTACK, 0, STACK
        ARGFRAME XSTACK, 28, STACK
        ARGFRAME IOVERLAY, 0, STATIC
        ARGFRAME DOVERLAY, 0, STATIC
        FUNCALL bdb_TCAddJoiningDevice, osal_memcpy
        LOCFRAME ISTACK, 0, STACK
        LOCFRAME PSTACK, 0, STACK
        LOCFRAME XSTACK, 31, STACK
        LOCFRAME IOVERLAY, 0, STATIC
        LOCFRAME DOVERLAY, 0, STATIC
        ARGFRAME ISTACK, 0, STACK
        ARGFRAME PSTACK, 0, STACK
        ARGFRAME XSTACK, 31, STACK
        ARGFRAME IOVERLAY, 0, STATIC
        ARGFRAME DOVERLAY, 0, STATIC
        FUNCALL bdb_TCAddJoiningDevice, bdb_SendMsg
        LOCFRAME ISTACK, 0, STACK
        LOCFRAME PSTACK, 0, STACK
        LOCFRAME XSTACK, 30, STACK
        LOCFRAME IOVERLAY, 0, STATIC
        LOCFRAME DOVERLAY, 0, STATIC
        ARGFRAME ISTACK, 0, STACK
        ARGFRAME PSTACK, 0, STACK
        ARGFRAME XSTACK, 30, STACK
        ARGFRAME IOVERLAY, 0, STATIC
        ARGFRAME DOVERLAY, 0, STATIC
        FUNCALL bdb_TCAddJoiningDevice, osal_memcpy
        LOCFRAME ISTACK, 0, STACK
        LOCFRAME PSTACK, 0, STACK
        LOCFRAME XSTACK, 31, STACK
        LOCFRAME IOVERLAY, 0, STATIC
        LOCFRAME DOVERLAY, 0, STATIC
        ARGFRAME ISTACK, 0, STACK
        ARGFRAME PSTACK, 0, STACK
        ARGFRAME XSTACK, 31, STACK
        ARGFRAME IOVERLAY, 0, STATIC
        ARGFRAME DOVERLAY, 0, STATIC
        REQUIRE ?V0
        REQUIRE ?V1
        REQUIRE ?V2
        REQUIRE ?V4
        REQUIRE ?V5
        REQUIRE ?V6
        REQUIRE ?V7
        REQUIRE ?V8
        REQUIRE ?V9
        REQUIRE ?V10
        MOV     A,#-0x13
        LCALL   ?BANKED_ENTER_XDATA
          CFI DPH0 load(1, XDATA, add(CFA_XSP16, literal(-1)))
          CFI DPL0 load(1, XDATA, add(CFA_XSP16, literal(-2)))
          CFI ?BRET_EXT load(1, XDATA, add(CFA_XSP16, literal(-3)))
          CFI ?RET_HIGH load(1, XDATA, add(CFA_XSP16, literal(-4)))
          CFI ?RET_LOW load(1, XDATA, add(CFA_XSP16, literal(-5)))
          CFI R7 load(1, XDATA, add(CFA_XSP16, literal(-6)))
          CFI V10 load(1, XDATA, add(CFA_XSP16, literal(-7)))
          CFI V9 load(1, XDATA, add(CFA_XSP16, literal(-8)))
          CFI V8 load(1, XDATA, add(CFA_XSP16, literal(-9)))
          CFI V7 load(1, XDATA, add(CFA_XSP16, literal(-10)))
          CFI V6 load(1, XDATA, add(CFA_XSP16, literal(-11)))
          CFI V5 load(1, XDATA, add(CFA_XSP16, literal(-12)))
          CFI V4 load(1, XDATA, add(CFA_XSP16, literal(-13)))
          CFI V3 load(1, XDATA, add(CFA_XSP16, literal(-14)))
          CFI V2 load(1, XDATA, add(CFA_XSP16, literal(-15)))
          CFI V1 load(1, XDATA, add(CFA_XSP16, literal(-16)))
          CFI V0 load(1, XDATA, add(CFA_XSP16, literal(-17)))
          CFI VB load(1, XDATA, add(CFA_XSP16, literal(-18)))
          CFI R6 load(1, XDATA, add(CFA_XSP16, literal(-19)))
          CFI CFA_SP SP+0
          CFI CFA_XSP16 add(XSP16, 19)
        ; Saved register size: 19
        ; Auto size: 9
        MOV     A,#-0x9
        LCALL   ?ALLOC_XSTACK8
          CFI CFA_XSP16 add(XSP16, 28)
        MOV     ?V6,R2
        MOV     ?V7,R3
//  498   bdb_joiningDeviceList_t* tempJoiningDescNode;
//  499   
//  500   if((parentAddr == INVALID_NODE_ADDR) || (JoiningExtAddr == NULL))
        MOV     A,#-0x2
        XRL     A,?V6
        JNZ     ??bdb_TCAddJoiningDevice_0
        MOV     A,#-0x1
        XRL     A,?V7
??bdb_TCAddJoiningDevice_0:
        JZ      ??bdb_TCAddJoiningDevice_1
        MOV     A,R4
        ORL     A,R5
        JNZ     ??bdb_TCAddJoiningDevice_2
//  501   {
//  502     return ZInvalidParameter;
??bdb_TCAddJoiningDevice_1:
        MOV     R1,#0x2
        LJMP    ??bdb_TCAddJoiningDevice_3 & 0xFFFF
//  503   }
//  504   
//  505   //If the list was empty and element was allocated, then start the timer
//  506   if(bdb_joiningDeviceList == NULL)
??bdb_TCAddJoiningDevice_2:
        MOV     ?V0,R4
        MOV     ?V1,R5
        MOV     ?V2,#0x0
        MOV     DPTR,#bdb_joiningDeviceList
        LCALL   ??Subroutine41_0 & 0xFFFF
??CrossCallReturnLabel_53:
        JNZ     ??bdb_TCAddJoiningDevice_4
//  507   {
//  508     bdb_joiningDeviceList = osal_mem_alloc(sizeof(bdb_joiningDeviceList_t));
        ; Setup parameters for call to function osal_mem_alloc
        MOV     R2,#0xd
        MOV     R3,#0x0
        LCALL   `??osal_mem_alloc::?relay`; Banked call to: osal_mem_alloc
        MOV     DPTR,#bdb_joiningDeviceList
        MOV     A,R2
        MOVX    @DPTR,A
        INC     DPTR
        MOV     A,R3
        MOVX    @DPTR,A
//  509     if(bdb_joiningDeviceList == NULL)
        MOV     DPTR,#bdb_joiningDeviceList
        LCALL   ??Subroutine41_0 & 0xFFFF
??CrossCallReturnLabel_54:
        JNZ     $+5
        LJMP    ??bdb_TCAddJoiningDevice_5 & 0xFFFF
//  510     {
//  511       return ZFailure;
//  512     }
//  513    
//  514     osal_start_reload_timer(bdb_TaskID,BDB_TC_JOIN_TIMEOUT,1000);
        ; Setup parameters for call to function osal_start_reload_timer
        MOV     DPTR,#__Constant_3e8
        LCALL   ?PUSH_XSTACK8_X_FOUR
          CFI CFA_XSP16 add(XSP16, 32)
        MOV     R2,#0x0
        MOV     R3,#0x8
        MOV     DPTR,#bdb_TaskID
        MOVX    A,@DPTR
        MOV     R1,A
        LCALL   `??osal_start_reload_timer::?relay`; Banked call to: osal_start_reload_timer
        MOV     A,#0x4
        LCALL   ?DEALLOC_XSTACK8
          CFI CFA_XSP16 add(XSP16, 28)
//  515     tempJoiningDescNode = bdb_joiningDeviceList;
        MOV     DPTR,#bdb_joiningDeviceList
        MOVX    A,@DPTR
        MOV     R6,A
        INC     DPTR
        MOVX    A,@DPTR
        LJMP    ??bdb_TCAddJoiningDevice_6 & 0xFFFF
//  516   }
//  517   //if the list was not empty then add the entry at the end of the list
//  518   else
//  519   {
//  520     tempJoiningDescNode = bdb_joiningDeviceList;
??bdb_TCAddJoiningDevice_4:
        LCALL   ?Subroutine28 & 0xFFFF
//  521     
//  522     //Validate that this is not already in the list... somehow
//  523     if(osal_memcmp(JoiningExtAddr,tempJoiningDescNode->bdbJoiningNodeEui64,Z_EXTADDR_LEN))
??CrossCallReturnLabel_80:
        ; Setup parameters for call to function osal_memcmp
        MOV     DPL,R6
        MOV     DPH,R7
        INC     DPTR
        INC     DPTR
        MOV     R1,DPL
        MOV     R2,DPH
        MOV     ?V8,R1
        MOV     ?V9,R2
        MOV     ?V10,#0x0
        MOV     R0,#?V8
        LCALL   ?PUSH_XSTACK_I_THREE
          CFI CFA_XSP16 add(XSP16, 31)
        MOV     R4,#0x8
        MOV     R5,#0x0
        MOV     R1,?V0
        MOV     R2,?V1
        MOV     R3,?V2
        LCALL   `??osal_memcmp::?relay`; Banked call to: osal_memcmp
        MOV     A,#0x3
        LCALL   ?DEALLOC_XSTACK8
          CFI CFA_XSP16 add(XSP16, 28)
        MOV     A,R1
        JNZ     ??bdb_TCAddJoiningDevice_7
//  524     {
//  525       //The device added is already in the list, refresh its time and do nothing else
//  526       tempJoiningDescNode->NodeJoinTimeout = bdbAttributes.bdbTrustCenterNodeJoinTimeout;
//  527       return ZSuccess;
//  528     }
//  529     
//  530     while(tempJoiningDescNode->nextDev != NULL)
??bdb_TCAddJoiningDevice_8:
        MOV     A,R6
        ADD     A,#0xb
        MOV     R6,A
        JNC     ??bdb_TCAddJoiningDevice_9
        INC     R7
??bdb_TCAddJoiningDevice_9:
        LCALL   ??Subroutine40_0 & 0xFFFF
??CrossCallReturnLabel_66:
        JZ      ??bdb_TCAddJoiningDevice_10
//  531     {
//  532       tempJoiningDescNode = tempJoiningDescNode->nextDev;
        MOV     A,R0
        MOV     R6,A
        MOV     A,R1
        MOV     R7,A
//  533       
//  534       //Validate that this is not already in the list... somehow
//  535       if(osal_memcmp(JoiningExtAddr,tempJoiningDescNode->bdbJoiningNodeEui64,Z_EXTADDR_LEN))
        ; Setup parameters for call to function osal_memcmp
        MOV     DPL,R6
        MOV     DPH,R7
        INC     DPTR
        INC     DPTR
        MOV     R1,DPL
        MOV     R2,DPH
        MOV     ?V8,R1
        MOV     ?V9,R2
        MOV     R0,#?V8
        LCALL   ?PUSH_XSTACK_I_THREE
          CFI CFA_XSP16 add(XSP16, 31)
        MOV     R4,#0x8
        MOV     R5,#0x0
        MOV     R1,?V0
        MOV     R2,?V1
        MOV     R3,?V2
        LCALL   `??osal_memcmp::?relay`; Banked call to: osal_memcmp
        MOV     A,#0x3
        LCALL   ?DEALLOC_XSTACK8
          CFI CFA_XSP16 add(XSP16, 28)
        MOV     A,R1
        JZ      ??bdb_TCAddJoiningDevice_8
//  536       {
//  537         //The device added is already in the list, refresh its time and do nothing else
//  538         tempJoiningDescNode->NodeJoinTimeout = bdbAttributes.bdbTrustCenterNodeJoinTimeout;
??bdb_TCAddJoiningDevice_7:
        LCALL   ?Subroutine18 & 0xFFFF
//  539         return ZSuccess;
??CrossCallReturnLabel_16:
        LJMP    ??bdb_TCAddJoiningDevice_11 & 0xFFFF
//  540       }
//  541     }
//  542     
//  543     tempJoiningDescNode->nextDev = osal_mem_alloc(sizeof(bdb_joiningDeviceList_t));
??bdb_TCAddJoiningDevice_10:
        ; Setup parameters for call to function osal_mem_alloc
        MOV     R2,#0xd
        MOV     R3,#0x0
        LCALL   `??osal_mem_alloc::?relay`; Banked call to: osal_mem_alloc
        MOV     ?V4,R2
        MOV     ?V5,R3
        MOV     R0,?V4
        MOV     R1,?V5
        LCALL   ??Subroutine43_0 & 0xFFFF
//  544     if(tempJoiningDescNode->nextDev == NULL)
??CrossCallReturnLabel_77:
        JNZ     ??bdb_TCAddJoiningDevice_12
//  545     {
//  546       return ZFailure;
??bdb_TCAddJoiningDevice_5:
        MOV     R1,#0x1
        LJMP    ??bdb_TCAddJoiningDevice_3 & 0xFFFF
//  547     }
//  548     
//  549     tempJoiningDescNode = tempJoiningDescNode->nextDev;
??bdb_TCAddJoiningDevice_12:
        MOV     A,R0
        MOV     R6,A
        MOV     A,R1
??bdb_TCAddJoiningDevice_6:
        MOV     R7,A
//  550   }
//  551   
//  552   if(pfnTCLinkKeyExchangeProcessCB)
        MOV     A,R6
        ADD     A,#0x2
        MOV     ?V4,A
        CLR     A
        ADDC    A,R7
        MOV     ?V5,A
        MOV     DPTR,#pfnTCLinkKeyExchangeProcessCB
        LCALL   ??Subroutine41_0 & 0xFFFF
??CrossCallReturnLabel_55:
        JZ      ??bdb_TCAddJoiningDevice_13
//  553   {
//  554     bdb_TCLinkKeyExchProcess_t bdb_TCLinkKeyExchProcess;
//  555     osal_memcpy(bdb_TCLinkKeyExchProcess.extAddr,tempJoiningDescNode->bdbJoiningNodeEui64, Z_EXTADDR_LEN);
        ; Setup parameters for call to function osal_memcpy
        MOV     ?V8,?V4
        MOV     ?V9,?V5
        MOV     ?V10,#0x0
        MOV     R0,#?V8
        LCALL   ?PUSH_XSTACK_I_THREE
          CFI CFA_XSP16 add(XSP16, 31)
        MOV     R4,#0x8
        MOV     R5,#0x0
        MOV     A,#0x4
        LCALL   ?XSTACK_DISP0_8
        MOV     R2,DPL
        MOV     R3,DPH
        LCALL   `??osal_memcpy::?relay`; Banked call to: osal_memcpy
        MOV     A,#0x3
        LCALL   ?DEALLOC_XSTACK8
          CFI CFA_XSP16 add(XSP16, 28)
//  556     bdb_TCLinkKeyExchProcess.status = BDB_TC_LK_EXCH_PROCESS_JOINING;
        MOV     DPL,?XSP + 0
        MOV     DPH,?XSP + 1
        CLR     A
        MOVX    @DPTR,A
//  557     
//  558     bdb_SendMsg(bdb_TaskID, BDB_TC_LINK_KEY_EXCHANGE_PROCESS, BDB_MSG_EVENT_SUCCESS,sizeof(bdb_TCLinkKeyExchProcess_t),(uint8*)&bdb_TCLinkKeyExchProcess);
        ; Setup parameters for call to function bdb_SendMsg
        MOV     R0,?XSP + 0
        MOV     R1,?XSP + 1
        MOV     ?V8,R0
        MOV     ?V9,R1
        MOV     R0,#?V8
        LCALL   ?PUSH_XSTACK_I_TWO
          CFI CFA_XSP16 add(XSP16, 30)
        MOV     R4,#0x9
        MOV     R3,#0x0
        MOV     R2,#0x9
        MOV     DPTR,#bdb_TaskID
        MOVX    A,@DPTR
        MOV     R1,A
        LCALL   `??bdb_SendMsg::?relay`; Banked call to: bdb_SendMsg
        MOV     A,#0x2
        LCALL   ?DEALLOC_XSTACK8
          CFI CFA_XSP16 add(XSP16, 28)
//  559   }
//  560   
//  561   tempJoiningDescNode->nextDev = NULL;
??bdb_TCAddJoiningDevice_13:
        LCALL   ?Subroutine24 & 0xFFFF
??CrossCallReturnLabel_26:
        CLR     A
        MOVX    @DPTR,A
        INC     DPTR
        MOVX    @DPTR,A
//  562   tempJoiningDescNode->NodeJoinTimeout = bdbAttributes.bdbTrustCenterNodeJoinTimeout;
        LCALL   ?Subroutine18 & 0xFFFF
//  563   tempJoiningDescNode->parentAddr = parentAddr;
??CrossCallReturnLabel_17:
        MOV     DPL,R6
        MOV     DPH,R7
        MOV     A,?V6
        MOVX    @DPTR,A
        INC     DPTR
        MOV     A,?V7
        MOVX    @DPTR,A
//  564   osal_memcpy(tempJoiningDescNode->bdbJoiningNodeEui64, JoiningExtAddr, Z_EXTADDR_LEN);
        ; Setup parameters for call to function osal_memcpy
        MOV     R0,#?V0
        LCALL   ?PUSH_XSTACK_I_THREE
          CFI CFA_XSP16 add(XSP16, 31)
        MOV     R4,#0x8
        MOV     R5,#0x0
        MOV     R2,?V4
        MOV     R3,?V5
        LCALL   `??osal_memcpy::?relay`; Banked call to: osal_memcpy
        MOV     A,#0x3
        LCALL   ?DEALLOC_XSTACK8
          CFI CFA_XSP16 add(XSP16, 28)
//  565   
//  566   return ZSuccess;
??bdb_TCAddJoiningDevice_11:
        MOV     R1,#0x0
??bdb_TCAddJoiningDevice_3:
          CFI EndBlock cfiBlock11
        REQUIRE ?Subroutine4
        ; // Fall through to label ?Subroutine4
//  567 }

        RSEG BANKED_CODE:CODE:NOROOT(0)
?Subroutine4:
          CFI Block cfiBlock12 Using cfiCommon0
          CFI NoFunction
          CFI CFA_SP SP+0
          CFI CFA_XSP16 add(XSP16, 28)
          CFI VB load(1, XDATA, add(CFA_XSP16, literal(-18)))
          CFI DPL0 load(1, XDATA, add(CFA_XSP16, literal(-2)))
          CFI DPH0 load(1, XDATA, add(CFA_XSP16, literal(-1)))
          CFI R6 load(1, XDATA, add(CFA_XSP16, literal(-19)))
          CFI R7 load(1, XDATA, add(CFA_XSP16, literal(-6)))
          CFI V0 load(1, XDATA, add(CFA_XSP16, literal(-17)))
          CFI V1 load(1, XDATA, add(CFA_XSP16, literal(-16)))
          CFI V2 load(1, XDATA, add(CFA_XSP16, literal(-15)))
          CFI V3 load(1, XDATA, add(CFA_XSP16, literal(-14)))
          CFI V4 load(1, XDATA, add(CFA_XSP16, literal(-13)))
          CFI V5 load(1, XDATA, add(CFA_XSP16, literal(-12)))
          CFI V6 load(1, XDATA, add(CFA_XSP16, literal(-11)))
          CFI V7 load(1, XDATA, add(CFA_XSP16, literal(-10)))
          CFI V8 load(1, XDATA, add(CFA_XSP16, literal(-9)))
          CFI V9 load(1, XDATA, add(CFA_XSP16, literal(-8)))
          CFI V10 load(1, XDATA, add(CFA_XSP16, literal(-7)))
          CFI ?BRET_EXT load(1, XDATA, add(CFA_XSP16, literal(-3)))
          CFI ?RET_HIGH load(1, XDATA, add(CFA_XSP16, literal(-4)))
          CFI ?RET_LOW load(1, XDATA, add(CFA_XSP16, literal(-5)))
        MOV     A,#0x9
        LCALL   ?DEALLOC_XSTACK8
          CFI CFA_XSP16 add(XSP16, 19)
        MOV     R7,#0xb
        LJMP    ?BANKED_LEAVE_XDATA
          CFI EndBlock cfiBlock12

        RSEG BANKED_CODE:CODE:NOROOT(0)
?Subroutine18:
          CFI Block cfiCond13 Using cfiCommon0
          CFI Function bdb_TCAddJoiningDevice
          CFI Conditional ??CrossCallReturnLabel_16
          CFI R6 load(1, XDATA, add(CFA_XSP16, literal(-19)))
          CFI VB load(1, XDATA, add(CFA_XSP16, literal(-18)))
          CFI V0 load(1, XDATA, add(CFA_XSP16, literal(-17)))
          CFI V1 load(1, XDATA, add(CFA_XSP16, literal(-16)))
          CFI V2 load(1, XDATA, add(CFA_XSP16, literal(-15)))
          CFI V3 load(1, XDATA, add(CFA_XSP16, literal(-14)))
          CFI V4 load(1, XDATA, add(CFA_XSP16, literal(-13)))
          CFI V5 load(1, XDATA, add(CFA_XSP16, literal(-12)))
          CFI V6 load(1, XDATA, add(CFA_XSP16, literal(-11)))
          CFI V7 load(1, XDATA, add(CFA_XSP16, literal(-10)))
          CFI V8 load(1, XDATA, add(CFA_XSP16, literal(-9)))
          CFI V9 load(1, XDATA, add(CFA_XSP16, literal(-8)))
          CFI V10 load(1, XDATA, add(CFA_XSP16, literal(-7)))
          CFI R7 load(1, XDATA, add(CFA_XSP16, literal(-6)))
          CFI ?RET_LOW load(1, XDATA, add(CFA_XSP16, literal(-5)))
          CFI ?RET_HIGH load(1, XDATA, add(CFA_XSP16, literal(-4)))
          CFI ?BRET_EXT load(1, XDATA, add(CFA_XSP16, literal(-3)))
          CFI DPL0 load(1, XDATA, add(CFA_XSP16, literal(-2)))
          CFI DPH0 load(1, XDATA, add(CFA_XSP16, literal(-1)))
          CFI CFA_SP SP+-2
          CFI CFA_XSP16 add(XSP16, 28)
          CFI Block cfiCond14 Using cfiCommon0
          CFI (cfiCond14) Function bdb_TCAddJoiningDevice
          CFI (cfiCond14) Conditional ??CrossCallReturnLabel_17
          CFI (cfiCond14) R6 load(1, XDATA, add(CFA_XSP16, literal(-19)))
          CFI (cfiCond14) VB load(1, XDATA, add(CFA_XSP16, literal(-18)))
          CFI (cfiCond14) V0 load(1, XDATA, add(CFA_XSP16, literal(-17)))
          CFI (cfiCond14) V1 load(1, XDATA, add(CFA_XSP16, literal(-16)))
          CFI (cfiCond14) V2 load(1, XDATA, add(CFA_XSP16, literal(-15)))
          CFI (cfiCond14) V3 load(1, XDATA, add(CFA_XSP16, literal(-14)))
          CFI (cfiCond14) V4 load(1, XDATA, add(CFA_XSP16, literal(-13)))
          CFI (cfiCond14) V5 load(1, XDATA, add(CFA_XSP16, literal(-12)))
          CFI (cfiCond14) V6 load(1, XDATA, add(CFA_XSP16, literal(-11)))
          CFI (cfiCond14) V7 load(1, XDATA, add(CFA_XSP16, literal(-10)))
          CFI (cfiCond14) V8 load(1, XDATA, add(CFA_XSP16, literal(-9)))
          CFI (cfiCond14) V9 load(1, XDATA, add(CFA_XSP16, literal(-8)))
          CFI (cfiCond14) V10 load(1, XDATA, add(CFA_XSP16, literal(-7)))
          CFI (cfiCond14) R7 load(1, XDATA, add(CFA_XSP16, literal(-6)))
          CFI (cfiCond14) ?RET_LOW load(1, XDATA, add(CFA_XSP16, literal(-5)))
          CFI (cfiCond14) ?RET_HIGH load(1, XDATA, add(CFA_XSP16, literal(-4)))
          CFI (cfiCond14) ?BRET_EXT load(1, XDATA, add(CFA_XSP16, literal(-3)))
          CFI (cfiCond14) DPL0 load(1, XDATA, add(CFA_XSP16, literal(-2)))
          CFI (cfiCond14) DPH0 load(1, XDATA, add(CFA_XSP16, literal(-1)))
          CFI (cfiCond14) CFA_SP SP+-2
          CFI (cfiCond14) CFA_XSP16 add(XSP16, 28)
          CFI Block cfiPicker15 Using cfiCommon1
          CFI (cfiPicker15) NoFunction
          CFI (cfiPicker15) Picker
        MOV     DPTR,#bdbAttributes + 16
        MOVX    A,@DPTR
        MOV     DPL,R6
        MOV     DPH,R7
        INC     DPTR
        INC     DPTR
        INC     DPTR
        INC     DPTR
        INC     DPTR
        INC     DPTR
        INC     DPTR
        INC     DPTR
        INC     DPTR
        INC     DPTR
        MOVX    @DPTR,A
        RET
          CFI EndBlock cfiCond13
          CFI EndBlock cfiCond14
          CFI EndBlock cfiPicker15
//  568 
//  569 /****************************************************************************
//  570  * @fn          bdb_TCProcessJoiningList
//  571  *
//  572  * @brief       Process the timer to handle the joining devices if the TC link 
//  573  *              key is mandatory for all devices
//  574  *
//  575  * @param       none
//  576  *
//  577  * @return      none
//  578  */

        RSEG BANKED_CODE:CODE:NOROOT(0)
//  579 void bdb_TCProcessJoiningList(void)
bdb_TCProcessJoiningList:
          CFI Block cfiBlock16 Using cfiCommon0
          CFI Function bdb_TCProcessJoiningList
        CODE
//  580 {
        FUNCALL bdb_TCProcessJoiningList, osal_memcpy
        LOCFRAME ISTACK, 0, STACK
        LOCFRAME PSTACK, 0, STACK
        LOCFRAME XSTACK, 61, STACK
        LOCFRAME IOVERLAY, 0, STATIC
        LOCFRAME DOVERLAY, 0, STATIC
        ARGFRAME ISTACK, 0, STACK
        ARGFRAME PSTACK, 0, STACK
        ARGFRAME XSTACK, 61, STACK
        ARGFRAME IOVERLAY, 0, STATIC
        ARGFRAME DOVERLAY, 0, STATIC
        FUNCALL bdb_TCProcessJoiningList, AddrMgrEntryLookupExt
        LOCFRAME ISTACK, 0, STACK
        LOCFRAME PSTACK, 0, STACK
        LOCFRAME XSTACK, 58, STACK
        LOCFRAME IOVERLAY, 0, STATIC
        LOCFRAME DOVERLAY, 0, STATIC
        ARGFRAME ISTACK, 0, STACK
        ARGFRAME PSTACK, 0, STACK
        ARGFRAME XSTACK, 58, STACK
        ARGFRAME IOVERLAY, 0, STATIC
        ARGFRAME DOVERLAY, 0, STATIC
        FUNCALL bdb_TCProcessJoiningList, ZDSecMgrAPSRemove
        LOCFRAME ISTACK, 0, STACK
        LOCFRAME PSTACK, 0, STACK
        LOCFRAME XSTACK, 60, STACK
        LOCFRAME IOVERLAY, 0, STATIC
        LOCFRAME DOVERLAY, 0, STATIC
        ARGFRAME ISTACK, 0, STACK
        ARGFRAME PSTACK, 0, STACK
        ARGFRAME XSTACK, 60, STACK
        ARGFRAME IOVERLAY, 0, STATIC
        ARGFRAME DOVERLAY, 0, STATIC
        FUNCALL bdb_TCProcessJoiningList, ZDSecMgrAddrClear
        LOCFRAME ISTACK, 0, STACK
        LOCFRAME PSTACK, 0, STACK
        LOCFRAME XSTACK, 58, STACK
        LOCFRAME IOVERLAY, 0, STATIC
        LOCFRAME DOVERLAY, 0, STATIC
        ARGFRAME ISTACK, 0, STACK
        ARGFRAME PSTACK, 0, STACK
        ARGFRAME XSTACK, 58, STACK
        ARGFRAME IOVERLAY, 0, STATIC
        ARGFRAME DOVERLAY, 0, STATIC
        FUNCALL bdb_TCProcessJoiningList, APSME_SearchTCLinkKeyEntry
        LOCFRAME ISTACK, 0, STACK
        LOCFRAME PSTACK, 0, STACK
        LOCFRAME XSTACK, 60, STACK
        LOCFRAME IOVERLAY, 0, STATIC
        LOCFRAME DOVERLAY, 0, STATIC
        ARGFRAME ISTACK, 0, STACK
        ARGFRAME PSTACK, 0, STACK
        ARGFRAME XSTACK, 60, STACK
        ARGFRAME IOVERLAY, 0, STATIC
        ARGFRAME DOVERLAY, 0, STATIC
        FUNCALL bdb_TCProcessJoiningList, osal_memset
        LOCFRAME ISTACK, 0, STACK
        LOCFRAME PSTACK, 0, STACK
        LOCFRAME XSTACK, 58, STACK
        LOCFRAME IOVERLAY, 0, STATIC
        LOCFRAME DOVERLAY, 0, STATIC
        ARGFRAME ISTACK, 0, STACK
        ARGFRAME PSTACK, 0, STACK
        ARGFRAME XSTACK, 58, STACK
        ARGFRAME IOVERLAY, 0, STATIC
        ARGFRAME DOVERLAY, 0, STATIC
        FUNCALL bdb_TCProcessJoiningList, osal_nv_write
        LOCFRAME ISTACK, 0, STACK
        LOCFRAME PSTACK, 0, STACK
        LOCFRAME XSTACK, 62, STACK
        LOCFRAME IOVERLAY, 0, STATIC
        LOCFRAME DOVERLAY, 0, STATIC
        ARGFRAME ISTACK, 0, STACK
        ARGFRAME PSTACK, 0, STACK
        ARGFRAME XSTACK, 62, STACK
        ARGFRAME IOVERLAY, 0, STATIC
        ARGFRAME DOVERLAY, 0, STATIC
        FUNCALL bdb_TCProcessJoiningList, osal_memcpy
        LOCFRAME ISTACK, 0, STACK
        LOCFRAME PSTACK, 0, STACK
        LOCFRAME XSTACK, 61, STACK
        LOCFRAME IOVERLAY, 0, STATIC
        LOCFRAME DOVERLAY, 0, STATIC
        ARGFRAME ISTACK, 0, STACK
        ARGFRAME PSTACK, 0, STACK
        ARGFRAME XSTACK, 61, STACK
        ARGFRAME IOVERLAY, 0, STATIC
        ARGFRAME DOVERLAY, 0, STATIC
        FUNCALL bdb_TCProcessJoiningList, bdb_SendMsg
        LOCFRAME ISTACK, 0, STACK
        LOCFRAME PSTACK, 0, STACK
        LOCFRAME XSTACK, 60, STACK
        LOCFRAME IOVERLAY, 0, STATIC
        LOCFRAME DOVERLAY, 0, STATIC
        ARGFRAME ISTACK, 0, STACK
        ARGFRAME PSTACK, 0, STACK
        ARGFRAME XSTACK, 60, STACK
        ARGFRAME IOVERLAY, 0, STATIC
        ARGFRAME DOVERLAY, 0, STATIC
        FUNCALL bdb_TCProcessJoiningList, bdb_TCJoiningDeviceFree
        LOCFRAME ISTACK, 0, STACK
        LOCFRAME PSTACK, 0, STACK
        LOCFRAME XSTACK, 58, STACK
        LOCFRAME IOVERLAY, 0, STATIC
        LOCFRAME DOVERLAY, 0, STATIC
        ARGFRAME ISTACK, 0, STACK
        ARGFRAME PSTACK, 0, STACK
        ARGFRAME XSTACK, 58, STACK
        ARGFRAME IOVERLAY, 0, STATIC
        ARGFRAME DOVERLAY, 0, STATIC
        FUNCALL bdb_TCProcessJoiningList, osal_stop_timerEx
        LOCFRAME ISTACK, 0, STACK
        LOCFRAME PSTACK, 0, STACK
        LOCFRAME XSTACK, 58, STACK
        LOCFRAME IOVERLAY, 0, STATIC
        LOCFRAME DOVERLAY, 0, STATIC
        ARGFRAME ISTACK, 0, STACK
        ARGFRAME PSTACK, 0, STACK
        ARGFRAME XSTACK, 58, STACK
        ARGFRAME IOVERLAY, 0, STATIC
        ARGFRAME DOVERLAY, 0, STATIC
        REQUIRE ?V0
        REQUIRE ?V1
        REQUIRE ?V2
        REQUIRE ?V4
        REQUIRE ?V5
        REQUIRE ?V6
        REQUIRE ?V7
        MOV     A,#-0x10
        LCALL   ?BANKED_ENTER_XDATA
          CFI DPH0 load(1, XDATA, add(CFA_XSP16, literal(-1)))
          CFI DPL0 load(1, XDATA, add(CFA_XSP16, literal(-2)))
          CFI ?BRET_EXT load(1, XDATA, add(CFA_XSP16, literal(-3)))
          CFI ?RET_HIGH load(1, XDATA, add(CFA_XSP16, literal(-4)))
          CFI ?RET_LOW load(1, XDATA, add(CFA_XSP16, literal(-5)))
          CFI R7 load(1, XDATA, add(CFA_XSP16, literal(-6)))
          CFI V7 load(1, XDATA, add(CFA_XSP16, literal(-7)))
          CFI V6 load(1, XDATA, add(CFA_XSP16, literal(-8)))
          CFI V5 load(1, XDATA, add(CFA_XSP16, literal(-9)))
          CFI V4 load(1, XDATA, add(CFA_XSP16, literal(-10)))
          CFI V3 load(1, XDATA, add(CFA_XSP16, literal(-11)))
          CFI V2 load(1, XDATA, add(CFA_XSP16, literal(-12)))
          CFI V1 load(1, XDATA, add(CFA_XSP16, literal(-13)))
          CFI V0 load(1, XDATA, add(CFA_XSP16, literal(-14)))
          CFI VB load(1, XDATA, add(CFA_XSP16, literal(-15)))
          CFI R6 load(1, XDATA, add(CFA_XSP16, literal(-16)))
          CFI CFA_SP SP+0
          CFI CFA_XSP16 add(XSP16, 16)
        ; Saved register size: 16
        ; Auto size: 42
        MOV     A,#-0x2a
        LCALL   ?ALLOC_XSTACK8
          CFI CFA_XSP16 add(XSP16, 58)
//  581   bdb_joiningDeviceList_t* tempJoiningDescNode;
//  582   
//  583   if(bdb_joiningDeviceList)
        MOV     DPTR,#bdb_joiningDeviceList
        LCALL   ??Subroutine41_0 & 0xFFFF
??CrossCallReturnLabel_56:
        JNZ     $+5
        LJMP    ??bdb_TCProcessJoiningList_0 & 0xFFFF
//  584   {
//  585     tempJoiningDescNode = bdb_joiningDeviceList;
        MOV     DPTR,#bdb_joiningDeviceList
        MOVX    A,@DPTR
        MOV     ?V4,A
        INC     DPTR
        MOVX    A,@DPTR
        MOV     ?V5,A
//  586   
//  587     while(tempJoiningDescNode)
//  588     {
//  589       if(tempJoiningDescNode->NodeJoinTimeout)
??bdb_TCProcessJoiningList_1:
        MOV     A,?V4
        ADD     A,#0xa
        MOV     DPL,A
        CLR     A
        ADDC    A,?V5
        MOV     DPH,A
        MOVX    A,@DPTR
        JZ      ??bdb_TCProcessJoiningList_2
//  590       {
//  591         tempJoiningDescNode->NodeJoinTimeout--;
        DEC     A
        MOVX    @DPTR,A
//  592       }
//  593       
//  594       if(tempJoiningDescNode->NodeJoinTimeout == 0)
        JZ      $+5
        LJMP    ??bdb_TCProcessJoiningList_3 & 0xFFFF
//  595       {
//  596         //Check if the key exchange is required 
//  597         if(bdbAttributes.bdbTrustCenterRequireKeyExchange)
??bdb_TCProcessJoiningList_2:
        MOV     A,?V4
        ADD     A,#0x2
        MOV     R6,A
        CLR     A
        ADDC    A,?V5
        MOV     R7,A
        MOV     ?V0,R6
        MOV     ?V1,R7
        MOV     ?V2,#0x0
        MOV     DPTR,#bdbAttributes + 17
        MOVX    A,@DPTR
        JZ      ??bdb_TCProcessJoiningList_4
//  598         {
//  599             AddrMgrEntry_t entry;
//  600             
//  601             entry.user = ADDRMGR_USER_DEFAULT;
        MOV     A,#0xa
        LCALL   ?XSTACK_DISP0_8
        CLR     A
        MOVX    @DPTR,A
//  602             osal_memcpy(entry.extAddr,tempJoiningDescNode->bdbJoiningNodeEui64, Z_EXTADDR_LEN);
        ; Setup parameters for call to function osal_memcpy
        MOV     R0,#?V0
        LCALL   ?PUSH_XSTACK_I_THREE
          CFI CFA_XSP16 add(XSP16, 61)
        MOV     R4,#0x8
        MOV     R5,#0x0
        MOV     A,#0x10
        LCALL   ?XSTACK_DISP0_8
        MOV     R2,DPL
        MOV     R3,DPH
        LCALL   `??osal_memcpy::?relay`; Banked call to: osal_memcpy
        MOV     A,#0x3
        LCALL   ?DEALLOC_XSTACK8
          CFI CFA_XSP16 add(XSP16, 58)
//  603             
//  604             if(AddrMgrEntryLookupExt(&entry))
        ; Setup parameters for call to function AddrMgrEntryLookupExt
        MOV     A,#0xa
        LCALL   ?XSTACK_DISP101_8
        LCALL   `??AddrMgrEntryLookupExt::?relay`; Banked call to: AddrMgrEntryLookupExt
        MOV     A,R1
        JZ      ??bdb_TCProcessJoiningList_4
//  605             {
//  606               ZDSecMgrAPSRemove(entry.nwkAddr,entry.extAddr,tempJoiningDescNode->parentAddr);
        ; Setup parameters for call to function ZDSecMgrAPSRemove
        MOV     DPL,?V4
        MOV     DPH,?V5
        LCALL   ?PUSH_XSTACK8_X_TWO
          CFI CFA_XSP16 add(XSP16, 60)
        MOV     A,#0xf
        LCALL   ?XSTACK_DISP0_8
        MOV     R4,DPL
        MOV     R5,DPH
        MOV     A,#0xd
        LCALL   ?XSTACK_DISP0_8
        LCALL   ??Subroutine45_0 & 0xFFFF
//  607             }
//  608         }
??CrossCallReturnLabel_82:
        LCALL   `??ZDSecMgrAPSRemove::?relay`; Banked call to: ZDSecMgrAPSRemove
        MOV     A,#0x2
        LCALL   ?DEALLOC_XSTACK8
          CFI CFA_XSP16 add(XSP16, 58)
//  609         
//  610         //Expired device either is legacy device not using the TCLK entry or got 
//  611         //removed from the network because of timeout, eitherway it is not using
//  612         //TCLK entry neither the Security user in the address manager, so free the entry
//  613         //in both tables.
//  614         
//  615         uint16 keyNvIndex;
//  616         APSME_TCLKDevEntry_t TCLKDevEntry;
//  617         uint8 found, index;
//  618         
//  619         //Remove the entry in address manager
//  620         ZDSecMgrAddrClear(tempJoiningDescNode->bdbJoiningNodeEui64);
??bdb_TCProcessJoiningList_4:
        ; Setup parameters for call to function ZDSecMgrAddrClear
        MOV     A,R6
        MOV     R2,A
        MOV     A,R7
        MOV     R3,A
        LCALL   `??ZDSecMgrAddrClear::?relay`; Banked call to: ZDSecMgrAddrClear
//  621         
//  622         //search for the entry in the TCLK table
//  623         keyNvIndex = APSME_SearchTCLinkKeyEntry(tempJoiningDescNode->bdbJoiningNodeEui64,&found, NULL);
        ; Setup parameters for call to function APSME_SearchTCLinkKeyEntry
        CLR     A
        MOV     ?V6,A
        MOV     ?V7,A
        MOV     R0,#?V6
        LCALL   ?PUSH_XSTACK_I_TWO
          CFI CFA_XSP16 add(XSP16, 60)
        MOV     A,#0x2
        LCALL   ?XSTACK_DISP102_8
        MOV     A,R6
        MOV     R2,A
        MOV     A,R7
        MOV     R3,A
        LCALL   `??APSME_SearchTCLinkKeyEntry::?relay`; Banked call to: APSME_SearchTCLinkKeyEntry
        MOV     A,#0x2
        LCALL   ?DEALLOC_XSTACK8
          CFI CFA_XSP16 add(XSP16, 58)
        MOV     ?V6,R2
        MOV     ?V7,R3
        MOV     R6,?V6
        MOV     R7,?V7
//  624         
//  625         //If found, erase it.
//  626         if(found == TRUE)
        MOV     DPL,?XSP + 0
        MOV     DPH,?XSP + 1
        MOVX    A,@DPTR
        XRL     A,#0x1
        JNZ     ??bdb_TCProcessJoiningList_5
//  627         {
//  628           osal_memset(&TCLKDevEntry,0,sizeof(APSME_TCLKDevEntry_t));
        ; Setup parameters for call to function osal_memset
        MOV     R4,#0x13
        MOV     R5,#0x0
        MOV     R1,#0x0
        MOV     A,#0x17
        LCALL   ?XSTACK_DISP101_8
        LCALL   `??osal_memset::?relay`; Banked call to: osal_memset
//  629           TCLKDevEntry.keyAttributes = ZG_DEFAULT_KEY;
        MOV     A,#0x27
        LCALL   ?XSTACK_DISP0_8
        MOV     A,#-0x1
        MOVX    @DPTR,A
//  630           
//  631           //Increase the shift by one. Validate the maximum shift of the seed which is 15
//  632           index = keyNvIndex - ZCD_NV_TCLK_TABLE_START;
        MOV     A,R6
        ADD     A,#-0x11
        MOV     R0,A
//  633           
//  634           TCLinkKeyFrmCntr[index].rxFrmCntr = 0;
        MOV     B,#0x9
        MUL     AB
        MOV     R0,A
        MOV     R1,B
        MOV     A,#TCLinkKeyFrmCntr & 0xff
        ADD     A,R0
        MOV     ?V6,A
        MOV     A,#(TCLinkKeyFrmCntr >> 8) & 0xff
        ADDC    A,R1
        MOV     ?V7,A
        MOV     DPL,?V6
        MOV     DPH,A
        INC     DPTR
        INC     DPTR
        INC     DPTR
        INC     DPTR
        LCALL   ?Subroutine8 & 0xFFFF
//  635           TCLinkKeyFrmCntr[index].txFrmCntr = 0;
??CrossCallReturnLabel_43:
        MOV     DPL,?V6
        MOV     DPH,?V7
        LCALL   ??Subroutine33_0 & 0xFFFF
//  636           
//  637           //Update the entry
//  638           osal_nv_write(keyNvIndex,0,sizeof(APSME_TCLKDevEntry_t), &TCLKDevEntry );
??CrossCallReturnLabel_41:
        ; Setup parameters for call to function osal_nv_write
        MOV     A,#0x17
        LCALL   ?XSTACK_DISP100_8
        MOV     ?V6,R0
        MOV     ?V7,R1
        MOV     R0,#?V6
        LCALL   ?PUSH_XSTACK_I_TWO
          CFI CFA_XSP16 add(XSP16, 60)
        MOV     ?V6,#0x13
        MOV     ?V7,#0x0
        MOV     R0,#?V6
        LCALL   ?PUSH_XSTACK_I_TWO
          CFI CFA_XSP16 add(XSP16, 62)
        MOV     R4,#0x0
        MOV     R5,#0x0
        MOV     A,R6
        MOV     R2,A
        MOV     A,R7
        MOV     R3,A
        LCALL   `??osal_nv_write::?relay`; Banked call to: osal_nv_write
        MOV     A,#0x4
        LCALL   ?DEALLOC_XSTACK8
          CFI CFA_XSP16 add(XSP16, 58)
//  639         }
//  640         
//  641         if(pfnTCLinkKeyExchangeProcessCB)
??bdb_TCProcessJoiningList_5:
        MOV     DPTR,#pfnTCLinkKeyExchangeProcessCB
        LCALL   ??Subroutine41_0 & 0xFFFF
??CrossCallReturnLabel_57:
        JZ      ??bdb_TCProcessJoiningList_6
//  642         {
//  643           bdb_TCLinkKeyExchProcess_t bdb_TCLinkKeyExchProcess;
//  644           osal_memcpy(bdb_TCLinkKeyExchProcess.extAddr,tempJoiningDescNode->bdbJoiningNodeEui64, Z_EXTADDR_LEN);
        ; Setup parameters for call to function osal_memcpy
        MOV     R0,#?V0
        LCALL   ?PUSH_XSTACK_I_THREE
          CFI CFA_XSP16 add(XSP16, 61)
        MOV     R4,#0x8
        MOV     R5,#0x0
        MOV     A,#0x5
        LCALL   ?XSTACK_DISP0_8
        MOV     R2,DPL
        MOV     R3,DPH
        LCALL   `??osal_memcpy::?relay`; Banked call to: osal_memcpy
        MOV     A,#0x3
        LCALL   ?DEALLOC_XSTACK8
          CFI CFA_XSP16 add(XSP16, 58)
//  645           bdb_TCLinkKeyExchProcess.status = BDB_TC_LK_EXCH_PROCESS_EXCH_FAIL;
        MOV     A,#0x1
        LCALL   ?XSTACK_DISP0_8
        MOV     A,#0x2
        MOVX    @DPTR,A
//  646           
//  647           bdb_SendMsg(bdb_TaskID, BDB_TC_LINK_KEY_EXCHANGE_PROCESS, BDB_MSG_EVENT_SUCCESS,sizeof(bdb_TCLinkKeyExchProcess_t),(uint8*)&bdb_TCLinkKeyExchProcess);
        ; Setup parameters for call to function bdb_SendMsg
        DEC     A
        LCALL   ?XSTACK_DISP100_8
        MOV     ?V0,R0
        MOV     ?V1,R1
        MOV     R0,#?V0
        LCALL   ?PUSH_XSTACK_I_TWO
          CFI CFA_XSP16 add(XSP16, 60)
        MOV     R4,#0x9
        MOV     R3,#0x0
        MOV     R2,#0x9
        MOV     DPTR,#bdb_TaskID
        MOVX    A,@DPTR
        MOV     R1,A
        LCALL   `??bdb_SendMsg::?relay`; Banked call to: bdb_SendMsg
        MOV     A,#0x2
        LCALL   ?DEALLOC_XSTACK8
          CFI CFA_XSP16 add(XSP16, 58)
//  648         }
//  649        
//  650         //Free the device from the list
//  651         bdb_TCJoiningDeviceFree(tempJoiningDescNode);
??bdb_TCProcessJoiningList_6:
        ; Setup parameters for call to function bdb_TCJoiningDeviceFree
        MOV     R2,?V4
        MOV     R3,?V5
        LCALL   `??bdb_TCJoiningDeviceFree::?relay`; Banked call to: bdb_TCJoiningDeviceFree
//  652       }
//  653       tempJoiningDescNode = tempJoiningDescNode->nextDev;
??bdb_TCProcessJoiningList_3:
        MOV     A,?V4
        ADD     A,#0xb
        MOV     DPL,A
        CLR     A
        ADDC    A,?V5
        MOV     DPH,A
        MOVX    A,@DPTR
        MOV     ?V4,A
        INC     DPTR
        MOVX    A,@DPTR
        MOV     ?V5,A
//  654     }
        MOV     A,?V4
        ORL     A,?V5
        JZ      $+5
        LJMP    ??bdb_TCProcessJoiningList_1 & 0xFFFF
//  655   }
//  656 
//  657   //we are done with the list
//  658   if(bdb_joiningDeviceList == NULL)
        MOV     DPTR,#bdb_joiningDeviceList
        LCALL   ??Subroutine41_0 & 0xFFFF
??CrossCallReturnLabel_58:
        JNZ     ??bdb_TCProcessJoiningList_7
//  659   {
//  660     osal_stop_timerEx(bdb_TaskID,BDB_TC_JOIN_TIMEOUT);
??bdb_TCProcessJoiningList_0:
        ; Setup parameters for call to function osal_stop_timerEx
        MOV     R2,#0x0
        MOV     R3,#0x8
        MOV     DPTR,#bdb_TaskID
        MOVX    A,@DPTR
        MOV     R1,A
        LCALL   `??osal_stop_timerEx::?relay`; Banked call to: osal_stop_timerEx
//  661   }
//  662 }
??bdb_TCProcessJoiningList_7:
        MOV     A,#0x2a
          CFI EndBlock cfiBlock16
        REQUIRE ?Subroutine5
        ; // Fall through to label ?Subroutine5

        RSEG BANKED_CODE:CODE:NOROOT(0)
?Subroutine5:
          CFI Block cfiBlock17 Using cfiCommon0
          CFI NoFunction
          CFI CFA_SP SP+0
          CFI CFA_XSP16 add(XSP16, 58)
          CFI VB load(1, XDATA, add(CFA_XSP16, literal(-15)))
          CFI DPL0 load(1, XDATA, add(CFA_XSP16, literal(-2)))
          CFI DPH0 load(1, XDATA, add(CFA_XSP16, literal(-1)))
          CFI R6 load(1, XDATA, add(CFA_XSP16, literal(-16)))
          CFI R7 load(1, XDATA, add(CFA_XSP16, literal(-6)))
          CFI V0 load(1, XDATA, add(CFA_XSP16, literal(-14)))
          CFI V1 load(1, XDATA, add(CFA_XSP16, literal(-13)))
          CFI V2 load(1, XDATA, add(CFA_XSP16, literal(-12)))
          CFI V3 load(1, XDATA, add(CFA_XSP16, literal(-11)))
          CFI V4 load(1, XDATA, add(CFA_XSP16, literal(-10)))
          CFI V5 load(1, XDATA, add(CFA_XSP16, literal(-9)))
          CFI V6 load(1, XDATA, add(CFA_XSP16, literal(-8)))
          CFI V7 load(1, XDATA, add(CFA_XSP16, literal(-7)))
          CFI ?BRET_EXT load(1, XDATA, add(CFA_XSP16, literal(-3)))
          CFI ?RET_HIGH load(1, XDATA, add(CFA_XSP16, literal(-4)))
          CFI ?RET_LOW load(1, XDATA, add(CFA_XSP16, literal(-5)))
          CFI Invalid
        LCALL   ?DEALLOC_XSTACK8
          CFI CFA_XSP16 add(XSP16, 16)
          CFI Valid
        MOV     R7,#0x8
        LJMP    ?BANKED_LEAVE_XDATA
          CFI EndBlock cfiBlock17
//  663 
//  664 
//  665 
//  666 /****************************************************************************
//  667  * @fn          bdb_TCjoiningDeviceComplete
//  668  *
//  669  * @brief       This function frees a joining device from the list that has 
//  670  *              finished TC link key exchange process
//  671  *
//  672  * @param       JoiningExtAddr - Extended address of the device
//  673  *
//  674  * @return      none
//  675  */

        RSEG BANKED_CODE:CODE:NOROOT(0)
//  676 void bdb_TCjoiningDeviceComplete(uint8* JoiningExtAddr)
bdb_TCjoiningDeviceComplete:
          CFI Block cfiBlock18 Using cfiCommon0
          CFI Function bdb_TCjoiningDeviceComplete
        CODE
//  677 {
        FUNCALL bdb_TCjoiningDeviceComplete, osal_memcmp
        LOCFRAME ISTACK, 0, STACK
        LOCFRAME PSTACK, 0, STACK
        LOCFRAME XSTACK, 31, STACK
        LOCFRAME IOVERLAY, 0, STATIC
        LOCFRAME DOVERLAY, 0, STATIC
        ARGFRAME ISTACK, 0, STACK
        ARGFRAME PSTACK, 0, STACK
        ARGFRAME XSTACK, 31, STACK
        ARGFRAME IOVERLAY, 0, STATIC
        ARGFRAME DOVERLAY, 0, STATIC
        FUNCALL bdb_TCjoiningDeviceComplete, osal_memcpy
        LOCFRAME ISTACK, 0, STACK
        LOCFRAME PSTACK, 0, STACK
        LOCFRAME XSTACK, 31, STACK
        LOCFRAME IOVERLAY, 0, STATIC
        LOCFRAME DOVERLAY, 0, STATIC
        ARGFRAME ISTACK, 0, STACK
        ARGFRAME PSTACK, 0, STACK
        ARGFRAME XSTACK, 31, STACK
        ARGFRAME IOVERLAY, 0, STATIC
        ARGFRAME DOVERLAY, 0, STATIC
        FUNCALL bdb_TCjoiningDeviceComplete, bdb_SendMsg
        LOCFRAME ISTACK, 0, STACK
        LOCFRAME PSTACK, 0, STACK
        LOCFRAME XSTACK, 30, STACK
        LOCFRAME IOVERLAY, 0, STATIC
        LOCFRAME DOVERLAY, 0, STATIC
        ARGFRAME ISTACK, 0, STACK
        ARGFRAME PSTACK, 0, STACK
        ARGFRAME XSTACK, 30, STACK
        ARGFRAME IOVERLAY, 0, STATIC
        ARGFRAME DOVERLAY, 0, STATIC
        FUNCALL bdb_TCjoiningDeviceComplete, bdb_TCJoiningDeviceFree
        LOCFRAME ISTACK, 0, STACK
        LOCFRAME PSTACK, 0, STACK
        LOCFRAME XSTACK, 28, STACK
        LOCFRAME IOVERLAY, 0, STATIC
        LOCFRAME DOVERLAY, 0, STATIC
        ARGFRAME ISTACK, 0, STACK
        ARGFRAME PSTACK, 0, STACK
        ARGFRAME XSTACK, 28, STACK
        ARGFRAME IOVERLAY, 0, STATIC
        ARGFRAME DOVERLAY, 0, STATIC
        FUNCALL bdb_TCjoiningDeviceComplete, osal_stop_timerEx
        LOCFRAME ISTACK, 0, STACK
        LOCFRAME PSTACK, 0, STACK
        LOCFRAME XSTACK, 28, STACK
        LOCFRAME IOVERLAY, 0, STATIC
        LOCFRAME DOVERLAY, 0, STATIC
        ARGFRAME ISTACK, 0, STACK
        ARGFRAME PSTACK, 0, STACK
        ARGFRAME XSTACK, 28, STACK
        ARGFRAME IOVERLAY, 0, STATIC
        ARGFRAME DOVERLAY, 0, STATIC
        REQUIRE ?V0
        REQUIRE ?V1
        REQUIRE ?V4
        REQUIRE ?V5
        REQUIRE ?V6
        REQUIRE ?V8
        REQUIRE ?V9
        REQUIRE ?V10
        MOV     A,#-0x13
        LCALL   ?BANKED_ENTER_XDATA
          CFI DPH0 load(1, XDATA, add(CFA_XSP16, literal(-1)))
          CFI DPL0 load(1, XDATA, add(CFA_XSP16, literal(-2)))
          CFI ?BRET_EXT load(1, XDATA, add(CFA_XSP16, literal(-3)))
          CFI ?RET_HIGH load(1, XDATA, add(CFA_XSP16, literal(-4)))
          CFI ?RET_LOW load(1, XDATA, add(CFA_XSP16, literal(-5)))
          CFI R7 load(1, XDATA, add(CFA_XSP16, literal(-6)))
          CFI V10 load(1, XDATA, add(CFA_XSP16, literal(-7)))
          CFI V9 load(1, XDATA, add(CFA_XSP16, literal(-8)))
          CFI V8 load(1, XDATA, add(CFA_XSP16, literal(-9)))
          CFI V7 load(1, XDATA, add(CFA_XSP16, literal(-10)))
          CFI V6 load(1, XDATA, add(CFA_XSP16, literal(-11)))
          CFI V5 load(1, XDATA, add(CFA_XSP16, literal(-12)))
          CFI V4 load(1, XDATA, add(CFA_XSP16, literal(-13)))
          CFI V3 load(1, XDATA, add(CFA_XSP16, literal(-14)))
          CFI V2 load(1, XDATA, add(CFA_XSP16, literal(-15)))
          CFI V1 load(1, XDATA, add(CFA_XSP16, literal(-16)))
          CFI V0 load(1, XDATA, add(CFA_XSP16, literal(-17)))
          CFI VB load(1, XDATA, add(CFA_XSP16, literal(-18)))
          CFI R6 load(1, XDATA, add(CFA_XSP16, literal(-19)))
          CFI CFA_SP SP+0
          CFI CFA_XSP16 add(XSP16, 19)
        ; Saved register size: 19
        ; Auto size: 9
        MOV     A,#-0x9
        LCALL   ?ALLOC_XSTACK8
          CFI CFA_XSP16 add(XSP16, 28)
        MOV     ?V0,R2
        MOV     ?V1,R3
//  678   bdb_joiningDeviceList_t* tempJoiningDescNode;
//  679   
//  680   if((bdb_joiningDeviceList != NULL) && (JoiningExtAddr != NULL))
        MOV     DPTR,#bdb_joiningDeviceList
        LCALL   ??Subroutine41_0 & 0xFFFF
??CrossCallReturnLabel_59:
        JNZ     $+5
        LJMP    ??bdb_TCjoiningDeviceComplete_0 & 0xFFFF
        MOV     A,R2
        ORL     A,?V1
        JNZ     $+5
        LJMP    ??bdb_TCjoiningDeviceComplete_0 & 0xFFFF
//  681   {
//  682     tempJoiningDescNode = bdb_joiningDeviceList;
        LCALL   ?Subroutine28 & 0xFFFF
??CrossCallReturnLabel_81:
        MOV     DPL,R6
        MOV     DPH,R7
        INC     DPTR
        INC     DPTR
        MOV     R1,DPL
        MOV     R2,DPH
        MOV     ?V4,R1
        MOV     ?V5,R2
        MOV     ?V6,#0x0
        ; Setup parameters for call to function osal_memcmp
        MOV     ?V8,?V0
        MOV     ?V9,?V1
        MOV     ?V10,#0x0
        MOV     R0,#?V8
        LCALL   ?PUSH_XSTACK_I_THREE
          CFI CFA_XSP16 add(XSP16, 31)
        MOV     R4,#0x8
        MOV     R5,#0x0
        MOV     R3,?V6
//  683     
//  684     while(tempJoiningDescNode != NULL)
//  685     {
//  686       if(osal_memcmp(tempJoiningDescNode->bdbJoiningNodeEui64,JoiningExtAddr,Z_EXTADDR_LEN))
        LCALL   `??osal_memcmp::?relay`; Banked call to: osal_memcmp
        MOV     A,#0x3
        LCALL   ?DEALLOC_XSTACK8
          CFI CFA_XSP16 add(XSP16, 28)
        MOV     A,R1
        JZ      ??bdb_TCjoiningDeviceComplete_1
//  687       {
//  688         if(pfnTCLinkKeyExchangeProcessCB)
        MOV     DPTR,#pfnTCLinkKeyExchangeProcessCB
        LCALL   ??Subroutine41_0 & 0xFFFF
??CrossCallReturnLabel_60:
        JZ      ??bdb_TCjoiningDeviceComplete_2
//  689         {
//  690           bdb_TCLinkKeyExchProcess_t bdb_TCLinkKeyExchProcess;
//  691           osal_memcpy(bdb_TCLinkKeyExchProcess.extAddr,tempJoiningDescNode->bdbJoiningNodeEui64, Z_EXTADDR_LEN);
        ; Setup parameters for call to function osal_memcpy
        MOV     R0,#?V4
        LCALL   ?PUSH_XSTACK_I_THREE
          CFI CFA_XSP16 add(XSP16, 31)
        MOV     R4,#0x8
        MOV     R5,#0x0
        MOV     A,#0x4
        LCALL   ?XSTACK_DISP0_8
        MOV     R2,DPL
        MOV     R3,DPH
        LCALL   `??osal_memcpy::?relay`; Banked call to: osal_memcpy
        MOV     A,#0x3
        LCALL   ?DEALLOC_XSTACK8
          CFI CFA_XSP16 add(XSP16, 28)
//  692           bdb_TCLinkKeyExchProcess.status = BDB_TC_LK_EXCH_PROCESS_EXCH_SUCCESS;
        LCALL   ?Subroutine7 & 0xFFFF
//  693           
//  694           bdb_SendMsg(bdb_TaskID, BDB_TC_LINK_KEY_EXCHANGE_PROCESS, BDB_MSG_EVENT_SUCCESS,sizeof(bdb_TCLinkKeyExchProcess_t),(uint8*)&bdb_TCLinkKeyExchProcess);
//  695         }        
??CrossCallReturnLabel_36:
        LCALL   ?PUSH_XSTACK_I_TWO
          CFI CFA_XSP16 add(XSP16, 30)
        MOV     R4,#0x9
        MOV     R3,#0x0
        MOV     R2,#0x9
        MOV     DPTR,#bdb_TaskID
        MOVX    A,@DPTR
        MOV     R1,A
        LCALL   `??bdb_SendMsg::?relay`; Banked call to: bdb_SendMsg
        MOV     A,#0x2
        LCALL   ?DEALLOC_XSTACK8
          CFI CFA_XSP16 add(XSP16, 28)
//  696         
//  697         bdb_TCJoiningDeviceFree(tempJoiningDescNode);
??bdb_TCjoiningDeviceComplete_2:
        ; Setup parameters for call to function bdb_TCJoiningDeviceFree
        MOV     A,R6
        MOV     R2,A
        MOV     A,R7
        MOV     R3,A
        LCALL   `??bdb_TCJoiningDeviceFree::?relay`; Banked call to: bdb_TCJoiningDeviceFree
//  698         break;
        SJMP    ??bdb_TCjoiningDeviceComplete_3
//  699       }
//  700       tempJoiningDescNode = tempJoiningDescNode->nextDev;
??bdb_TCjoiningDeviceComplete_1:
        LCALL   ?Subroutine24 & 0xFFFF
//  701     }
??CrossCallReturnLabel_27:
        LCALL   ??Subroutine44_0 & 0xFFFF
??CrossCallReturnLabel_78:
        MOV     A,R6
        ORL     A,R7
        JNZ     ??CrossCallReturnLabel_81
//  702    
//  703     if(bdb_joiningDeviceList == NULL)
??bdb_TCjoiningDeviceComplete_3:
        MOV     DPTR,#bdb_joiningDeviceList
        LCALL   ??Subroutine41_0 & 0xFFFF
??CrossCallReturnLabel_61:
        JNZ     ??bdb_TCjoiningDeviceComplete_0
//  704     {
//  705       osal_stop_timerEx(bdb_TaskID,BDB_TC_JOIN_TIMEOUT);
        ; Setup parameters for call to function osal_stop_timerEx
        MOV     R2,#0x0
        MOV     R3,#0x8
        MOV     DPTR,#bdb_TaskID
        MOVX    A,@DPTR
        MOV     R1,A
        LCALL   `??osal_stop_timerEx::?relay`; Banked call to: osal_stop_timerEx
//  706     }
//  707   }
//  708 }
??bdb_TCjoiningDeviceComplete_0:
        LJMP    ?Subroutine4 & 0xFFFF
          CFI EndBlock cfiBlock18

        RSEG BANKED_CODE:CODE:NOROOT(0)
?Subroutine24:
          CFI Block cfiCond19 Using cfiCommon0
          CFI Function bdb_TCAddJoiningDevice
          CFI Conditional ??CrossCallReturnLabel_26
          CFI R6 load(1, XDATA, add(CFA_XSP16, literal(-19)))
          CFI VB load(1, XDATA, add(CFA_XSP16, literal(-18)))
          CFI V0 load(1, XDATA, add(CFA_XSP16, literal(-17)))
          CFI V1 load(1, XDATA, add(CFA_XSP16, literal(-16)))
          CFI V2 load(1, XDATA, add(CFA_XSP16, literal(-15)))
          CFI V3 load(1, XDATA, add(CFA_XSP16, literal(-14)))
          CFI V4 load(1, XDATA, add(CFA_XSP16, literal(-13)))
          CFI V5 load(1, XDATA, add(CFA_XSP16, literal(-12)))
          CFI V6 load(1, XDATA, add(CFA_XSP16, literal(-11)))
          CFI V7 load(1, XDATA, add(CFA_XSP16, literal(-10)))
          CFI V8 load(1, XDATA, add(CFA_XSP16, literal(-9)))
          CFI V9 load(1, XDATA, add(CFA_XSP16, literal(-8)))
          CFI V10 load(1, XDATA, add(CFA_XSP16, literal(-7)))
          CFI R7 load(1, XDATA, add(CFA_XSP16, literal(-6)))
          CFI ?RET_LOW load(1, XDATA, add(CFA_XSP16, literal(-5)))
          CFI ?RET_HIGH load(1, XDATA, add(CFA_XSP16, literal(-4)))
          CFI ?BRET_EXT load(1, XDATA, add(CFA_XSP16, literal(-3)))
          CFI DPL0 load(1, XDATA, add(CFA_XSP16, literal(-2)))
          CFI DPH0 load(1, XDATA, add(CFA_XSP16, literal(-1)))
          CFI CFA_SP SP+-2
          CFI CFA_XSP16 add(XSP16, 28)
          CFI Block cfiCond20 Using cfiCommon0
          CFI (cfiCond20) Function bdb_TCjoiningDeviceComplete
          CFI (cfiCond20) Conditional ??CrossCallReturnLabel_27
          CFI (cfiCond20) R6 load(1, XDATA, add(CFA_XSP16, literal(-19)))
          CFI (cfiCond20) VB load(1, XDATA, add(CFA_XSP16, literal(-18)))
          CFI (cfiCond20) V0 load(1, XDATA, add(CFA_XSP16, literal(-17)))
          CFI (cfiCond20) V1 load(1, XDATA, add(CFA_XSP16, literal(-16)))
          CFI (cfiCond20) V2 load(1, XDATA, add(CFA_XSP16, literal(-15)))
          CFI (cfiCond20) V3 load(1, XDATA, add(CFA_XSP16, literal(-14)))
          CFI (cfiCond20) V4 load(1, XDATA, add(CFA_XSP16, literal(-13)))
          CFI (cfiCond20) V5 load(1, XDATA, add(CFA_XSP16, literal(-12)))
          CFI (cfiCond20) V6 load(1, XDATA, add(CFA_XSP16, literal(-11)))
          CFI (cfiCond20) V7 load(1, XDATA, add(CFA_XSP16, literal(-10)))
          CFI (cfiCond20) V8 load(1, XDATA, add(CFA_XSP16, literal(-9)))
          CFI (cfiCond20) V9 load(1, XDATA, add(CFA_XSP16, literal(-8)))
          CFI (cfiCond20) V10 load(1, XDATA, add(CFA_XSP16, literal(-7)))
          CFI (cfiCond20) R7 load(1, XDATA, add(CFA_XSP16, literal(-6)))
          CFI (cfiCond20) ?RET_LOW load(1, XDATA, add(CFA_XSP16, literal(-5)))
          CFI (cfiCond20) ?RET_HIGH load(1, XDATA, add(CFA_XSP16, literal(-4)))
          CFI (cfiCond20) ?BRET_EXT load(1, XDATA, add(CFA_XSP16, literal(-3)))
          CFI (cfiCond20) DPL0 load(1, XDATA, add(CFA_XSP16, literal(-2)))
          CFI (cfiCond20) DPH0 load(1, XDATA, add(CFA_XSP16, literal(-1)))
          CFI (cfiCond20) CFA_SP SP+-2
          CFI (cfiCond20) CFA_XSP16 add(XSP16, 28)
          CFI Block cfiPicker21 Using cfiCommon1
          CFI (cfiPicker21) NoFunction
          CFI (cfiPicker21) Picker
        MOV     A,R6
        ADD     A,#0xb
        MOV     DPL,A
        CLR     A
        ADDC    A,R7
        MOV     DPH,A
        RET
          CFI EndBlock cfiCond19
          CFI EndBlock cfiCond20
          CFI EndBlock cfiPicker21

        RSEG BANKED_CODE:CODE:NOROOT(0)
?Subroutine7:
          CFI Block cfiCond22 Using cfiCommon0
          CFI Function bdb_TCjoiningDeviceComplete
          CFI Conditional ??CrossCallReturnLabel_36
          CFI R6 load(1, XDATA, add(CFA_XSP16, literal(-19)))
          CFI VB load(1, XDATA, add(CFA_XSP16, literal(-18)))
          CFI V0 load(1, XDATA, add(CFA_XSP16, literal(-17)))
          CFI V1 load(1, XDATA, add(CFA_XSP16, literal(-16)))
          CFI V2 load(1, XDATA, add(CFA_XSP16, literal(-15)))
          CFI V3 load(1, XDATA, add(CFA_XSP16, literal(-14)))
          CFI V4 load(1, XDATA, add(CFA_XSP16, literal(-13)))
          CFI V5 load(1, XDATA, add(CFA_XSP16, literal(-12)))
          CFI V6 load(1, XDATA, add(CFA_XSP16, literal(-11)))
          CFI V7 load(1, XDATA, add(CFA_XSP16, literal(-10)))
          CFI V8 load(1, XDATA, add(CFA_XSP16, literal(-9)))
          CFI V9 load(1, XDATA, add(CFA_XSP16, literal(-8)))
          CFI V10 load(1, XDATA, add(CFA_XSP16, literal(-7)))
          CFI R7 load(1, XDATA, add(CFA_XSP16, literal(-6)))
          CFI ?RET_LOW load(1, XDATA, add(CFA_XSP16, literal(-5)))
          CFI ?RET_HIGH load(1, XDATA, add(CFA_XSP16, literal(-4)))
          CFI ?BRET_EXT load(1, XDATA, add(CFA_XSP16, literal(-3)))
          CFI DPL0 load(1, XDATA, add(CFA_XSP16, literal(-2)))
          CFI DPH0 load(1, XDATA, add(CFA_XSP16, literal(-1)))
          CFI CFA_SP SP+-2
          CFI CFA_XSP16 add(XSP16, 28)
          CFI Block cfiCond23 Using cfiCommon0
          CFI (cfiCond23) Function bdb_NotifyCommissioningModeStart
          CFI (cfiCond23) Conditional ??CrossCallReturnLabel_37
          CFI (cfiCond23) R6 load(1, XDATA, add(CFA_XSP16, literal(-10)))
          CFI (cfiCond23) VB load(1, XDATA, add(CFA_XSP16, literal(-9)))
          CFI (cfiCond23) V0 load(1, XDATA, add(CFA_XSP16, literal(-8)))
          CFI (cfiCond23) V1 load(1, XDATA, add(CFA_XSP16, literal(-7)))
          CFI (cfiCond23) R7 load(1, XDATA, add(CFA_XSP16, literal(-6)))
          CFI (cfiCond23) ?RET_LOW load(1, XDATA, add(CFA_XSP16, literal(-5)))
          CFI (cfiCond23) ?RET_HIGH load(1, XDATA, add(CFA_XSP16, literal(-4)))
          CFI (cfiCond23) ?BRET_EXT load(1, XDATA, add(CFA_XSP16, literal(-3)))
          CFI (cfiCond23) DPL0 load(1, XDATA, add(CFA_XSP16, literal(-2)))
          CFI (cfiCond23) DPH0 load(1, XDATA, add(CFA_XSP16, literal(-1)))
          CFI (cfiCond23) CFA_SP SP+-2
          CFI (cfiCond23) CFA_XSP16 add(XSP16, 13)
          CFI Block cfiPicker24 Using cfiCommon1
          CFI (cfiPicker24) NoFunction
          CFI (cfiPicker24) Picker
        MOV     DPL,?XSP + 0
        MOV     DPH,?XSP + 1
        MOV     A,#0x1
          CFI EndBlock cfiCond22
          CFI EndBlock cfiCond23
          CFI EndBlock cfiPicker24
        REQUIRE ??Subroutine32_0
        ; // Fall through to label ??Subroutine32_0

        RSEG BANKED_CODE:CODE:NOROOT(0)
??Subroutine32_0:
          CFI Block cfiCond25 Using cfiCommon0
          CFI Function bdb_reportCommissioningState
          CFI Conditional ??CrossCallReturnLabel_38
          CFI R6 load(1, XDATA, add(CFA_XSP16, literal(-10)))
          CFI VB load(1, XDATA, add(CFA_XSP16, literal(-9)))
          CFI V0 load(1, XDATA, add(CFA_XSP16, literal(-8)))
          CFI V1 load(1, XDATA, add(CFA_XSP16, literal(-7)))
          CFI R7 load(1, XDATA, add(CFA_XSP16, literal(-6)))
          CFI ?RET_LOW load(1, XDATA, add(CFA_XSP16, literal(-5)))
          CFI ?RET_HIGH load(1, XDATA, add(CFA_XSP16, literal(-4)))
          CFI ?BRET_EXT load(1, XDATA, add(CFA_XSP16, literal(-3)))
          CFI DPL0 load(1, XDATA, add(CFA_XSP16, literal(-2)))
          CFI DPH0 load(1, XDATA, add(CFA_XSP16, literal(-1)))
          CFI CFA_SP SP+-2
          CFI CFA_XSP16 add(XSP16, 14)
          CFI Block cfiCond26 Using cfiCommon0
          CFI (cfiCond26) Function bdb_startResumeCommissioningProcess
          CFI (cfiCond26) Conditional ??CrossCallReturnLabel_39
          CFI (cfiCond26) R6 load(1, XDATA, add(CFA_XSP16, literal(-10)))
          CFI (cfiCond26) VB load(1, XDATA, add(CFA_XSP16, literal(-9)))
          CFI (cfiCond26) V0 load(1, XDATA, add(CFA_XSP16, literal(-8)))
          CFI (cfiCond26) V1 load(1, XDATA, add(CFA_XSP16, literal(-7)))
          CFI (cfiCond26) R7 load(1, XDATA, add(CFA_XSP16, literal(-6)))
          CFI (cfiCond26) ?RET_LOW load(1, XDATA, add(CFA_XSP16, literal(-5)))
          CFI (cfiCond26) ?RET_HIGH load(1, XDATA, add(CFA_XSP16, literal(-4)))
          CFI (cfiCond26) ?BRET_EXT load(1, XDATA, add(CFA_XSP16, literal(-3)))
          CFI (cfiCond26) DPL0 load(1, XDATA, add(CFA_XSP16, literal(-2)))
          CFI (cfiCond26) DPH0 load(1, XDATA, add(CFA_XSP16, literal(-1)))
          CFI (cfiCond26) CFA_SP SP+-2
          CFI (cfiCond26) CFA_XSP16 add(XSP16, 21)
          CFI Block cfiCond27 Using cfiCommon0
          CFI (cfiCond27) Function bdb_startResumeCommissioningProcess
          CFI (cfiCond27) Conditional ??CrossCallReturnLabel_40
          CFI (cfiCond27) R6 load(1, XDATA, add(CFA_XSP16, literal(-10)))
          CFI (cfiCond27) VB load(1, XDATA, add(CFA_XSP16, literal(-9)))
          CFI (cfiCond27) V0 load(1, XDATA, add(CFA_XSP16, literal(-8)))
          CFI (cfiCond27) V1 load(1, XDATA, add(CFA_XSP16, literal(-7)))
          CFI (cfiCond27) R7 load(1, XDATA, add(CFA_XSP16, literal(-6)))
          CFI (cfiCond27) ?RET_LOW load(1, XDATA, add(CFA_XSP16, literal(-5)))
          CFI (cfiCond27) ?RET_HIGH load(1, XDATA, add(CFA_XSP16, literal(-4)))
          CFI (cfiCond27) ?BRET_EXT load(1, XDATA, add(CFA_XSP16, literal(-3)))
          CFI (cfiCond27) DPL0 load(1, XDATA, add(CFA_XSP16, literal(-2)))
          CFI (cfiCond27) DPH0 load(1, XDATA, add(CFA_XSP16, literal(-1)))
          CFI (cfiCond27) CFA_SP SP+-2
          CFI (cfiCond27) CFA_XSP16 add(XSP16, 21)
          CFI Block cfiCond28 Using cfiCommon0
          CFI (cfiCond28) Function bdb_TCjoiningDeviceComplete
          CFI (cfiCond28) Conditional ??CrossCallReturnLabel_36
          CFI (cfiCond28) R6 load(1, XDATA, add(CFA_XSP16, literal(-19)))
          CFI (cfiCond28) VB load(1, XDATA, add(CFA_XSP16, literal(-18)))
          CFI (cfiCond28) V0 load(1, XDATA, add(CFA_XSP16, literal(-17)))
          CFI (cfiCond28) V1 load(1, XDATA, add(CFA_XSP16, literal(-16)))
          CFI (cfiCond28) V2 load(1, XDATA, add(CFA_XSP16, literal(-15)))
          CFI (cfiCond28) V3 load(1, XDATA, add(CFA_XSP16, literal(-14)))
          CFI (cfiCond28) V4 load(1, XDATA, add(CFA_XSP16, literal(-13)))
          CFI (cfiCond28) V5 load(1, XDATA, add(CFA_XSP16, literal(-12)))
          CFI (cfiCond28) V6 load(1, XDATA, add(CFA_XSP16, literal(-11)))
          CFI (cfiCond28) V7 load(1, XDATA, add(CFA_XSP16, literal(-10)))
          CFI (cfiCond28) V8 load(1, XDATA, add(CFA_XSP16, literal(-9)))
          CFI (cfiCond28) V9 load(1, XDATA, add(CFA_XSP16, literal(-8)))
          CFI (cfiCond28) V10 load(1, XDATA, add(CFA_XSP16, literal(-7)))
          CFI (cfiCond28) R7 load(1, XDATA, add(CFA_XSP16, literal(-6)))
          CFI (cfiCond28) ?RET_LOW load(1, XDATA, add(CFA_XSP16, literal(-5)))
          CFI (cfiCond28) ?RET_HIGH load(1, XDATA, add(CFA_XSP16, literal(-4)))
          CFI (cfiCond28) ?BRET_EXT load(1, XDATA, add(CFA_XSP16, literal(-3)))
          CFI (cfiCond28) DPL0 load(1, XDATA, add(CFA_XSP16, literal(-2)))
          CFI (cfiCond28) DPH0 load(1, XDATA, add(CFA_XSP16, literal(-1)))
          CFI (cfiCond28) CFA_SP SP+-2
          CFI (cfiCond28) CFA_XSP16 add(XSP16, 28)
          CFI Block cfiCond29 Using cfiCommon0
          CFI (cfiCond29) Function bdb_NotifyCommissioningModeStart
          CFI (cfiCond29) Conditional ??CrossCallReturnLabel_37
          CFI (cfiCond29) R6 load(1, XDATA, add(CFA_XSP16, literal(-10)))
          CFI (cfiCond29) VB load(1, XDATA, add(CFA_XSP16, literal(-9)))
          CFI (cfiCond29) V0 load(1, XDATA, add(CFA_XSP16, literal(-8)))
          CFI (cfiCond29) V1 load(1, XDATA, add(CFA_XSP16, literal(-7)))
          CFI (cfiCond29) R7 load(1, XDATA, add(CFA_XSP16, literal(-6)))
          CFI (cfiCond29) ?RET_LOW load(1, XDATA, add(CFA_XSP16, literal(-5)))
          CFI (cfiCond29) ?RET_HIGH load(1, XDATA, add(CFA_XSP16, literal(-4)))
          CFI (cfiCond29) ?BRET_EXT load(1, XDATA, add(CFA_XSP16, literal(-3)))
          CFI (cfiCond29) DPL0 load(1, XDATA, add(CFA_XSP16, literal(-2)))
          CFI (cfiCond29) DPH0 load(1, XDATA, add(CFA_XSP16, literal(-1)))
          CFI (cfiCond29) CFA_SP SP+-2
          CFI (cfiCond29) CFA_XSP16 add(XSP16, 13)
          CFI Block cfiPicker30 Using cfiCommon1
          CFI (cfiPicker30) NoFunction
          CFI (cfiPicker30) Picker
        MOVX    @DPTR,A
        ; Setup parameters for call to function bdb_SendMsg
        ; Setup parameters for call to function bdb_SendMsg
        ; Setup parameters for call to function bdb_SendMsg
        ; Setup parameters for call to function bdb_SendMsg
        ; Setup parameters for call to function bdb_SendMsg
        MOV     R0,?XSP + 0
        MOV     R1,?XSP + 1
        MOV     ?V0,R0
        MOV     ?V1,R1
        MOV     R0,#?V0
        RET
          CFI EndBlock cfiCond25
          CFI EndBlock cfiCond26
          CFI EndBlock cfiCond27
          CFI EndBlock cfiCond28
          CFI EndBlock cfiCond29
          CFI EndBlock cfiPicker30
//  709 
//  710 
//  711 
//  712 /****************************************************************************
//  713  * @fn          bdb_TCJoiningDeviceFree
//  714  *
//  715  * @brief       This function frees a joining device from the list.
//  716  *
//  717  * @param       ZSuccess - If the device was found and erased
//  718  * @param       ZInvalidParameter - Not found
//  719  *
//  720  * @return      none
//  721  */

        RSEG BANKED_CODE:CODE:NOROOT(0)
//  722 ZStatus_t bdb_TCJoiningDeviceFree(bdb_joiningDeviceList_t* JoiningDeviceToRemove)
bdb_TCJoiningDeviceFree:
          CFI Block cfiBlock31 Using cfiCommon0
          CFI Function bdb_TCJoiningDeviceFree
        CODE
//  723 {
        FUNCALL bdb_TCJoiningDeviceFree, osal_memcmp
        LOCFRAME ISTACK, 0, STACK
        LOCFRAME PSTACK, 0, STACK
        LOCFRAME XSTACK, 18, STACK
        LOCFRAME IOVERLAY, 0, STATIC
        LOCFRAME DOVERLAY, 0, STATIC
        ARGFRAME ISTACK, 0, STACK
        ARGFRAME PSTACK, 0, STACK
        ARGFRAME XSTACK, 18, STACK
        ARGFRAME IOVERLAY, 0, STATIC
        ARGFRAME DOVERLAY, 0, STATIC
        FUNCALL bdb_TCJoiningDeviceFree, osal_mem_free
        LOCFRAME ISTACK, 0, STACK
        LOCFRAME PSTACK, 0, STACK
        LOCFRAME XSTACK, 15, STACK
        LOCFRAME IOVERLAY, 0, STATIC
        LOCFRAME DOVERLAY, 0, STATIC
        ARGFRAME ISTACK, 0, STACK
        ARGFRAME PSTACK, 0, STACK
        ARGFRAME XSTACK, 15, STACK
        ARGFRAME IOVERLAY, 0, STATIC
        ARGFRAME DOVERLAY, 0, STATIC
        FUNCALL bdb_TCJoiningDeviceFree, osal_memcmp
        LOCFRAME ISTACK, 0, STACK
        LOCFRAME PSTACK, 0, STACK
        LOCFRAME XSTACK, 18, STACK
        LOCFRAME IOVERLAY, 0, STATIC
        LOCFRAME DOVERLAY, 0, STATIC
        ARGFRAME ISTACK, 0, STACK
        ARGFRAME PSTACK, 0, STACK
        ARGFRAME XSTACK, 18, STACK
        ARGFRAME IOVERLAY, 0, STATIC
        ARGFRAME DOVERLAY, 0, STATIC
        FUNCALL bdb_TCJoiningDeviceFree, osal_mem_free
        LOCFRAME ISTACK, 0, STACK
        LOCFRAME PSTACK, 0, STACK
        LOCFRAME XSTACK, 15, STACK
        LOCFRAME IOVERLAY, 0, STATIC
        LOCFRAME DOVERLAY, 0, STATIC
        ARGFRAME ISTACK, 0, STACK
        ARGFRAME PSTACK, 0, STACK
        ARGFRAME XSTACK, 15, STACK
        ARGFRAME IOVERLAY, 0, STATIC
        ARGFRAME DOVERLAY, 0, STATIC
        REQUIRE ?V0
        REQUIRE ?V1
        REQUIRE ?V4
        REQUIRE ?V5
        REQUIRE ?V6
        MOV     A,#-0xf
        LCALL   ?BANKED_ENTER_XDATA
          CFI DPH0 load(1, XDATA, add(CFA_XSP16, literal(-1)))
          CFI DPL0 load(1, XDATA, add(CFA_XSP16, literal(-2)))
          CFI ?BRET_EXT load(1, XDATA, add(CFA_XSP16, literal(-3)))
          CFI ?RET_HIGH load(1, XDATA, add(CFA_XSP16, literal(-4)))
          CFI ?RET_LOW load(1, XDATA, add(CFA_XSP16, literal(-5)))
          CFI R7 load(1, XDATA, add(CFA_XSP16, literal(-6)))
          CFI V6 load(1, XDATA, add(CFA_XSP16, literal(-7)))
          CFI V5 load(1, XDATA, add(CFA_XSP16, literal(-8)))
          CFI V4 load(1, XDATA, add(CFA_XSP16, literal(-9)))
          CFI V3 load(1, XDATA, add(CFA_XSP16, literal(-10)))
          CFI V2 load(1, XDATA, add(CFA_XSP16, literal(-11)))
          CFI V1 load(1, XDATA, add(CFA_XSP16, literal(-12)))
          CFI V0 load(1, XDATA, add(CFA_XSP16, literal(-13)))
          CFI VB load(1, XDATA, add(CFA_XSP16, literal(-14)))
          CFI R6 load(1, XDATA, add(CFA_XSP16, literal(-15)))
          CFI CFA_SP SP+0
          CFI CFA_XSP16 add(XSP16, 15)
        ; Saved register size: 15
        ; Auto size: 0
        MOV     ?V0,R2
        MOV     ?V1,R3
        MOV     DPL,R2
        MOV     DPH,R3
        INC     DPTR
        INC     DPTR
        MOV     R1,DPL
        MOV     R2,DPH
        MOV     ?V4,R1
        MOV     ?V5,R2
        MOV     ?V6,#0x0
        ; Setup parameters for call to function osal_memcmp
        MOV     R0,#?V4
        LCALL   ?PUSH_XSTACK_I_THREE
          CFI CFA_XSP16 add(XSP16, 18)
        MOV     R4,#0x8
        MOV     R5,#0x0
        MOV     DPTR,#bdb_joiningDeviceList
        LCALL   ?Subroutine17 & 0xFFFF
//  724   bdb_joiningDeviceList_t* descCurrent;
//  725   bdb_joiningDeviceList_t* descPrev;
//  726   
//  727   //validate empty list?
//  728   
//  729   //Is it the first?
//  730   if(osal_memcmp(bdb_joiningDeviceList->bdbJoiningNodeEui64, JoiningDeviceToRemove->bdbJoiningNodeEui64, Z_EXTADDR_LEN))
??CrossCallReturnLabel_14:
        LCALL   `??osal_memcmp::?relay`; Banked call to: osal_memcmp
        MOV     A,#0x3
        LCALL   ?DEALLOC_XSTACK8
          CFI CFA_XSP16 add(XSP16, 15)
        MOV     A,R1
        MOV     DPTR,#bdb_joiningDeviceList
        JZ      ??bdb_TCJoiningDeviceFree_0
//  731   {
//  732     descCurrent = bdb_joiningDeviceList;
        LCALL   ??Subroutine45_0 & 0xFFFF
//  733     bdb_joiningDeviceList = bdb_joiningDeviceList->nextDev;
??CrossCallReturnLabel_83:
        MOV     DPTR,#bdb_joiningDeviceList
        LCALL   ?Subroutine15 & 0xFFFF
??CrossCallReturnLabel_10:
        MOV     DPTR,#bdb_joiningDeviceList
        MOV     A,R0
        MOVX    @DPTR,A
        INC     DPTR
        MOV     A,R1
        MOVX    @DPTR,A
//  734     osal_mem_free( descCurrent );
        ; Setup parameters for call to function osal_mem_free
        SJMP    ??bdb_TCJoiningDeviceFree_1
//  735     return ZSuccess;
//  736   }
//  737   
//  738   descPrev = NULL;
//  739   descCurrent = bdb_joiningDeviceList;
//  740   
//  741   while(descCurrent != NULL)
//  742   {
//  743     if(osal_memcmp(descCurrent->nextDev->bdbJoiningNodeEui64, JoiningDeviceToRemove->bdbJoiningNodeEui64, Z_EXTADDR_LEN))
//  744     {
//  745       descPrev = descCurrent;
//  746       break;
//  747     }
//  748     descCurrent = descCurrent->nextDev;
??bdb_TCJoiningDeviceFree_0:
        LCALL   ?Subroutine14 & 0xFFFF
??CrossCallReturnLabel_5:
        JZ      ??bdb_TCJoiningDeviceFree_2
        MOV     A,R2
        ADD     A,#0xb
        MOV     R6,A
        CLR     A
        ADDC    A,R3
        MOV     R7,A
        ; Setup parameters for call to function osal_memcmp
        MOV     R0,#?V4
        LCALL   ?PUSH_XSTACK_I_THREE
          CFI CFA_XSP16 add(XSP16, 18)
        MOV     R4,#0x8
        MOV     R5,#0x0
        MOV     DPL,R6
        MOV     DPH,R7
        LCALL   ?Subroutine17 & 0xFFFF
??CrossCallReturnLabel_15:
        LCALL   `??osal_memcmp::?relay`; Banked call to: osal_memcmp
        MOV     A,#0x3
        LCALL   ?DEALLOC_XSTACK8
          CFI CFA_XSP16 add(XSP16, 15)
        MOV     A,R1
        MOV     DPL,R6
        MOV     DPH,R7
        JZ      ??bdb_TCJoiningDeviceFree_0
//  749   }
//  750   if(descPrev == NULL)
//  751   {
//  752     //Not found
//  753     return ZInvalidParameter;
//  754   }
//  755   
//  756   descPrev->nextDev = descPrev->nextDev->nextDev;
        LCALL   ?Subroutine15 & 0xFFFF
??CrossCallReturnLabel_11:
        MOV     DPL,R6
        MOV     DPH,R7
        MOV     A,R0
        MOVX    @DPTR,A
        INC     DPTR
        MOV     A,R1
        MOVX    @DPTR,A
//  757     
//  758   osal_mem_free( JoiningDeviceToRemove );
        ; Setup parameters for call to function osal_mem_free
        MOV     R2,?V0
        MOV     R3,?V1
??bdb_TCJoiningDeviceFree_1:
        LCALL   `??osal_mem_free::?relay`; Banked call to: osal_mem_free
//  759   return ZSuccess;
        MOV     R1,#0x0
        SJMP    ??bdb_TCJoiningDeviceFree_3
??bdb_TCJoiningDeviceFree_2:
        MOV     R1,#0x2
??bdb_TCJoiningDeviceFree_3:
        MOV     R7,#0x7
        LJMP    ?BANKED_LEAVE_XDATA
//  760 
//  761 }
          CFI EndBlock cfiBlock31

        RSEG BANKED_CODE:CODE:NOROOT(0)
?Subroutine17:
          CFI Block cfiCond32 Using cfiCommon0
          CFI Function bdb_TCJoiningDeviceFree
          CFI Conditional ??CrossCallReturnLabel_14
          CFI R6 load(1, XDATA, add(CFA_XSP16, literal(-15)))
          CFI VB load(1, XDATA, add(CFA_XSP16, literal(-14)))
          CFI V0 load(1, XDATA, add(CFA_XSP16, literal(-13)))
          CFI V1 load(1, XDATA, add(CFA_XSP16, literal(-12)))
          CFI V2 load(1, XDATA, add(CFA_XSP16, literal(-11)))
          CFI V3 load(1, XDATA, add(CFA_XSP16, literal(-10)))
          CFI V4 load(1, XDATA, add(CFA_XSP16, literal(-9)))
          CFI V5 load(1, XDATA, add(CFA_XSP16, literal(-8)))
          CFI V6 load(1, XDATA, add(CFA_XSP16, literal(-7)))
          CFI R7 load(1, XDATA, add(CFA_XSP16, literal(-6)))
          CFI ?RET_LOW load(1, XDATA, add(CFA_XSP16, literal(-5)))
          CFI ?RET_HIGH load(1, XDATA, add(CFA_XSP16, literal(-4)))
          CFI ?BRET_EXT load(1, XDATA, add(CFA_XSP16, literal(-3)))
          CFI DPL0 load(1, XDATA, add(CFA_XSP16, literal(-2)))
          CFI DPH0 load(1, XDATA, add(CFA_XSP16, literal(-1)))
          CFI CFA_SP SP+-2
          CFI CFA_XSP16 add(XSP16, 18)
          CFI Block cfiCond33 Using cfiCommon0
          CFI (cfiCond33) Function bdb_TCJoiningDeviceFree
          CFI (cfiCond33) Conditional ??CrossCallReturnLabel_15
          CFI (cfiCond33) R6 load(1, XDATA, add(CFA_XSP16, literal(-15)))
          CFI (cfiCond33) VB load(1, XDATA, add(CFA_XSP16, literal(-14)))
          CFI (cfiCond33) V0 load(1, XDATA, add(CFA_XSP16, literal(-13)))
          CFI (cfiCond33) V1 load(1, XDATA, add(CFA_XSP16, literal(-12)))
          CFI (cfiCond33) V2 load(1, XDATA, add(CFA_XSP16, literal(-11)))
          CFI (cfiCond33) V3 load(1, XDATA, add(CFA_XSP16, literal(-10)))
          CFI (cfiCond33) V4 load(1, XDATA, add(CFA_XSP16, literal(-9)))
          CFI (cfiCond33) V5 load(1, XDATA, add(CFA_XSP16, literal(-8)))
          CFI (cfiCond33) V6 load(1, XDATA, add(CFA_XSP16, literal(-7)))
          CFI (cfiCond33) R7 load(1, XDATA, add(CFA_XSP16, literal(-6)))
          CFI (cfiCond33) ?RET_LOW load(1, XDATA, add(CFA_XSP16, literal(-5)))
          CFI (cfiCond33) ?RET_HIGH load(1, XDATA, add(CFA_XSP16, literal(-4)))
          CFI (cfiCond33) ?BRET_EXT load(1, XDATA, add(CFA_XSP16, literal(-3)))
          CFI (cfiCond33) DPL0 load(1, XDATA, add(CFA_XSP16, literal(-2)))
          CFI (cfiCond33) DPH0 load(1, XDATA, add(CFA_XSP16, literal(-1)))
          CFI (cfiCond33) CFA_SP SP+-2
          CFI (cfiCond33) CFA_XSP16 add(XSP16, 18)
          CFI Block cfiPicker34 Using cfiCommon1
          CFI (cfiPicker34) NoFunction
          CFI (cfiPicker34) Picker
        LCALL   ?Subroutine29 & 0xFFFF
??CrossCallReturnLabel_32:
        MOV     R1,DPL
        MOV     R2,DPH
        MOV     R3,#0x0
        RET
          CFI EndBlock cfiCond32
          CFI EndBlock cfiCond33
          CFI EndBlock cfiPicker34

        RSEG BANKED_CODE:CODE:NOROOT(0)
?Subroutine15:
          CFI Block cfiCond35 Using cfiCommon0
          CFI Function bdb_TCJoiningDeviceFree
          CFI Conditional ??CrossCallReturnLabel_10
          CFI R6 load(1, XDATA, add(CFA_XSP16, literal(-15)))
          CFI VB load(1, XDATA, add(CFA_XSP16, literal(-14)))
          CFI V0 load(1, XDATA, add(CFA_XSP16, literal(-13)))
          CFI V1 load(1, XDATA, add(CFA_XSP16, literal(-12)))
          CFI V2 load(1, XDATA, add(CFA_XSP16, literal(-11)))
          CFI V3 load(1, XDATA, add(CFA_XSP16, literal(-10)))
          CFI V4 load(1, XDATA, add(CFA_XSP16, literal(-9)))
          CFI V5 load(1, XDATA, add(CFA_XSP16, literal(-8)))
          CFI V6 load(1, XDATA, add(CFA_XSP16, literal(-7)))
          CFI R7 load(1, XDATA, add(CFA_XSP16, literal(-6)))
          CFI ?RET_LOW load(1, XDATA, add(CFA_XSP16, literal(-5)))
          CFI ?RET_HIGH load(1, XDATA, add(CFA_XSP16, literal(-4)))
          CFI ?BRET_EXT load(1, XDATA, add(CFA_XSP16, literal(-3)))
          CFI DPL0 load(1, XDATA, add(CFA_XSP16, literal(-2)))
          CFI DPH0 load(1, XDATA, add(CFA_XSP16, literal(-1)))
          CFI CFA_SP SP+-2
          CFI CFA_XSP16 add(XSP16, 15)
          CFI Block cfiCond36 Using cfiCommon0
          CFI (cfiCond36) Function bdb_TCJoiningDeviceFree
          CFI (cfiCond36) Conditional ??CrossCallReturnLabel_11
          CFI (cfiCond36) R6 load(1, XDATA, add(CFA_XSP16, literal(-15)))
          CFI (cfiCond36) VB load(1, XDATA, add(CFA_XSP16, literal(-14)))
          CFI (cfiCond36) V0 load(1, XDATA, add(CFA_XSP16, literal(-13)))
          CFI (cfiCond36) V1 load(1, XDATA, add(CFA_XSP16, literal(-12)))
          CFI (cfiCond36) V2 load(1, XDATA, add(CFA_XSP16, literal(-11)))
          CFI (cfiCond36) V3 load(1, XDATA, add(CFA_XSP16, literal(-10)))
          CFI (cfiCond36) V4 load(1, XDATA, add(CFA_XSP16, literal(-9)))
          CFI (cfiCond36) V5 load(1, XDATA, add(CFA_XSP16, literal(-8)))
          CFI (cfiCond36) V6 load(1, XDATA, add(CFA_XSP16, literal(-7)))
          CFI (cfiCond36) R7 load(1, XDATA, add(CFA_XSP16, literal(-6)))
          CFI (cfiCond36) ?RET_LOW load(1, XDATA, add(CFA_XSP16, literal(-5)))
          CFI (cfiCond36) ?RET_HIGH load(1, XDATA, add(CFA_XSP16, literal(-4)))
          CFI (cfiCond36) ?BRET_EXT load(1, XDATA, add(CFA_XSP16, literal(-3)))
          CFI (cfiCond36) DPL0 load(1, XDATA, add(CFA_XSP16, literal(-2)))
          CFI (cfiCond36) DPH0 load(1, XDATA, add(CFA_XSP16, literal(-1)))
          CFI (cfiCond36) CFA_SP SP+-2
          CFI (cfiCond36) CFA_XSP16 add(XSP16, 15)
          CFI Block cfiPicker37 Using cfiCommon1
          CFI (cfiPicker37) NoFunction
          CFI (cfiPicker37) Picker
        MOVX    A,@DPTR
        MOV     R0,A
        INC     DPTR
        MOVX    A,@DPTR
        XCH     A,R0
        ADD     A,#0xb
        MOV     DPL,A
        CLR     A
        ADDC    A,R0
        MOV     DPH,A
        LCALL   ?Subroutine27 & 0xFFFF
??CrossCallReturnLabel_67:
        RET
          CFI EndBlock cfiCond35
          CFI EndBlock cfiCond36
          CFI EndBlock cfiPicker37
//  762 
//  763  /*********************************************************************
//  764  * @fn          bdb_setJoinUsesInstallCodeKey
//  765  *
//  766  * @brief       Set BDB attribute bdbJoinUsesInstallCodeKey.
//  767  *
//  768  * @param       set - If TRUE only devices with IC register in TC can join the 
//  769  *              nwk, otherwise devices may or not have a IC register
//  770  *
//  771  * @return      none
//  772  */

        RSEG BANKED_CODE:CODE:NOROOT(0)
//  773 void bdb_setJoinUsesInstallCodeKey(bool set)
bdb_setJoinUsesInstallCodeKey:
          CFI Block cfiBlock38 Using cfiCommon0
          CFI Function bdb_setJoinUsesInstallCodeKey
        CODE
//  774 {
        PUSH    DPL
          CFI DPL0 Frame(CFA_SP, 4)
          CFI CFA_SP SP+-4
        PUSH    DPH
          CFI DPH0 Frame(CFA_SP, 5)
          CFI CFA_SP SP+-5
        ; Saved register size: 2
        ; Auto size: 0
//  775   bdbAttributes.bdbJoinUsesInstallCodeKey = set;
        MOV     A,R1
        MOV     DPTR,#bdbAttributes + 15
        MOVX    @DPTR,A
//  776   if(set)
        MOV     DPTR,#zgAllowInstallCodes
        JZ      ??bdb_setJoinUsesInstallCodeKey_0
//  777   {
//  778     zgAllowInstallCodes = ZG_IC_MUST_USED;
        MOV     A,#0x2
        SJMP    ??bdb_setJoinUsesInstallCodeKey_1
//  779   }
//  780   else
//  781   {
//  782     zgAllowInstallCodes = ZG_IC_SUPPORTED_NOT_REQUIRED;
??bdb_setJoinUsesInstallCodeKey_0:
        MOV     A,#0x1
//  783   }
??bdb_setJoinUsesInstallCodeKey_1:
        LJMP    ??Subroutine34_0 & 0xFFFF
//  784 }
          CFI EndBlock cfiBlock38
//  785 #endif
//  786 
//  787  /*********************************************************************
//  788  * @fn          bdb_StartCommissioning
//  789  *
//  790  * @brief       Start the commissioning process setting the commissioning mode given.
//  791  *
//  792  * @param       mode - refer to bdbCommissioningMode
//  793  *
//  794  * @return      none
//  795  */

        RSEG BANKED_CODE:CODE:NOROOT(0)
//  796 void bdb_StartCommissioning(uint8 mode)
bdb_StartCommissioning:
          CFI Block cfiBlock39 Using cfiCommon0
          CFI Function bdb_StartCommissioning
        CODE
//  797 {
        FUNCALL bdb_StartCommissioning, osal_get_timeoutEx
        LOCFRAME ISTACK, 0, STACK
        LOCFRAME PSTACK, 0, STACK
        LOCFRAME XSTACK, 32, STACK
        LOCFRAME IOVERLAY, 0, STATIC
        LOCFRAME DOVERLAY, 0, STATIC
        ARGFRAME ISTACK, 0, STACK
        ARGFRAME PSTACK, 0, STACK
        ARGFRAME XSTACK, 32, STACK
        ARGFRAME IOVERLAY, 0, STATIC
        ARGFRAME DOVERLAY, 0, STATIC
        FUNCALL bdb_StartCommissioning, bdb_nwkSteeringDeviceOnNwk
        LOCFRAME ISTACK, 0, STACK
        LOCFRAME PSTACK, 0, STACK
        LOCFRAME XSTACK, 32, STACK
        LOCFRAME IOVERLAY, 0, STATIC
        LOCFRAME DOVERLAY, 0, STATIC
        ARGFRAME ISTACK, 0, STACK
        ARGFRAME PSTACK, 0, STACK
        ARGFRAME XSTACK, 32, STACK
        ARGFRAME IOVERLAY, 0, STATIC
        ARGFRAME DOVERLAY, 0, STATIC
        FUNCALL bdb_StartCommissioning, bdb_reportCommissioningState
        LOCFRAME ISTACK, 0, STACK
        LOCFRAME PSTACK, 0, STACK
        LOCFRAME XSTACK, 32, STACK
        LOCFRAME IOVERLAY, 0, STATIC
        LOCFRAME DOVERLAY, 0, STATIC
        ARGFRAME ISTACK, 0, STACK
        ARGFRAME PSTACK, 0, STACK
        ARGFRAME XSTACK, 32, STACK
        ARGFRAME IOVERLAY, 0, STATIC
        ARGFRAME DOVERLAY, 0, STATIC
        FUNCALL bdb_StartCommissioning, ZDApp_ReadNetworkRestoreState
        LOCFRAME ISTACK, 0, STACK
        LOCFRAME PSTACK, 0, STACK
        LOCFRAME XSTACK, 32, STACK
        LOCFRAME IOVERLAY, 0, STATIC
        LOCFRAME DOVERLAY, 0, STATIC
        ARGFRAME ISTACK, 0, STACK
        ARGFRAME PSTACK, 0, STACK
        ARGFRAME XSTACK, 32, STACK
        ARGFRAME IOVERLAY, 0, STATIC
        ARGFRAME DOVERLAY, 0, STATIC
        FUNCALL bdb_StartCommissioning, osal_nv_item_len
        LOCFRAME ISTACK, 0, STACK
        LOCFRAME PSTACK, 0, STACK
        LOCFRAME XSTACK, 32, STACK
        LOCFRAME IOVERLAY, 0, STATIC
        LOCFRAME DOVERLAY, 0, STATIC
        ARGFRAME ISTACK, 0, STACK
        ARGFRAME PSTACK, 0, STACK
        ARGFRAME XSTACK, 32, STACK
        ARGFRAME IOVERLAY, 0, STATIC
        ARGFRAME DOVERLAY, 0, STATIC
        FUNCALL bdb_StartCommissioning, osal_nv_delete
        LOCFRAME ISTACK, 0, STACK
        LOCFRAME PSTACK, 0, STACK
        LOCFRAME XSTACK, 32, STACK
        LOCFRAME IOVERLAY, 0, STATIC
        LOCFRAME DOVERLAY, 0, STATIC
        ARGFRAME ISTACK, 0, STACK
        ARGFRAME PSTACK, 0, STACK
        ARGFRAME XSTACK, 32, STACK
        ARGFRAME IOVERLAY, 0, STATIC
        ARGFRAME DOVERLAY, 0, STATIC
        FUNCALL bdb_StartCommissioning, bdb_RepConstructReportingData
        LOCFRAME ISTACK, 0, STACK
        LOCFRAME PSTACK, 0, STACK
        LOCFRAME XSTACK, 32, STACK
        LOCFRAME IOVERLAY, 0, STATIC
        LOCFRAME DOVERLAY, 0, STATIC
        ARGFRAME ISTACK, 0, STACK
        ARGFRAME PSTACK, 0, STACK
        ARGFRAME XSTACK, 32, STACK
        ARGFRAME IOVERLAY, 0, STATIC
        ARGFRAME DOVERLAY, 0, STATIC
        FUNCALL bdb_StartCommissioning, osal_nv_read
        LOCFRAME ISTACK, 0, STACK
        LOCFRAME PSTACK, 0, STACK
        LOCFRAME XSTACK, 36, STACK
        LOCFRAME IOVERLAY, 0, STATIC
        LOCFRAME DOVERLAY, 0, STATIC
        ARGFRAME ISTACK, 0, STACK
        ARGFRAME PSTACK, 0, STACK
        ARGFRAME XSTACK, 36, STACK
        ARGFRAME IOVERLAY, 0, STATIC
        ARGFRAME DOVERLAY, 0, STATIC
        FUNCALL bdb_StartCommissioning, osal_isbufset
        LOCFRAME ISTACK, 0, STACK
        LOCFRAME PSTACK, 0, STACK
        LOCFRAME XSTACK, 32, STACK
        LOCFRAME IOVERLAY, 0, STATIC
        LOCFRAME DOVERLAY, 0, STATIC
        ARGFRAME ISTACK, 0, STACK
        ARGFRAME PSTACK, 0, STACK
        ARGFRAME XSTACK, 32, STACK
        ARGFRAME IOVERLAY, 0, STATIC
        ARGFRAME DOVERLAY, 0, STATIC
        FUNCALL bdb_StartCommissioning, APSME_IsDistributedSecurity
        LOCFRAME ISTACK, 0, STACK
        LOCFRAME PSTACK, 0, STACK
        LOCFRAME XSTACK, 32, STACK
        LOCFRAME IOVERLAY, 0, STATIC
        LOCFRAME DOVERLAY, 0, STATIC
        ARGFRAME ISTACK, 0, STACK
        ARGFRAME PSTACK, 0, STACK
        ARGFRAME XSTACK, 32, STACK
        ARGFRAME IOVERLAY, 0, STATIC
        ARGFRAME DOVERLAY, 0, STATIC
        FUNCALL bdb_StartCommissioning, osal_nv_read
        LOCFRAME ISTACK, 0, STACK
        LOCFRAME PSTACK, 0, STACK
        LOCFRAME XSTACK, 36, STACK
        LOCFRAME IOVERLAY, 0, STATIC
        LOCFRAME DOVERLAY, 0, STATIC
        ARGFRAME ISTACK, 0, STACK
        ARGFRAME PSTACK, 0, STACK
        ARGFRAME XSTACK, 36, STACK
        ARGFRAME IOVERLAY, 0, STATIC
        ARGFRAME DOVERLAY, 0, STATIC
        FUNCALL bdb_StartCommissioning, osal_memset
        LOCFRAME ISTACK, 0, STACK
        LOCFRAME PSTACK, 0, STACK
        LOCFRAME XSTACK, 32, STACK
        LOCFRAME IOVERLAY, 0, STATIC
        LOCFRAME DOVERLAY, 0, STATIC
        ARGFRAME ISTACK, 0, STACK
        ARGFRAME PSTACK, 0, STACK
        ARGFRAME XSTACK, 32, STACK
        ARGFRAME IOVERLAY, 0, STATIC
        ARGFRAME DOVERLAY, 0, STATIC
        FUNCALL bdb_StartCommissioning, osal_nv_write
        LOCFRAME ISTACK, 0, STACK
        LOCFRAME PSTACK, 0, STACK
        LOCFRAME XSTACK, 36, STACK
        LOCFRAME IOVERLAY, 0, STATIC
        LOCFRAME DOVERLAY, 0, STATIC
        ARGFRAME ISTACK, 0, STACK
        ARGFRAME PSTACK, 0, STACK
        ARGFRAME XSTACK, 36, STACK
        ARGFRAME IOVERLAY, 0, STATIC
        ARGFRAME DOVERLAY, 0, STATIC
        FUNCALL bdb_StartCommissioning, osal_nv_write
        LOCFRAME ISTACK, 0, STACK
        LOCFRAME PSTACK, 0, STACK
        LOCFRAME XSTACK, 36, STACK
        LOCFRAME IOVERLAY, 0, STATIC
        LOCFRAME DOVERLAY, 0, STATIC
        ARGFRAME ISTACK, 0, STACK
        ARGFRAME PSTACK, 0, STACK
        ARGFRAME XSTACK, 36, STACK
        ARGFRAME IOVERLAY, 0, STATIC
        ARGFRAME DOVERLAY, 0, STATIC
        FUNCALL bdb_StartCommissioning, zgWriteStartupOptions
        LOCFRAME ISTACK, 0, STACK
        LOCFRAME PSTACK, 0, STACK
        LOCFRAME XSTACK, 32, STACK
        LOCFRAME IOVERLAY, 0, STATIC
        LOCFRAME DOVERLAY, 0, STATIC
        ARGFRAME ISTACK, 0, STACK
        ARGFRAME PSTACK, 0, STACK
        ARGFRAME XSTACK, 32, STACK
        ARGFRAME IOVERLAY, 0, STATIC
        ARGFRAME DOVERLAY, 0, STATIC
        FUNCALL bdb_StartCommissioning, osal_set_event
        LOCFRAME ISTACK, 0, STACK
        LOCFRAME PSTACK, 0, STACK
        LOCFRAME XSTACK, 32, STACK
        LOCFRAME IOVERLAY, 0, STATIC
        LOCFRAME DOVERLAY, 0, STATIC
        ARGFRAME ISTACK, 0, STACK
        ARGFRAME PSTACK, 0, STACK
        ARGFRAME XSTACK, 32, STACK
        ARGFRAME IOVERLAY, 0, STATIC
        ARGFRAME DOVERLAY, 0, STATIC
        FUNCALL bdb_StartCommissioning, ZDOInitDeviceEx
        LOCFRAME ISTACK, 0, STACK
        LOCFRAME PSTACK, 0, STACK
        LOCFRAME XSTACK, 32, STACK
        LOCFRAME IOVERLAY, 0, STATIC
        LOCFRAME DOVERLAY, 0, STATIC
        ARGFRAME ISTACK, 0, STACK
        ARGFRAME PSTACK, 0, STACK
        ARGFRAME XSTACK, 32, STACK
        ARGFRAME IOVERLAY, 0, STATIC
        ARGFRAME DOVERLAY, 0, STATIC
        FUNCALL bdb_StartCommissioning, bdb_RepUpdateMarkBindings
        LOCFRAME ISTACK, 0, STACK
        LOCFRAME PSTACK, 0, STACK
        LOCFRAME XSTACK, 32, STACK
        LOCFRAME IOVERLAY, 0, STATIC
        LOCFRAME DOVERLAY, 0, STATIC
        ARGFRAME ISTACK, 0, STACK
        ARGFRAME PSTACK, 0, STACK
        ARGFRAME XSTACK, 32, STACK
        ARGFRAME IOVERLAY, 0, STATIC
        ARGFRAME DOVERLAY, 0, STATIC
        FUNCALL bdb_StartCommissioning, bdb_setNodeIsOnANetwork
        LOCFRAME ISTACK, 0, STACK
        LOCFRAME PSTACK, 0, STACK
        LOCFRAME XSTACK, 32, STACK
        LOCFRAME IOVERLAY, 0, STATIC
        LOCFRAME DOVERLAY, 0, STATIC
        ARGFRAME ISTACK, 0, STACK
        ARGFRAME PSTACK, 0, STACK
        ARGFRAME XSTACK, 32, STACK
        ARGFRAME IOVERLAY, 0, STATIC
        ARGFRAME DOVERLAY, 0, STATIC
        FUNCALL bdb_StartCommissioning, bdb_reportCommissioningState
        LOCFRAME ISTACK, 0, STACK
        LOCFRAME PSTACK, 0, STACK
        LOCFRAME XSTACK, 32, STACK
        LOCFRAME IOVERLAY, 0, STATIC
        LOCFRAME DOVERLAY, 0, STATIC
        ARGFRAME ISTACK, 0, STACK
        ARGFRAME PSTACK, 0, STACK
        ARGFRAME XSTACK, 32, STACK
        ARGFRAME IOVERLAY, 0, STATIC
        ARGFRAME DOVERLAY, 0, STATIC
        FUNCALL bdb_StartCommissioning, osal_set_event
        LOCFRAME ISTACK, 0, STACK
        LOCFRAME PSTACK, 0, STACK
        LOCFRAME XSTACK, 32, STACK
        LOCFRAME IOVERLAY, 0, STATIC
        LOCFRAME DOVERLAY, 0, STATIC
        ARGFRAME ISTACK, 0, STACK
        ARGFRAME PSTACK, 0, STACK
        ARGFRAME XSTACK, 32, STACK
        ARGFRAME IOVERLAY, 0, STATIC
        ARGFRAME DOVERLAY, 0, STATIC
        REQUIRE ?V0
        REQUIRE ?V2
        REQUIRE ?V3
        MOV     A,#-0xc
        LCALL   ?BANKED_ENTER_XDATA
          CFI DPH0 load(1, XDATA, add(CFA_XSP16, literal(-1)))
          CFI DPL0 load(1, XDATA, add(CFA_XSP16, literal(-2)))
          CFI ?BRET_EXT load(1, XDATA, add(CFA_XSP16, literal(-3)))
          CFI ?RET_HIGH load(1, XDATA, add(CFA_XSP16, literal(-4)))
          CFI ?RET_LOW load(1, XDATA, add(CFA_XSP16, literal(-5)))
          CFI R7 load(1, XDATA, add(CFA_XSP16, literal(-6)))
          CFI V3 load(1, XDATA, add(CFA_XSP16, literal(-7)))
          CFI V2 load(1, XDATA, add(CFA_XSP16, literal(-8)))
          CFI V1 load(1, XDATA, add(CFA_XSP16, literal(-9)))
          CFI V0 load(1, XDATA, add(CFA_XSP16, literal(-10)))
          CFI VB load(1, XDATA, add(CFA_XSP16, literal(-11)))
          CFI R6 load(1, XDATA, add(CFA_XSP16, literal(-12)))
          CFI CFA_SP SP+0
          CFI CFA_XSP16 add(XSP16, 12)
        ; Saved register size: 12
        ; Auto size: 20
        MOV     A,#-0x14
        LCALL   ?ALLOC_XSTACK8
          CFI CFA_XSP16 add(XSP16, 32)
        MOV     ?V0,R1
//  798   //Application cannot request to set the device in initialization mode or parent lost
//  799   mode &= ~(BDB_COMMISSIONING_MODE_INITIALIZATION | BDB_COMMISSIONING_MODE_PARENT_LOST);
//  800     
//  801 #ifdef BDB_TL_INITIATOR
//  802   if ( touchlinkFNReset == TRUE )
//  803   {
//  804     return;
//  805   }
//  806 #else
//  807   //Commissioning mode used only for initiator
//  808   mode &= ~BDB_COMMISSIONING_MODE_INITIATOR_TL;
        ANL     ?V0,#0xce
//  809 #endif
//  810   
//  811 #if (BDB_FINDING_BINDING_CAPABILITY_ENABLED==0)    
//  812   //Commissioning mode used only for devices with F&B
//  813   mode &= ~BDB_COMMISSIONING_MODE_FINDING_BINDING;
//  814 #endif
//  815  
//  816   //If we have running process or the machine state is triggered, then just append and it will be excecuted
//  817   if((bdbAttributes.bdbCommissioningMode) || (osal_get_timeoutEx(bdb_TaskID,BDB_CHANGE_COMMISSIONING_STATE)))
        MOV     DPTR,#bdbAttributes + 11
        MOVX    A,@DPTR
        JNZ     ??bdb_StartCommissioning_0
        ; Setup parameters for call to function osal_get_timeoutEx
        MOV     R2,#0x4
        MOV     R3,#0x0
        MOV     DPTR,#bdb_TaskID
        MOVX    A,@DPTR
        MOV     R1,A
        LCALL   `??osal_get_timeoutEx::?relay`; Banked call to: osal_get_timeoutEx
        MOV     A,R2
        ORL     A,R3
        ORL     A,R4
        ORL     A,R5
        JZ      ??bdb_StartCommissioning_1
//  818   {
//  819 #if ZG_BUILD_ENDDEVICE_TYPE
//  820     if(ZG_DEVICE_ENDDEVICE_TYPE)
//  821     {
//  822       //Devices with parent lost are not allowed to perform actions
//  823       if(bdbAttributes.bdbCommissioningMode & BDB_COMMISSIONING_MODE_PARENT_LOST)
//  824       {
//  825         return;
//  826       }
//  827     }
//  828 #endif
//  829     
//  830     //If we are on the network and got requested to do nwk steering, we do not need to wait other process, 
//  831     // just send permit joining and report the application
//  832     if((bdbAttributes.bdbNodeIsOnANetwork) && (mode & BDB_COMMISSIONING_MODE_NWK_STEERING))
??bdb_StartCommissioning_0:
        MOV     DPTR,#bdbAttributes + 14
        MOVX    A,@DPTR
        JZ      ??bdb_StartCommissioning_2
        MOV     A,?V0
        MOV     C,0xE0 /* A   */.1
        JNC     ??bdb_StartCommissioning_2
//  833     {
//  834       bdb_nwkSteeringDeviceOnNwk();
        ; Setup parameters for call to function bdb_nwkSteeringDeviceOnNwk
        LCALL   `??bdb_nwkSteeringDeviceOnNwk::?relay`; Banked call to: bdb_nwkSteeringDeviceOnNwk
//  835       bdb_reportCommissioningState(BDB_COMMISSIONING_STATE_STEERING_ON_NWK, TRUE);
        ; Setup parameters for call to function bdb_reportCommissioningState
        MOV     R2,#0x1
        MOV     R1,#0x4
        LCALL   `??bdb_reportCommissioningState::?relay`; Banked call to: bdb_reportCommissioningState
//  836       
//  837       //Clean nwk steering
//  838       mode ^= BDB_COMMISSIONING_MODE_NWK_STEERING; 
        XRL     ?V0,#0x2
//  839     }
//  840     
//  841     //add the remaining valid commissioning modes requested, those will be process when bdb finish its current process
//  842     bdbAttributes.bdbCommissioningMode |= mode & BDB_COMMISSIONING_MODES;
??bdb_StartCommissioning_2:
        MOV     A,#0x3f
        ANL     A,?V0
        MOV     R0,A
        MOV     DPTR,#bdbAttributes + 11
        MOVX    A,@DPTR
        ORL     A,R0
        MOVX    @DPTR,A
//  843     return;      
        LJMP    ??bdb_StartCommissioning_3 & 0xFFFF
//  844   }
//  845 
//  846   //Save the commissioning modes valid requested
//  847   bdbAttributes.bdbCommissioningMode |= mode & BDB_COMMISSIONING_MODES;
??bdb_StartCommissioning_1:
        MOV     A,#0x3f
        ANL     A,?V0
        MOV     R6,A
        MOV     DPTR,#bdbAttributes + 11
        MOVX    A,@DPTR
        ORL     A,R6
        MOVX    @DPTR,A
//  848   
//  849   
//  850   //Start processing the initialization, once per power cycle.
//  851   if(!bdb_initialization)
        MOV     DPTR,#bdb_initialization
        MOVX    A,@DPTR
        JZ      $+5
        LJMP    ??bdb_StartCommissioning_4 & 0xFFFF
//  852   {
//  853     bdb_initialization = TRUE;
        MOV     A,#0x1
        MOVX    @DPTR,A
//  854     
//  855 #ifdef BDB_REPORTING
//  856     //Delete NV data if startup was with factory reset
//  857     if(ZDO_INITDEV_NEW_NETWORK_STATE == ZDApp_ReadNetworkRestoreState())
        ; Setup parameters for call to function ZDApp_ReadNetworkRestoreState
        LCALL   `??ZDApp_ReadNetworkRestoreState::?relay`; Banked call to: ZDApp_ReadNetworkRestoreState
        MOV     A,R1
        XRL     A,#0x1
        JNZ     ??bdb_StartCommissioning_5
//  858     {
//  859       //Factory reset bdb reporting NV data
//  860       uint16 attrRepNvLen = osal_nv_item_len( ZCD_NV_BDBREPORTINGCONFIG );
        ; Setup parameters for call to function osal_nv_item_len
        MOV     R2,#0x56
        MOV     R3,#0x0
        LCALL   `??osal_nv_item_len::?relay`; Banked call to: osal_nv_item_len
        MOV     ?V2,R2
        MOV     ?V3,R3
        MOV     R4,?V2
        MOV     R5,?V3
//  861       if ( attrRepNvLen > 0 )
        MOV     A,R4
        ORL     A,R5
        JZ      ??bdb_StartCommissioning_5
//  862       {
//  863         osal_nv_delete( ZCD_NV_BDBREPORTINGCONFIG, attrRepNvLen );
        ; Setup parameters for call to function osal_nv_delete
        MOV     R2,#0x56
        MOV     R3,#0x0
        LCALL   `??osal_nv_delete::?relay`; Banked call to: osal_nv_delete
//  864       }
//  865     }
//  866 
//  867     //Construct the Endpoint-cluster array
//  868     bdb_RepConstructReportingData();
??bdb_StartCommissioning_5:
        ; Setup parameters for call to function bdb_RepConstructReportingData
        LCALL   `??bdb_RepConstructReportingData::?relay`; Banked call to: bdb_RepConstructReportingData
//  869 #endif //BDB_REPORTING
//  870 
//  871     osal_nv_read(ZCD_NV_BDBNODEISONANETWORK,0,sizeof(bdbAttributes.bdbNodeIsOnANetwork),&bdbAttributes.bdbNodeIsOnANetwork);
        ; Setup parameters for call to function osal_nv_read
        MOV     ?V2,#(bdbAttributes + 14) & 0xff
        MOV     ?V3,#((bdbAttributes + 14) >> 8) & 0xff
        MOV     R0,#?V2
        LCALL   ?PUSH_XSTACK_I_TWO
          CFI CFA_XSP16 add(XSP16, 34)
        MOV     ?V2,#0x1
        MOV     ?V3,#0x0
        MOV     R0,#?V2
        LCALL   ?PUSH_XSTACK_I_TWO
          CFI CFA_XSP16 add(XSP16, 36)
        MOV     R4,#0x0
        MOV     R5,#0x0
        MOV     R2,#0x55
        MOV     R3,#0x0
        LCALL   `??osal_nv_read::?relay`; Banked call to: osal_nv_read
        MOV     A,#0x4
        LCALL   ?DEALLOC_XSTACK8
          CFI CFA_XSP16 add(XSP16, 32)
//  872     
//  873     //Are we on a network
//  874     if(bdbAttributes.bdbNodeIsOnANetwork == TRUE)
        MOV     DPTR,#bdbAttributes + 14
        MOVX    A,@DPTR
        XRL     A,#0x1
        JZ      $+5
        LJMP    ??bdb_StartCommissioning_4 & 0xFFFF
//  875     {
//  876 #ifdef ZG_BUILD_JOINING_TYPE
//  877       //Only for joining devices validate the joining procedure
//  878       if(ZG_DEVICE_JOINING_TYPE)
        MOV     DPTR,#zgDeviceLogicalType
        MOVX    A,@DPTR
        XRL     A,#0x1
        JZ      ??bdb_StartCommissioning_6
        MOVX    A,@DPTR
        XRL     A,#0x2
        JZ      $+5
        LJMP    ??bdb_StartCommissioning_7 & 0xFFFF
//  879       {
//  880         //If we got into a network
//  881         if(!osal_isbufset( AIB_apsTrustCenterAddress, 0x00, Z_EXTADDR_LEN ))
??bdb_StartCommissioning_6:
        ; Setup parameters for call to function osal_isbufset
        MOV     R4,#0x8
        MOV     R1,#0x0
        MOV     DPTR,#AIB_apsTrustCenterAddress
        LCALL   ??Subroutine45_0 & 0xFFFF
??CrossCallReturnLabel_84:
        LCALL   `??osal_isbufset::?relay`; Banked call to: osal_isbufset
        MOV     A,R1
        JZ      $+5
        LJMP    ??bdb_StartCommissioning_7 & 0xFFFF
//  882         {
//  883           //Which is not distributed
//  884           if(!APSME_IsDistributedSecurity())
        ; Setup parameters for call to function APSME_IsDistributedSecurity
        LCALL   `??APSME_IsDistributedSecurity::?relay`; Banked call to: APSME_IsDistributedSecurity
        MOV     A,R1
        JZ      $+5
        LJMP    ??bdb_StartCommissioning_7 & 0xFFFF
//  885           {
//  886             uint8 keyAttributes;
//  887             osal_nv_read(ZCD_NV_TCLK_TABLE_START, osal_offsetof(APSME_TCLKDevEntry_t,keyAttributes), sizeof(uint8), &keyAttributes);
        ; Setup parameters for call to function osal_nv_read
        MOV     R0,?XSP + 0
        MOV     R1,?XSP + 1
        MOV     ?V2,R0
        MOV     ?V3,R1
        MOV     R0,#?V2
        LCALL   ?PUSH_XSTACK_I_TWO
          CFI CFA_XSP16 add(XSP16, 34)
        MOV     ?V2,#0x1
        MOV     ?V3,#0x0
        MOV     R0,#?V2
        LCALL   ?PUSH_XSTACK_I_TWO
          CFI CFA_XSP16 add(XSP16, 36)
        MOV     R4,#0x10
        MOV     R5,#0x0
        MOV     R2,#0x11
        MOV     R3,#0x1
        LCALL   `??osal_nv_read::?relay`; Banked call to: osal_nv_read
        MOV     A,#0x4
        LCALL   ?DEALLOC_XSTACK8
          CFI CFA_XSP16 add(XSP16, 32)
//  888             //And the TCLK procedure got not complete, then reset the device parameters to FN
//  889             if((keyAttributes != ZG_NON_R21_NWK_JOINED) && (keyAttributes != ZG_VERIFIED_KEY))
        MOV     DPL,?XSP + 0
        MOV     DPH,?XSP + 1
        MOVX    A,@DPTR
        XRL     A,#0xfd
        JNZ     $+5
        LJMP    ??bdb_StartCommissioning_7 & 0xFFFF
        MOVX    A,@DPTR
        XRL     A,#0x2
        JZ      ??bdb_StartCommissioning_7
//  890             {
//  891               //Force to initialize the entry
//  892               APSME_TCLKDevEntry_t APSME_TCLKDevEntry;
//  893               
//  894               osal_memset(&APSME_TCLKDevEntry,0,sizeof(APSME_TCLKDevEntry_t));
        ; Setup parameters for call to function osal_memset
        MOV     R4,#0x13
        MOV     R5,#0x0
        MOV     R1,#0x0
        MOV     A,#0x1
        LCALL   ?XSTACK_DISP101_8
        LCALL   `??osal_memset::?relay`; Banked call to: osal_memset
//  895               APSME_TCLKDevEntry.keyAttributes = ZG_DEFAULT_KEY;
        MOV     A,#0x11
        LCALL   ?XSTACK_DISP0_8
        MOV     A,#-0x1
        MOVX    @DPTR,A
//  896               osal_nv_write(ZCD_NV_TCLK_TABLE_START, 0, sizeof(APSME_TCLKDevEntry_t), &APSME_TCLKDevEntry);
        ; Setup parameters for call to function osal_nv_write
        MOV     A,#0x1
        LCALL   ?XSTACK_DISP100_8
        MOV     ?V2,R0
        MOV     ?V3,R1
        MOV     R0,#?V2
        LCALL   ?PUSH_XSTACK_I_TWO
          CFI CFA_XSP16 add(XSP16, 34)
        MOV     ?V2,#0x13
        MOV     ?V3,#0x0
        MOV     R0,#?V2
        LCALL   ?PUSH_XSTACK_I_TWO
          CFI CFA_XSP16 add(XSP16, 36)
        MOV     R4,#0x0
        MOV     R5,#0x0
        MOV     R2,#0x11
        MOV     R3,#0x1
        LCALL   `??osal_nv_write::?relay`; Banked call to: osal_nv_write
        MOV     A,#0x4
        LCALL   ?DEALLOC_XSTACK8
          CFI CFA_XSP16 add(XSP16, 32)
//  897               TCLinkKeyFrmCntr[0].txFrmCntr = 0;
        MOV     DPTR,#TCLinkKeyFrmCntr
        LCALL   ?Subroutine8 & 0xFFFF
//  898               TCLinkKeyFrmCntr[0].rxFrmCntr = 0;
??CrossCallReturnLabel_44:
        INC     DPTR
        LCALL   ??Subroutine33_0 & 0xFFFF
//  899               
//  900               
//  901               //reset the device parameters to FN
//  902               bdbAttributes.bdbNodeIsOnANetwork = FALSE;
??CrossCallReturnLabel_42:
        MOV     DPTR,#bdbAttributes + 14
        MOVX    @DPTR,A
//  903               osal_nv_write(ZCD_NV_BDBNODEISONANETWORK,0,sizeof(bdbAttributes.bdbNodeIsOnANetwork),&bdbAttributes.bdbNodeIsOnANetwork);
        ; Setup parameters for call to function osal_nv_write
        MOV     ?V2,#(bdbAttributes + 14) & 0xff
        MOV     ?V3,#((bdbAttributes + 14) >> 8) & 0xff
        MOV     R0,#?V2
        LCALL   ?PUSH_XSTACK_I_TWO
          CFI CFA_XSP16 add(XSP16, 34)
        MOV     ?V2,#0x1
        MOV     ?V3,#0x0
        MOV     R0,#?V2
        LCALL   ?PUSH_XSTACK_I_TWO
          CFI CFA_XSP16 add(XSP16, 36)
        MOV     R4,#0x0
        MOV     R5,#0x0
        MOV     R2,#0x55
        MOV     R3,#0x0
        LCALL   `??osal_nv_write::?relay`; Banked call to: osal_nv_write
        MOV     A,#0x4
        LCALL   ?DEALLOC_XSTACK8
          CFI CFA_XSP16 add(XSP16, 32)
//  904               zgWriteStartupOptions(ZG_STARTUP_SET, ZCD_STARTOPT_DEFAULT_CONFIG_STATE | ZCD_STARTOPT_DEFAULT_NETWORK_STATE);
        ; Setup parameters for call to function zgWriteStartupOptions
        MOV     R2,#0x3
        MOV     R1,#-0x1
        LCALL   `??zgWriteStartupOptions::?relay`; Banked call to: zgWriteStartupOptions
//  905               
//  906               //Then start the commissioning process requested
//  907               bdbCommissioningProcedureState.bdbCommissioningState = BDB_COMMISSIONING_STATE_START_RESUME;
        SJMP    ??bdb_StartCommissioning_4
//  908               osal_set_event( bdb_TaskID, BDB_CHANGE_COMMISSIONING_STATE );
//  909               return;
//  910             }
//  911           }
//  912         }
//  913       }
//  914 #endif //ZG_BUILD_JOINING_TYPE
//  915 
//  916       //Set the initialization
//  917       bdbAttributes.bdbCommissioningMode |= BDB_COMMISSIONING_MODE_INITIALIZATION;
//  918       bdbCommissioningProcedureState.bdbCommissioningState = BDB_INITIALIZATION;
??bdb_StartCommissioning_7:
        MOV     DPTR,#bdbCommissioningProcedureState
        MOV     A,#0x7
        MOVX    @DPTR,A
//  919       bdbAttributes.bdbCommissioningMode |= mode & BDB_COMMISSIONING_MODES;
        MOV     A,#0x10
        ORL     A,R6
        MOV     R0,A
        MOV     DPTR,#bdbAttributes + 11
        MOVX    A,@DPTR
        ORL     A,R0
        MOVX    @DPTR,A
//  920       
//  921       if(ZDOInitDevice(0) == ZDO_INITDEV_RESTORED_NETWORK_STATE)
        ; Setup parameters for call to function ZDOInitDeviceEx
        MOV     R1,#0x0
        MOV     R2,#0x0
        MOV     R3,#0x0
        LCALL   `??ZDOInitDeviceEx::?relay`; Banked call to: ZDOInitDeviceEx
        MOV     A,R1
        JNZ     ??bdb_StartCommissioning_8
//  922       {
//  923 #ifdef BDB_REPORTING
//  924         //Mark the clusterEndpoint entries that have binding, starts reporting if at least one entry was marked
//  925         bdb_RepUpdateMarkBindings();
        ; Setup parameters for call to function bdb_RepUpdateMarkBindings
        LCALL   `??bdb_RepUpdateMarkBindings::?relay`; Banked call to: bdb_RepUpdateMarkBindings
//  926 #endif
//  927         return;
        SJMP    ??bdb_StartCommissioning_3
//  928       }
//  929       bdb_setNodeIsOnANetwork(FALSE);  
??bdb_StartCommissioning_8:
        ; Setup parameters for call to function bdb_setNodeIsOnANetwork
        MOV     R1,#0x0
        LCALL   `??bdb_setNodeIsOnANetwork::?relay`; Banked call to: bdb_setNodeIsOnANetwork
//  930       //Not in the network
//  931       bdb_reportCommissioningState(BDB_INITIALIZATION,FALSE);
        ; Setup parameters for call to function bdb_reportCommissioningState
        MOV     R2,#0x0
        MOV     R1,#0x7
        LCALL   `??bdb_reportCommissioningState::?relay`; Banked call to: bdb_reportCommissioningState
//  932       return;
        SJMP    ??bdb_StartCommissioning_3
//  933     }
//  934   }
//  935   
//  936   //Start the commissioning process
//  937   bdbCommissioningProcedureState.bdbCommissioningState = BDB_COMMISSIONING_STATE_START_RESUME;
??bdb_StartCommissioning_4:
        MOV     DPTR,#bdbCommissioningProcedureState
        CLR     A
        MOVX    @DPTR,A
//  938   osal_set_event( bdb_TaskID, BDB_CHANGE_COMMISSIONING_STATE );
        ; Setup parameters for call to function osal_set_event
        MOV     R2,#0x4
        MOV     R3,A
        MOV     DPTR,#bdb_TaskID
        MOVX    A,@DPTR
        MOV     R1,A
        LCALL   `??osal_set_event::?relay`; Banked call to: osal_set_event
//  939 }
??bdb_StartCommissioning_3:
        MOV     A,#0x14
        LJMP    ??Subroutine37_0 & 0xFFFF
          CFI EndBlock cfiBlock39

        RSEG BANKED_CODE:CODE:NOROOT(0)
?Subroutine8:
          CFI Block cfiCond40 Using cfiCommon0
          CFI Function bdb_TCProcessJoiningList
          CFI Conditional ??CrossCallReturnLabel_43
          CFI R6 load(1, XDATA, add(CFA_XSP16, literal(-16)))
          CFI VB load(1, XDATA, add(CFA_XSP16, literal(-15)))
          CFI V0 load(1, XDATA, add(CFA_XSP16, literal(-14)))
          CFI V1 load(1, XDATA, add(CFA_XSP16, literal(-13)))
          CFI V2 load(1, XDATA, add(CFA_XSP16, literal(-12)))
          CFI V3 load(1, XDATA, add(CFA_XSP16, literal(-11)))
          CFI V4 load(1, XDATA, add(CFA_XSP16, literal(-10)))
          CFI V5 load(1, XDATA, add(CFA_XSP16, literal(-9)))
          CFI V6 load(1, XDATA, add(CFA_XSP16, literal(-8)))
          CFI V7 load(1, XDATA, add(CFA_XSP16, literal(-7)))
          CFI R7 load(1, XDATA, add(CFA_XSP16, literal(-6)))
          CFI ?RET_LOW load(1, XDATA, add(CFA_XSP16, literal(-5)))
          CFI ?RET_HIGH load(1, XDATA, add(CFA_XSP16, literal(-4)))
          CFI ?BRET_EXT load(1, XDATA, add(CFA_XSP16, literal(-3)))
          CFI DPL0 load(1, XDATA, add(CFA_XSP16, literal(-2)))
          CFI DPH0 load(1, XDATA, add(CFA_XSP16, literal(-1)))
          CFI CFA_SP SP+-2
          CFI CFA_XSP16 add(XSP16, 58)
          CFI Block cfiCond41 Using cfiCommon0
          CFI (cfiCond41) Function bdb_StartCommissioning
          CFI (cfiCond41) Conditional ??CrossCallReturnLabel_44
          CFI (cfiCond41) R6 load(1, XDATA, add(CFA_XSP16, literal(-12)))
          CFI (cfiCond41) VB load(1, XDATA, add(CFA_XSP16, literal(-11)))
          CFI (cfiCond41) V0 load(1, XDATA, add(CFA_XSP16, literal(-10)))
          CFI (cfiCond41) V1 load(1, XDATA, add(CFA_XSP16, literal(-9)))
          CFI (cfiCond41) V2 load(1, XDATA, add(CFA_XSP16, literal(-8)))
          CFI (cfiCond41) V3 load(1, XDATA, add(CFA_XSP16, literal(-7)))
          CFI (cfiCond41) R7 load(1, XDATA, add(CFA_XSP16, literal(-6)))
          CFI (cfiCond41) ?RET_LOW load(1, XDATA, add(CFA_XSP16, literal(-5)))
          CFI (cfiCond41) ?RET_HIGH load(1, XDATA, add(CFA_XSP16, literal(-4)))
          CFI (cfiCond41) ?BRET_EXT load(1, XDATA, add(CFA_XSP16, literal(-3)))
          CFI (cfiCond41) DPL0 load(1, XDATA, add(CFA_XSP16, literal(-2)))
          CFI (cfiCond41) DPH0 load(1, XDATA, add(CFA_XSP16, literal(-1)))
          CFI (cfiCond41) CFA_SP SP+-2
          CFI (cfiCond41) CFA_XSP16 add(XSP16, 32)
          CFI Block cfiPicker42 Using cfiCommon1
          CFI (cfiPicker42) NoFunction
          CFI (cfiPicker42) Picker
        CLR     A
          CFI EndBlock cfiCond40
          CFI EndBlock cfiCond41
          CFI EndBlock cfiPicker42
        REQUIRE ??Subroutine33_0
        ; // Fall through to label ??Subroutine33_0

        RSEG BANKED_CODE:CODE:NOROOT(0)
??Subroutine33_0:
          CFI Block cfiCond43 Using cfiCommon0
          CFI Function bdb_TCProcessJoiningList
          CFI Conditional ??CrossCallReturnLabel_41
          CFI R6 load(1, XDATA, add(CFA_XSP16, literal(-16)))
          CFI VB load(1, XDATA, add(CFA_XSP16, literal(-15)))
          CFI V0 load(1, XDATA, add(CFA_XSP16, literal(-14)))
          CFI V1 load(1, XDATA, add(CFA_XSP16, literal(-13)))
          CFI V2 load(1, XDATA, add(CFA_XSP16, literal(-12)))
          CFI V3 load(1, XDATA, add(CFA_XSP16, literal(-11)))
          CFI V4 load(1, XDATA, add(CFA_XSP16, literal(-10)))
          CFI V5 load(1, XDATA, add(CFA_XSP16, literal(-9)))
          CFI V6 load(1, XDATA, add(CFA_XSP16, literal(-8)))
          CFI V7 load(1, XDATA, add(CFA_XSP16, literal(-7)))
          CFI R7 load(1, XDATA, add(CFA_XSP16, literal(-6)))
          CFI ?RET_LOW load(1, XDATA, add(CFA_XSP16, literal(-5)))
          CFI ?RET_HIGH load(1, XDATA, add(CFA_XSP16, literal(-4)))
          CFI ?BRET_EXT load(1, XDATA, add(CFA_XSP16, literal(-3)))
          CFI DPL0 load(1, XDATA, add(CFA_XSP16, literal(-2)))
          CFI DPH0 load(1, XDATA, add(CFA_XSP16, literal(-1)))
          CFI CFA_SP SP+-2
          CFI CFA_XSP16 add(XSP16, 58)
          CFI Block cfiCond44 Using cfiCommon0
          CFI (cfiCond44) Function bdb_StartCommissioning
          CFI (cfiCond44) Conditional ??CrossCallReturnLabel_42
          CFI (cfiCond44) R6 load(1, XDATA, add(CFA_XSP16, literal(-12)))
          CFI (cfiCond44) VB load(1, XDATA, add(CFA_XSP16, literal(-11)))
          CFI (cfiCond44) V0 load(1, XDATA, add(CFA_XSP16, literal(-10)))
          CFI (cfiCond44) V1 load(1, XDATA, add(CFA_XSP16, literal(-9)))
          CFI (cfiCond44) V2 load(1, XDATA, add(CFA_XSP16, literal(-8)))
          CFI (cfiCond44) V3 load(1, XDATA, add(CFA_XSP16, literal(-7)))
          CFI (cfiCond44) R7 load(1, XDATA, add(CFA_XSP16, literal(-6)))
          CFI (cfiCond44) ?RET_LOW load(1, XDATA, add(CFA_XSP16, literal(-5)))
          CFI (cfiCond44) ?RET_HIGH load(1, XDATA, add(CFA_XSP16, literal(-4)))
          CFI (cfiCond44) ?BRET_EXT load(1, XDATA, add(CFA_XSP16, literal(-3)))
          CFI (cfiCond44) DPL0 load(1, XDATA, add(CFA_XSP16, literal(-2)))
          CFI (cfiCond44) DPH0 load(1, XDATA, add(CFA_XSP16, literal(-1)))
          CFI (cfiCond44) CFA_SP SP+-2
          CFI (cfiCond44) CFA_XSP16 add(XSP16, 32)
          CFI Block cfiCond45 Using cfiCommon0
          CFI (cfiCond45) Function bdb_TCProcessJoiningList
          CFI (cfiCond45) Conditional ??CrossCallReturnLabel_43
          CFI (cfiCond45) R6 load(1, XDATA, add(CFA_XSP16, literal(-16)))
          CFI (cfiCond45) VB load(1, XDATA, add(CFA_XSP16, literal(-15)))
          CFI (cfiCond45) V0 load(1, XDATA, add(CFA_XSP16, literal(-14)))
          CFI (cfiCond45) V1 load(1, XDATA, add(CFA_XSP16, literal(-13)))
          CFI (cfiCond45) V2 load(1, XDATA, add(CFA_XSP16, literal(-12)))
          CFI (cfiCond45) V3 load(1, XDATA, add(CFA_XSP16, literal(-11)))
          CFI (cfiCond45) V4 load(1, XDATA, add(CFA_XSP16, literal(-10)))
          CFI (cfiCond45) V5 load(1, XDATA, add(CFA_XSP16, literal(-9)))
          CFI (cfiCond45) V6 load(1, XDATA, add(CFA_XSP16, literal(-8)))
          CFI (cfiCond45) V7 load(1, XDATA, add(CFA_XSP16, literal(-7)))
          CFI (cfiCond45) R7 load(1, XDATA, add(CFA_XSP16, literal(-6)))
          CFI (cfiCond45) ?RET_LOW load(1, XDATA, add(CFA_XSP16, literal(-5)))
          CFI (cfiCond45) ?RET_HIGH load(1, XDATA, add(CFA_XSP16, literal(-4)))
          CFI (cfiCond45) ?BRET_EXT load(1, XDATA, add(CFA_XSP16, literal(-3)))
          CFI (cfiCond45) DPL0 load(1, XDATA, add(CFA_XSP16, literal(-2)))
          CFI (cfiCond45) DPH0 load(1, XDATA, add(CFA_XSP16, literal(-1)))
          CFI (cfiCond45) CFA_SP SP+-2
          CFI (cfiCond45) CFA_XSP16 add(XSP16, 58)
          CFI Block cfiCond46 Using cfiCommon0
          CFI (cfiCond46) Function bdb_StartCommissioning
          CFI (cfiCond46) Conditional ??CrossCallReturnLabel_44
          CFI (cfiCond46) R6 load(1, XDATA, add(CFA_XSP16, literal(-12)))
          CFI (cfiCond46) VB load(1, XDATA, add(CFA_XSP16, literal(-11)))
          CFI (cfiCond46) V0 load(1, XDATA, add(CFA_XSP16, literal(-10)))
          CFI (cfiCond46) V1 load(1, XDATA, add(CFA_XSP16, literal(-9)))
          CFI (cfiCond46) V2 load(1, XDATA, add(CFA_XSP16, literal(-8)))
          CFI (cfiCond46) V3 load(1, XDATA, add(CFA_XSP16, literal(-7)))
          CFI (cfiCond46) R7 load(1, XDATA, add(CFA_XSP16, literal(-6)))
          CFI (cfiCond46) ?RET_LOW load(1, XDATA, add(CFA_XSP16, literal(-5)))
          CFI (cfiCond46) ?RET_HIGH load(1, XDATA, add(CFA_XSP16, literal(-4)))
          CFI (cfiCond46) ?BRET_EXT load(1, XDATA, add(CFA_XSP16, literal(-3)))
          CFI (cfiCond46) DPL0 load(1, XDATA, add(CFA_XSP16, literal(-2)))
          CFI (cfiCond46) DPH0 load(1, XDATA, add(CFA_XSP16, literal(-1)))
          CFI (cfiCond46) CFA_SP SP+-2
          CFI (cfiCond46) CFA_XSP16 add(XSP16, 32)
          CFI Block cfiPicker47 Using cfiCommon1
          CFI (cfiPicker47) NoFunction
          CFI (cfiPicker47) Picker
        MOVX    @DPTR,A
        INC     DPTR
        MOVX    @DPTR,A
        INC     DPTR
        MOVX    @DPTR,A
        INC     DPTR
        MOVX    @DPTR,A
        RET
          CFI EndBlock cfiCond43
          CFI EndBlock cfiCond44
          CFI EndBlock cfiCond45
          CFI EndBlock cfiCond46
          CFI EndBlock cfiPicker47
//  940 
//  941 
//  942  /*********************************************************************
//  943  * @fn          bdb_NotifyCommissioningModeStart
//  944  *
//  945  * @brief       Notify the user about a commissioning method just started
//  946  *
//  947  * @param       commissioningMode
//  948  *
//  949  * @return      none
//  950  */

        RSEG BANKED_CODE:CODE:NOROOT(0)
//  951 void bdb_NotifyCommissioningModeStart(uint8 commissioningMode)
bdb_NotifyCommissioningModeStart:
          CFI Block cfiBlock48 Using cfiCommon0
          CFI Function bdb_NotifyCommissioningModeStart
        CODE
//  952 {
        FUNCALL bdb_NotifyCommissioningModeStart, bdb_SendMsg
        LOCFRAME ISTACK, 0, STACK
        LOCFRAME PSTACK, 0, STACK
        LOCFRAME XSTACK, 15, STACK
        LOCFRAME IOVERLAY, 0, STATIC
        LOCFRAME DOVERLAY, 0, STATIC
        ARGFRAME ISTACK, 0, STACK
        ARGFRAME PSTACK, 0, STACK
        ARGFRAME XSTACK, 15, STACK
        ARGFRAME IOVERLAY, 0, STATIC
        ARGFRAME DOVERLAY, 0, STATIC
        REQUIRE ?V0
        REQUIRE ?V1
        MOV     A,#-0xa
        LCALL   ?BANKED_ENTER_XDATA
          CFI DPH0 load(1, XDATA, add(CFA_XSP16, literal(-1)))
          CFI DPL0 load(1, XDATA, add(CFA_XSP16, literal(-2)))
          CFI ?BRET_EXT load(1, XDATA, add(CFA_XSP16, literal(-3)))
          CFI ?RET_HIGH load(1, XDATA, add(CFA_XSP16, literal(-4)))
          CFI ?RET_LOW load(1, XDATA, add(CFA_XSP16, literal(-5)))
          CFI R7 load(1, XDATA, add(CFA_XSP16, literal(-6)))
          CFI V1 load(1, XDATA, add(CFA_XSP16, literal(-7)))
          CFI V0 load(1, XDATA, add(CFA_XSP16, literal(-8)))
          CFI VB load(1, XDATA, add(CFA_XSP16, literal(-9)))
          CFI R6 load(1, XDATA, add(CFA_XSP16, literal(-10)))
          CFI CFA_SP SP+0
          CFI CFA_XSP16 add(XSP16, 10)
        ; Saved register size: 10
        ; Auto size: 3
        MOV     A,#-0x3
        LCALL   ?ALLOC_XSTACK8
          CFI CFA_XSP16 add(XSP16, 13)
//  953   bdbCommissioningModeMsg_t bdbCommissioningModeMsg;
//  954 
//  955   bdbCommissioningModeMsg.bdbCommissioningMode = commissioningMode;
        MOV     A,#0x1
        LCALL   ?XSTACK_DISP0_8
        MOV     A,R1
        MOVX    @DPTR,A
//  956   bdbCommissioningModeMsg.bdbCommissioningStatus = BDB_COMMISSIONING_IN_PROGRESS;
        LCALL   ?Subroutine7 & 0xFFFF
//  957   //Remaining commissioning modes are set just before the call to the application to avoid race conditions
//  958 
//  959   bdb_NotifyApp((uint8*)&bdbCommissioningModeMsg);
??CrossCallReturnLabel_37:
        LCALL   ?PUSH_XSTACK_I_TWO
          CFI CFA_XSP16 add(XSP16, 15)
        MOV     R4,#0x3
        MOV     R3,#0x0
        MOV     R2,#0xa
        MOV     DPTR,#bdb_TaskID
        MOVX    A,@DPTR
        MOV     R1,A
        LCALL   `??bdb_SendMsg::?relay`; Banked call to: bdb_SendMsg
        MOV     A,#0x2
        LCALL   ?DEALLOC_XSTACK8
          CFI CFA_XSP16 add(XSP16, 13)
//  960 }
        MOV     A,#0x3
        LJMP    ?Subroutine1 & 0xFFFF
          CFI EndBlock cfiBlock48
//  961 
//  962 
//  963 
//  964 #if (ZG_BUILD_JOINING_TYPE)
//  965  /*********************************************************************
//  966  * @fn          bdb_setNodeJoinLinkKeyType
//  967  *
//  968  * @brief       Set the key type in use in the network joined. Global centralized key is used by default
//  969  *
//  970  * @param       none
//  971  *
//  972  * @return      none
//  973  */
//  974 void bdb_setNodeJoinLinkKeyType(uint8 KeyType)
//  975 {
//  976   bdbAttributes.bdbNodeJoinLinkKeyType = KeyType;
//  977 }
//  978 #endif
//  979 
//  980  /*********************************************************************
//  981  * @fn          bdb_setFN
//  982  *
//  983  * @brief       Set configuration for FN. This FN configuration will be perfome 
//  984  *              upon call to ZDOInitDevice
//  985  *
//  986  * @param       none
//  987  *
//  988  * @return      none
//  989  */

        RSEG BANKED_CODE:CODE:NOROOT(0)
//  990 void bdb_setFN(void)
bdb_setFN:
          CFI Block cfiBlock49 Using cfiCommon0
          CFI Function bdb_setFN
        CODE
//  991 {
        FUNCALL bdb_setFN, bdb_setNodeIsOnANetwork
        LOCFRAME ISTACK, 2, STACK
        LOCFRAME PSTACK, 0, STACK
        LOCFRAME XSTACK, 0, STACK
        LOCFRAME IOVERLAY, 0, STATIC
        LOCFRAME DOVERLAY, 0, STATIC
        ARGFRAME ISTACK, 2, STACK
        ARGFRAME PSTACK, 0, STACK
        ARGFRAME XSTACK, 0, STACK
        ARGFRAME IOVERLAY, 0, STATIC
        ARGFRAME DOVERLAY, 0, STATIC
        FUNCALL bdb_setFN, zgWriteStartupOptions
        LOCFRAME ISTACK, 2, STACK
        LOCFRAME PSTACK, 0, STACK
        LOCFRAME XSTACK, 0, STACK
        LOCFRAME IOVERLAY, 0, STATIC
        LOCFRAME DOVERLAY, 0, STATIC
        ARGFRAME ISTACK, 2, STACK
        ARGFRAME PSTACK, 0, STACK
        ARGFRAME XSTACK, 0, STACK
        ARGFRAME IOVERLAY, 0, STATIC
        ARGFRAME DOVERLAY, 0, STATIC
        PUSH    DPL
          CFI DPL0 Frame(CFA_SP, 4)
          CFI CFA_SP SP+-4
        PUSH    DPH
          CFI DPH0 Frame(CFA_SP, 5)
          CFI CFA_SP SP+-5
        ; Saved register size: 2
        ; Auto size: 0
//  992   bdb_setNodeIsOnANetwork(FALSE);
        ; Setup parameters for call to function bdb_setNodeIsOnANetwork
        MOV     R1,#0x0
        LCALL   `??bdb_setNodeIsOnANetwork::?relay`; Banked call to: bdb_setNodeIsOnANetwork
//  993 
//  994 #if defined ( INTER_PAN ) && defined ( BDB_TL_INITIATOR )
//  995     touchLink_InitFreeRanges( TRUE );
//  996     touchLink_UpdateNV( TOUCHLINK_UPDATE_NV_RANGES );
//  997 #endif
//  998 #if defined ( INTER_PAN ) && defined ( BDB_TL_TARGET ) 
//  999     touchLink_InitFreeRanges( FALSE );
// 1000     touchLink_UpdateNV( TOUCHLINK_UPDATE_NV_RANGES );
// 1001 #endif
// 1002 
// 1003   //Set the device as factory new
// 1004   zgWriteStartupOptions(ZG_STARTUP_SET, ZCD_STARTOPT_DEFAULT_CONFIG_STATE | ZCD_STARTOPT_DEFAULT_NETWORK_STATE);
        ; Setup parameters for call to function zgWriteStartupOptions
        MOV     R2,#0x3
        MOV     R1,#-0x1
        LCALL   `??zgWriteStartupOptions::?relay`; Banked call to: zgWriteStartupOptions
// 1005 }
        SJMP    ??Subroutine35_0
          CFI EndBlock cfiBlock49
// 1006 
// 1007  /*********************************************************************
// 1008  * @fn          bdb_resetLocalAction
// 1009  *
// 1010  * @brief       Application interface to perform BDB Reset to FN.
// 1011  *
// 1012  * @param       none
// 1013  *
// 1014  * @return      none
// 1015  */

        RSEG BANKED_CODE:CODE:NOROOT(0)
// 1016 void bdb_resetLocalAction(void)
bdb_resetLocalAction:
          CFI Block cfiBlock50 Using cfiCommon0
          CFI Function bdb_resetLocalAction
        CODE
// 1017 {
        FUNCALL bdb_resetLocalAction, bdb_setFN
        LOCFRAME ISTACK, 2, STACK
        LOCFRAME PSTACK, 0, STACK
        LOCFRAME XSTACK, 0, STACK
        LOCFRAME IOVERLAY, 0, STATIC
        LOCFRAME DOVERLAY, 0, STATIC
        ARGFRAME ISTACK, 2, STACK
        ARGFRAME PSTACK, 0, STACK
        ARGFRAME XSTACK, 0, STACK
        ARGFRAME IOVERLAY, 0, STATIC
        ARGFRAME DOVERLAY, 0, STATIC
        FUNCALL bdb_resetLocalAction, ZDApp_ResetTimerStart
        LOCFRAME ISTACK, 2, STACK
        LOCFRAME PSTACK, 0, STACK
        LOCFRAME XSTACK, 0, STACK
        LOCFRAME IOVERLAY, 0, STATIC
        LOCFRAME DOVERLAY, 0, STATIC
        ARGFRAME ISTACK, 2, STACK
        ARGFRAME PSTACK, 0, STACK
        ARGFRAME XSTACK, 0, STACK
        ARGFRAME IOVERLAY, 0, STATIC
        ARGFRAME DOVERLAY, 0, STATIC
        PUSH    DPL
          CFI DPL0 Frame(CFA_SP, 4)
          CFI CFA_SP SP+-4
        PUSH    DPH
          CFI DPH0 Frame(CFA_SP, 5)
          CFI CFA_SP SP+-5
        ; Saved register size: 2
        ; Auto size: 0
// 1018   //Process reset as nwk leave if the device is on the network and is able to process it
// 1019   if((ZG_BUILD_JOINING_TYPE) && (bdbAttributes.bdbNodeIsOnANetwork) && (!(bdbAttributes.bdbCommissioningMode & BDB_COMMISSIONING_MODE_PARENT_LOST)))
// 1020   {
// 1021     NLME_LeaveReq_t leaveReq;
// 1022     // Set every field to 0
// 1023     osal_memset( &leaveReq, 0, sizeof( NLME_LeaveReq_t ) );
// 1024     
// 1025     bdb_setFN();
// 1026       
// 1027     NLME_LeaveReq( &leaveReq );
// 1028     
// 1029     return;
// 1030   }
// 1031   else
// 1032   {
// 1033     bdb_setFN();
        ; Setup parameters for call to function bdb_setFN
        LCALL   `??bdb_setFN::?relay`; Banked call to: bdb_setFN
// 1034     
// 1035     ZDApp_ResetTimerStart( 500 );
        ; Setup parameters for call to function ZDApp_ResetTimerStart
        MOV     R2,#-0xc
        MOV     R3,#0x1
        LCALL   `??ZDApp_ResetTimerStart::?relay`; Banked call to: ZDApp_ResetTimerStart
// 1036   }
// 1037 }
        SJMP    ??Subroutine35_0
          CFI EndBlock cfiBlock50

        RSEG BANKED_CODE:CODE:NOROOT(0)
?Subroutine3:
          CFI Block cfiBlock51 Using cfiCommon0
          CFI NoFunction
          CFI CFA_SP SP+-5
          CFI DPL0 Frame(CFA_SP, 4)
          CFI DPH0 Frame(CFA_SP, 5)
        MOV     A,R2
        MOVX    @DPTR,A
        INC     DPTR
        MOV     A,R3
          CFI EndBlock cfiBlock51
        REQUIRE ??Subroutine34_0
        ; // Fall through to label ??Subroutine34_0

        RSEG BANKED_CODE:CODE:NOROOT(0)
??Subroutine34_0:
          CFI Block cfiBlock52 Using cfiCommon0
          CFI NoFunction
          CFI CFA_SP SP+-5
          CFI DPL0 Frame(CFA_SP, 4)
          CFI DPH0 Frame(CFA_SP, 5)
        MOVX    @DPTR,A
          CFI EndBlock cfiBlock52
        REQUIRE ??Subroutine35_0
        ; // Fall through to label ??Subroutine35_0

        RSEG BANKED_CODE:CODE:NOROOT(0)
??Subroutine35_0:
          CFI Block cfiBlock53 Using cfiCommon0
          CFI NoFunction
          CFI CFA_SP SP+-5
          CFI DPL0 Frame(CFA_SP, 4)
          CFI DPH0 Frame(CFA_SP, 5)
        POP     DPH
          CFI CFA_SP SP+-4
          CFI DPH0 SameValue
        POP     DPL
          CFI CFA_SP SP+-3
          CFI DPL0 SameValue
        LJMP    ?BRET
          CFI EndBlock cfiBlock53
// 1038 
// 1039 
// 1040  /*********************************************************************
// 1041  * @fn          bdb_parentLost
// 1042  *
// 1043  * @brief       Notify bdb that connection with parent is lost
// 1044  *
// 1045  * @return      none
// 1046  */

        RSEG BANKED_CODE:CODE:NOROOT(0)
// 1047 void bdb_parentLost(void)
bdb_parentLost:
          CFI Block cfiBlock54 Using cfiCommon0
          CFI Function bdb_parentLost
        CODE
// 1048 {
        ; Saved register size: 0
        ; Auto size: 0
// 1049 #if ZG_BUILD_ENDDEVICE_TYPE
// 1050   if(ZG_DEVICE_ENDDEVICE_TYPE)
// 1051   {
// 1052     while(pBDBListNwk)
// 1053     {
// 1054       bdb_nwkDescFree(pBDBListNwk);
// 1055     }
// 1056     
// 1057     nwk_desc_list_free();  
// 1058     if(bdbCommissioningProcedureState.bdbCommissioningState != BDB_PARENT_LOST)
// 1059     {
// 1060       //If parent lost during TCLK exchange, then report TCLK exchange fail
// 1061       if(bdbCommissioningProcedureState.bdbCommissioningState == BDB_COMMISSIONING_STATE_TC_LINK_KEY_EXCHANGE)
// 1062       {
// 1063         bdb_reportCommissioningState(BDB_COMMISSIONING_STATE_TC_LINK_KEY_EXCHANGE, FALSE);
// 1064         return;
// 1065       }
// 1066       bdbCommissioningProcedureState.bdb_ParentLostSavedState = bdbCommissioningProcedureState.bdbCommissioningState;
// 1067       
// 1068     }
// 1069     bdbCommissioningProcedureState.bdbCommissioningState = BDB_PARENT_LOST;
// 1070     NLME_OrphanStateSet();
// 1071     ZDApp_ChangeState( DEV_NWK_ORPHAN );
// 1072     bdb_reportCommissioningState(BDB_PARENT_LOST,FALSE);
// 1073   }
// 1074 #endif
// 1075 }
        LJMP    ?BRET
          CFI EndBlock cfiBlock54
// 1076 
// 1077 
// 1078 
// 1079 
// 1080 
// 1081  /*********************************************************************
// 1082  * @fn          bdb_NetworkRestoredResumeState
// 1083  *
// 1084  * @brief       Restore the state of child device after parent lost
// 1085  *
// 1086  * @return      none
// 1087  */

        RSEG BANKED_CODE:CODE:NOROOT(0)
// 1088 void bdb_NetworkRestoredResumeState(void)
bdb_NetworkRestoredResumeState:
          CFI Block cfiBlock55 Using cfiCommon0
          CFI Function bdb_NetworkRestoredResumeState
        CODE
// 1089 {
        ; Saved register size: 0
        ; Auto size: 0
// 1090 #if ZG_BUILD_ENDDEVICE_TYPE
// 1091   if(ZG_DEVICE_ENDDEVICE_TYPE)
// 1092   {
// 1093     uint8 restoreSimpleDesc = FALSE;
// 1094     //If restored when F&B still enabled, then restore the simple descriptors attempts
// 1095     if(bdbCommissioningProcedureState.bdbCommissioningState == BDB_COMMISSIONING_STATE_FINDING_BINDING)
// 1096     {
// 1097       bdbFindingBindingRespondent_t  *pRespondentTemp = NULL;
// 1098       
// 1099       pRespondentTemp = pRespondentHead;
// 1100       
// 1101       while(pRespondentTemp != NULL)
// 1102       {
// 1103         if(pRespondentTemp->attempts == BDB_SIMPLE_DESC_PENDING_PARENT_LOST)
// 1104         {
// 1105           pRespondentTemp->attempts = 0;
// 1106           restoreSimpleDesc = TRUE;
// 1107         }
// 1108         pRespondentTemp = pRespondentTemp->pNext;
// 1109       }
// 1110     }
// 1111     if(restoreSimpleDesc)
// 1112     {
// 1113       //Restore the simple Descriptor sending after 1 second of restoring the network
// 1114       osal_start_timerEx(bdb_TaskID,BDB_RESPONDENT_SIMPLEDESC_TIMEOUT, 1000);
// 1115     }
// 1116   }
// 1117 #endif
// 1118 }
        LJMP    ?BRET
          CFI EndBlock cfiBlock55
// 1119 
// 1120 #if ZG_BUILD_ENDDEVICE_TYPE
// 1121  /*********************************************************************
// 1122  * @fn          bdb_ZedAttemptRecoverNwk
// 1123  *
// 1124  * @brief       Instruct the ZED to try to rejoin its previews network
// 1125  *
// 1126  * @return      success if the attempt is being excecuted
// 1127  *              False if device do not have nwk parameters to perform this action
// 1128  */
// 1129 uint8 bdb_ZedAttemptRecoverNwk(void)
// 1130 {
// 1131   if(ZG_DEVICE_ENDDEVICE_TYPE)
// 1132   {
// 1133     if(bdbAttributes.bdbNodeIsOnANetwork)
// 1134     {
// 1135       if(bdbCommissioningProcedureState.bdbCommissioningState == BDB_PARENT_LOST)
// 1136       {
// 1137         if(ZDOInitDevice(0) == ZDO_INITDEV_RESTORED_NETWORK_STATE)
// 1138         {
// 1139           return ZSuccess;
// 1140         }
// 1141       }
// 1142     }
// 1143   }
// 1144   return ZFailure;
// 1145 }
// 1146 
// 1147 #endif
// 1148 
// 1149  /*********************************************************************
// 1150  * @fn          bdb_reportCommissioningState
// 1151  *
// 1152  * @brief       Process the result of a BDB main state attempt.
// 1153  *
// 1154  * @param       bdbCommissioningState - MainState that is issuing fail
// 1155  * @param       didSuccess - TRUE if the main state were success, FALSE otherwise
// 1156  *
// 1157  * @return      none
// 1158  */

        RSEG BANKED_CODE:CODE:NOROOT(0)
// 1159 void bdb_reportCommissioningState(uint8 bdbCommissioningState,bool didSuccess)
bdb_reportCommissioningState:
          CFI Block cfiBlock56 Using cfiCommon0
          CFI Function bdb_reportCommissioningState
        CODE
// 1160 {
        FUNCALL bdb_reportCommissioningState, ZDApp_ChangeState
        LOCFRAME ISTACK, 0, STACK
        LOCFRAME PSTACK, 0, STACK
        LOCFRAME XSTACK, 14, STACK
        LOCFRAME IOVERLAY, 0, STATIC
        LOCFRAME DOVERLAY, 0, STATIC
        ARGFRAME ISTACK, 0, STACK
        ARGFRAME PSTACK, 0, STACK
        ARGFRAME XSTACK, 14, STACK
        ARGFRAME IOVERLAY, 0, STATIC
        ARGFRAME DOVERLAY, 0, STATIC
        FUNCALL bdb_reportCommissioningState, osal_start_timerEx
        LOCFRAME ISTACK, 0, STACK
        LOCFRAME PSTACK, 0, STACK
        LOCFRAME XSTACK, 18, STACK
        LOCFRAME IOVERLAY, 0, STATIC
        LOCFRAME DOVERLAY, 0, STATIC
        ARGFRAME ISTACK, 0, STACK
        ARGFRAME PSTACK, 0, STACK
        ARGFRAME XSTACK, 18, STACK
        ARGFRAME IOVERLAY, 0, STATIC
        ARGFRAME DOVERLAY, 0, STATIC
        FUNCALL bdb_reportCommissioningState, ZDApp_ChangeState
        LOCFRAME ISTACK, 0, STACK
        LOCFRAME PSTACK, 0, STACK
        LOCFRAME XSTACK, 14, STACK
        LOCFRAME IOVERLAY, 0, STATIC
        LOCFRAME DOVERLAY, 0, STATIC
        ARGFRAME ISTACK, 0, STACK
        ARGFRAME PSTACK, 0, STACK
        ARGFRAME XSTACK, 14, STACK
        ARGFRAME IOVERLAY, 0, STATIC
        ARGFRAME DOVERLAY, 0, STATIC
        FUNCALL bdb_reportCommissioningState, ZDApp_ChangeState
        LOCFRAME ISTACK, 0, STACK
        LOCFRAME PSTACK, 0, STACK
        LOCFRAME XSTACK, 14, STACK
        LOCFRAME IOVERLAY, 0, STATIC
        LOCFRAME DOVERLAY, 0, STATIC
        ARGFRAME ISTACK, 0, STACK
        ARGFRAME PSTACK, 0, STACK
        ARGFRAME XSTACK, 14, STACK
        ARGFRAME IOVERLAY, 0, STATIC
        ARGFRAME DOVERLAY, 0, STATIC
        FUNCALL bdb_reportCommissioningState, ZMacSetReq
        LOCFRAME ISTACK, 0, STACK
        LOCFRAME PSTACK, 0, STACK
        LOCFRAME XSTACK, 14, STACK
        LOCFRAME IOVERLAY, 0, STATIC
        LOCFRAME DOVERLAY, 0, STATIC
        ARGFRAME ISTACK, 0, STACK
        ARGFRAME PSTACK, 0, STACK
        ARGFRAME XSTACK, 14, STACK
        ARGFRAME IOVERLAY, 0, STATIC
        ARGFRAME DOVERLAY, 0, STATIC
        FUNCALL bdb_reportCommissioningState, bdb_setFN
        LOCFRAME ISTACK, 0, STACK
        LOCFRAME PSTACK, 0, STACK
        LOCFRAME XSTACK, 14, STACK
        LOCFRAME IOVERLAY, 0, STATIC
        LOCFRAME DOVERLAY, 0, STATIC
        ARGFRAME ISTACK, 0, STACK
        ARGFRAME PSTACK, 0, STACK
        ARGFRAME XSTACK, 14, STACK
        ARGFRAME IOVERLAY, 0, STATIC
        ARGFRAME DOVERLAY, 0, STATIC
        FUNCALL bdb_reportCommissioningState, NLME_ResetRequest
        LOCFRAME ISTACK, 0, STACK
        LOCFRAME PSTACK, 0, STACK
        LOCFRAME XSTACK, 14, STACK
        LOCFRAME IOVERLAY, 0, STATIC
        LOCFRAME DOVERLAY, 0, STATIC
        ARGFRAME ISTACK, 0, STACK
        ARGFRAME PSTACK, 0, STACK
        ARGFRAME XSTACK, 14, STACK
        ARGFRAME IOVERLAY, 0, STATIC
        ARGFRAME DOVERLAY, 0, STATIC
        FUNCALL bdb_reportCommissioningState, ZDApp_ChangeState
        LOCFRAME ISTACK, 0, STACK
        LOCFRAME PSTACK, 0, STACK
        LOCFRAME XSTACK, 14, STACK
        LOCFRAME IOVERLAY, 0, STATIC
        LOCFRAME DOVERLAY, 0, STATIC
        ARGFRAME ISTACK, 0, STACK
        ARGFRAME PSTACK, 0, STACK
        ARGFRAME XSTACK, 14, STACK
        ARGFRAME IOVERLAY, 0, STATIC
        ARGFRAME DOVERLAY, 0, STATIC
        FUNCALL bdb_reportCommissioningState, osal_start_timerEx
        LOCFRAME ISTACK, 0, STACK
        LOCFRAME PSTACK, 0, STACK
        LOCFRAME XSTACK, 18, STACK
        LOCFRAME IOVERLAY, 0, STATIC
        LOCFRAME DOVERLAY, 0, STATIC
        ARGFRAME ISTACK, 0, STACK
        ARGFRAME PSTACK, 0, STACK
        ARGFRAME XSTACK, 18, STACK
        ARGFRAME IOVERLAY, 0, STATIC
        ARGFRAME DOVERLAY, 0, STATIC
        FUNCALL bdb_reportCommissioningState, bdb_getRespondentRetry
        LOCFRAME ISTACK, 0, STACK
        LOCFRAME PSTACK, 0, STACK
        LOCFRAME XSTACK, 14, STACK
        LOCFRAME IOVERLAY, 0, STATIC
        LOCFRAME DOVERLAY, 0, STATIC
        ARGFRAME ISTACK, 0, STACK
        ARGFRAME PSTACK, 0, STACK
        ARGFRAME XSTACK, 14, STACK
        ARGFRAME IOVERLAY, 0, STATIC
        ARGFRAME DOVERLAY, 0, STATIC
        FUNCALL bdb_reportCommissioningState, osal_get_timeoutEx
        LOCFRAME ISTACK, 0, STACK
        LOCFRAME PSTACK, 0, STACK
        LOCFRAME XSTACK, 14, STACK
        LOCFRAME IOVERLAY, 0, STATIC
        LOCFRAME DOVERLAY, 0, STATIC
        ARGFRAME ISTACK, 0, STACK
        ARGFRAME PSTACK, 0, STACK
        ARGFRAME XSTACK, 14, STACK
        ARGFRAME IOVERLAY, 0, STATIC
        ARGFRAME DOVERLAY, 0, STATIC
        FUNCALL bdb_reportCommissioningState, bdb_zclRespondentListClean
        LOCFRAME ISTACK, 0, STACK
        LOCFRAME PSTACK, 0, STACK
        LOCFRAME XSTACK, 14, STACK
        LOCFRAME IOVERLAY, 0, STATIC
        LOCFRAME DOVERLAY, 0, STATIC
        ARGFRAME ISTACK, 0, STACK
        ARGFRAME PSTACK, 0, STACK
        ARGFRAME XSTACK, 14, STACK
        ARGFRAME IOVERLAY, 0, STATIC
        ARGFRAME DOVERLAY, 0, STATIC
        FUNCALL bdb_reportCommissioningState, osal_stop_timerEx
        LOCFRAME ISTACK, 0, STACK
        LOCFRAME PSTACK, 0, STACK
        LOCFRAME XSTACK, 14, STACK
        LOCFRAME IOVERLAY, 0, STATIC
        LOCFRAME DOVERLAY, 0, STATIC
        ARGFRAME ISTACK, 0, STACK
        ARGFRAME PSTACK, 0, STACK
        ARGFRAME XSTACK, 14, STACK
        ARGFRAME IOVERLAY, 0, STATIC
        ARGFRAME DOVERLAY, 0, STATIC
        FUNCALL bdb_reportCommissioningState, osal_start_timerEx
        LOCFRAME ISTACK, 0, STACK
        LOCFRAME PSTACK, 0, STACK
        LOCFRAME XSTACK, 18, STACK
        LOCFRAME IOVERLAY, 0, STATIC
        LOCFRAME DOVERLAY, 0, STATIC
        ARGFRAME ISTACK, 0, STACK
        ARGFRAME PSTACK, 0, STACK
        ARGFRAME XSTACK, 18, STACK
        ARGFRAME IOVERLAY, 0, STATIC
        ARGFRAME DOVERLAY, 0, STATIC
        FUNCALL bdb_reportCommissioningState, nwk_setStateIdle
        LOCFRAME ISTACK, 0, STACK
        LOCFRAME PSTACK, 0, STACK
        LOCFRAME XSTACK, 14, STACK
        LOCFRAME IOVERLAY, 0, STATIC
        LOCFRAME DOVERLAY, 0, STATIC
        ARGFRAME ISTACK, 0, STACK
        ARGFRAME PSTACK, 0, STACK
        ARGFRAME XSTACK, 14, STACK
        ARGFRAME IOVERLAY, 0, STATIC
        ARGFRAME DOVERLAY, 0, STATIC
        FUNCALL bdb_reportCommissioningState, ZDApp_ChangeState
        LOCFRAME ISTACK, 0, STACK
        LOCFRAME PSTACK, 0, STACK
        LOCFRAME XSTACK, 14, STACK
        LOCFRAME IOVERLAY, 0, STATIC
        LOCFRAME DOVERLAY, 0, STATIC
        ARGFRAME ISTACK, 0, STACK
        ARGFRAME PSTACK, 0, STACK
        ARGFRAME XSTACK, 14, STACK
        ARGFRAME IOVERLAY, 0, STATIC
        ARGFRAME DOVERLAY, 0, STATIC
        FUNCALL bdb_reportCommissioningState, osal_start_timerEx
        LOCFRAME ISTACK, 0, STACK
        LOCFRAME PSTACK, 0, STACK
        LOCFRAME XSTACK, 18, STACK
        LOCFRAME IOVERLAY, 0, STATIC
        LOCFRAME DOVERLAY, 0, STATIC
        ARGFRAME ISTACK, 0, STACK
        ARGFRAME PSTACK, 0, STACK
        ARGFRAME XSTACK, 18, STACK
        ARGFRAME IOVERLAY, 0, STATIC
        ARGFRAME DOVERLAY, 0, STATIC
        FUNCALL bdb_reportCommissioningState, ZDApp_ChangeState
        LOCFRAME ISTACK, 0, STACK
        LOCFRAME PSTACK, 0, STACK
        LOCFRAME XSTACK, 14, STACK
        LOCFRAME IOVERLAY, 0, STATIC
        LOCFRAME DOVERLAY, 0, STATIC
        ARGFRAME ISTACK, 0, STACK
        ARGFRAME PSTACK, 0, STACK
        ARGFRAME XSTACK, 14, STACK
        ARGFRAME IOVERLAY, 0, STATIC
        ARGFRAME DOVERLAY, 0, STATIC
        FUNCALL bdb_reportCommissioningState, ZDApp_RestoreNwkSecMaterial
        LOCFRAME ISTACK, 0, STACK
        LOCFRAME PSTACK, 0, STACK
        LOCFRAME XSTACK, 14, STACK
        LOCFRAME IOVERLAY, 0, STATIC
        LOCFRAME DOVERLAY, 0, STATIC
        ARGFRAME ISTACK, 0, STACK
        ARGFRAME PSTACK, 0, STACK
        ARGFRAME XSTACK, 14, STACK
        ARGFRAME IOVERLAY, 0, STATIC
        ARGFRAME DOVERLAY, 0, STATIC
        FUNCALL bdb_reportCommissioningState, osal_start_timerEx
        LOCFRAME ISTACK, 0, STACK
        LOCFRAME PSTACK, 0, STACK
        LOCFRAME XSTACK, 18, STACK
        LOCFRAME IOVERLAY, 0, STATIC
        LOCFRAME DOVERLAY, 0, STATIC
        ARGFRAME ISTACK, 0, STACK
        ARGFRAME PSTACK, 0, STACK
        ARGFRAME XSTACK, 18, STACK
        ARGFRAME IOVERLAY, 0, STATIC
        ARGFRAME DOVERLAY, 0, STATIC
        FUNCALL bdb_reportCommissioningState, bdb_SendMsg
        LOCFRAME ISTACK, 0, STACK
        LOCFRAME PSTACK, 0, STACK
        LOCFRAME XSTACK, 16, STACK
        LOCFRAME IOVERLAY, 0, STATIC
        LOCFRAME DOVERLAY, 0, STATIC
        ARGFRAME ISTACK, 0, STACK
        ARGFRAME PSTACK, 0, STACK
        ARGFRAME XSTACK, 16, STACK
        ARGFRAME IOVERLAY, 0, STATIC
        ARGFRAME DOVERLAY, 0, STATIC
        REQUIRE ?V0
        REQUIRE ?V1
        MOV     A,#-0xa
        LCALL   ?BANKED_ENTER_XDATA
          CFI DPH0 load(1, XDATA, add(CFA_XSP16, literal(-1)))
          CFI DPL0 load(1, XDATA, add(CFA_XSP16, literal(-2)))
          CFI ?BRET_EXT load(1, XDATA, add(CFA_XSP16, literal(-3)))
          CFI ?RET_HIGH load(1, XDATA, add(CFA_XSP16, literal(-4)))
          CFI ?RET_LOW load(1, XDATA, add(CFA_XSP16, literal(-5)))
          CFI R7 load(1, XDATA, add(CFA_XSP16, literal(-6)))
          CFI V1 load(1, XDATA, add(CFA_XSP16, literal(-7)))
          CFI V0 load(1, XDATA, add(CFA_XSP16, literal(-8)))
          CFI VB load(1, XDATA, add(CFA_XSP16, literal(-9)))
          CFI R6 load(1, XDATA, add(CFA_XSP16, literal(-10)))
          CFI CFA_SP SP+0
          CFI CFA_XSP16 add(XSP16, 10)
        ; Saved register size: 10
        ; Auto size: 4
        MOV     A,#-0x4
        LCALL   ?ALLOC_XSTACK8
          CFI CFA_XSP16 add(XSP16, 14)
        MOV     A,R1
        MOV     R6,A
        MOV     A,R2
        MOV     R7,A
// 1161   bdbCommissioningModeMsg_t bdbCommissioningModeMsg;
// 1162   //Process only if we are in that state, or if we are on parent lost and processing F&B
// 1163   if((bdbCommissioningProcedureState.bdbCommissioningState == bdbCommissioningState)
// 1164      || ((bdbCommissioningProcedureState.bdbCommissioningState == BDB_PARENT_LOST) && (bdbCommissioningProcedureState.bdb_ParentLostSavedState == BDB_COMMISSIONING_STATE_FINDING_BINDING)))
        MOV     DPTR,#bdbCommissioningProcedureState
        MOVX    A,@DPTR
        XRL     A,R6
        JZ      ??bdb_reportCommissioningState_0
        MOVX    A,@DPTR
        XRL     A,#0x8
        JZ      $+5
        LJMP    ??bdb_reportCommissioningState_1 & 0xFFFF
        MOV     DPTR,#bdbCommissioningProcedureState + 3
        MOVX    A,@DPTR
        XRL     A,#0x6
        JZ      $+5
        LJMP    ??bdb_reportCommissioningState_1 & 0xFFFF
// 1165   {
// 1166     switch(bdbCommissioningState)
??bdb_reportCommissioningState_0:
        MOV     A,R6
        ADD     A,#-0x2
        JNZ     $+5
        LJMP    ??bdb_reportCommissioningState_2 & 0xFFFF
        ADD     A,#-0x2
        JZ      ??bdb_reportCommissioningState_3
        DEC     A
        JZ      ??bdb_reportCommissioningState_4
        DEC     A
        JNZ     $+5
        LJMP    ??bdb_reportCommissioningState_5 & 0xFFFF
        DEC     A
        JNZ     $+5
        LJMP    ??bdb_reportCommissioningState_6 & 0xFFFF
        LJMP    ??bdb_reportCommissioningState_7 & 0xFFFF
// 1167     {
// 1168 #if (ZG_BUILD_JOINING_TYPE)
// 1169       case BDB_COMMISSIONING_STATE_JOINING:
// 1170         if(ZG_DEVICE_JOINING_TYPE)
// 1171         {
// 1172           //Prepare for the next state or commissioning mode to be excecuted
// 1173           osal_start_timerEx(bdb_TaskID,BDB_CHANGE_COMMISSIONING_STATE,50);
// 1174 
// 1175           if(didSuccess)
// 1176           {
// 1177             //Next state is TC link key exchange
// 1178             bdbCommissioningProcedureState.bdbCommissioningState = BDB_COMMISSIONING_STATE_TC_LINK_KEY_EXCHANGE;
// 1179             //Free the list of nwk discovered
// 1180             while(pBDBListNwk)
// 1181             {
// 1182               bdb_nwkDescFree(pBDBListNwk);
// 1183             }
// 1184             
// 1185             //Set the poll rate of the ZED joining device to 1 second to allow TCLK 
// 1186             //exchange be perfomed successfully in cases in which application has a 
// 1187             //slow pollrate
// 1188             NLME_SetPollRate(TCLK_POLL_RATE);
// 1189             
// 1190             //No notification in this step
// 1191             return;
// 1192           } 
// 1193           else
// 1194           {
// 1195             uint8 temp = FALSE;
// 1196             //If fail, then restore poll rate
// 1197             NLME_SetPollRate(POLL_RATE);
// 1198             bdbAttributes.bdbCommissioningStatus = BDB_COMMISSIONING_NO_NETWORK;
// 1199             bdbCommissioningModeMsg.bdbCommissioningMode = BDB_COMMISSIONING_NWK_STEERING;
// 1200             bdbCommissioningProcedureState.bdbCommissioningState = BDB_COMMISSIONING_STATE_START_RESUME;
// 1201             bdbAttributes.bdbCommissioningMode &= ~BDB_COMMISSIONING_MODE_NWK_STEERING;
// 1202             
// 1203             //Turn off the radio
// 1204             ZMacSetReq(ZMacRxOnIdle, &temp);
// 1205             //Set the device to FN, to start as new for subsequent attempts
// 1206             bdb_setFN();
// 1207             NLME_ResetRequest();
// 1208             ZDApp_ChangeState( DEV_HOLD );
// 1209             
// 1210             //Free the list of nwk discovered
// 1211             while(pBDBListNwk)
// 1212             {
// 1213               bdb_nwkDescFree(pBDBListNwk);
// 1214             }
// 1215           }
// 1216         }
// 1217       break;
// 1218 
// 1219       case BDB_COMMISSIONING_STATE_TC_LINK_KEY_EXCHANGE:
// 1220         if(ZG_DEVICE_JOINING_TYPE)
// 1221         {
// 1222           if(didSuccess)
// 1223           {
// 1224             //Next state is nwk steering on the nwk (permit joining)
// 1225             bdbCommissioningProcedureState.bdbCommissioningState = BDB_COMMISSIONING_STATE_STEERING_ON_NWK;
// 1226             osal_start_timerEx(bdb_TaskID,BDB_CHANGE_COMMISSIONING_STATE, 50);
// 1227             
// 1228             //Set the poll rate to the application default after TCLK success
// 1229             NLME_SetPollRate(POLL_RATE);
// 1230 
// 1231             osal_stop_timerEx( bdb_TaskID, BDB_PROCESS_TIMEOUT );
// 1232             //No notification to the user is needed
// 1233             return;
// 1234           }
// 1235           else
// 1236           {
// 1237             bdbCommissioningModeMsg.bdbCommissioningMode = BDB_COMMISSIONING_NWK_STEERING;
// 1238             bdbAttributes.bdbCommissioningStatus = BDB_COMMISSIONING_TCLK_EX_FAILURE;
// 1239             
// 1240             osal_stop_timerEx( bdb_TaskID, BDB_PROCESS_TIMEOUT);
// 1241            
// 1242             //No process shall be attempted after this fail
// 1243             bdbAttributes.bdbCommissioningMode = 0;
// 1244             
// 1245             //Fill the context for the user notification
// 1246             osal_start_timerEx(bdb_TaskID,BDB_TC_LINK_KEY_EXCHANGE_FAIL,BDB_TC_LINK_KEY_EXCHANGE_FAIL_LEAVE_TIMEOUT);
// 1247           }
// 1248         }
// 1249       break;
// 1250 #endif
// 1251       
// 1252       case BDB_COMMISSIONING_STATE_STEERING_ON_NWK:
// 1253         bdbCommissioningModeMsg.bdbCommissioningMode = BDB_COMMISSIONING_NWK_STEERING;
??bdb_reportCommissioningState_3:
        MOV     A,#0x1
        LCALL   ?XSTACK_DISP0_8
        MOV     A,#0x1
        MOVX    @DPTR,A
// 1254         if(didSuccess)
        MOV     A,R7
        MOV     DPTR,#bdbAttributes + 10
        JZ      ??bdb_reportCommissioningState_8
// 1255         {
// 1256           bdbAttributes.bdbCommissioningStatus = BDB_COMMISSIONING_SUCCESS;
        LCALL   ?Subroutine9 & 0xFFFF
// 1257           
// 1258 #if (ZG_BUILD_RTR_TYPE)          
// 1259           //Update ZDApp state
// 1260           if(ZG_DEVICE_RTRONLY_TYPE)
??CrossCallReturnLabel_45:
        JNZ     ??bdb_reportCommissioningState_9
// 1261           {          
// 1262             ZDApp_ChangeState( DEV_ROUTER );
        ; Setup parameters for call to function ZDApp_ChangeState
        MOV     R1,#0x7
        LCALL   `??ZDApp_ChangeState::?relay`; Banked call to: ZDApp_ChangeState
