###############################################################################
#
# IAR C/C++ Compiler V9.30.1.3056 for 8051                26/Oct/2017  13:55:04
# Copyright 2004-2015 IAR Systems AB.
# Standalone license - IAR Embedded Workbench for 8051
#
#    Core               =  plain
#    Code model         =  banked
#    Data model         =  large
#    Calling convention =  xdata reentrant
#    Constant location  =  data_rom
#    Dptr setup         =  1,16
#                          
#    Source file        =  
#        C:\Texas Instruments\Z-Stack 3.0.0\Components\stack\zdo\ZDObject.c
#    Command line       =  
#        -f "C:\Texas Instruments\Z-Stack
#        3.0.0\Projects\zstack\HomeAutomation\GenericApp\CC2530DB\..\..\..\Tools\CC2530DB\f8wCoord.cfg"
#        (-DCPU32MHZ -DROOT=__near_func -DMAC_CFG_APP_PENDING_QUEUE=TRUE
#        -DMAC_CFG_TX_DATA_MAX=5 -DMAC_CFG_TX_MAX=8 -DMAC_CFG_RX_MAX=5
#        -DZDO_COORDINATOR -DRTR_NWK) -f "C:\Texas Instruments\Z-Stack
#        3.0.0\Projects\zstack\HomeAutomation\GenericApp\CC2530DB\..\..\..\Tools\CC2530DB\f8wConfig.cfg"
#        (-DZIGBEEPRO -DSECURE=1 -DZG_SECURE_DYNAMIC=0 -DREFLECTOR
#        -DDEFAULT_CHANLIST=0x00000800 -DZDAPP_CONFIG_PAN_ID=0xFFFF
#        -DNWK_START_DELAY=100 -DEXTENDED_JOINING_RANDOM_MASK=0x007F
#        -DBEACON_REQUEST_DELAY=100 -DBEACON_REQ_DELAY_MASK=0x00FF
#        -DLINK_STATUS_JITTER_MASK=0x007F -DROUTE_EXPIRY_TIME=30
#        -DAPSC_ACK_WAIT_DURATION_POLLED=3000 -DNWK_INDIRECT_MSG_TIMEOUT=7
#        -DMAX_RREQ_ENTRIES=8 -DAPSC_MAX_FRAME_RETRIES=3
#        -DNWK_MAX_DATA_RETRIES=2 -DMAX_POLL_FAILURE_RETRIES=2 -DMAX_BCAST=9
#        -DAPS_MAX_GROUPS=16 -DMAX_RTG_ENTRIES=40 -DNWK_MAX_BINDING_ENTRIES=4
#        -DMAX_BINDING_CLUSTER_IDS=4 -DDEFAULT_KEY={0} -DMAC_MAX_FRAME_SIZE=116
#        -DZDNWKMGR_MIN_TRANSMISSIONS=20 "-DCONST=const __code"
#        -DGENERIC=__generic -DRFD_RCVC_ALWAYS_ON=FALSE -DPOLL_RATE=1000
#        -DQUEUED_POLL_RATE=100 -DRESPONSE_POLL_RATE=100 -DREJOIN_POLL_RATE=440
#        -DREJOIN_BACKOFF=900000 -DREJOIN_SCAN=900000 -DENABLE_LED4_DISABLE_S1)
#        -f "C:\Texas Instruments\Z-Stack
#        3.0.0\Projects\zstack\HomeAutomation\GenericApp\CC2530DB\..\..\..\Tools\CC2530DB\f8wZCL.cfg"
#        "C:\Texas Instruments\Z-Stack 3.0.0\Components\stack\zdo\ZDObject.c"
#        -D SECURE=1 -D TC_LINKKEY_JOIN -D NV_INIT -D NV_RESTORE -D xZTOOL_P1
#        -D xMT_TASK -D xMT_APP_FUNC -D xMT_SYS_FUNC -D xMT_ZDO_FUNC -D
#        xMT_ZDO_MGMT -D xMT_APP_CNF_FUNC -D LEGACY_LCD_DEBUG -D
#        LCD_SUPPORTED=DEBUG -D MULTICAST_ENABLED=FALSE -D ZCL_READ -D
#        ZCL_WRITE -D ZCL_BASIC -D ZCL_IDENTIFY -D ZCL_SCENES -D ZCL_GROUPS -lC
#        "C:\Texas Instruments\Z-Stack
#        3.0.0\Projects\zstack\HomeAutomation\GenericApp\CC2530DB\CoordinatorEB\List"
#        -lA "C:\Texas Instruments\Z-Stack
#        3.0.0\Projects\zstack\HomeAutomation\GenericApp\CC2530DB\CoordinatorEB\List"
#        --diag_suppress Pe001,Pa010 -o "C:\Texas Instruments\Z-Stack
#        3.0.0\Projects\zstack\HomeAutomation\GenericApp\CC2530DB\CoordinatorEB\Obj"
#        -e --debug --core=plain --dptr=16,1 --data_model=large
#        --code_model=banked --calling_convention=xdata_reentrant
#        --place_constants=data_rom --nr_virtual_regs 16 -I "C:\Texas
#        Instruments\Z-Stack
#        3.0.0\Projects\zstack\HomeAutomation\GenericApp\CC2530DB\" -I
#        "C:\Texas Instruments\Z-Stack
#        3.0.0\Projects\zstack\HomeAutomation\GenericApp\CC2530DB\..\Source\"
#        -I "C:\Texas Instruments\Z-Stack
#        3.0.0\Projects\zstack\HomeAutomation\GenericApp\CC2530DB\..\..\Source\"
#        -I "C:\Texas Instruments\Z-Stack
#        3.0.0\Projects\zstack\HomeAutomation\GenericApp\CC2530DB\..\..\..\ZMain\TI2530DB\"
#        -I "C:\Texas Instruments\Z-Stack
#        3.0.0\Projects\zstack\HomeAutomation\GenericApp\CC2530DB\..\..\..\..\..\Components\hal\include\"
#        -I "C:\Texas Instruments\Z-Stack
#        3.0.0\Projects\zstack\HomeAutomation\GenericApp\CC2530DB\..\..\..\..\..\Components\hal\target\CC2530EB\"
#        -I "C:\Texas Instruments\Z-Stack
#        3.0.0\Projects\zstack\HomeAutomation\GenericApp\CC2530DB\..\..\..\..\..\Components\mac\include\"
#        -I "C:\Texas Instruments\Z-Stack
#        3.0.0\Projects\zstack\HomeAutomation\GenericApp\CC2530DB\..\..\..\..\..\Components\mac\high_level\"
#        -I "C:\Texas Instruments\Z-Stack
#        3.0.0\Projects\zstack\HomeAutomation\GenericApp\CC2530DB\..\..\..\..\..\Components\mac\low_level\srf04\"
#        -I "C:\Texas Instruments\Z-Stack
#        3.0.0\Projects\zstack\HomeAutomation\GenericApp\CC2530DB\..\..\..\..\..\Components\mac\low_level\srf04\single_chip\"
#        -I "C:\Texas Instruments\Z-Stack
#        3.0.0\Projects\zstack\HomeAutomation\GenericApp\CC2530DB\..\..\..\..\..\Components\mt\"
#        -I "C:\Texas Instruments\Z-Stack
#        3.0.0\Projects\zstack\HomeAutomation\GenericApp\CC2530DB\..\..\..\..\..\Components\osal\include\"
#        -I "C:\Texas Instruments\Z-Stack
#        3.0.0\Projects\zstack\HomeAutomation\GenericApp\CC2530DB\..\..\..\..\..\Components\services\saddr\"
#        -I "C:\Texas Instruments\Z-Stack
#        3.0.0\Projects\zstack\HomeAutomation\GenericApp\CC2530DB\..\..\..\..\..\Components\services\sdata\"
#        -I "C:\Texas Instruments\Z-Stack
#        3.0.0\Projects\zstack\HomeAutomation\GenericApp\CC2530DB\..\..\..\..\..\Components\stack\af\"
#        -I "C:\Texas Instruments\Z-Stack
#        3.0.0\Projects\zstack\HomeAutomation\GenericApp\CC2530DB\..\..\..\..\..\Components\stack\bdb\"
#        -I "C:\Texas Instruments\Z-Stack
#        3.0.0\Projects\zstack\HomeAutomation\GenericApp\CC2530DB\..\..\..\..\..\Components\stack\gp\"
#        -I "C:\Texas Instruments\Z-Stack
#        3.0.0\Projects\zstack\HomeAutomation\GenericApp\CC2530DB\..\..\..\..\..\Components\stack\nwk\"
#        -I "C:\Texas Instruments\Z-Stack
#        3.0.0\Projects\zstack\HomeAutomation\GenericApp\CC2530DB\..\..\..\..\..\Components\stack\sapi\"
#        -I "C:\Texas Instruments\Z-Stack
#        3.0.0\Projects\zstack\HomeAutomation\GenericApp\CC2530DB\..\..\..\..\..\Components\stack\sec\"
#        -I "C:\Texas Instruments\Z-Stack
#        3.0.0\Projects\zstack\HomeAutomation\GenericApp\CC2530DB\..\..\..\..\..\Components\stack\sys\"
#        -I "C:\Texas Instruments\Z-Stack
#        3.0.0\Projects\zstack\HomeAutomation\GenericApp\CC2530DB\..\..\..\..\..\Components\stack\zcl\"
#        -I "C:\Texas Instruments\Z-Stack
#        3.0.0\Projects\zstack\HomeAutomation\GenericApp\CC2530DB\..\..\..\..\..\Components\stack\zdo\"
#        -I "C:\Texas Instruments\Z-Stack
#        3.0.0\Projects\zstack\HomeAutomation\GenericApp\CC2530DB\..\..\..\..\..\Components\zmac\"
#        -I "C:\Texas Instruments\Z-Stack
#        3.0.0\Projects\zstack\HomeAutomation\GenericApp\CC2530DB\..\..\..\..\..\Components\zmac\f8w\"
#        -Ohz --require_prototypes
#    List file          =  
#        C:\Texas Instruments\Z-Stack
#        3.0.0\Projects\zstack\HomeAutomation\GenericApp\CC2530DB\CoordinatorEB\List\ZDObject.lst
#    Object file        =  
#        C:\Texas Instruments\Z-Stack
#        3.0.0\Projects\zstack\HomeAutomation\GenericApp\CC2530DB\CoordinatorEB\Obj\ZDObject.r51
#
###############################################################################

C:\Texas Instruments\Z-Stack 3.0.0\Components\stack\zdo\ZDObject.c
      1          /**************************************************************************************************
      2            Filename:       ZDObject.c
      3            Revised:        $Date: 2015-10-01 15:01:50 -0700 (Thu, 01 Oct 2015) $
      4            Revision:       $Revision: 44513 $
      5          
      6            Description:    This is the Zigbee Device Object.
      7          
      8          
      9            Copyright 2004-2015 Texas Instruments Incorporated. All rights reserved.
     10          
     11            IMPORTANT: Your use of this Software is limited to those specific rights
     12            granted under the terms of a software license agreement between the user
     13            who downloaded the software, his/her employer (which must be your employer)
     14            and Texas Instruments Incorporated (the "License"). You may not use this
     15            Software unless you agree to abide by the terms of the License. The License
     16            limits your use, and you acknowledge, that the Software may not be modified,
     17            copied or distributed unless embedded on a Texas Instruments microcontroller
     18            or used solely and exclusively in conjunction with a Texas Instruments radio
     19            frequency transceiver, which is integrated into your product. Other than for
     20            the foregoing purpose, you may not use, reproduce, copy, prepare derivative
     21            works of, modify, distribute, perform, display or sell this Software and/or
     22            its documentation for any purpose.
     23          
     24            YOU FURTHER ACKNOWLEDGE AND AGREE THAT THE SOFTWARE AND DOCUMENTATION ARE
     25            PROVIDED "AS IS" WITHOUT WARRANTY OF ANY KIND, EITHER EXPRESS OR IMPLIED,
     26            INCLUDING WITHOUT LIMITATION, ANY WARRANTY OF MERCHANTABILITY, TITLE,
     27            NON-INFRINGEMENT AND FITNESS FOR A PARTICULAR PURPOSE. IN NO EVENT SHALL
     28            TEXAS INSTRUMENTS OR ITS LICENSORS BE LIABLE OR OBLIGATED UNDER CONTRACT,
     29            NEGLIGENCE, STRICT LIABILITY, CONTRIBUTION, BREACH OF WARRANTY, OR OTHER
     30            LEGAL EQUITABLE THEORY ANY DIRECT OR INDIRECT DAMAGES OR EXPENSES
     31            INCLUDING BUT NOT LIMITED TO ANY INCIDENTAL, SPECIAL, INDIRECT, PUNITIVE
     32            OR CONSEQUENTIAL DAMAGES, LOST PROFITS OR LOST DATA, COST OF PROCUREMENT
     33            OF SUBSTITUTE GOODS, TECHNOLOGY, SERVICES, OR ANY CLAIMS BY THIRD PARTIES
     34            (INCLUDING BUT NOT LIMITED TO ANY DEFENSE THEREOF), OR OTHER SIMILAR COSTS.
     35          
     36            Should you have any questions regarding your right to use this Software,
     37            contact Texas Instruments Incorporated at www.TI.com.
     38          **************************************************************************************************/
     39          
     40          /*********************************************************************
     41           * INCLUDES
     42           */
     43          #include "ZComDef.h"
     44          #include "OSAL.h"
     45          #include "OSAL_Nv.h"
     46          #include "rtg.h"
     47          #include "NLMEDE.h"
     48          #include "nwk_globals.h"
     49          #include "APS.h"
     50          #include "APSMEDE.h"
     51          #include "AssocList.h"
     52          #include "BindingTable.h"
     53          #include "AddrMgr.h"
     54          #include "AF.h"
     55          #include "ZDObject.h"
     56          #include "ZDProfile.h"
     57          #include "ZDConfig.h"
     58          #include "ZDSecMgr.h"
     59          #include "ZDApp.h"
     60          #include "nwk_util.h"   // NLME_IsAddressBroadcast()
     61          #include "ZGlobals.h"
     62          #if defined MT_ZDO_CB_FUNC
     63          #include "MT.h"
     64          #endif
     65          
     66          #include "bdb.h"
     67          
     68          #if ZG_BUILD_RTR_TYPE
     69          #include "gp_common.h"
     70          #endif
     71           
     72          #if defined( LCD_SUPPORTED )
     73            #include "OnBoard.h"
     74          #endif
     75          
     76          /* HAL */
     77          #include "hal_lcd.h"
     78          
     79          /*********************************************************************
     80           * MACROS
     81           */
     82          
     83          /*********************************************************************
     84           * CONSTANTS
     85           */
     86          // NLME Stub Implementations
     87          #define ZDO_ProcessMgmtPermitJoinTimeout NLME_PermitJoiningTimeout
     88          
     89          /*********************************************************************
     90           * TYPEDEFS
     91           */
     92          #if defined ( REFLECTOR )
     93          typedef struct
     94          {
     95            byte SrcTransSeq;
     96            zAddrType_t SrcAddr;
     97            uint16 LocalCoordinator;
     98            byte epIntf;
     99            uint16 ProfileID;
    100            byte numInClusters;
    101            uint16 *inClusters;
    102            byte numOutClusters;
    103            uint16 *outClusters;
    104            byte SecurityUse;
    105            byte status;
    106          } ZDO_EDBind_t;
    107          #endif // defined ( REFLECTOR )
    108          
    109          enum
    110          {
    111            ZDMATCH_INIT,           // Initialized
    112            ZDMATCH_WAIT_REQ,       // Received first request, waiting for second
    113            ZDMATCH_SENDING_BINDS   // Received both requests, sending unbind/binds
    114          };
    115          
    116          enum
    117          {
    118            ZDMATCH_SENDING_NOT,
    119            ZDMATCH_SENDING_UNBIND,
    120            ZDMATCH_SENDING_BIND
    121          };
    122          
    123          /*********************************************************************
    124           * GLOBAL VARIABLES
    125           */
    126          
    127          /*********************************************************************
    128           * EXTERNAL VARIABLES
    129           */
    130          
    131          extern bool  requestNewTrustCenterLinkKey;   
    132             
    133          /*********************************************************************
    134           * EXTERNAL FUNCTIONS
    135           */
    136          
    137          /*********************************************************************
    138           * LOCAL VARIABLES
    139           */

   \                                 In  segment XDATA_Z, align 1, keep-with-next
    140          static uint16 ZDOBuildBuf[26];  // temp area to build data without allocation
   \                     ZDOBuildBuf:
   \   000000                DS 52
   \   000034                REQUIRE __INIT_XDATA_Z
    141          
    142          #if defined ( REFLECTOR )

   \                                 In  segment XDATA_Z, align 1, keep-with-next
    143          static ZDO_EDBind_t *ZDO_EDBind;     // Null when not used
   \                     ZDO_EDBind:
   \   000000                DS 2
   \   000002                REQUIRE __INIT_XDATA_Z
    144          #endif
    145          
    146          #if defined ( MANAGED_SCAN )
    147            uint32 managedScanNextChannel = 0;
    148            uint32 managedScanChannelMask = 0;
    149            uint8  managedScanTimesPerChannel = 0;
    150          #endif
    151          

   \                                 In  segment XDATA_Z, align 1, keep-with-next
    152          ZDMatchEndDeviceBind_t *matchED = (ZDMatchEndDeviceBind_t *)NULL;
   \                     matchED:
   \   000000                DS 2
   \   000002                REQUIRE __INIT_XDATA_Z
    153          

   \                                 In  segment XDATA_Z, align 1, keep-with-next
    154          uint32 apsChannelMask = 0;
   \                     apsChannelMask:
   \   000000                DS 4
   \   000004                REQUIRE __INIT_XDATA_Z
    155          

   \                                 In  segment XDATA_I, align 1, keep-with-next
    156          int16 zdpExternalStateTaskID = -1;
   \                     zdpExternalStateTaskID:
   \   000000                DS 2
   \   000002                REQUIRE `?<Initializer for zdpExternalStateTaskID>`
   \   000002                REQUIRE __INIT_XDATA_I
    157          
    158          /*********************************************************************
    159           * LOCAL FUNCTIONS
    160           */
    161          static void ZDODeviceSetup( void );
    162          #if defined ( MANAGED_SCAN )
    163            static void ZDOManagedScan_Next( void );
    164          #endif
    165          #if defined ( REFLECTOR )
    166            static void ZDO_RemoveEndDeviceBind( void );
    167            static void ZDO_SendEDBindRsp( byte TransSeq, zAddrType_t *dstAddr, byte Status, byte secUse );
    168          #endif
    169          #if ( ZG_BUILD_COORDINATOR_TYPE )
    170            static byte ZDO_CompareClusterLists( byte numList1, uint16 *list1,
    171                                                 byte numList2, uint16 *list2, uint16 *pMatches );
    172            static void ZDO_RemoveMatchMemory( void );
    173            static uint8 ZDO_CopyMatchInfo( ZDEndDeviceBind_t *destReq, ZDEndDeviceBind_t *srcReq );
    174            static void ZDO_EndDeviceBindMatchTimeoutCB( void );
    175          #endif
    176          uint8 *ZDO_ConvertOTAClusters( uint8 cnt, uint8 *inBuf, uint16 *outList );
    177          static void zdoSendStateChangeMsg(uint8 state, uint8 taskId);
    178          
    179          /*********************************************************************
    180           * @fn          ZDO_Init
    181           *
    182           * @brief       ZDObject and ZDProfile initialization.
    183           *
    184           * @param       none
    185           *
    186           * @return      none
    187           */

   \                                 In  segment BANKED_CODE, align 1, keep-with-next
    188          void ZDO_Init( void )
   \                     ZDO_Init:
    189          {
   \   000000   C082         PUSH    DPL
   \   000002   C083         PUSH    DPH
   \   000004                ; Saved register size: 2
   \   000004                ; Auto size: 0
    190            // Initialize ZD items
    191            #if defined ( REFLECTOR )
    192            ZDO_EDBind = NULL;
   \   000004   90....       MOV     DPTR,#ZDO_EDBind
   \   000007   E4           CLR     A
   \   000008   F0           MOVX    @DPTR,A
   \   000009   A3           INC     DPTR
   \   00000A   F0           MOVX    @DPTR,A
    193            #endif
    194          
    195            // Initialize default ZDO_UseExtendedPANID to the APS one.
    196            osal_cpyExtAddr( ZDO_UseExtendedPANID, AIB_apsUseExtendedPANID );
   \   00000B                ; Setup parameters for call to function sAddrExtCpy
   \   00000B   7C..         MOV     R4,#AIB_apsUseExtendedPANID & 0xff
   \   00000D   7D..         MOV     R5,#(AIB_apsUseExtendedPANID >> 8) & 0xff
   \   00000F   7A..         MOV     R2,#ZDO_UseExtendedPANID & 0xff
   \   000011   7B..         MOV     R3,#(ZDO_UseExtendedPANID >> 8) & 0xff
   \   000013   12....       LCALL   `??sAddrExtCpy::?relay`; Banked call to: sAddrExtCpy
    197          
    198            // Setup the device - type of device to create.
    199            ZDODeviceSetup();
   \   000016                ; Setup parameters for call to function NLME_CoordinatorInit
   \   000016   12....       LCALL   `??NLME_CoordinatorInit::?relay`; Banked call to: NLME_CoordinatorInit
   \   000019                ; Setup parameters for call to function APS_ReflectorInit
   \   000019   12....       LCALL   `??APS_ReflectorInit::?relay`; Banked call to: APS_ReflectorInit
    200          }
   \   00001C   02....       LJMP    ?Subroutine0 & 0xFFFF

   \                                 In  segment BANKED_CODE, align 1, keep-with-next
   \                     ?Subroutine0:
   \   000000   D083         POP     DPH
   \   000002   D082         POP     DPL
   \   000004   02....       LJMP    ?BRET
    201          
    202          #if defined ( MANAGED_SCAN )
    203          /*********************************************************************
    204           * @fn      ZDOManagedScan_Next()
    205           *
    206           * @brief   Setup a managed scan.
    207           *
    208           * @param   none
    209           *
    210           * @return  none
    211           */
    212          static void ZDOManagedScan_Next( void )
    213          {
    214            // Is it the first time
    215            if ( managedScanNextChannel == 0 && managedScanTimesPerChannel == 0 )
    216            {
    217              // Setup the defaults
    218              managedScanNextChannel  = 1;
    219          
    220              while( managedScanNextChannel && (runtimeChannel & managedScanNextChannel) == 0 )
    221                managedScanNextChannel <<= 1;
    222          
    223              managedScanChannelMask = managedScanNextChannel;
    224              managedScanTimesPerChannel = MANAGEDSCAN_TIMES_PRE_CHANNEL;
    225            }
    226            else
    227            {
    228              // Do we need to go to the next channel
    229              if ( managedScanTimesPerChannel == 0 )
    230              {
    231                // Find next active channel
    232                managedScanChannelMask  = managedScanNextChannel;
    233                managedScanTimesPerChannel = MANAGEDSCAN_TIMES_PRE_CHANNEL;
    234              }
    235              else
    236              {
    237                managedScanTimesPerChannel--;
    238          
    239                if ( managedScanTimesPerChannel == 0 )
    240                {
    241                  managedScanNextChannel  <<= 1;
    242                  while( managedScanNextChannel && (runtimeChannel & managedScanNextChannel) == 0 )
    243                    managedScanNextChannel <<= 1;
    244          
    245                  if ( managedScanNextChannel == 0 )
    246                    zdoDiscCounter  = NUM_DISC_ATTEMPTS + 1; // Stop
    247                }
    248              }
    249            }
    250          }
    251          #endif // MANAGED_SCAN
    252          
    253          /*********************************************************************
    254           * @fn      ZDODeviceSetup()
    255           *
    256           * @brief   Call set functions depending on the type of device compiled.
    257           *
    258           * @param   none
    259           *
    260           * @return  none
    261           */
    262          static void ZDODeviceSetup( void )
    263          {
    264            if ( ZG_BUILD_COORDINATOR_TYPE )
    265            {
    266              NLME_CoordinatorInit();
    267            }
    268          
    269          #if defined ( REFLECTOR )
    270            APS_ReflectorInit();
    271          #endif
    272          
    273            if ( ZG_BUILD_JOINING_TYPE )
    274            {
    275              NLME_DeviceJoiningInit();
    276            }
    277          }
    278          
    279          
    280          
    281          
    282          /*********************************************************************
    283           * @fn          ZDO_StartDevice
    284           *
    285           * @brief       This function starts a device in a network. Added distributed network for router devices
    286           *
    287           * @param       logicalType     - Device type to start
    288           *              startMode       - indicates mode of device startup
    289           *              beaconOrder     - indicates time betwen beacons
    290           *              superframeOrder - indicates length of active superframe
    291           *              distributed     - indicates if the network will be formed
    292           *
    293           * @return      none
    294           */

   \                                 In  segment BANKED_CODE, align 1, keep-with-next
    295          void ZDO_StartDevice( byte logicalType, devStartModes_t startMode, byte beaconOrder, byte superframeOrder )
   \                     ZDO_StartDevice:
    296          {
   \   000000                REQUIRE ?V0
   \   000000                REQUIRE ?V1
   \   000000                REQUIRE ?V2
   \   000000                REQUIRE ?V3
   \   000000   74F4         MOV     A,#-0xc
   \   000002   12....       LCALL   ?BANKED_ENTER_XDATA
   \   000005                ; Saved register size: 12
   \   000005                ; Auto size: 0
   \   000005   E9           MOV     A,R1
   \   000006   FF           MOV     R7,A
   \   000007   8A..         MOV     ?V0,R2
   \   000009   EB           MOV     A,R3
   \   00000A   FE           MOV     R6,A
   \   00000B   8C..         MOV     ?V1,R4
    297            ZStatus_t ret;
    298          #if defined ( ZIGBEE_FREQ_AGILITY )
    299            static uint8 discRetries = 0;
    300          #endif
    301          #if defined ( ZIGBEE_COMMISSIONING )
    302            static uint8 scanCnt = 0;
    303          #endif
    304          
    305            ret = ZUnsupportedMode;
    306          
    307            if ( ZG_BUILD_COORDINATOR_TYPE && logicalType == NODETYPE_COORDINATOR )
   \   00000D   EF           MOV     A,R7
   \   00000E   7072         JNZ     ??ZDO_StartDevice_0
    308            {
    309              if ( startMode == MODE_HARD )
   \   000010   7402         MOV     A,#0x2
   \   000012   65..         XRL     A,?V0
   \   000014   7049         JNZ     ??ZDO_StartDevice_1
    310              {
    311                ZDApp_ChangeState( DEV_COORD_STARTING );
   \   000016                ; Setup parameters for call to function ZDApp_ChangeState
   \   000016   7908         MOV     R1,#0x8
   \   000018   12....       LCALL   `??ZDApp_ChangeState::?relay`; Banked call to: ZDApp_ChangeState
    312                ret = NLME_NetworkFormationRequest( zgConfigPANID, zgApsUseExtendedPANID, runtimeChannel,
    313                                                    zgDefaultStartingScanDuration, beaconOrder,
    314                                                    superframeOrder, false, false, 0 );
   \   00001B                ; Setup parameters for call to function NLME_NetworkFormationRequest
   \   00001B   E4           CLR     A
   \   00001C   F5..         MOV     ?V2,A
   \   00001E   F5..         MOV     ?V3,A
   \   000020   78..         MOV     R0,#?V2
   \   000022   12....       LCALL   ?PUSH_XSTACK_I_TWO
   \   000025   78..         MOV     R0,#?V2
   \   000027   12....       LCALL   ?PUSH_XSTACK_I_ONE
   \   00002A   78..         MOV     R0,#?V2
   \   00002C   12....       LCALL   ?PUSH_XSTACK_I_ONE
   \   00002F   E5..         MOV     A,?V1
   \   000031   F5..         MOV     ?V2,A
   \   000033   78..         MOV     R0,#?V2
   \   000035   12....       LCALL   ?PUSH_XSTACK_I_ONE
   \   000038   EE           MOV     A,R6
   \   000039   F5..         MOV     ?V2,A
   \   00003B   78..         MOV     R0,#?V2
   \   00003D   12....       LCALL   ?PUSH_XSTACK_I_ONE
   \   000040   90....       MOV     DPTR,#runtimeChannel
   \   000043   12....       LCALL   ?PUSH_XSTACK8_X_FOUR
   \   000046   90....       MOV     DPTR,#bdbAttributes + 13
   \   000049   E0           MOVX    A,@DPTR
   \   00004A   F9           MOV     R1,A
   \   00004B   7C..         MOV     R4,#zgApsUseExtendedPANID & 0xff
   \   00004D   7D..         MOV     R5,#(zgApsUseExtendedPANID >> 8) & 0xff
   \   00004F   90....       MOV     DPTR,#zgConfigPANID
   \   000052   12....       LCALL   ??Subroutine200_0 & 0xFFFF
    315              }
   \                     ??CrossCallReturnLabel_403:
   \   000055   12....       LCALL   `??NLME_NetworkFormationRequest::?relay`; Banked call to: NLME_NetworkFormationRequest
   \   000058   740A         MOV     A,#0xa
   \   00005A   12....       LCALL   ?DEALLOC_XSTACK8
   \   00005D   8013         SJMP    ??ZDO_StartDevice_2
    316              else if ( startMode == MODE_RESUME )
   \                     ??ZDO_StartDevice_1:
   \   00005F   7401         MOV     A,#0x1
   \   000061   65..         XRL     A,?V0
   \   000063   7012         JNZ     ??ZDO_StartDevice_3
    317              {
    318                // Just start the coordinator
    319                ZDApp_ChangeState( DEV_COORD_STARTING );
   \   000065                ; Setup parameters for call to function ZDApp_ChangeState
   \   000065   7908         MOV     R1,#0x8
   \   000067   12....       LCALL   `??ZDApp_ChangeState::?relay`; Banked call to: ZDApp_ChangeState
    320                ret = NLME_StartRouterRequest( beaconOrder, beaconOrder, false );
   \   00006A                ; Setup parameters for call to function NLME_StartRouterRequest
   \   00006A   7B00         MOV     R3,#0x0
   \   00006C   EE           MOV     A,R6
   \   00006D   FA           MOV     R2,A
   \   00006E   F9           MOV     R1,A
   \   00006F   12....       LCALL   `??NLME_StartRouterRequest::?relay`; Banked call to: NLME_StartRouterRequest
   \                     ??ZDO_StartDevice_2:
   \   000072   E9           MOV     A,R1
    321              }
    322              else
    323              {
    324          #if defined( LCD_SUPPORTED )
    325                HalLcdWriteScreen( "StartDevice ERR", "MODE unknown" );
    326          #endif
    327              }
    328            }
    329          
    330            if ( ZG_BUILD_JOINING_TYPE && (logicalType == NODETYPE_ROUTER || logicalType == NODETYPE_DEVICE) )
    331            {
    332              if ( (startMode == MODE_JOIN) || (startMode == MODE_REJOIN) )
    333              {
    334                if(APSME_IsDistributedSecurity() && (startMode != MODE_REJOIN))
    335                {
    336                        ret = NLME_NetworkFormationRequest( zgConfigPANID, zgApsUseExtendedPANID, runtimeChannel,
    337                                                    zgDefaultStartingScanDuration, beaconOrder,
    338                                                    superframeOrder, false, true, osal_rand() );
    339                  
    340                }
    341                else
    342                {
    343                  ZDApp_ChangeState( DEV_NWK_DISC );
    344          
    345                #if defined( MANAGED_SCAN )
    346                  ZDOManagedScan_Next();
    347                  ret = NLME_NetworkDiscoveryRequest( managedScanChannelMask, BEACON_ORDER_15_MSEC );
    348                #else
    349                  ret = NLME_NetworkDiscoveryRequest( runtimeChannel, zgDefaultStartingScanDuration );
    350                  #if defined ( ZIGBEE_FREQ_AGILITY )
    351                  if ( !( ZDO_Config_Node_Descriptor.CapabilityFlags & CAPINFO_RCVR_ON_IDLE ) &&
    352                      ( ret == ZSuccess ) && ( ++discRetries == 4 ) )
    353                  {
    354                    // For devices with RxOnWhenIdle equals to FALSE, any network channel
    355                    // change will not be recieved. On these devices or routers that have
    356                    // lost the network, an active scan shall be conducted on the Default
    357                    // Channel list using the extended PANID to find the network. If the
    358                    // extended PANID isn't found using the Default Channel list, an scan
    359                    // should be completed using all channels.
    360                    runtimeChannel = MAX_CHANNELS_24GHZ;
    361                  }
    362                  #endif // ZIGBEE_FREQ_AGILITY
    363                  #if defined ( ZIGBEE_COMMISSIONING )
    364                  if (startMode == MODE_REJOIN && scanCnt++ >= 5 )
    365                  {
    366                    // When ApsUseExtendedPanID is commissioned to a non zero value via
    367                    // application specific means, the device shall conduct an active scan
    368                    // on the Default Channel list and join the PAN with the same
    369                    // ExtendedPanID. If the PAN is not found, an scan should be completed
    370                    // on all channels.
    371                    // When devices rejoin the network and the PAN is not found from
    372                    runtimeChannel = MAX_CHANNELS_24GHZ;
    373                  }
    374                  #endif // ZIGBEE_COMMISSIONING
    375                #endif
    376                }
    377              }
    378              else if ( startMode == MODE_RESUME )
    379              {
    380                if ( logicalType == NODETYPE_ROUTER )
    381                {
    382                  uint16 panID;
    383                  
    384                  ZDApp_ChangeState( DEV_NWK_ORPHAN );
    385                  
    386                  // Stop the rejoin timeout
    387                  osal_stop_timerEx( NWK_TaskID, NWK_REJOIN_TIMEOUT_EVT );
    388                  ZMacGetReq( ZMacPanId, (uint8 *)&( panID ) );
    389                  
    390                  _NIB.nwkPanId = panID;
    391                  NLME_JoinConfirm(  _NIB.nwkPanId, ZSuccess );
    392          
    393                  ret = ZSuccess;
    394                }
    395                else
    396                {
    397                  ZDApp_ChangeState( DEV_NWK_ORPHAN );
    398                  //set timer for scan and rejoin
    399                  osal_start_timerEx( ZDAppTaskID, ZDO_REJOIN_BACKOFF, zgDefaultRejoinScan );
    400                  ret = NLME_OrphanJoinRequest( runtimeChannel,
    401                                                zgDefaultStartingScanDuration );
    402                }
    403              }
    404              else
    405              {
    406          #if defined( LCD_SUPPORTED )
    407                HalLcdWriteScreen( "StartDevice ERR", "MODE unknown" );
    408          #endif
    409              }
    410            }
    411          
    412            if ( ret != ZSuccess )
   \   000073   700D         JNZ     ??ZDO_StartDevice_0
   \   000075   8022         SJMP    ??ZDO_StartDevice_4
   \                     ??ZDO_StartDevice_3:
   \   000077                ; Setup parameters for call to function HalLcdWriteScreen
   \   000077   7C..         MOV     R4,#`?<Constant "MODE unknown">` & 0xff
   \   000079   7D..         MOV     R5,#(`?<Constant "MODE unknown">` >> 8) & 0xff
   \   00007B   7A..         MOV     R2,#`?<Constant "StartDevice ERR">` & 0xff
   \   00007D   7B..         MOV     R3,#(`?<Constant "StartDevice ERR">` >> 8) & 0xff
   \   00007F   12....       LCALL   `??HalLcdWriteScreen::?relay`; Banked call to: HalLcdWriteScreen
    413            {
    414              osal_start_timerEx(ZDAppTaskID, ZDO_NETWORK_INIT, NWK_RETRY_DELAY );
   \                     ??ZDO_StartDevice_0:
   \   000082                ; Setup parameters for call to function osal_start_timerEx
   \   000082   90....       MOV     DPTR,#__Constant_3e8
   \   000085   12....       LCALL   ?PUSH_XSTACK8_X_FOUR
   \   000088   7A01         MOV     R2,#0x1
   \   00008A   7B00         MOV     R3,#0x0
   \   00008C   90....       MOV     DPTR,#ZDAppTaskID
   \   00008F   E0           MOVX    A,@DPTR
   \   000090   F9           MOV     R1,A
   \   000091   12....       LCALL   `??osal_start_timerEx::?relay`; Banked call to: osal_start_timerEx
   \   000094   7404         MOV     A,#0x4
   \   000096   12....       LCALL   ?DEALLOC_XSTACK8
    415            }
    416          }
   \                     ??ZDO_StartDevice_4:
   \   000099   02....       LJMP    ?Subroutine1 & 0xFFFF

   \                                 In  segment BANKED_CODE, align 1, keep-with-next
   \                     ?Subroutine1:
   \   000000   7F04         MOV     R7,#0x4
   \   000002   02....       LJMP    ?BANKED_LEAVE_XDATA

   \                                 In  segment BANKED_CODE, align 1, keep-with-next
   \                     ??Subroutine200_0:
   \   000000   12....       LCALL   ??Subroutine211_0 & 0xFFFF
   \                     ??CrossCallReturnLabel_494:
   \   000003   22           RET

   \                                 In  segment BANKED_CODE, align 1, keep-with-next
   \                     ??Subroutine211_0:
   \   000000   E0           MOVX    A,@DPTR
   \   000001   FA           MOV     R2,A
   \   000002   A3           INC     DPTR
   \   000003   E0           MOVX    A,@DPTR
   \   000004   FB           MOV     R3,A
   \   000005   22           RET
    417          
    418          /**************************************************************************************************
    419           * @fn          zdoSendStateChangeMsg
    420           *
    421           * @brief       Helper function for ZDO_UpdateNwkStatus.
    422           *
    423           * input parameters
    424           *
    425           * @param       taskId - The OSAL task identifier to which to send the ZDO_STATE_CHANGE_EVT.
    426           * @param       state - The current device state.
    427           *
    428           * output parameters
    429           *
    430           * None.
    431           *
    432           * @return      None.
    433           **************************************************************************************************
    434           */

   \                                 In  segment BANKED_CODE, align 1, keep-with-next
    435          static void zdoSendStateChangeMsg(uint8 state, uint8 taskId)
   \                     zdoSendStateChangeMsg:
    436          {
   \   000000                REQUIRE ?V0
   \   000000                REQUIRE ?V1
   \   000000   74F6         MOV     A,#-0xa
   \   000002   12....       LCALL   ?BANKED_ENTER_XDATA
   \   000005                ; Saved register size: 10
   \   000005                ; Auto size: 0
   \   000005   E9           MOV     A,R1
   \   000006   FF           MOV     R7,A
   \   000007   EA           MOV     A,R2
   \   000008   FE           MOV     R6,A
    437            osal_event_hdr_t *pMsg = (osal_event_hdr_t *)osal_msg_find(taskId, ZDO_STATE_CHANGE);
   \   000009                ; Setup parameters for call to function osal_msg_find
   \   000009   7AD1         MOV     R2,#-0x2f
   \   00000B   F9           MOV     R1,A
   \   00000C   12....       LCALL   `??osal_msg_find::?relay`; Banked call to: osal_msg_find
   \   00000F   8A82         MOV     DPL,R2
   \   000011   8B83         MOV     DPH,R3
    438          
    439            if (NULL == pMsg)
   \   000013   E582         MOV     A,DPL
   \   000015   4583         ORL     A,DPH
   \   000017   702A         JNZ     ??zdoSendStateChangeMsg_0
    440            {
    441              if (NULL == (pMsg = (osal_event_hdr_t *)osal_msg_allocate(sizeof(osal_event_hdr_t))))
   \   000019                ; Setup parameters for call to function osal_msg_allocate
   \   000019   7A02         MOV     R2,#0x2
   \   00001B   7B00         MOV     R3,#0x0
   \   00001D   12....       LCALL   `??osal_msg_allocate::?relay`; Banked call to: osal_msg_allocate
   \   000020   EA           MOV     A,R2
   \   000021   4B           ORL     A,R3
   \   000022   700E         JNZ     ??zdoSendStateChangeMsg_1
    442              {
    443                // Upon failure to notify any EndPoint of the state change, re-set the ZDO event to
    444                // try again later when more Heap may be available.
    445                osal_set_event(ZDAppTaskID, ZDO_STATE_CHANGE_EVT);
   \   000024                ; Setup parameters for call to function osal_set_event
   \   000024   7A10         MOV     R2,#0x10
   \   000026   7B00         MOV     R3,#0x0
   \   000028   90....       MOV     DPTR,#ZDAppTaskID
   \   00002B   E0           MOVX    A,@DPTR
   \   00002C   F9           MOV     R1,A
   \   00002D   12....       LCALL   `??osal_set_event::?relay`; Banked call to: osal_set_event
   \   000030   8014         SJMP    ??zdoSendStateChangeMsg_2
    446              }
    447              else
    448              {
    449                pMsg->event = ZDO_STATE_CHANGE;
   \                     ??zdoSendStateChangeMsg_1:
   \   000032   8A82         MOV     DPL,R2
   \   000034   8B83         MOV     DPH,R3
   \   000036   74D1         MOV     A,#-0x2f
   \   000038   F0           MOVX    @DPTR,A
    450                pMsg->status = state;
   \   000039   EF           MOV     A,R7
   \   00003A   A3           INC     DPTR
   \   00003B   F0           MOVX    @DPTR,A
    451          
    452                (void)osal_msg_send(taskId, (uint8 *)pMsg);
   \   00003C                ; Setup parameters for call to function osal_msg_send
   \   00003C   EE           MOV     A,R6
   \   00003D   F9           MOV     R1,A
   \   00003E   12....       LCALL   `??osal_msg_send::?relay`; Banked call to: osal_msg_send
   \   000041   8003         SJMP    ??zdoSendStateChangeMsg_2
    453              }
    454            }
    455            else
    456            {
    457              // Modify in place the status of an existing ZDO_STATE_CHANGE message to the EndPoint.
    458              pMsg->status = state;
   \                     ??zdoSendStateChangeMsg_0:
   \   000043   EF           MOV     A,R7
   \   000044   A3           INC     DPTR
   \   000045   F0           MOVX    @DPTR,A
    459            }
    460          }
   \                     ??zdoSendStateChangeMsg_2:
   \   000046   02....       LJMP    ??Subroutine180_0 & 0xFFFF

   \                                 In  segment BANKED_CODE, align 1, keep-with-next
   \                     ??Subroutine180_0:
   \   000000   7F02         MOV     R7,#0x2
   \   000002   02....       LJMP    ?BANKED_LEAVE_XDATA
    461          
    462          /**************************************************************************************************
    463           * @fn          ZDO_UpdateNwkStatus
    464           *
    465           * @brief       This function sends a ZDO_STATE_CHANGE message to the task of every EndPoint
    466           *              registered with AF (except, of course, the ZDO_EP). Even if a single task has more
    467           *              than one registered EndPoint, it will only receive one notification per state
    468           *              change. Although the device may go through a sequence of state changes, the
    469           *              Application task may only receive notification of the final, steady-state state
    470           *              because it has the lowest priority and never even runs to receive the intermediate
    471           *              state change notifications.
    472           *
    473           * input parameters
    474           *
    475           * @param       state - The current device state.
    476           *
    477           * output parameters
    478           *
    479           * None.
    480           *
    481           * @return      None.
    482           **************************************************************************************************
    483           */

   \                                 In  segment BANKED_CODE, align 1, keep-with-next
    484          void ZDO_UpdateNwkStatus(devStates_t state)
   \                     ZDO_UpdateNwkStatus:
    485          {
   \   000000                REQUIRE ?V0
   \   000000   74F7         MOV     A,#-0x9
   \   000002   12....       LCALL   ?BANKED_ENTER_XDATA
   \   000005                ; Saved register size: 9
   \   000005                ; Auto size: 0
   \   000005   89..         MOV     ?V0,R1
    486            epList_t *pItem = epList;
   \   000007   90....       MOV     DPTR,#epList
   \   00000A   12....       LCALL   ??Subroutine215_0 & 0xFFFF
   \                     ??CrossCallReturnLabel_523:
   \   00000D   801F         SJMP    ??ZDO_UpdateNwkStatus_0
    487          
    488          #if defined MT_ZDO_CB_FUNC
    489            if ( zdpExternalStateTaskID == -1 )
    490            {
    491              zdpExternalStateTaskID = MT_TaskID;
    492            }
    493          #endif
    494          
    495            while (pItem != NULL)
    496            {
    497              if (pItem->epDesc->endPoint != ZDO_EP)
   \                     ??ZDO_UpdateNwkStatus_1:
   \   00000F   8E82         MOV     DPL,R6
   \   000011   8F83         MOV     DPH,R7
   \   000013   12....       LCALL   ?Subroutine76 & 0xFFFF
   \                     ??CrossCallReturnLabel_305:
   \   000016   E0           MOVX    A,@DPTR
   \   000017   600B         JZ      ??ZDO_UpdateNwkStatus_2
    498              {
    499                zdoSendStateChangeMsg(state, *(pItem->epDesc->task_id));
   \   000019                ; Setup parameters for call to function zdoSendStateChangeMsg
   \   000019   A3           INC     DPTR
   \   00001A   A3           INC     DPTR
   \   00001B   12....       LCALL   ??Subroutine187_0 & 0xFFFF
    500              }
   \                     ??CrossCallReturnLabel_347:
   \   00001E   FA           MOV     R2,A
   \   00001F   A9..         MOV     R1,?V0
   \   000021   12....       LCALL   `??zdoSendStateChangeMsg::?relay`; Banked call to: zdoSendStateChangeMsg
    501          
    502              pItem = pItem->nextDesc;
   \                     ??ZDO_UpdateNwkStatus_2:
   \   000024   8E82         MOV     DPL,R6
   \   000026   8F83         MOV     DPH,R7
   \   000028   12....       LCALL   ??Subroutine212_0 & 0xFFFF
    503            }
   \                     ??CrossCallReturnLabel_495:
   \   00002B   E8           MOV     A,R0
   \   00002C   FE           MOV     R6,A
   \   00002D   E9           MOV     A,R1
   \                     ??ZDO_UpdateNwkStatus_0:
   \   00002E   FF           MOV     R7,A
   \   00002F   EE           MOV     A,R6
   \   000030   4F           ORL     A,R7
   \   000031   70DC         JNZ     ??ZDO_UpdateNwkStatus_1
    504          
    505            if ( zdpExternalStateTaskID != -1 )
   \   000033   90....       MOV     DPTR,#zdpExternalStateTaskID
   \   000036   E0           MOVX    A,@DPTR
   \   000037   F4           CPL     A
   \   000038   7003         JNZ     ??ZDO_UpdateNwkStatus_3
   \   00003A   A3           INC     DPTR
   \   00003B   E0           MOVX    A,@DPTR
   \   00003C   F4           CPL     A
   \                     ??ZDO_UpdateNwkStatus_3:
   \   00003D   600A         JZ      ??ZDO_UpdateNwkStatus_4
    506            {
    507              zdoSendStateChangeMsg( state, zdpExternalStateTaskID );
   \   00003F                ; Setup parameters for call to function zdoSendStateChangeMsg
   \   00003F   90....       MOV     DPTR,#zdpExternalStateTaskID
   \   000042   E0           MOVX    A,@DPTR
   \   000043   FA           MOV     R2,A
   \   000044   A9..         MOV     R1,?V0
   \   000046   12....       LCALL   `??zdoSendStateChangeMsg::?relay`; Banked call to: zdoSendStateChangeMsg
    508            }
    509          
    510            ZDAppNwkAddr.addr.shortAddr = NLME_GetShortAddr();
   \                     ??ZDO_UpdateNwkStatus_4:
   \   000049                ; Setup parameters for call to function NLME_GetShortAddr
   \   000049   12....       LCALL   `??NLME_GetShortAddr::?relay`; Banked call to: NLME_GetShortAddr
   \   00004C   90....       MOV     DPTR,#ZDAppNwkAddr
   \   00004F   12....       LCALL   ??Subroutine184_0 & 0xFFFF
    511            (void)NLME_GetExtAddr();  // Load the saveExtAddr pointer.
   \                     ??CrossCallReturnLabel_326:
   \   000052                ; Setup parameters for call to function NLME_GetExtAddr
   \   000052   12....       LCALL   `??NLME_GetExtAddr::?relay`; Banked call to: NLME_GetExtAddr
    512          }
   \   000055                REQUIRE ?Subroutine3
   \   000055                ; // Fall through to label ?Subroutine3

   \                                 In  segment BANKED_CODE, align 1, keep-with-next
   \                     ?Subroutine3:
   \   000000   7F01         MOV     R7,#0x1
   \   000002   02....       LJMP    ?BANKED_LEAVE_XDATA

   \                                 In  segment BANKED_CODE, align 1, keep-with-next
   \                     ?Subroutine76:
   \   000000   A3           INC     DPTR
   \   000001   A3           INC     DPTR
   \   000002                REQUIRE ??Subroutine178_0
   \   000002                ; // Fall through to label ??Subroutine178_0

   \                                 In  segment BANKED_CODE, align 1, keep-with-next
   \                     ??Subroutine178_0:
   \   000000   12....       LCALL   ??Subroutine192_0 & 0xFFFF
   \                     ??CrossCallReturnLabel_374:
   \   000003   22           RET

   \                                 In  segment BANKED_CODE, align 1, keep-with-next
   \                     ??Subroutine184_0:
   \   000000   EA           MOV     A,R2
   \   000001                REQUIRE ??Subroutine185_0
   \   000001                ; // Fall through to label ??Subroutine185_0

   \                                 In  segment BANKED_CODE, align 1, keep-with-next
   \                     ??Subroutine185_0:
   \   000000   F0           MOVX    @DPTR,A
   \   000001   A3           INC     DPTR
   \   000002   EB           MOV     A,R3
   \   000003   F0           MOVX    @DPTR,A
   \   000004   22           RET

   \                                 In  segment BANKED_CODE, align 1, keep-with-next
   \                     ??Subroutine187_0:
   \   000000   12....       LCALL   ?Subroutine152 & 0xFFFF
   \                     ??CrossCallReturnLabel_356:
   \   000003   22           RET

   \                                 In  segment BANKED_CODE, align 1, keep-with-next
   \                     ?Subroutine152:
   \   000000   12....       LCALL   ?Subroutine174 & 0xFFFF
   \                     ??CrossCallReturnLabel_518:
   \   000003   F583         MOV     DPH,A
   \   000005   8882         MOV     DPL,R0
   \   000007   E0           MOVX    A,@DPTR
   \   000008   22           RET

   \                                 In  segment BANKED_CODE, align 1, keep-with-next
   \                     ??Subroutine192_0:
   \   000000   E0           MOVX    A,@DPTR
   \   000001                REQUIRE ??Subroutine193_0
   \   000001                ; // Fall through to label ??Subroutine193_0

   \                                 In  segment BANKED_CODE, align 1, keep-with-next
   \                     ??Subroutine193_0:
   \   000000   F8           MOV     R0,A
   \   000001   A3           INC     DPTR
   \   000002   E0           MOVX    A,@DPTR
   \   000003   F9           MOV     R1,A
   \   000004   8882         MOV     DPL,R0
   \   000006   8983         MOV     DPH,R1
   \   000008   22           RET

   \                                 In  segment BANKED_CODE, align 1, keep-with-next
   \                     ??Subroutine198_0:
   \   000000   12....       LCALL   ?Subroutine174 & 0xFFFF
   \                     ??CrossCallReturnLabel_521:
   \   000003   22           RET

   \                                 In  segment BANKED_CODE, align 1, keep-with-next
   \                     ?Subroutine174:
   \   000000   E0           MOVX    A,@DPTR
   \   000001   F8           MOV     R0,A
   \   000002   A3           INC     DPTR
   \   000003   E0           MOVX    A,@DPTR
   \   000004   22           RET

   \                                 In  segment BANKED_CODE, align 1, keep-with-next
   \                     ??Subroutine212_0:
   \   000000   12....       LCALL   ??Subroutine198_0 & 0xFFFF
   \                     ??CrossCallReturnLabel_510:
   \   000003   F9           MOV     R1,A
   \   000004   22           RET

   \                                 In  segment BANKED_CODE, align 1, keep-with-next
   \                     ??Subroutine215_0:
   \   000000   E0           MOVX    A,@DPTR
   \   000001   FE           MOV     R6,A
   \   000002   A3           INC     DPTR
   \   000003   E0           MOVX    A,@DPTR
   \   000004   22           RET
    513          
    514          #if defined ( REFLECTOR )
    515          /*********************************************************************
    516           * @fn          ZDO_RemoveEndDeviceBind
    517           *
    518           * @brief       Remove the end device bind
    519           *
    520           * @param  none
    521           *
    522           * @return      none
    523           */
    524          static void ZDO_RemoveEndDeviceBind( void )
    525          {
    526            if ( ZDO_EDBind != NULL )
    527            {
    528              // Free the RAM
    529              if ( ZDO_EDBind->inClusters != NULL )
    530              {
    531                osal_mem_free( ZDO_EDBind->inClusters );
    532              }
    533              if ( ZDO_EDBind->outClusters != NULL )
    534              {
    535                osal_mem_free( ZDO_EDBind->outClusters );
    536              }
    537              osal_mem_free( ZDO_EDBind );
    538              ZDO_EDBind = NULL;
    539            }
    540          }
    541          #endif // REFLECTOR
    542          
    543          #if defined ( REFLECTOR )
    544          /*********************************************************************
    545           * @fn          ZDO_SendEDBindRsp
    546           *
    547           * @brief       Send the end device bind response
    548           *
    549           * @param  none
    550           *
    551           * @return      none
    552           */
    553          static void ZDO_SendEDBindRsp( byte TransSeq, zAddrType_t *dstAddr, byte Status, byte secUse )
    554          {
    555            ZDP_EndDeviceBindRsp( TransSeq, dstAddr, Status, secUse );
    556          
    557          #if defined( LCD_SUPPORTED )
    558            HalLcdWriteString( "End Device Bind", HAL_LCD_LINE_1 );
    559            if ( Status == ZDP_SUCCESS )
    560            {
    561              HalLcdWriteString( "Success Sent", HAL_LCD_LINE_2 );
    562            }
    563            else
    564            {
    565              HalLcdWriteString( "Timeout", HAL_LCD_LINE_2 );
    566            }
    567          #endif
    568          
    569          }
    570          #endif // REFLECTOR
    571          
    572          #if ( ZG_BUILD_COORDINATOR_TYPE )
    573          /*********************************************************************
    574           * @fn          ZDO_CompareClusterLists
    575           *
    576           * @brief       Compare one list to another list
    577           *
    578           * @param       numList1 - number of items in list 1
    579           * @param       list1 - first list of cluster IDs
    580           * @param       numList2 - number of items in list 2
    581           * @param       list2 - second list of cluster IDs
    582           * @param       pMatches - buffer to put matches
    583           *
    584           * @return      number of matches
    585           */

   \                                 In  segment BANKED_CODE, align 1, keep-with-next
    586          static byte ZDO_CompareClusterLists( byte numList1, uint16 *list1,
   \                     ZDO_CompareClusterLists:
    587                                    byte numList2, uint16 *list2, uint16 *pMatches )
    588          {
   \   000000                REQUIRE ?V0
   \   000000                REQUIRE ?V1
   \   000000                REQUIRE ?V2
   \   000000                REQUIRE ?V3
   \   000000                REQUIRE ?V4
   \   000000                REQUIRE ?V6
   \   000000                REQUIRE ?V7
   \   000000   74F0         MOV     A,#-0x10
   \   000002   12....       LCALL   ?BANKED_ENTER_XDATA
   \   000005                ; Saved register size: 16
   \   000005                ; Auto size: 0
   \   000005   89..         MOV     ?V3,R1
   \   000007   8C..         MOV     ?V4,R4
    589            byte x, y;
    590            uint16 z;
    591            byte numMatches = 0;
   \   000009   75..00       MOV     ?V0,#0x0
    592          
    593            // Check the first in against the seconds out
    594            for ( x = 0; x < numList1; x++ )
   \   00000C   75..00       MOV     ?V1,#0x0
   \   00000F   7410         MOV     A,#0x10
   \   000011   12....       LCALL   ?XSTACK_DISP0_8
   \   000014   12....       LCALL   ?Subroutine87 & 0xFFFF
   \                     ??CrossCallReturnLabel_127:
   \   000017   7412         MOV     A,#0x12
   \   000019   12....       LCALL   ?XSTACK_DISP0_8
   \   00001C   12....       LCALL   ?Subroutine86 & 0xFFFF
   \                     ??CrossCallReturnLabel_125:
   \   00001F   8037         SJMP    ??ZDO_CompareClusterLists_0
    595            {
    596              for ( y = 0; y < numList2; y++ )
    597              {
    598                z = list2[y];
   \                     ??ZDO_CompareClusterLists_1:
   \   000021   A8..         MOV     R0,?V2
   \   000023   12....       LCALL   ?Subroutine102 & 0xFFFF
   \                     ??CrossCallReturnLabel_152:
   \   000026   12....       LCALL   ?Subroutine90 & 0xFFFF
   \                     ??CrossCallReturnLabel_133:
   \   000029   F5..         MOV     ?V7,A
    599                if ( list1[x] == z )
   \   00002B   A8..         MOV     R0,?V1
   \   00002D   12....       LCALL   ?Subroutine104 & 0xFFFF
   \                     ??CrossCallReturnLabel_157:
   \   000030   F583         MOV     DPH,A
   \   000032   E0           MOVX    A,@DPTR
   \   000033   65..         XRL     A,?V6
   \   000035   7004         JNZ     ??ZDO_CompareClusterLists_2
   \   000037   A3           INC     DPTR
   \   000038   E0           MOVX    A,@DPTR
   \   000039   65..         XRL     A,?V7
   \                     ??ZDO_CompareClusterLists_2:
   \   00003B   7010         JNZ     ??ZDO_CompareClusterLists_3
    600                {
    601                  pMatches[numMatches++] = z;
   \   00003D   A8..         MOV     R0,?V0
   \   00003F   12....       LCALL   ?Subroutine163 & 0xFFFF
    602                }
    603              }
   \                     ??CrossCallReturnLabel_273:
   \   000042   EE           MOV     A,R6
   \   000043   28           ADD     A,R0
   \   000044   F582         MOV     DPL,A
   \   000046   EF           MOV     A,R7
   \   000047   12....       LCALL   ?Subroutine108 & 0xFFFF
   \                     ??CrossCallReturnLabel_171:
   \   00004A   F0           MOVX    @DPTR,A
   \   00004B   05..         INC     ?V0
   \                     ??ZDO_CompareClusterLists_3:
   \   00004D   05..         INC     ?V2
   \                     ??ZDO_CompareClusterLists_4:
   \   00004F   E5..         MOV     A,?V2
   \   000051   C3           CLR     C
   \   000052   95..         SUBB    A,?V4
   \   000054   40CB         JC      ??ZDO_CompareClusterLists_1
   \   000056   05..         INC     ?V1
   \                     ??ZDO_CompareClusterLists_0:
   \   000058   E5..         MOV     A,?V1
   \   00005A   C3           CLR     C
   \   00005B   95..         SUBB    A,?V3
   \   00005D   5005         JNC     ??ZDO_CompareClusterLists_5
   \   00005F   75..00       MOV     ?V2,#0x0
   \   000062   80EB         SJMP    ??ZDO_CompareClusterLists_4
    604            }
    605          
    606            return ( numMatches );
   \                     ??ZDO_CompareClusterLists_5:
   \   000064   A9..         MOV     R1,?V0
   \   000066   02....       LJMP    ??Subroutine191_0 & 0xFFFF
    607          }

   \                                 In  segment BANKED_CODE, align 1, keep-with-next
   \                     ?Subroutine104:
   \   000000   12....       LCALL   ?Subroutine163 & 0xFFFF
   \                     ??CrossCallReturnLabel_278:
   \   000003   EA           MOV     A,R2
   \   000004   28           ADD     A,R0
   \   000005   F582         MOV     DPL,A
   \   000007   EB           MOV     A,R3
   \   000008   39           ADDC    A,R1
   \   000009   22           RET

   \                                 In  segment BANKED_CODE, align 1, keep-with-next
   \                     ?Subroutine102:
   \   000000   12....       LCALL   ?Subroutine163 & 0xFFFF
   \                     ??CrossCallReturnLabel_276:
   \   000003   EC           MOV     A,R4
   \   000004   28           ADD     A,R0
   \   000005   F582         MOV     DPL,A
   \   000007   ED           MOV     A,R5
   \   000008   39           ADDC    A,R1
   \   000009   F583         MOV     DPH,A
   \   00000B   22           RET

   \                                 In  segment BANKED_CODE, align 1, keep-with-next
   \                     ?Subroutine87:
   \   000000   12....       LCALL   ?Subroutine160 & 0xFFFF
   \                     ??CrossCallReturnLabel_450:
   \   000003   FC           MOV     R4,A
   \   000004   E9           MOV     A,R1
   \   000005   FD           MOV     R5,A
   \   000006   22           RET

   \                                 In  segment BANKED_CODE, align 1, keep-with-next
   \                     ?Subroutine163:
   \   000000   E8           MOV     A,R0
   \   000001   28           ADD     A,R0
   \   000002   F8           MOV     R0,A
   \   000003   E4           CLR     A
   \   000004   33           RLC     A
   \   000005   F9           MOV     R1,A
   \   000006   22           RET

   \                                 In  segment BANKED_CODE, align 1, keep-with-next
   \                     ??Subroutine191_0:
   \   000000   7F08         MOV     R7,#0x8
   \   000002   02....       LJMP    ?BANKED_LEAVE_XDATA

   \                                 In  segment BANKED_CODE, align 1, keep-with-next
   \                     ?Subroutine160:
   \   000000   12....       LCALL   ?Subroutine174 & 0xFFFF
   \                     ??CrossCallReturnLabel_519:
   \   000003   F9           MOV     R1,A
   \   000004   E8           MOV     A,R0
   \   000005   22           RET

   \                                 In  segment BANKED_CODE, align 1, keep-with-next
   \                     ?Subroutine90:
   \   000000   E0           MOVX    A,@DPTR
   \   000001   F5..         MOV     ?V6,A
   \   000003   A3           INC     DPTR
   \   000004   E0           MOVX    A,@DPTR
   \   000005   22           RET

   \                                 In  segment BANKED_CODE, align 1, keep-with-next
   \                     ?Subroutine108:
   \   000000   39           ADDC    A,R1
   \   000001   F583         MOV     DPH,A
   \   000003   E5..         MOV     A,?V6
   \   000005   F0           MOVX    @DPTR,A
   \   000006   A3           INC     DPTR
   \   000007   E5..         MOV     A,?V7
   \   000009   22           RET

   \                                 In  segment BANKED_CODE, align 1, keep-with-next
   \                     ?Subroutine86:
   \   000000   12....       LCALL   ?Subroutine160 & 0xFFFF
   \                     ??CrossCallReturnLabel_449:
   \   000003   FE           MOV     R6,A
   \   000004   E9           MOV     A,R1
   \   000005   FF           MOV     R7,A
   \   000006   22           RET
    608          #endif // ZG_BUILD_COORDINATOR_TYPE
    609          
    610          /*********************************************************************
    611           * Utility functions
    612           */
    613          
    614          /*********************************************************************
    615           * @fn          ZDO_CompareByteLists
    616           *
    617           * @brief       Compares two lists for matches.
    618           *
    619           * @param       ACnt  - number of entries in list A
    620           * @param       AList  - List A
    621           * @param       BCnt  - number of entries in list B
    622           * @param       BList  - List B
    623           *
    624           * @return      true if a match is found
    625           */

   \                                 In  segment BANKED_CODE, align 1, keep-with-next
    626          byte ZDO_AnyClusterMatches( byte ACnt, uint16 *AList, byte BCnt, uint16 *BList )
   \                     ZDO_AnyClusterMatches:
    627          {
   \   000000                REQUIRE ?V0
   \   000000                REQUIRE ?V1
   \   000000                REQUIRE ?V2
   \   000000                REQUIRE ?V3
   \   000000   74F4         MOV     A,#-0xc
   \   000002   12....       LCALL   ?BANKED_ENTER_XDATA
   \   000005                ; Saved register size: 12
   \   000005                ; Auto size: 0
   \   000005   89..         MOV     ?V3,R1
   \   000007   8C..         MOV     ?V2,R4
    628            byte x, y;
    629          
    630            for ( x = 0; x < ACnt; x++ )
   \   000009   75..00       MOV     ?V0,#0x0
   \   00000C   740C         MOV     A,#0xc
   \   00000E   12....       LCALL   ?XSTACK_DISP0_8
   \   000011   12....       LCALL   ?Subroutine87 & 0xFFFF
   \                     ??CrossCallReturnLabel_128:
   \   000014   8002         SJMP    ??ZDO_AnyClusterMatches_0
   \                     ??ZDO_AnyClusterMatches_1:
   \   000016   05..         INC     ?V0
   \                     ??ZDO_AnyClusterMatches_0:
   \   000018   E5..         MOV     A,?V0
   \   00001A   C3           CLR     C
   \   00001B   95..         SUBB    A,?V3
   \   00001D   5029         JNC     ??ZDO_AnyClusterMatches_2
    631            {
    632              for ( y = 0; y < BCnt; y++ )
   \   00001F   75..00       MOV     ?V1,#0x0
   \   000022   8002         SJMP    ??ZDO_AnyClusterMatches_3
   \                     ??ZDO_AnyClusterMatches_4:
   \   000024   05..         INC     ?V1
   \                     ??ZDO_AnyClusterMatches_3:
   \   000026   E5..         MOV     A,?V1
   \   000028   C3           CLR     C
   \   000029   95..         SUBB    A,?V2
   \   00002B   50E9         JNC     ??ZDO_AnyClusterMatches_1
    633              {
    634                if ( AList[x] == BList[y] )
   \   00002D   A8..         MOV     R0,?V0
   \   00002F   12....       LCALL   ?Subroutine104 & 0xFFFF
   \                     ??CrossCallReturnLabel_158:
   \   000032   12....       LCALL   ?Subroutine101 & 0xFFFF
   \                     ??CrossCallReturnLabel_527:
   \   000035   FF           MOV     R7,A
   \   000036   A8..         MOV     R0,?V1
   \   000038   12....       LCALL   ?Subroutine102 & 0xFFFF
   \                     ??CrossCallReturnLabel_153:
   \   00003B   E0           MOVX    A,@DPTR
   \   00003C   6E           XRL     A,R6
   \   00003D   7003         JNZ     ??ZDO_AnyClusterMatches_5
   \   00003F   A3           INC     DPTR
   \   000040   E0           MOVX    A,@DPTR
   \   000041   6F           XRL     A,R7
   \                     ??ZDO_AnyClusterMatches_5:
   \   000042   70E0         JNZ     ??ZDO_AnyClusterMatches_4
    635                {
    636                  return true;
   \   000044   7901         MOV     R1,#0x1
   \   000046   8002         SJMP    ??ZDO_AnyClusterMatches_6
    637                }
    638              }
    639            }
    640          
    641            return false;
   \                     ??ZDO_AnyClusterMatches_2:
   \   000048   7900         MOV     R1,#0x0
   \                     ??ZDO_AnyClusterMatches_6:
   \   00004A   02....       LJMP    ?Subroutine1 & 0xFFFF
    642          }

   \                                 In  segment BANKED_CODE, align 1, keep-with-next
   \                     ?Subroutine101:
   \   000000   F583         MOV     DPH,A
   \   000002                REQUIRE ??Subroutine215_0
   \   000002                ; // Fall through to label ??Subroutine215_0
    643          
    644          /*********************************************************************
    645           * Callback functions from ZDProfile
    646           */
    647          
    648          
    649          /*********************************************************************
    650           * @fn          ZDO_ProcessNodeDescRsp
    651           *
    652           * @brief       This function processes the Node_Desc_rsp and request
    653           *              Update the TC Link key if the TC supports it.
    654           *
    655           * @param       inMsg - incoming message
    656           *
    657           * @return      none
    658           */

   \                                 In  segment BANKED_CODE, align 1, keep-with-next
    659          void ZDO_ProcessNodeDescRsp ( zdoIncomingMsg_t *inMsg )
   \                     ZDO_ProcessNodeDescRsp:
    660          {
   \   000000                ; Saved register size: 0
   \   000000                ; Auto size: 0
    661          #if (ZG_BUILD_JOINING_TYPE)
    662            zAddrType_t destAddr;
    663          
    664            if(requestNewTrustCenterLinkKey)
    665            {
    666              if(!APSME_IsDistributedSecurity())
    667              {
    668                destAddr.addrMode = Addr16Bit;
    669                destAddr.addr.shortAddr = 0x0000;
    670                if(inMsg->srcAddr.addr.shortAddr == destAddr.addr.shortAddr)
    671                {
    672                  ZDO_NodeDescRsp_t NDRsp;
    673                  uint8 StackComplianceRev;
    674          
    675                  //Stop timer to avoid unintended resets
    676                  osal_stop_timerEx( bdb_TaskID, BDB_PROCESS_TIMEOUT);
    677                  
    678                  ZDO_ParseNodeDescRsp(inMsg, &NDRsp);
    679                  
    680                  StackComplianceRev = NDRsp.nodeDesc.ServerMask >> STACK_COMPLIANCE_CURRENT_REV_POS;
    681                  
    682                  if( StackComplianceRev >= STACK_COMPL_REV_21 )
    683                  {
    684                    bdb_tcLinkKeyExchangeAttempt(TRUE,BDB_REQ_TC_LINK_KEY);
    685                  }
    686                  else
    687                  {
    688                    APSME_TCLKDevEntry_t TCLKDevEntry;
    689                    
    690                    //Save the KeyAttribute for joining device that it has joined non-R21 nwk
    691                    TCLKDevEntry.keyAttributes = ZG_NON_R21_NWK_JOINED;
    692                    osal_nv_write(ZCD_NV_TCLK_TABLE_START,osal_offsetof(APSME_TCLKDevEntry_t,keyAttributes),sizeof(uint8),&TCLKDevEntry.keyAttributes);
    693                    
    694                    bdb_setNodeJoinLinkKeyType(BDB_DEFAULT_GLOBAL_TRUST_CENTER_LINK_KEY);
    695                    bdb_reportCommissioningState(BDB_COMMISSIONING_STATE_TC_LINK_KEY_EXCHANGE, TRUE);
    696                  }
    697                }
    698              }
    699            }
    700          #endif 
    701          }
   \   000000   02....       LJMP    ?BRET
    702          
    703          
    704          
    705          /*********************************************************************
    706           * @fn          ZDO_ProcessNodeDescReq
    707           *
    708           * @brief       This function processes and responds to the
    709           *              Node_Desc_req message.
    710           *
    711           * @param       inMsg - incoming message
    712           *
    713           * @return      none
    714           */

   \                                 In  segment BANKED_CODE, align 1, keep-with-next
    715          void ZDO_ProcessNodeDescReq( zdoIncomingMsg_t *inMsg )
   \                     ZDO_ProcessNodeDescReq:
    716          {
   \   000000                REQUIRE ?V0
   \   000000                REQUIRE ?V1
   \   000000   74F6         MOV     A,#-0xa
   \   000002   12....       LCALL   ?BANKED_ENTER_XDATA
   \   000005                ; Saved register size: 10
   \   000005                ; Auto size: 0
   \   000005   12....       LCALL   ?Subroutine54 & 0xFFFF
    717            uint16 aoi = BUILD_UINT16( inMsg->asdu[0], inMsg->asdu[1] );
    718            NodeDescriptorFormat_t *desc = NULL;
    719          
    720            if ( aoi == ZDAppNwkAddr.addr.shortAddr )
   \                     ??CrossCallReturnLabel_77:
   \   000008   7003         JNZ     ??ZDO_ProcessNodeDescReq_0
   \   00000A   A3           INC     DPTR
   \   00000B   E0           MOVX    A,@DPTR
   \   00000C   6D           XRL     A,R5
   \                     ??ZDO_ProcessNodeDescReq_0:
   \   00000D   7017         JNZ     ??ZDO_ProcessNodeDescReq_1
    721            {
    722              desc = &ZDO_Config_Node_Descriptor;
    723            }
    724          
    725            if ( desc != NULL )
    726            {
    727              ZDP_NodeDescMsg( inMsg, aoi, desc );
   \   00000F                ; Setup parameters for call to function ZDP_NodeDescMsg
   \   00000F   75....       MOV     ?V0,#ZDO_Config_Node_Descriptor & 0xff
   \   000012   75....       MOV     ?V1,#(ZDO_Config_Node_Descriptor >> 8) & 0xff
   \   000015   78..         MOV     R0,#?V0
   \   000017   12....       LCALL   ?PUSH_XSTACK_I_TWO
   \   00001A   EE           MOV     A,R6
   \   00001B   FA           MOV     R2,A
   \   00001C   12....       LCALL   `??ZDP_NodeDescMsg::?relay`; Banked call to: ZDP_NodeDescMsg
   \   00001F   7402         MOV     A,#0x2
   \   000021   12....       LCALL   ?DEALLOC_XSTACK8
   \   000024   801F         SJMP    ??ZDO_ProcessNodeDescReq_2
    728            }
    729            else
    730            {
    731              ZDP_GenericRsp( inMsg->TransSeq, &(inMsg->srcAddr),
    732                        ZDP_INVALID_REQTYPE, aoi, Node_Desc_rsp, inMsg->SecurityUse );
   \                     ??ZDO_ProcessNodeDescReq_1:
   \   000026                ; Setup parameters for call to function ZDP_GenericRsp
   \   000026   75..02       MOV     ?V0,#0x2
   \   000029   75..80       MOV     ?V1,#-0x80
   \   00002C   78..         MOV     R0,#?V0
   \   00002E   12....       LCALL   ?PUSH_XSTACK_I_TWO
   \   000031   8C..         MOV     ?V0,R4
   \   000033   8D..         MOV     ?V1,R5
   \   000035   78..         MOV     R0,#?V0
   \   000037   12....       LCALL   ?PUSH_XSTACK_I_TWO
   \   00003A   12....       LCALL   ?Subroutine63 & 0xFFFF
    733            }
   \                     ??CrossCallReturnLabel_92:
   \   00003D   12....       LCALL   `??ZDP_GenericRsp::?relay`; Banked call to: ZDP_GenericRsp
   \   000040   7404         MOV     A,#0x4
   \   000042   12....       LCALL   ?DEALLOC_XSTACK8
    734          }
   \                     ??ZDO_ProcessNodeDescReq_2:
   \   000045   02....       LJMP    ??Subroutine180_0 & 0xFFFF

   \                                 In  segment BANKED_CODE, align 1, keep-with-next
   \                     ?Subroutine63:
   \   000000   EE           MOV     A,R6
   \   000001   240E         ADD     A,#0xe
   \   000003   F582         MOV     DPL,A
   \   000005   E4           CLR     A
   \   000006   3F           ADDC    A,R7
   \   000007   F583         MOV     DPH,A
   \   000009   E0           MOVX    A,@DPTR
   \   00000A   FD           MOV     R5,A
   \   00000B   7C80         MOV     R4,#-0x80
   \   00000D   EE           MOV     A,R6
   \   00000E   2402         ADD     A,#0x2
   \   000010   FA           MOV     R2,A
   \   000011   E4           CLR     A
   \   000012   3F           ADDC    A,R7
   \   000013   FB           MOV     R3,A
   \   000014   EE           MOV     A,R6
   \   000015   240F         ADD     A,#0xf
   \   000017   F582         MOV     DPL,A
   \   000019   E4           CLR     A
   \   00001A   3F           ADDC    A,R7
   \   00001B   F583         MOV     DPH,A
   \   00001D   E0           MOVX    A,@DPTR
   \   00001E   F9           MOV     R1,A
   \   00001F   22           RET

   \                                 In  segment BANKED_CODE, align 1, keep-with-next
   \                     ?Subroutine54:
   \   000000   12....       LCALL   ?Subroutine153 & 0xFFFF
   \                     ??CrossCallReturnLabel_267:
   \   000003   F8           MOV     R0,A
   \   000004   E4           CLR     A
   \   000005   C8           XCH     A,R0
   \   000006   F9           MOV     R1,A
   \   000007   EA           MOV     A,R2
   \   000008   28           ADD     A,R0
   \   000009   FC           MOV     R4,A
   \   00000A   E4           CLR     A
   \   00000B   39           ADDC    A,R1
   \   00000C   FD           MOV     R5,A
   \   00000D   90....       MOV     DPTR,#ZDAppNwkAddr
   \   000010   E0           MOVX    A,@DPTR
   \   000011   6C           XRL     A,R4
   \   000012   22           RET

   \                                 In  segment BANKED_CODE, align 1, keep-with-next
   \                     ?Subroutine175:
   \   000000   EE           MOV     A,R6
   \   000001   2413         ADD     A,#0x13
   \   000003   F582         MOV     DPL,A
   \   000005   E4           CLR     A
   \   000006   3F           ADDC    A,R7
   \   000007   F583         MOV     DPH,A
   \   000009   22           RET

   \                                 In  segment BANKED_CODE, align 1, keep-with-next
   \                     ?Subroutine153:
   \   000000   EA           MOV     A,R2
   \   000001   FE           MOV     R6,A
   \   000002   EB           MOV     A,R3
   \   000003   FF           MOV     R7,A
   \   000004   12....       LCALL   ?Subroutine175 & 0xFFFF
   \                     ??CrossCallReturnLabel_300:
   \   000007   12....       LCALL   ?Subroutine174 & 0xFFFF
   \                     ??CrossCallReturnLabel_516:
   \   00000A   F9           MOV     R1,A
   \   00000B   8882         MOV     DPL,R0
   \   00000D   8983         MOV     DPH,R1
   \   00000F   E0           MOVX    A,@DPTR
   \   000010   FA           MOV     R2,A
   \   000011   A3           INC     DPTR
   \   000012   E0           MOVX    A,@DPTR
   \   000013   22           RET
    735          
    736          /*********************************************************************
    737           * @fn          ZDO_ProcessPowerDescReq
    738           *
    739           * @brief       This function processes and responds to the
    740           *              Node_Power_req message.
    741           *
    742           * @param       inMsg  - incoming request
    743           *
    744           * @return      none
    745           */

   \                                 In  segment BANKED_CODE, align 1, keep-with-next
    746          void ZDO_ProcessPowerDescReq( zdoIncomingMsg_t *inMsg )
   \                     ZDO_ProcessPowerDescReq:
    747          {
   \   000000                REQUIRE ?V0
   \   000000                REQUIRE ?V1
   \   000000   74F6         MOV     A,#-0xa
   \   000002   12....       LCALL   ?BANKED_ENTER_XDATA
   \   000005                ; Saved register size: 10
   \   000005                ; Auto size: 0
   \   000005   12....       LCALL   ?Subroutine54 & 0xFFFF
    748            uint16 aoi = BUILD_UINT16( inMsg->asdu[0], inMsg->asdu[1] );
    749            NodePowerDescriptorFormat_t *desc = NULL;
    750          
    751            if ( aoi == ZDAppNwkAddr.addr.shortAddr )
   \                     ??CrossCallReturnLabel_78:
   \   000008   7003         JNZ     ??ZDO_ProcessPowerDescReq_0
   \   00000A   A3           INC     DPTR
   \   00000B   E0           MOVX    A,@DPTR
   \   00000C   6D           XRL     A,R5
   \                     ??ZDO_ProcessPowerDescReq_0:
   \   00000D   7017         JNZ     ??ZDO_ProcessPowerDescReq_1
    752            {
    753              desc = &ZDO_Config_Power_Descriptor;
    754            }
    755          
    756            if ( desc != NULL )
    757            {
    758              ZDP_PowerDescMsg( inMsg, aoi, desc );
   \   00000F                ; Setup parameters for call to function ZDP_PowerDescMsg
   \   00000F   75....       MOV     ?V0,#ZDO_Config_Power_Descriptor & 0xff
   \   000012   75....       MOV     ?V1,#(ZDO_Config_Power_Descriptor >> 8) & 0xff
   \   000015   78..         MOV     R0,#?V0
   \   000017   12....       LCALL   ?PUSH_XSTACK_I_TWO
   \   00001A   EE           MOV     A,R6
   \   00001B   FA           MOV     R2,A
   \   00001C   12....       LCALL   `??ZDP_PowerDescMsg::?relay`; Banked call to: ZDP_PowerDescMsg
   \   00001F   7402         MOV     A,#0x2
   \   000021   12....       LCALL   ?DEALLOC_XSTACK8
   \   000024   801F         SJMP    ??ZDO_ProcessPowerDescReq_2
    759            }
    760            else
    761            {
    762              ZDP_GenericRsp( inMsg->TransSeq, &(inMsg->srcAddr),
    763                        ZDP_INVALID_REQTYPE, aoi, Power_Desc_rsp, inMsg->SecurityUse );
   \                     ??ZDO_ProcessPowerDescReq_1:
   \   000026                ; Setup parameters for call to function ZDP_GenericRsp
   \   000026   75..03       MOV     ?V0,#0x3
   \   000029   75..80       MOV     ?V1,#-0x80
   \   00002C   78..         MOV     R0,#?V0
   \   00002E   12....       LCALL   ?PUSH_XSTACK_I_TWO
   \   000031   8C..         MOV     ?V0,R4
   \   000033   8D..         MOV     ?V1,R5
   \   000035   78..         MOV     R0,#?V0
   \   000037   12....       LCALL   ?PUSH_XSTACK_I_TWO
   \   00003A   12....       LCALL   ?Subroutine63 & 0xFFFF
    764            }
   \                     ??CrossCallReturnLabel_93:
   \   00003D   12....       LCALL   `??ZDP_GenericRsp::?relay`; Banked call to: ZDP_GenericRsp
   \   000040   7404         MOV     A,#0x4
   \   000042   12....       LCALL   ?DEALLOC_XSTACK8
    765          }
   \                     ??ZDO_ProcessPowerDescReq_2:
   \   000045   80..         SJMP    ??Subroutine180_0
    766          
    767          /*********************************************************************
    768           * @fn          ZDO_ProcessSimpleDescReq
    769           *
    770           * @brief       This function processes and responds to the
    771           *              Simple_Desc_req message.
    772           *
    773           * @param       inMsg - incoming message (request)
    774           *
    775           * @return      none
    776           */

   \                                 In  segment BANKED_CODE, align 1, keep-with-next
   \                     ?Subroutine2:
   \   000000   7402         MOV     A,#0x2
   \   000002                REQUIRE ??Subroutine179_0
   \   000002                ; // Fall through to label ??Subroutine179_0

   \                                 In  segment BANKED_CODE, align 1, keep-with-next
   \                     ??Subroutine179_0:
   \   000000   12....       LCALL   ?DEALLOC_XSTACK8
   \   000003                REQUIRE ??Subroutine180_0
   \   000003                ; // Fall through to label ??Subroutine180_0

   \                                 In  segment BANKED_CODE, align 1, keep-with-next
    777          void ZDO_ProcessSimpleDescReq( zdoIncomingMsg_t *inMsg )
   \                     ZDO_ProcessSimpleDescReq:
    778          {
   \   000000                REQUIRE ?V0
   \   000000                REQUIRE ?V1
   \   000000   74F6         MOV     A,#-0xa
   \   000002   12....       LCALL   ?BANKED_ENTER_XDATA
   \   000005                ; Saved register size: 10
   \   000005                ; Auto size: 2
   \   000005   74FE         MOV     A,#-0x2
   \   000007   12....       LCALL   ?ALLOC_XSTACK8
   \   00000A   EA           MOV     A,R2
   \   00000B   FE           MOV     R6,A
   \   00000C   EB           MOV     A,R3
   \   00000D   FF           MOV     R7,A
    779            SimpleDescriptionFormat_t *sDesc = NULL;
   \   00000E   85..82       MOV     DPL,?XSP + 0
   \   000011   85..83       MOV     DPH,?XSP + 1
   \   000014   E4           CLR     A
   \   000015   F0           MOVX    @DPTR,A
   \   000016   A3           INC     DPTR
   \   000017   F0           MOVX    @DPTR,A
    780            uint16 aoi = BUILD_UINT16( inMsg->asdu[0], inMsg->asdu[1] );
   \   000018   12....       LCALL   ?Subroutine110 & 0xFFFF
   \                     ??CrossCallReturnLabel_175:
   \   00001B   12....       LCALL   ?Subroutine73 & 0xFFFF
   \                     ??CrossCallReturnLabel_105:
   \   00001E   FB           MOV     R3,A
   \   00001F   EC           MOV     A,R4
   \   000020   FA           MOV     R2,A
    781            byte endPoint = inMsg->asdu[2];
   \   000021   8882         MOV     DPL,R0
   \   000023   8983         MOV     DPH,R1
   \   000025   A3           INC     DPTR
   \   000026   A3           INC     DPTR
   \   000027   E0           MOVX    A,@DPTR
   \   000028   F9           MOV     R1,A
    782            byte free = false;
   \   000029   75..00       MOV     ?V1,#0x0
    783            byte stat = ZDP_SUCCESS;
   \   00002C   75..00       MOV     ?V0,#0x0
    784          
    785            if ( (endPoint == ZDO_EP) || (endPoint > MAX_ENDPOINTS) )
   \   00002F   6005         JZ      ??ZDO_ProcessSimpleDescReq_0
   \   000031   74FF         MOV     A,#-0x1
   \   000033   69           XRL     A,R1
   \   000034   7005         JNZ     ??ZDO_ProcessSimpleDescReq_1
    786            {
    787              stat = ZDP_INVALID_EP;
   \                     ??ZDO_ProcessSimpleDescReq_0:
   \   000036   75..82       MOV     ?V0,#-0x7e
   \   000039   8024         SJMP    ??ZDO_ProcessSimpleDescReq_2
    788            }
    789            else if ( aoi == ZDAppNwkAddr.addr.shortAddr )
   \                     ??ZDO_ProcessSimpleDescReq_1:
   \   00003B   90....       MOV     DPTR,#ZDAppNwkAddr
   \   00003E   E0           MOVX    A,@DPTR
   \   00003F   6A           XRL     A,R2
   \   000040   7003         JNZ     ??ZDO_ProcessSimpleDescReq_3
   \   000042   A3           INC     DPTR
   \   000043   E0           MOVX    A,@DPTR
   \   000044   6B           XRL     A,R3
   \                     ??ZDO_ProcessSimpleDescReq_3:
   \   000045   7015         JNZ     ??ZDO_ProcessSimpleDescReq_4
    790            {
    791              free = afFindSimpleDesc( &sDesc, endPoint );
   \   000047                ; Setup parameters for call to function afFindSimpleDesc
   \   000047   AA..         MOV     R2,?XSP + 0
   \   000049   AB..         MOV     R3,?XSP + 1
   \   00004B   12....       LCALL   `??afFindSimpleDesc::?relay`; Banked call to: afFindSimpleDesc
   \   00004E   E9           MOV     A,R1
   \   00004F   FA           MOV     R2,A
    792              if ( sDesc == NULL )
   \   000050   12....       LCALL   ?Subroutine51 & 0xFFFF
   \                     ??CrossCallReturnLabel_446:
   \   000053   7003         JNZ     ??ZDO_ProcessSimpleDescReq_5
    793              {
    794                stat = ZDP_NOT_ACTIVE;
   \   000055   75..83       MOV     ?V0,#-0x7d
   \                     ??ZDO_ProcessSimpleDescReq_5:
   \   000058   8A..         MOV     ?V1,R2
   \   00005A   8003         SJMP    ??ZDO_ProcessSimpleDescReq_2
    795              }
    796            }
    797            else
    798            {
    799              if ( ZSTACK_ROUTER_BUILD )
    800              {
    801                stat = ZDP_DEVICE_NOT_FOUND;
   \                     ??ZDO_ProcessSimpleDescReq_4:
   \   00005C   75..81       MOV     ?V0,#-0x7f
    802              }
    803              else if ( ZSTACK_END_DEVICE_BUILD )
    804              {
    805                stat = ZDP_INVALID_REQTYPE;
    806              }
    807            }
    808          
    809            ZDP_SimpleDescMsg( inMsg, stat, sDesc );
   \                     ??ZDO_ProcessSimpleDescReq_2:
   \   00005F                ; Setup parameters for call to function ZDP_SimpleDescMsg
   \   00005F   12....       LCALL   ?Subroutine91 & 0xFFFF
   \                     ??CrossCallReturnLabel_308:
   \   000062   A9..         MOV     R1,?V0
   \   000064   EE           MOV     A,R6
   \   000065   FA           MOV     R2,A
   \   000066   EF           MOV     A,R7
   \   000067   FB           MOV     R3,A
   \   000068   12....       LCALL   `??ZDP_SimpleDescMsg::?relay`; Banked call to: ZDP_SimpleDescMsg
    810          
    811            if ( free && sDesc )
   \   00006B   E5..         MOV     A,?V1
   \   00006D   600B         JZ      ??ZDO_ProcessSimpleDescReq_6
   \   00006F   12....       LCALL   ?Subroutine51 & 0xFFFF
   \                     ??CrossCallReturnLabel_447:
   \   000072   6006         JZ      ??ZDO_ProcessSimpleDescReq_6
    812            {
    813              osal_mem_free( sDesc );
   \   000074                ; Setup parameters for call to function osal_mem_free
   \   000074   12....       LCALL   ?Subroutine85 & 0xFFFF
    814            }
   \                     ??CrossCallReturnLabel_415:
   \   000077   12....       LCALL   `??osal_mem_free::?relay`; Banked call to: osal_mem_free
    815          }
   \                     ??ZDO_ProcessSimpleDescReq_6:
   \   00007A   02....       LJMP    ?Subroutine2 & 0xFFFF

   \                                 In  segment BANKED_CODE, align 1, keep-with-next
   \                     ?Subroutine91:
   \   000000   85..82       MOV     DPL,?XSP + 0
   \   000003   85..83       MOV     DPH,?XSP + 1
   \   000006                REQUIRE ??Subroutine181_0
   \   000006                ; // Fall through to label ??Subroutine181_0

   \                                 In  segment BANKED_CODE, align 1, keep-with-next
   \                     ??Subroutine181_0:
   \   000000   E0           MOVX    A,@DPTR
   \   000001   FC           MOV     R4,A
   \   000002   A3           INC     DPTR
   \   000003   E0           MOVX    A,@DPTR
   \   000004   FD           MOV     R5,A
   \   000005   22           RET

   \                                 In  segment BANKED_CODE, align 1, keep-with-next
   \                     ?Subroutine110:
   \   000000   EE           MOV     A,R6
   \   000001   12....       LCALL   ??Subroutine221_0 & 0xFFFF
   \                     ??CrossCallReturnLabel_556:
   \   000004   3F           ADDC    A,R7
   \   000005   22           RET

   \                                 In  segment BANKED_CODE, align 1, keep-with-next
   \                     ?Subroutine73:
   \   000000   12....       LCALL   ?Subroutine155 & 0xFFFF
   \                     ??CrossCallReturnLabel_371:
   \   000003   E0           MOVX    A,@DPTR
   \   000004   FC           MOV     R4,A
   \   000005   A3           INC     DPTR
   \   000006   E0           MOVX    A,@DPTR
   \   000007   22           RET

   \                                 In  segment BANKED_CODE, align 1, keep-with-next
   \                     ?Subroutine155:
   \   000000   F583         MOV     DPH,A
   \   000002                REQUIRE ??Subroutine192_0
   \   000002                ; // Fall through to label ??Subroutine192_0

   \                                 In  segment BANKED_CODE, align 1, keep-with-next
   \                     ?Subroutine85:
   \   000000   85..82       MOV     DPL,?XSP + 0
   \   000003   85..83       MOV     DPH,?XSP + 1
   \   000006                REQUIRE ??Subroutine200_0
   \   000006                ; // Fall through to label ??Subroutine200_0

   \                                 In  segment BANKED_CODE, align 1, keep-with-next
   \                     ?Subroutine51:
   \   000000   85..82       MOV     DPL,?XSP + 0
   \   000003   85..83       MOV     DPH,?XSP + 1
   \   000006                REQUIRE ??Subroutine204_0
   \   000006                ; // Fall through to label ??Subroutine204_0

   \                                 In  segment BANKED_CODE, align 1, keep-with-next
   \                     ??Subroutine204_0:
   \   000000   12....       LCALL   ?Subroutine160 & 0xFFFF
   \                     ??CrossCallReturnLabel_451:
   \   000003   49           ORL     A,R1
   \   000004   22           RET

   \                                 In  segment BANKED_CODE, align 1, keep-with-next
   \                     ??Subroutine221_0:
   \   000000   2413         ADD     A,#0x13
   \   000002   F582         MOV     DPL,A
   \   000004   E4           CLR     A
   \   000005   22           RET
    816          
    817          /*********************************************************************
    818           * @fn          ZDO_ProcessSimpleDescRsp
    819           *
    820           * @brief       This function processes and responds to the
    821           *              Simple_Desc_rsp message.
    822           *
    823           * @param       inMsg - incoming message (request)
    824           *
    825           * @return      none
    826           */

   \                                 In  segment BANKED_CODE, align 1, keep-with-next
    827          void ZDO_ProcessSimpleDescRsp( zdoIncomingMsg_t *inMsg )
   \                     ZDO_ProcessSimpleDescRsp:
    828          {
   \   000000                REQUIRE ?V0
   \   000000                REQUIRE ?V1
   \   000000   74F6         MOV     A,#-0xa
   \   000002   12....       LCALL   ?BANKED_ENTER_XDATA
   \   000005                ; Saved register size: 10
   \   000005                ; Auto size: 0
   \   000005   EA           MOV     A,R2
   \   000006   FE           MOV     R6,A
   \   000007   EB           MOV     A,R3
   \   000008   FF           MOV     R7,A
    829          #if (BDB_FINDING_BINDING_CAPABILITY_ENABLED==1)
    830          
    831            uint8 len = 0;
    832            
    833            bdb_setEpDescListToActiveEndpoint();
   \   000009                ; Setup parameters for call to function bdb_setEpDescListToActiveEndpoint
   \   000009   12....       LCALL   `??bdb_setEpDescListToActiveEndpoint::?relay`; Banked call to: bdb_setEpDescListToActiveEndpoint
    834          
    835            if ( bdb_CurrEpDescriptorList->epDesc->epType & BDB_FINDING_AND_BINDING_INITIATOR ) 
   \   00000C   90....       MOV     DPTR,#bdb_CurrEpDescriptorList
   \   00000F   E0           MOVX    A,@DPTR
   \   000010   12....       LCALL   ?Subroutine81 & 0xFFFF
   \                     ??CrossCallReturnLabel_117:
   \   000013   F583         MOV     DPH,A
   \   000015   8882         MOV     DPL,R0
   \   000017   A3           INC     DPTR
   \   000018   E0           MOVX    A,@DPTR
   \   000019   A2E0         MOV     C,0xE0 /* A   */.0
   \   00001B   5030         JNC     ??ZDO_ProcessSimpleDescRsp_0
    836            {
    837              len += 1 + 2 + 1;  // [Status] + [dstAddr] + [len]
    838              len += inMsg->asdu[3];  //Simple Descriptor lenght
    839              bdb_SendMsg(bdb_TaskID,bdbCommissioningProcedureState.bdbCommissioningState,*(uint8*)inMsg->asdu,len, inMsg->asdu);
   \   00001D   12....       LCALL   ?Subroutine109 & 0xFFFF
    840            }
   \                     ??CrossCallReturnLabel_173:
   \   000020   12....       LCALL   ?Subroutine92 & 0xFFFF
   \                     ??CrossCallReturnLabel_135:
   \   000023   12....       LCALL   ?PUSH_XSTACK_I_TWO
   \   000026   85..82       MOV     DPL,?V0
   \   000029   85..83       MOV     DPH,?V1
   \   00002C   A3           INC     DPTR
   \   00002D   A3           INC     DPTR
   \   00002E   A3           INC     DPTR
   \   00002F   E0           MOVX    A,@DPTR
   \   000030   2404         ADD     A,#0x4
   \   000032   FC           MOV     R4,A
   \   000033   85..82       MOV     DPL,?V0
   \   000036   85..83       MOV     DPH,?V1
   \   000039   E0           MOVX    A,@DPTR
   \   00003A   FB           MOV     R3,A
   \   00003B   90....       MOV     DPTR,#bdbCommissioningProcedureState
   \   00003E   E0           MOVX    A,@DPTR
   \   00003F   FA           MOV     R2,A
   \   000040   90....       MOV     DPTR,#bdb_TaskID
   \   000043   E0           MOVX    A,@DPTR
   \   000044   F9           MOV     R1,A
   \   000045   12....       LCALL   `??bdb_SendMsg::?relay`; Banked call to: bdb_SendMsg
   \   000048   7402         MOV     A,#0x2
   \   00004A   12....       LCALL   ?DEALLOC_XSTACK8
    841          #endif
    842          }
   \                     ??ZDO_ProcessSimpleDescRsp_0:
   \   00004D   02....       LJMP    ??Subroutine180_0 & 0xFFFF

   \                                 In  segment BANKED_CODE, align 1, keep-with-next
   \                     ?Subroutine109:
   \   000000   12....       LCALL   ?Subroutine165 & 0xFFFF
   \                     ??CrossCallReturnLabel_282:
   \   000003   22           RET

   \                                 In  segment BANKED_CODE, align 1, keep-with-next
   \                     ?Subroutine165:
   \   000000   12....       LCALL   ?Subroutine175 & 0xFFFF
   \                     ??CrossCallReturnLabel_301:
   \   000003   22           RET

   \                                 In  segment BANKED_CODE, align 1, keep-with-next
   \                     ?Subroutine92:
   \   000000   E0           MOVX    A,@DPTR
   \   000001   F5..         MOV     ?V0,A
   \   000003   A3           INC     DPTR
   \   000004   E0           MOVX    A,@DPTR
   \   000005   F5..         MOV     ?V1,A
   \   000007                ; Setup parameters for call to function bdb_SendMsg
   \   000007   78..         MOV     R0,#?V0
   \   000009   22           RET

   \                                 In  segment BANKED_CODE, align 1, keep-with-next
   \                     ?Subroutine81:
   \   000000   F8           MOV     R0,A
   \   000001   A3           INC     DPTR
   \   000002   E0           MOVX    A,@DPTR
   \   000003   F583         MOV     DPH,A
   \   000005   8882         MOV     DPL,R0
   \   000007   12....       LCALL   ?Subroutine162 & 0xFFFF
   \                     ??CrossCallReturnLabel_508:
   \   00000A   22           RET

   \                                 In  segment BANKED_CODE, align 1, keep-with-next
   \                     ?Subroutine162:
   \   000000   A3           INC     DPTR
   \   000001   A3           INC     DPTR
   \   000002                REQUIRE ??Subroutine198_0
   \   000002                ; // Fall through to label ??Subroutine198_0
    843          
    844          /*********************************************************************
    845           * @fn          ZDO_ProcessActiveEPReq
    846           *
    847           * @brief       This function processes and responds to the
    848           *              Active_EP_req message.
    849           *
    850           * @param       inMsg  - incoming message (request)
    851           *
    852           * @return      none
    853           */

   \                                 In  segment BANKED_CODE, align 1, keep-with-next
    854          void ZDO_ProcessActiveEPReq( zdoIncomingMsg_t *inMsg )
   \                     ZDO_ProcessActiveEPReq:
    855          {
   \   000000                REQUIRE ?V0
   \   000000                REQUIRE ?V1
   \   000000                REQUIRE ?V2
   \   000000                REQUIRE ?V3
   \   000000                REQUIRE ?V4
   \   000000                REQUIRE ?V5
   \   000000   74F2         MOV     A,#-0xe
   \   000002   12....       LCALL   ?BANKED_ENTER_XDATA
   \   000005                ; Saved register size: 14
   \   000005                ; Auto size: 0
   \   000005   EA           MOV     A,R2
   \   000006   FE           MOV     R6,A
   \   000007   EB           MOV     A,R3
   \   000008   FF           MOV     R7,A
    856            byte cnt = 0;
   \   000009   75..00       MOV     ?V0,#0x0
    857            uint16 aoi;
    858            byte stat = ZDP_SUCCESS;
   \   00000C   75..00       MOV     ?V1,#0x0
    859          
    860            aoi = BUILD_UINT16( inMsg->asdu[0], inMsg->asdu[1] );
   \   00000F   12....       LCALL   ?Subroutine109 & 0xFFFF
   \                     ??CrossCallReturnLabel_174:
   \   000012   12....       LCALL   ??Subroutine178_0 & 0xFFFF
   \                     ??CrossCallReturnLabel_304:
   \   000015   12....       LCALL   ?Subroutine61 & 0xFFFF
    861          
    862            if ( aoi == NLME_GetShortAddr() )
   \                     ??CrossCallReturnLabel_312:
   \   000018                ; Setup parameters for call to function NLME_GetShortAddr
   \   000018   12....       LCALL   `??NLME_GetShortAddr::?relay`; Banked call to: NLME_GetShortAddr
   \   00001B   EA           MOV     A,R2
   \   00001C   65..         XRL     A,?V2
   \   00001E   7003         JNZ     ??ZDO_ProcessActiveEPReq_0
   \   000020   EB           MOV     A,R3
   \   000021   65..         XRL     A,?V3
   \                     ??ZDO_ProcessActiveEPReq_0:
   \   000023   7012         JNZ     ??ZDO_ProcessActiveEPReq_1
    863            {
    864              cnt = afNumEndPoints() - 1;  // -1 for ZDO endpoint descriptor
   \   000025                ; Setup parameters for call to function afNumEndPoints
   \   000025   12....       LCALL   `??afNumEndPoints::?relay`; Banked call to: afNumEndPoints
   \   000028   E9           MOV     A,R1
   \   000029   14           DEC     A
   \   00002A   F5..         MOV     ?V0,A
    865              afEndPoints( (uint8 *)ZDOBuildBuf, true );
   \   00002C                ; Setup parameters for call to function afEndPoints
   \   00002C   7901         MOV     R1,#0x1
   \   00002E   7A..         MOV     R2,#ZDOBuildBuf & 0xff
   \   000030   7B..         MOV     R3,#(ZDOBuildBuf >> 8) & 0xff
   \   000032   12....       LCALL   `??afEndPoints::?relay`; Banked call to: afEndPoints
   \   000035   8003         SJMP    ??ZDO_ProcessActiveEPReq_2
    866            }
    867            else
    868            {
    869              if(ZG_BUILD_ENDDEVICE_TYPE)
    870              {
    871                stat = ZDP_INVALID_REQTYPE;
    872              }
    873              else
    874              {
    875                stat = ZDP_DEVICE_NOT_FOUND;
   \                     ??ZDO_ProcessActiveEPReq_1:
   \   000037   75..81       MOV     ?V1,#-0x7f
    876              }
    877            }
    878          
    879            ZDP_ActiveEPRsp( inMsg->TransSeq, &(inMsg->srcAddr), stat,
    880                            aoi, cnt, (uint8 *)ZDOBuildBuf, inMsg->SecurityUse );
   \                     ??ZDO_ProcessActiveEPReq_2:
   \   00003A                ; Setup parameters for call to function ZDP_EPRsp
   \   00003A   12....       LCALL   ?Subroutine112 & 0xFFFF
   \                     ??CrossCallReturnLabel_380:
   \   00003D   F5..         MOV     ?V4,A
   \   00003F   78..         MOV     R0,#?V4
   \   000041   12....       LCALL   ?PUSH_XSTACK_I_ONE
   \   000044   75....       MOV     ?V4,#ZDOBuildBuf & 0xff
   \   000047   75....       MOV     ?V5,#(ZDOBuildBuf >> 8) & 0xff
   \   00004A   78..         MOV     R0,#?V4
   \   00004C   12....       LCALL   ?PUSH_XSTACK_I_TWO
   \   00004F   78..         MOV     R0,#?V0
   \   000051   12....       LCALL   ?PUSH_XSTACK_I_ONE
   \   000054   78..         MOV     R0,#?V2
   \   000056   12....       LCALL   ?PUSH_XSTACK_I_TWO
   \   000059   E5..         MOV     A,?V1
   \   00005B   F5..         MOV     ?V0,A
   \   00005D   78..         MOV     R0,#?V0
   \   00005F   12....       LCALL   ?PUSH_XSTACK_I_ONE
   \   000062   12....       LCALL   ?Subroutine164 & 0xFFFF
   \                     ??CrossCallReturnLabel_279:
   \   000065   12....       LCALL   ??Subroutine194_0 & 0xFFFF
   \                     ??CrossCallReturnLabel_375:
   \   000068   F9           MOV     R1,A
   \   000069   7A05         MOV     R2,#0x5
   \   00006B   7B80         MOV     R3,#-0x80
   \   00006D   12....       LCALL   `??ZDP_EPRsp::?relay`; Banked call to: ZDP_EPRsp
   \   000070   7407         MOV     A,#0x7
   \   000072   12....       LCALL   ?DEALLOC_XSTACK8
    881          }
   \   000075   02....       LJMP    ?Subroutine5 & 0xFFFF

   \                                 In  segment BANKED_CODE, align 1, keep-with-next
   \                     ?Subroutine61:
   \   000000   E0           MOVX    A,@DPTR
   \   000001                REQUIRE ??Subroutine182_0
   \   000001                ; // Fall through to label ??Subroutine182_0

   \                                 In  segment BANKED_CODE, align 1, keep-with-next
   \                     ??Subroutine182_0:
   \   000000   12....       LCALL   ?Subroutine161 & 0xFFFF
   \                     ??CrossCallReturnLabel_596:
   \   000003   28           ADD     A,R0
   \   000004   F5..         MOV     ?V2,A
   \   000006   E4           CLR     A
   \   000007   39           ADDC    A,R1
   \   000008   F5..         MOV     ?V3,A
   \   00000A   22           RET

   \                                 In  segment BANKED_CODE, align 1, keep-with-next
   \                     ?Subroutine164:
   \   000000   EE           MOV     A,R6
   \   000001   2402         ADD     A,#0x2
   \   000003   FC           MOV     R4,A
   \   000004   E4           CLR     A
   \   000005   3F           ADDC    A,R7
   \   000006   FD           MOV     R5,A
   \   000007   EE           MOV     A,R6
   \   000008   240F         ADD     A,#0xf
   \   00000A   22           RET

   \                                 In  segment BANKED_CODE, align 1, keep-with-next
   \                     ?Subroutine112:
   \   000000   EE           MOV     A,R6
   \   000001   240E         ADD     A,#0xe
   \   000003                REQUIRE ??Subroutine194_0
   \   000003                ; // Fall through to label ??Subroutine194_0

   \                                 In  segment BANKED_CODE, align 1, keep-with-next
   \                     ??Subroutine194_0:
   \   000000   F582         MOV     DPL,A
   \   000002   E4           CLR     A
   \   000003   3F           ADDC    A,R7
   \   000004   F583         MOV     DPH,A
   \   000006   E0           MOVX    A,@DPTR
   \   000007   22           RET

   \                                 In  segment BANKED_CODE, align 1, keep-with-next
   \                     ?Subroutine5:
   \   000000   7F06         MOV     R7,#0x6
   \   000002   02....       LJMP    ?BANKED_LEAVE_XDATA

   \                                 In  segment BANKED_CODE, align 1, keep-with-next
   \                     ?Subroutine161:
   \   000000   FA           MOV     R2,A
   \   000001                REQUIRE ??Subroutine230_0
   \   000001                ; // Fall through to label ??Subroutine230_0

   \                                 In  segment BANKED_CODE, align 1, keep-with-next
   \                     ??Subroutine230_0:
   \   000000   A3           INC     DPTR
   \   000001   E0           MOVX    A,@DPTR
   \   000002   F8           MOV     R0,A
   \   000003   E4           CLR     A
   \   000004   C8           XCH     A,R0
   \   000005   F9           MOV     R1,A
   \   000006   EA           MOV     A,R2
   \   000007   22           RET
    882          
    883          /*********************************************************************
    884           * @fn          ZDO_ConvertOTAClusters
    885           *
    886           * @brief       This function will convert the over-the-air cluster list
    887           *              format to an internal format.
    888           *
    889           * @param       inMsg  - incoming message (request)
    890           *
    891           * @return      pointer to incremented inBuf
    892           */

   \                                 In  segment BANKED_CODE, align 1, keep-with-next
    893          uint8 *ZDO_ConvertOTAClusters( uint8 cnt, uint8 *inBuf, uint16 *outList )
   \                     ZDO_ConvertOTAClusters:
    894          {
   \   000000                REQUIRE ?V0
   \   000000                REQUIRE ?V1
   \   000000   74F6         MOV     A,#-0xa
   \   000002   12....       LCALL   ?BANKED_ENTER_XDATA
   \   000005                ; Saved register size: 10
   \   000005                ; Auto size: 0
   \   000005   89..         MOV     ?V1,R1
    895            uint8 x;
    896          
    897            for ( x = 0; x < cnt; x++ )
   \   000007   75..00       MOV     ?V0,#0x0
   \   00000A   8023         SJMP    ??ZDO_ConvertOTAClusters_0
    898            {
    899              // convert ota format to internal
    900              outList[x] = BUILD_UINT16( inBuf[0], inBuf[1] );
   \                     ??ZDO_ConvertOTAClusters_1:
   \   00000C   8A82         MOV     DPL,R2
   \   00000E   8B83         MOV     DPH,R3
   \   000010   12....       LCALL   ??Subroutine215_0 & 0xFFFF
   \                     ??CrossCallReturnLabel_524:
   \   000013   F8           MOV     R0,A
   \   000014   E4           CLR     A
   \   000015   C8           XCH     A,R0
   \   000016   F9           MOV     R1,A
   \   000017   EE           MOV     A,R6
   \   000018   28           ADD     A,R0
   \   000019   E4           CLR     A
   \   00001A   39           ADDC    A,R1
   \   00001B   FF           MOV     R7,A
   \   00001C   A8..         MOV     R0,?V0
   \   00001E   12....       LCALL   ?Subroutine102 & 0xFFFF
   \                     ??CrossCallReturnLabel_154:
   \   000021   EE           MOV     A,R6
   \   000022   F0           MOVX    @DPTR,A
   \   000023   A3           INC     DPTR
   \   000024   EF           MOV     A,R7
   \   000025   F0           MOVX    @DPTR,A
    901              inBuf += sizeof( uint16 );
   \   000026   EA           MOV     A,R2
   \   000027   2402         ADD     A,#0x2
   \   000029   FA           MOV     R2,A
   \   00002A   5001         JNC     ??ZDO_ConvertOTAClusters_2
   \   00002C   0B           INC     R3
    902            }
   \                     ??ZDO_ConvertOTAClusters_2:
   \   00002D   05..         INC     ?V0
   \                     ??ZDO_ConvertOTAClusters_0:
   \   00002F   E5..         MOV     A,?V0
   \   000031   C3           CLR     C
   \   000032   95..         SUBB    A,?V1
   \   000034   40D6         JC      ??ZDO_ConvertOTAClusters_1
    903            return ( inBuf );
   \   000036   02....       LJMP    ??Subroutine180_0 & 0xFFFF
    904          }
    905          
    906          /*********************************************************************
    907           * @fn          ZDO_ProcessMatchDescReq
    908           *
    909           * @brief       This function processes and responds to the
    910           *              Match_Desc_req message.
    911           *
    912           * @param       inMsg  - incoming message (request)
    913           *
    914           * @return      none
    915           */

   \                                 In  segment BANKED_CODE, align 1, keep-with-next
    916          void ZDO_ProcessMatchDescReq( zdoIncomingMsg_t *inMsg )
   \                     ZDO_ProcessMatchDescReq:
    917          {
   \   000000                REQUIRE ?V0
   \   000000                REQUIRE ?V1
   \   000000                REQUIRE ?V2
   \   000000                REQUIRE ?V3
   \   000000                REQUIRE ?V4
   \   000000                REQUIRE ?V5
   \   000000                REQUIRE ?V6
   \   000000                REQUIRE ?V7
   \   000000                REQUIRE ?V8
   \   000000                REQUIRE ?V9
   \   000000                REQUIRE ?V10
   \   000000                REQUIRE ?V11
   \   000000                REQUIRE ?V12
   \   000000                REQUIRE ?V14
   \   000000                REQUIRE ?V15
   \   000000   74E8         MOV     A,#-0x18
   \   000002   12....       LCALL   ?BANKED_ENTER_XDATA
   \   000005                ; Saved register size: 24
   \   000005                ; Auto size: 10
   \   000005   74F6         MOV     A,#-0xa
   \   000007   12....       LCALL   ?ALLOC_XSTACK8
   \   00000A   7402         MOV     A,#0x2
   \   00000C   12....       LCALL   ?XSTACK_DISP0_8
   \   00000F   12....       LCALL   ??Subroutine184_0 & 0xFFFF
    918            uint8 epCnt = 0;
   \                     ??CrossCallReturnLabel_327:
   \   000012   75..00       MOV     ?V12,#0x0
    919            uint8 numInClusters;
    920            uint16 *inClusters = NULL;
   \   000015   85..82       MOV     DPL,?XSP + 0
   \   000018   85..83       MOV     DPH,?XSP + 1
   \   00001B   E4           CLR     A
   \   00001C   F0           MOVX    @DPTR,A
   \   00001D   A3           INC     DPTR
   \   00001E   F0           MOVX    @DPTR,A
    921            uint8 numOutClusters;
    922            uint16 *outClusters = NULL;
   \   00001F   F5..         MOV     ?V14,A
   \   000021   F5..         MOV     ?V15,A
    923            epList_t *epDesc;
    924            SimpleDescriptionFormat_t *sDesc = NULL;
    925            uint8 allocated;
    926            uint8 *msg;
    927            uint16 aoi;
    928            uint16 profileID;
    929          
    930            // Parse the incoming message
    931            msg = inMsg->asdu;
   \   000023   7402         MOV     A,#0x2
   \   000025   12....       LCALL   ?XSTACK_DISP0_8
   \   000028   12....       LCALL   ??Subroutine210_0 & 0xFFFF
   \                     ??CrossCallReturnLabel_466:
   \   00002B   12....       LCALL   ??Subroutine190_0 & 0xFFFF
   \                     ??CrossCallReturnLabel_366:
   \   00002E   38           ADDC    A,R0
   \   00002F   12....       LCALL   ??Subroutine217_0 & 0xFFFF
    932            aoi = BUILD_UINT16( msg[0], msg[1] );
   \                     ??CrossCallReturnLabel_541:
   \   000032   12....       LCALL   ??Subroutine182_0 & 0xFFFF
    933            profileID = BUILD_UINT16( msg[2], msg[3] );
   \                     ??CrossCallReturnLabel_311:
   \   000035   8E82         MOV     DPL,R6
   \   000037   8F83         MOV     DPH,R7
   \   000039   A3           INC     DPTR
   \   00003A   A3           INC     DPTR
   \   00003B   E0           MOVX    A,@DPTR
   \   00003C   FA           MOV     R2,A
   \   00003D   8E82         MOV     DPL,R6
   \   00003F   8F83         MOV     DPH,R7
   \   000041   A3           INC     DPTR
   \   000042   A3           INC     DPTR
   \   000043   A3           INC     DPTR
   \   000044   E0           MOVX    A,@DPTR
   \   000045   F9           MOV     R1,A
   \   000046   EA           MOV     A,R2
   \   000047   F5..         MOV     ?V0,A
   \   000049   E4           CLR     A
   \   00004A   39           ADDC    A,R1
   \   00004B   F5..         MOV     ?V1,A
    934            msg += 4;
    935          
    936            if ( ADDR_BCAST_NOT_ME == NLME_IsAddressBroadcast(aoi) )
   \   00004D   7402         MOV     A,#0x2
   \   00004F   12....       LCALL   ?XSTACK_DISP0_8
   \   000052   E0           MOVX    A,@DPTR
   \   000053   240F         ADD     A,#0xf
   \   000055   F8           MOV     R0,A
   \   000056   A3           INC     DPTR
   \   000057   E0           MOVX    A,@DPTR
   \   000058   3400         ADDC    A,#0x0
   \   00005A   F9           MOV     R1,A
   \   00005B   7408         MOV     A,#0x8
   \   00005D   12....       LCALL   ?XSTACK_DISP0_8
   \   000060   12....       LCALL   ?Subroutine40 & 0xFFFF
   \                     ??CrossCallReturnLabel_386:
   \   000063   7402         MOV     A,#0x2
   \   000065   12....       LCALL   ?XSTACK_DISP0_8
   \   000068   E0           MOVX    A,@DPTR
   \   000069   240E         ADD     A,#0xe
   \   00006B   F8           MOV     R0,A
   \   00006C   A3           INC     DPTR
   \   00006D   E0           MOVX    A,@DPTR
   \   00006E   3400         ADDC    A,#0x0
   \   000070   F9           MOV     R1,A
   \   000071   7406         MOV     A,#0x6
   \   000073   12....       LCALL   ?XSTACK_DISP0_8
   \   000076   12....       LCALL   ?Subroutine40 & 0xFFFF
   \                     ??CrossCallReturnLabel_387:
   \   000079   7402         MOV     A,#0x2
   \   00007B   12....       LCALL   ?XSTACK_DISP0_8
   \   00007E   E0           MOVX    A,@DPTR
   \   00007F   2402         ADD     A,#0x2
   \   000081   F8           MOV     R0,A
   \   000082   A3           INC     DPTR
   \   000083   E0           MOVX    A,@DPTR
   \   000084   3400         ADDC    A,#0x0
   \   000086   F9           MOV     R1,A
   \   000087   7404         MOV     A,#0x4
   \   000089   12....       LCALL   ?XSTACK_DISP0_8
   \   00008C   12....       LCALL   ?Subroutine40 & 0xFFFF
   \                     ??CrossCallReturnLabel_388:
   \   00008F                ; Setup parameters for call to function NLME_IsAddressBroadcast
   \   00008F   AA..         MOV     R2,?V2
   \   000091   AB..         MOV     R3,?V3
   \   000093   12....       LCALL   `??NLME_IsAddressBroadcast::?relay`; Banked call to: NLME_IsAddressBroadcast
   \   000096   E9           MOV     A,R1
   \   000097   6401         XRL     A,#0x1
   \   000099   6018         JZ      ??ZDO_ProcessMatchDescReq_0
    937            {
    938              ZDP_MatchDescRsp( inMsg->TransSeq, &(inMsg->srcAddr), ZDP_INVALID_REQTYPE,
    939                                    ZDAppNwkAddr.addr.shortAddr, 0, NULL, inMsg->SecurityUse );
    940              return;
    941            }
    942            else if ( (ADDR_NOT_BCAST == NLME_IsAddressBroadcast(aoi)) && (aoi != ZDAppNwkAddr.addr.shortAddr) )
   \   00009B                ; Setup parameters for call to function NLME_IsAddressBroadcast
   \   00009B   AA..         MOV     R2,?V2
   \   00009D   AB..         MOV     R3,?V3
   \   00009F   12....       LCALL   `??NLME_IsAddressBroadcast::?relay`; Banked call to: NLME_IsAddressBroadcast
   \   0000A2   E9           MOV     A,R1
   \   0000A3   704F         JNZ     ??ZDO_ProcessMatchDescReq_1
   \   0000A5   90....       MOV     DPTR,#ZDAppNwkAddr
   \   0000A8   E0           MOVX    A,@DPTR
   \   0000A9   65..         XRL     A,?V2
   \   0000AB   7004         JNZ     ??ZDO_ProcessMatchDescReq_2
   \   0000AD   A3           INC     DPTR
   \   0000AE   E0           MOVX    A,@DPTR
   \   0000AF   65..         XRL     A,?V3
   \                     ??ZDO_ProcessMatchDescReq_2:
   \   0000B1   6041         JZ      ??ZDO_ProcessMatchDescReq_1
    943            {
    944              ZDP_MatchDescRsp( inMsg->TransSeq, &(inMsg->srcAddr), ZDP_INVALID_REQTYPE,
    945                                       ZDAppNwkAddr.addr.shortAddr, 0, NULL, inMsg->SecurityUse );
   \                     ??ZDO_ProcessMatchDescReq_0:
   \   0000B3                ; Setup parameters for call to function ZDP_EPRsp
   \   0000B3   7406         MOV     A,#0x6
   \   0000B5   12....       LCALL   ?XSTACK_DISP0_8
   \   0000B8   12....       LCALL   ?Subroutine59 & 0xFFFF
   \                     ??CrossCallReturnLabel_87:
   \   0000BB   12....       LCALL   ?PUSH_XSTACK_I_ONE
   \   0000BE   E4           CLR     A
   \   0000BF   F5..         MOV     ?V0,A
   \   0000C1   F5..         MOV     ?V1,A
   \   0000C3   78..         MOV     R0,#?V0
   \   0000C5   12....       LCALL   ?PUSH_XSTACK_I_TWO
   \   0000C8   78..         MOV     R0,#?V0
   \   0000CA   12....       LCALL   ?PUSH_XSTACK_I_ONE
   \   0000CD   90....       MOV     DPTR,#ZDAppNwkAddr
   \   0000D0   12....       LCALL   ?PUSH_XSTACK8_X_TWO
   \   0000D3   75..80       MOV     ?V0,#-0x80
   \   0000D6   78..         MOV     R0,#?V0
   \   0000D8   12....       LCALL   ?PUSH_XSTACK_I_ONE
   \   0000DB   740B         MOV     A,#0xb
   \   0000DD   12....       LCALL   ?XSTACK_DISP0_8
   \   0000E0   12....       LCALL   ?Subroutine80 & 0xFFFF
   \                     ??CrossCallReturnLabel_114:
   \   0000E3   12....       LCALL   ?XSTACK_DISP0_8
   \   0000E6   12....       LCALL   ?Subroutine56 & 0xFFFF
   \                     ??CrossCallReturnLabel_81:
   \   0000E9   12....       LCALL   `??ZDP_EPRsp::?relay`; Banked call to: ZDP_EPRsp
   \   0000EC   7407         MOV     A,#0x7
   \   0000EE   12....       LCALL   ?DEALLOC_XSTACK8
    946              return;
   \   0000F1   02....       LJMP    ??ZDO_ProcessMatchDescReq_3 & 0xFFFF
    947            }
    948          
    949            if ((numInClusters = *msg++) &&
    950                (inClusters = (uint16*)osal_mem_alloc( numInClusters * sizeof( uint16 ) )))
   \                     ??ZDO_ProcessMatchDescReq_1:
   \   0000F4   8E82         MOV     DPL,R6
   \   0000F6   8F83         MOV     DPH,R7
   \   0000F8   A3           INC     DPTR
   \   0000F9   A3           INC     DPTR
   \   0000FA   A3           INC     DPTR
   \   0000FB   A3           INC     DPTR
   \   0000FC   E0           MOVX    A,@DPTR
   \   0000FD   F5..         MOV     ?V3,A
   \   0000FF   EE           MOV     A,R6
   \   000100   2405         ADD     A,#0x5
   \   000102   FE           MOV     R6,A
   \   000103   5001         JNC     ??ZDO_ProcessMatchDescReq_4
   \   000105   0F           INC     R7
   \                     ??ZDO_ProcessMatchDescReq_4:
   \   000106   E5..         MOV     A,?V3
   \   000108   602D         JZ      ??ZDO_ProcessMatchDescReq_5
   \   00010A                ; Setup parameters for call to function osal_mem_alloc
   \   00010A   12....       LCALL   ?Subroutine126 & 0xFFFF
   \                     ??CrossCallReturnLabel_217:
   \   00010D   12....       LCALL   `??osal_mem_alloc::?relay`; Banked call to: osal_mem_alloc
   \   000110   85..82       MOV     DPL,?XSP + 0
   \   000113   85..83       MOV     DPH,?XSP + 1
   \   000116   EA           MOV     A,R2
   \   000117   F0           MOVX    @DPTR,A
   \   000118   A3           INC     DPTR
   \   000119   EB           MOV     A,R3
   \   00011A   12....       LCALL   ?Subroutine22 & 0xFFFF
   \                     ??CrossCallReturnLabel_20:
   \   00011D   E8           MOV     A,R0
   \   00011E   49           ORL     A,R1
   \   00011F   6016         JZ      ??ZDO_ProcessMatchDescReq_5
    951            {
    952              msg = ZDO_ConvertOTAClusters( numInClusters, msg, inClusters );
   \   000121                ; Setup parameters for call to function ZDO_ConvertOTAClusters
   \   000121   12....       LCALL   ?Subroutine91 & 0xFFFF
    953            }
   \                     ??CrossCallReturnLabel_309:
   \   000124   EE           MOV     A,R6
   \   000125   FA           MOV     R2,A
   \   000126   EF           MOV     A,R7
   \   000127   FB           MOV     R3,A
   \   000128   A9..         MOV     R1,?V3
   \   00012A   12....       LCALL   `??ZDO_ConvertOTAClusters::?relay`; Banked call to: ZDO_ConvertOTAClusters
   \   00012D   8A..         MOV     ?V4,R2
   \   00012F   8B..         MOV     ?V5,R3
   \   000131   AE..         MOV     R6,?V4
   \   000133   AF..         MOV     R7,?V5
   \   000135   8003         SJMP    ??ZDO_ProcessMatchDescReq_6
    954            else
    955            {
    956              numInClusters = 0;
   \                     ??ZDO_ProcessMatchDescReq_5:
   \   000137   75..00       MOV     ?V3,#0x0
    957            }
    958          
    959            if ((numOutClusters = *msg++) &&
    960                (outClusters = (uint16 *)osal_mem_alloc( numOutClusters * sizeof( uint16 ) )))
   \                     ??ZDO_ProcessMatchDescReq_6:
   \   00013A   8E82         MOV     DPL,R6
   \   00013C   8F83         MOV     DPH,R7
   \   00013E   E0           MOVX    A,@DPTR
   \   00013F   F5..         MOV     ?V2,A
   \   000141   A3           INC     DPTR
   \   000142   AE82         MOV     R6,DPL
   \   000144   AF83         MOV     R7,DPH
   \   000146   601E         JZ      ??ZDO_ProcessMatchDescReq_7
   \   000148                ; Setup parameters for call to function osal_mem_alloc
   \   000148   12....       LCALL   ?Subroutine126 & 0xFFFF
   \                     ??CrossCallReturnLabel_218:
   \   00014B   12....       LCALL   `??osal_mem_alloc::?relay`; Banked call to: osal_mem_alloc
   \   00014E   8A..         MOV     ?V14,R2
   \   000150   8B..         MOV     ?V15,R3
   \   000152   EA           MOV     A,R2
   \   000153   45..         ORL     A,?V15
   \   000155   600F         JZ      ??ZDO_ProcessMatchDescReq_7
    961            {
    962              msg = ZDO_ConvertOTAClusters( numOutClusters, msg, outClusters );
   \   000157                ; Setup parameters for call to function ZDO_ConvertOTAClusters
   \   000157   AC..         MOV     R4,?V14
   \   000159   AD..         MOV     R5,?V15
   \   00015B   EE           MOV     A,R6
   \   00015C   FA           MOV     R2,A
   \   00015D   EF           MOV     A,R7
   \   00015E   FB           MOV     R3,A
   \   00015F   A9..         MOV     R1,?V2
   \   000161   12....       LCALL   `??ZDO_ConvertOTAClusters::?relay`; Banked call to: ZDO_ConvertOTAClusters
   \   000164   8003         SJMP    ??ZDO_ProcessMatchDescReq_8
    963            }
    964            else
    965            {
    966              numOutClusters = 0;
   \                     ??ZDO_ProcessMatchDescReq_7:
   \   000166   75..00       MOV     ?V2,#0x0
    967            }
    968          
    969            // First count the number of endpoints that match.
    970            epDesc = epList;
   \                     ??ZDO_ProcessMatchDescReq_8:
   \   000169   90....       MOV     DPTR,#epList
   \   00016C   804B         SJMP    ??ZDO_ProcessMatchDescReq_9
    971            while ( epDesc )
    972            {
    973              // Don't search endpoint 0 and check if response is allowed
    974              if ( epDesc->epDesc->endPoint != ZDO_EP && (epDesc->flags&eEP_AllowMatch) )
    975              {
    976                if ( epDesc->pfnDescCB )
    977                {
    978                  sDesc = (SimpleDescriptionFormat_t *)epDesc->pfnDescCB( AF_DESCRIPTOR_SIMPLE, epDesc->epDesc->endPoint );
    979                  allocated = TRUE;
    980                }
    981                else
    982                {
    983                  sDesc = epDesc->epDesc->simpleDesc;
    984                  allocated = FALSE;
    985                }
    986          
    987                // Allow specific ProfileId or Wildcard ProfileID
    988                if ( sDesc && ( ( sDesc->AppProfId == profileID ) || ( profileID == ZDO_WILDCARD_PROFILE_ID ) ) )
    989                {
    990                  uint8 *uint8Buf = (uint8 *)ZDOBuildBuf;
    991          
    992                  // Are there matching input clusters?
    993                  if ((ZDO_AnyClusterMatches( numInClusters, inClusters,
    994                             sDesc->AppNumInClusters, sDesc->pAppInClusterList )) ||
    995                      // Are there matching output clusters?
    996                      (ZDO_AnyClusterMatches( numOutClusters, outClusters,
    997                             sDesc->AppNumOutClusters, sDesc->pAppOutClusterList )))
    998                  {
    999                    // Notify the endpoint of the match.
   1000                    uint8 bufLen = sizeof( ZDO_MatchDescRspSent_t ) + (numOutClusters + numInClusters) * sizeof(uint16);
   1001                    ZDO_MatchDescRspSent_t *pRspSent = (ZDO_MatchDescRspSent_t *) osal_msg_allocate( bufLen );
   1002          
   1003                    if (pRspSent)
   1004                    {
   1005                      pRspSent->hdr.event = ZDO_MATCH_DESC_RSP_SENT;
   1006                      pRspSent->nwkAddr = inMsg->srcAddr.addr.shortAddr;
   1007                      pRspSent->numInClusters = numInClusters;
   1008                      pRspSent->numOutClusters = numOutClusters;
   1009          
   1010                      if (numInClusters)
   1011                      {
   1012                        pRspSent->pInClusters = (uint16*) (pRspSent + 1);
   1013                        osal_memcpy(pRspSent->pInClusters, inClusters, numInClusters * sizeof(uint16));
   1014                      }
   1015                      else
   1016                      {
   1017                        pRspSent->pInClusters = NULL;
   1018                      }
   1019          
   1020                      if (numOutClusters)
   1021                      {
   1022                        pRspSent->pOutClusters = (uint16*)(pRspSent + 1) + numInClusters;
   1023                        osal_memcpy(pRspSent->pOutClusters, outClusters, numOutClusters * sizeof(uint16));
   1024                      }
   1025                      else
   1026                      {
   1027                        pRspSent->pOutClusters = NULL;
   \                     ??ZDO_ProcessMatchDescReq_10:
   \   00016E   E4           CLR     A
   \   00016F   F0           MOVX    @DPTR,A
   \   000170   A3           INC     DPTR
   \   000171   F0           MOVX    @DPTR,A
   1028                      }
   1029          
   1030                      osal_msg_send( *epDesc->epDesc->task_id, (uint8 *)pRspSent );
   \                     ??ZDO_ProcessMatchDescReq_11:
   \   000172                ; Setup parameters for call to function osal_msg_send
   \   000172   EE           MOV     A,R6
   \   000173   FA           MOV     R2,A
   \   000174   EF           MOV     A,R7
   \   000175   FB           MOV     R3,A
   \   000176   85..82       MOV     DPL,?V10
   \   000179   85..83       MOV     DPH,?V11
   \   00017C   12....       LCALL   ?Subroutine162 & 0xFFFF
   \                     ??CrossCallReturnLabel_507:
   \   00017F   F583         MOV     DPH,A
   \   000181   8882         MOV     DPL,R0
   \   000183   A3           INC     DPTR
   \   000184   A3           INC     DPTR
   \   000185   12....       LCALL   ??Subroutine187_0 & 0xFFFF
   \                     ??CrossCallReturnLabel_348:
   \   000188   F9           MOV     R1,A
   \   000189   12....       LCALL   `??osal_msg_send::?relay`; Banked call to: osal_msg_send
   1031                    }
   1032          
   1033                    uint8Buf[epCnt++] = sDesc->EndPoint;
   \                     ??ZDO_ProcessMatchDescReq_12:
   \   00018C   85..82       MOV     DPL,?V8
   \   00018F   85..83       MOV     DPH,?V9
   \   000192   E0           MOVX    A,@DPTR
   \   000193   C0E0         PUSH    A
   \   000195   A8..         MOV     R0,?V12
   \   000197   74..         MOV     A,#ZDOBuildBuf & 0xff
   \   000199   28           ADD     A,R0
   \   00019A   F582         MOV     DPL,A
   \   00019C   E4           CLR     A
   \   00019D   34..         ADDC    A,#(ZDOBuildBuf >> 8) & 0xff
   \   00019F   F583         MOV     DPH,A
   \   0001A1   D0E0         POP     A
   \   0001A3   F0           MOVX    @DPTR,A
   \   0001A4   05..         INC     ?V12
   1034                  }
   1035                }
   1036          
   1037                if ( allocated )
   \                     ??ZDO_ProcessMatchDescReq_13:
   \   0001A6   E5..         MOV     A,?V7
   \   0001A8   A2E0         MOV     C,0xE0 /* A   */.0
   \   0001AA   5007         JNC     ??ZDO_ProcessMatchDescReq_14
   1038                {
   1039                  osal_mem_free( sDesc );
   \   0001AC                ; Setup parameters for call to function osal_mem_free
   \   0001AC   AA..         MOV     R2,?V8
   \   0001AE   AB..         MOV     R3,?V9
   \   0001B0   12....       LCALL   `??osal_mem_free::?relay`; Banked call to: osal_mem_free
   1040                }
   1041              }
   1042              epDesc = epDesc->nextDesc;
   \                     ??ZDO_ProcessMatchDescReq_14:
   \   0001B3   85..82       MOV     DPL,?V10
   \   0001B6   85..83       MOV     DPH,?V11
   \                     ??ZDO_ProcessMatchDescReq_9:
   \   0001B9   E0           MOVX    A,@DPTR
   \   0001BA   F5..         MOV     ?V10,A
   \   0001BC   A3           INC     DPTR
   \   0001BD   E0           MOVX    A,@DPTR
   \   0001BE   F5..         MOV     ?V11,A
   \   0001C0   E5..         MOV     A,?V10
   \   0001C2   45..         ORL     A,?V11
   \   0001C4   7003         JNZ     $+5
   \   0001C6   02....       LJMP    ??ZDO_ProcessMatchDescReq_15 & 0xFFFF
   \   0001C9   85..82       MOV     DPL,?V10
   \   0001CC   85..83       MOV     DPH,?V11
   \   0001CF   A3           INC     DPTR
   \   0001D0   A3           INC     DPTR
   \   0001D1   12....       LCALL   ??Subroutine212_0 & 0xFFFF
   \                     ??CrossCallReturnLabel_496:
   \   0001D4   E8           MOV     A,R0
   \   0001D5   FA           MOV     R2,A
   \   0001D6   E9           MOV     A,R1
   \   0001D7   FB           MOV     R3,A
   \   0001D8   8A82         MOV     DPL,R2
   \   0001DA   8B83         MOV     DPH,R3
   \   0001DC   E0           MOVX    A,@DPTR
   \   0001DD   FC           MOV     R4,A
   \   0001DE   60D3         JZ      ??ZDO_ProcessMatchDescReq_14
   \   0001E0   85..82       MOV     DPL,?V10
   \   0001E3   85..83       MOV     DPH,?V11
   \   0001E6   A3           INC     DPTR
   \   0001E7   A3           INC     DPTR
   \   0001E8   A3           INC     DPTR
   \   0001E9   A3           INC     DPTR
   \   0001EA   A3           INC     DPTR
   \   0001EB   A3           INC     DPTR
   \   0001EC   A3           INC     DPTR
   \   0001ED   A3           INC     DPTR
   \   0001EE   E0           MOVX    A,@DPTR
   \   0001EF   A2E0         MOV     C,0xE0 /* A   */.0
   \   0001F1   50C0         JNC     ??ZDO_ProcessMatchDescReq_14
   \   0001F3   85..82       MOV     DPL,?V10
   \   0001F6   85..83       MOV     DPH,?V11
   \   0001F9   A3           INC     DPTR
   \   0001FA   A3           INC     DPTR
   \   0001FB   12....       LCALL   ?Subroutine76 & 0xFFFF
   \                     ??CrossCallReturnLabel_306:
   \   0001FE   E582         MOV     A,DPL
   \   000200   4583         ORL     A,DPH
   \   000202   6010         JZ      ??ZDO_ProcessMatchDescReq_16
   \   000204                ; Setup parameters for indirect call
   \   000204   EC           MOV     A,R4
   \   000205   FA           MOV     R2,A
   \   000206   7901         MOV     R1,#0x1
   \   000208   12....       LCALL   ?CALL_IND
   \   00020B   8A..         MOV     ?V8,R2
   \   00020D   8B..         MOV     ?V9,R3
   \   00020F   75..01       MOV     ?V7,#0x1
   \   000212   8012         SJMP    ??ZDO_ProcessMatchDescReq_17
   \                     ??ZDO_ProcessMatchDescReq_16:
   \   000214   8A82         MOV     DPL,R2
   \   000216   8B83         MOV     DPH,R3
   \   000218   A3           INC     DPTR
   \   000219   A3           INC     DPTR
   \   00021A   A3           INC     DPTR
   \   00021B   A3           INC     DPTR
   \   00021C   E0           MOVX    A,@DPTR
   \   00021D   F5..         MOV     ?V8,A
   \   00021F   A3           INC     DPTR
   \   000220   E0           MOVX    A,@DPTR
   \   000221   F5..         MOV     ?V9,A
   \   000223   75..00       MOV     ?V7,#0x0
   \                     ??ZDO_ProcessMatchDescReq_17:
   \   000226   E5..         MOV     A,?V8
   \   000228   45..         ORL     A,?V9
   \   00022A   7003         JNZ     $+5
   \   00022C   02....       LJMP    ??ZDO_ProcessMatchDescReq_13 & 0xFFFF
   \   00022F   85..82       MOV     DPL,?V8
   \   000232   85..83       MOV     DPH,?V9
   \   000235   A3           INC     DPTR
   \   000236   E0           MOVX    A,@DPTR
   \   000237   65..         XRL     A,?V0
   \   000239   7004         JNZ     ??ZDO_ProcessMatchDescReq_18
   \   00023B   A3           INC     DPTR
   \   00023C   E0           MOVX    A,@DPTR
   \   00023D   65..         XRL     A,?V1
   \                     ??ZDO_ProcessMatchDescReq_18:
   \   00023F   600F         JZ      ??ZDO_ProcessMatchDescReq_19
   \   000241   74FF         MOV     A,#-0x1
   \   000243   65..         XRL     A,?V0
   \   000245   7004         JNZ     ??ZDO_ProcessMatchDescReq_20
   \   000247   74FF         MOV     A,#-0x1
   \   000249   65..         XRL     A,?V1
   \                     ??ZDO_ProcessMatchDescReq_20:
   \   00024B   6003         JZ      $+5
   \   00024D   02....       LJMP    ??ZDO_ProcessMatchDescReq_13 & 0xFFFF
   \                     ??ZDO_ProcessMatchDescReq_19:
   \   000250                ; Setup parameters for call to function ZDO_AnyClusterMatches
   \   000250   85..82       MOV     DPL,?V8
   \   000253   85..83       MOV     DPH,?V9
   \   000256   A3           INC     DPTR
   \   000257   A3           INC     DPTR
   \   000258   A3           INC     DPTR
   \   000259   A3           INC     DPTR
   \   00025A   A3           INC     DPTR
   \   00025B   A3           INC     DPTR
   \   00025C   A3           INC     DPTR
   \   00025D   12....       LCALL   ?PUSH_XSTACK8_X_TWO
   \   000260   85..82       MOV     DPL,?V8
   \   000263   85..83       MOV     DPH,?V9
   \   000266   A3           INC     DPTR
   \   000267   A3           INC     DPTR
   \   000268   A3           INC     DPTR
   \   000269   A3           INC     DPTR
   \   00026A   A3           INC     DPTR
   \   00026B   A3           INC     DPTR
   \   00026C   E0           MOVX    A,@DPTR
   \   00026D   FC           MOV     R4,A
   \   00026E   7402         MOV     A,#0x2
   \   000270   12....       LCALL   ?XSTACK_DISP0_8
   \   000273   12....       LCALL   ??Subroutine200_0 & 0xFFFF
   \                     ??CrossCallReturnLabel_404:
   \   000276   A9..         MOV     R1,?V3
   \   000278   12....       LCALL   `??ZDO_AnyClusterMatches::?relay`; Banked call to: ZDO_AnyClusterMatches
   \   00027B   7402         MOV     A,#0x2
   \   00027D   12....       LCALL   ?DEALLOC_XSTACK8
   \   000280   E9           MOV     A,R1
   \   000281   7038         JNZ     ??ZDO_ProcessMatchDescReq_21
   \   000283                ; Setup parameters for call to function ZDO_AnyClusterMatches
   \   000283   85..82       MOV     DPL,?V8
   \   000286   85..83       MOV     DPH,?V9
   \   000289   A3           INC     DPTR
   \   00028A   A3           INC     DPTR
   \   00028B   A3           INC     DPTR
   \   00028C   A3           INC     DPTR
   \   00028D   A3           INC     DPTR
   \   00028E   A3           INC     DPTR
   \   00028F   A3           INC     DPTR
   \   000290   A3           INC     DPTR
   \   000291   A3           INC     DPTR
   \   000292   A3           INC     DPTR
   \   000293   12....       LCALL   ?PUSH_XSTACK8_X_TWO
   \   000296   85..82       MOV     DPL,?V8
   \   000299   85..83       MOV     DPH,?V9
   \   00029C   A3           INC     DPTR
   \   00029D   A3           INC     DPTR
   \   00029E   A3           INC     DPTR
   \   00029F   A3           INC     DPTR
   \   0002A0   A3           INC     DPTR
   \   0002A1   A3           INC     DPTR
   \   0002A2   A3           INC     DPTR
   \   0002A3   A3           INC     DPTR
   \   0002A4   A3           INC     DPTR
   \   0002A5   E0           MOVX    A,@DPTR
   \   0002A6   FC           MOV     R4,A
   \   0002A7   AA..         MOV     R2,?V14
   \   0002A9   AB..         MOV     R3,?V15
   \   0002AB   A9..         MOV     R1,?V2
   \   0002AD   12....       LCALL   `??ZDO_AnyClusterMatches::?relay`; Banked call to: ZDO_AnyClusterMatches
   \   0002B0   7402         MOV     A,#0x2
   \   0002B2   12....       LCALL   ?DEALLOC_XSTACK8
   \   0002B5   E9           MOV     A,R1
   \   0002B6   7003         JNZ     $+5
   \   0002B8   02....       LJMP    ??ZDO_ProcessMatchDescReq_13 & 0xFFFF
   \                     ??ZDO_ProcessMatchDescReq_21:
   \   0002BB                ; Setup parameters for call to function osal_msg_allocate
   \   0002BB   E5..         MOV     A,?V2
   \   0002BD   25..         ADD     A,?V3
   \   0002BF   C3           CLR     C
   \   0002C0   33           RLC     A
   \   0002C1   240A         ADD     A,#0xa
   \   0002C3   FA           MOV     R2,A
   \   0002C4   7B00         MOV     R3,#0x0
   \   0002C6   12....       LCALL   `??osal_msg_allocate::?relay`; Banked call to: osal_msg_allocate
   \   0002C9   8A..         MOV     ?V4,R2
   \   0002CB   8B..         MOV     ?V5,R3
   \   0002CD   AE..         MOV     R6,?V4
   \   0002CF   AF..         MOV     R7,?V5
   \   0002D1   EE           MOV     A,R6
   \   0002D2   4F           ORL     A,R7
   \   0002D3   7003         JNZ     $+5
   \   0002D5   02....       LJMP    ??ZDO_ProcessMatchDescReq_12 & 0xFFFF
   \   0002D8   8E82         MOV     DPL,R6
   \   0002DA   8F83         MOV     DPH,R7
   \   0002DC   74D2         MOV     A,#-0x2e
   \   0002DE   F0           MOVX    @DPTR,A
   \   0002DF   7404         MOV     A,#0x4
   \   0002E1   12....       LCALL   ?XSTACK_DISP0_8
   \   0002E4   12....       LCALL   ??Subroutine187_0 & 0xFFFF
   \                     ??CrossCallReturnLabel_349:
   \   0002E7   F8           MOV     R0,A
   \   0002E8   A3           INC     DPTR
   \   0002E9   E0           MOVX    A,@DPTR
   \   0002EA   F9           MOV     R1,A
   \   0002EB   8E82         MOV     DPL,R6
   \   0002ED   8F83         MOV     DPH,R7
   \   0002EF   A3           INC     DPTR
   \   0002F0   A3           INC     DPTR
   \   0002F1   E8           MOV     A,R0
   \   0002F2   12....       LCALL   ?Subroutine26 & 0xFFFF
   \                     ??CrossCallReturnLabel_25:
   \   0002F5   A3           INC     DPTR
   \   0002F6   E5..         MOV     A,?V3
   \   0002F8   12....       LCALL   ?Subroutine41 & 0xFFFF
   \                     ??CrossCallReturnLabel_55:
   \   0002FB   A3           INC     DPTR
   \   0002FC   A3           INC     DPTR
   \   0002FD   A3           INC     DPTR
   \   0002FE   E5..         MOV     A,?V2
   \   000300   F0           MOVX    @DPTR,A
   \   000301   EE           MOV     A,R6
   \   000302   2405         ADD     A,#0x5
   \   000304   F582         MOV     DPL,A
   \   000306   E4           CLR     A
   \   000307   3F           ADDC    A,R7
   \   000308   F583         MOV     DPH,A
   \   00030A   E5..         MOV     A,?V3
   \   00030C   602E         JZ      ??ZDO_ProcessMatchDescReq_22
   \   00030E   12....       LCALL   ?Subroutine132 & 0xFFFF
   \                     ??CrossCallReturnLabel_591:
   \   000311   3F           ADDC    A,R7
   \   000312   12....       LCALL   ?Subroutine23 & 0xFFFF
   \                     ??CrossCallReturnLabel_334:
   \   000315                ; Setup parameters for call to function osal_memcpy
   \   000315   85..82       MOV     DPL,?XSP + 0
   \   000318   85..83       MOV     DPH,?XSP + 1
   \   00031B   E0           MOVX    A,@DPTR
   \   00031C   F5..         MOV     ?V4,A
   \   00031E   A3           INC     DPTR
   \   00031F   E0           MOVX    A,@DPTR
   \   000320   F5..         MOV     ?V5,A
   \   000322   75..00       MOV     ?V6,#0x0
   \   000325   78..         MOV     R0,#?V4
   \   000327   12....       LCALL   ?PUSH_XSTACK_I_THREE
   \   00032A   AC..         MOV     R4,?V3
   \   00032C   EC           MOV     A,R4
   \   00032D   2C           ADD     A,R4
   \   00032E   FC           MOV     R4,A
   \   00032F   E4           CLR     A
   \   000330   33           RLC     A
   \   000331   FD           MOV     R5,A
   \   000332   12....       LCALL   `??osal_memcpy::?relay`; Banked call to: osal_memcpy
   \   000335   7403         MOV     A,#0x3
   \   000337   12....       LCALL   ?DEALLOC_XSTACK8
   \   00033A   8004         SJMP    ??ZDO_ProcessMatchDescReq_23
   \                     ??ZDO_ProcessMatchDescReq_22:
   \   00033C   E4           CLR     A
   \   00033D   F0           MOVX    @DPTR,A
   \   00033E   A3           INC     DPTR
   \   00033F   F0           MOVX    @DPTR,A
   \                     ??ZDO_ProcessMatchDescReq_23:
   \   000340   EE           MOV     A,R6
   \   000341   2408         ADD     A,#0x8
   \   000343   F582         MOV     DPL,A
   \   000345   E4           CLR     A
   \   000346   3F           ADDC    A,R7
   \   000347   F583         MOV     DPH,A
   \   000349   E5..         MOV     A,?V2
   \   00034B   7003         JNZ     $+5
   \   00034D   02....       LJMP    ??ZDO_ProcessMatchDescReq_10 & 0xFFFF
   \   000350   A8..         MOV     R0,?V3
   \   000352   12....       LCALL   ?Subroutine163 & 0xFFFF
   \                     ??CrossCallReturnLabel_274:
   \   000355   EE           MOV     A,R6
   \   000356   28           ADD     A,R0
   \   000357   F8           MOV     R0,A
   \   000358   EF           MOV     A,R7
   \   000359   39           ADDC    A,R1
   \   00035A   F9           MOV     R1,A
   \   00035B   E8           MOV     A,R0
   \   00035C   12....       LCALL   ??Subroutine229_0 & 0xFFFF
   \                     ??CrossCallReturnLabel_588:
   \   00035F   39           ADDC    A,R1
   \   000360   12....       LCALL   ?Subroutine23 & 0xFFFF
   \                     ??CrossCallReturnLabel_335:
   \   000363                ; Setup parameters for call to function osal_memcpy
   \   000363   85....       MOV     ?V4,?V14
   \   000366   85....       MOV     ?V5,?V15
   \   000369   75..00       MOV     ?V6,#0x0
   \   00036C   78..         MOV     R0,#?V4
   \   00036E   12....       LCALL   ?PUSH_XSTACK_I_THREE
   \   000371   AC..         MOV     R4,?V2
   \   000373   EC           MOV     A,R4
   \   000374   2C           ADD     A,R4
   \   000375   FC           MOV     R4,A
   \   000376   E4           CLR     A
   \   000377   33           RLC     A
   \   000378   FD           MOV     R5,A
   \   000379   12....       LCALL   `??osal_memcpy::?relay`; Banked call to: osal_memcpy
   \   00037C   7403         MOV     A,#0x3
   \   00037E   12....       LCALL   ?DEALLOC_XSTACK8
   \   000381   02....       LJMP    ??ZDO_ProcessMatchDescReq_11 & 0xFFFF
   1043            }
   1044          
   1045            if ( epCnt )
   \                     ??ZDO_ProcessMatchDescReq_15:
   \   000384   E5..         MOV     A,?V12
   \   000386   604C         JZ      ??ZDO_ProcessMatchDescReq_24
   1046            {
   1047              // Send the message if at least one match found.
   1048              if ( ZSuccess == ZDP_MatchDescRsp( inMsg->TransSeq, &(inMsg->srcAddr), ZDP_SUCCESS,
   1049                        ZDAppNwkAddr.addr.shortAddr, epCnt, (uint8 *)ZDOBuildBuf, inMsg->SecurityUse ) )
   \   000388                ; Setup parameters for call to function ZDP_EPRsp
   \   000388   7406         MOV     A,#0x6
   \   00038A   12....       LCALL   ?XSTACK_DISP0_8
   \   00038D   12....       LCALL   ?Subroutine59 & 0xFFFF
   \                     ??CrossCallReturnLabel_88:
   \   000390   12....       LCALL   ?PUSH_XSTACK_I_ONE
   \   000393   75....       MOV     ?V0,#ZDOBuildBuf & 0xff
   \   000396   75....       MOV     ?V1,#(ZDOBuildBuf >> 8) & 0xff
   \   000399   78..         MOV     R0,#?V0
   \   00039B   12....       LCALL   ?PUSH_XSTACK_I_TWO
   \   00039E   E5..         MOV     A,?V12
   \   0003A0   F5..         MOV     ?V0,A
   \   0003A2   78..         MOV     R0,#?V0
   \   0003A4   12....       LCALL   ?PUSH_XSTACK_I_ONE
   \   0003A7   90....       MOV     DPTR,#ZDAppNwkAddr
   \   0003AA   12....       LCALL   ?PUSH_XSTACK8_X_TWO
   \   0003AD   75..00       MOV     ?V0,#0x0
   \   0003B0   78..         MOV     R0,#?V0
   \   0003B2   12....       LCALL   ?PUSH_XSTACK_I_ONE
   \   0003B5   740B         MOV     A,#0xb
   \   0003B7   12....       LCALL   ?XSTACK_DISP0_8
   \   0003BA   12....       LCALL   ?Subroutine80 & 0xFFFF
   \                     ??CrossCallReturnLabel_115:
   \   0003BD   12....       LCALL   ?XSTACK_DISP0_8
   \   0003C0   12....       LCALL   ?Subroutine56 & 0xFFFF
   \                     ??CrossCallReturnLabel_82:
   \   0003C3   12....       LCALL   `??ZDP_EPRsp::?relay`; Banked call to: ZDP_EPRsp
   \   0003C6   7407         MOV     A,#0x7
   \   0003C8   12....       LCALL   ?DEALLOC_XSTACK8
   \   0003CB   E9           MOV     A,R1
   \   0003CC   7060         JNZ     ??ZDO_ProcessMatchDescReq_25
   1050              {
   1051          #if defined( LCD_SUPPORTED )
   1052                HalLcdWriteScreen( "Match Desc Req", "Rsp Sent" );
   \   0003CE                ; Setup parameters for call to function HalLcdWriteScreen
   \   0003CE   7C..         MOV     R4,#`?<Constant "Rsp Sent">` & 0xff
   \   0003D0   7D..         MOV     R5,#(`?<Constant "Rsp Sent">` >> 8) & 0xff
   \   0003D2   8053         SJMP    ??ZDO_ProcessMatchDescReq_26
   1053          #endif
   1054              }
   1055            }
   1056            else
   1057            {
   1058              if (!inMsg->wasBroadcast)
   \                     ??ZDO_ProcessMatchDescReq_24:
   \   0003D4   7402         MOV     A,#0x2
   \   0003D6   12....       LCALL   ?XSTACK_DISP0_8
   \   0003D9   12....       LCALL   ?Subroutine70 & 0xFFFF
   \                     ??CrossCallReturnLabel_102:
   \   0003DC   7045         JNZ     ??ZDO_ProcessMatchDescReq_27
   1059              {
   1060                // send response message with match length = 0
   1061                ZDP_MatchDescRsp( inMsg->TransSeq, &(inMsg->srcAddr), ZDP_SUCCESS,
   1062                                  ZDAppNwkAddr.addr.shortAddr, 0, (uint8 *)ZDOBuildBuf, inMsg->SecurityUse );
   \   0003DE                ; Setup parameters for call to function ZDP_EPRsp
   \   0003DE   7406         MOV     A,#0x6
   \   0003E0   12....       LCALL   ?XSTACK_DISP0_8
   \   0003E3   12....       LCALL   ?Subroutine59 & 0xFFFF
   \                     ??CrossCallReturnLabel_89:
   \   0003E6   12....       LCALL   ?PUSH_XSTACK_I_ONE
   \   0003E9   75....       MOV     ?V0,#ZDOBuildBuf & 0xff
   \   0003EC   75....       MOV     ?V1,#(ZDOBuildBuf >> 8) & 0xff
   \   0003EF   78..         MOV     R0,#?V0
   \   0003F1   12....       LCALL   ?PUSH_XSTACK_I_TWO
   \   0003F4   75..00       MOV     ?V0,#0x0
   \   0003F7   78..         MOV     R0,#?V0
   \   0003F9   12....       LCALL   ?PUSH_XSTACK_I_ONE
   \   0003FC   90....       MOV     DPTR,#ZDAppNwkAddr
   \   0003FF   12....       LCALL   ?PUSH_XSTACK8_X_TWO
   \   000402   78..         MOV     R0,#?V0
   \   000404   12....       LCALL   ?PUSH_XSTACK_I_ONE
   \   000407   740B         MOV     A,#0xb
   \   000409   12....       LCALL   ?XSTACK_DISP0_8
   \   00040C   12....       LCALL   ?Subroutine80 & 0xFFFF
   \                     ??CrossCallReturnLabel_116:
   \   00040F   12....       LCALL   ?XSTACK_DISP0_8
   \   000412   12....       LCALL   ?Subroutine56 & 0xFFFF
   \                     ??CrossCallReturnLabel_83:
   \   000415   12....       LCALL   `??ZDP_EPRsp::?relay`; Banked call to: ZDP_EPRsp
   \   000418   7407         MOV     A,#0x7
   \   00041A   12....       LCALL   ?DEALLOC_XSTACK8
   1063          #if defined( LCD_SUPPORTED )
   1064                HalLcdWriteScreen( "Match Desc Req", "Rsp Non Matched" );
   \   00041D                ; Setup parameters for call to function HalLcdWriteScreen
   \   00041D   7C..         MOV     R4,#`?<Constant "Rsp Non Matched">` & 0xff
   \   00041F   7D..         MOV     R5,#(`?<Constant "Rsp Non Matched">` >> 8) & 0xff
   \   000421   8004         SJMP    ??ZDO_ProcessMatchDescReq_26
   1065          #endif
   1066              }
   1067              else
   1068              {
   1069                // no response mesage for broadcast message
   1070          #if defined( LCD_SUPPORTED )
   1071                HalLcdWriteScreen( "Match Desc Req", "Non Matched" );
   \                     ??ZDO_ProcessMatchDescReq_27:
   \   000423                ; Setup parameters for call to function HalLcdWriteScreen
   \   000423   7C..         MOV     R4,#`?<Constant "Non Matched">` & 0xff
   \   000425   7D..         MOV     R5,#(`?<Constant "Non Matched">` >> 8) & 0xff
   \                     ??ZDO_ProcessMatchDescReq_26:
   \   000427   7A..         MOV     R2,#`?<Constant "Match Desc Req">` & 0xff
   \   000429   7B..         MOV     R3,#(`?<Constant "Match Desc Req">` >> 8) & 0xff
   \   00042B   12....       LCALL   `??HalLcdWriteScreen::?relay`; Banked call to: HalLcdWriteScreen
   1072          #endif
   1073              }
   1074            }
   1075          
   1076            if ( inClusters != NULL )
   \                     ??ZDO_ProcessMatchDescReq_25:
   \   00042E   12....       LCALL   ?Subroutine51 & 0xFFFF
   \                     ??CrossCallReturnLabel_448:
   \   000431   6006         JZ      ??ZDO_ProcessMatchDescReq_28
   1077            {
   1078              osal_mem_free( inClusters );
   \   000433                ; Setup parameters for call to function osal_mem_free
   \   000433   12....       LCALL   ?Subroutine85 & 0xFFFF
   1079            }
   \                     ??CrossCallReturnLabel_416:
   \   000436   12....       LCALL   `??osal_mem_free::?relay`; Banked call to: osal_mem_free
   1080          
   1081            if ( outClusters != NULL )
   \                     ??ZDO_ProcessMatchDescReq_28:
   \   000439   E5..         MOV     A,?V14
   \   00043B   45..         ORL     A,?V15
   \   00043D   6007         JZ      ??ZDO_ProcessMatchDescReq_3
   1082            {
   1083              osal_mem_free( outClusters );
   \   00043F                ; Setup parameters for call to function osal_mem_free
   \   00043F   AA..         MOV     R2,?V14
   \   000441   AB..         MOV     R3,?V15
   \   000443   12....       LCALL   `??osal_mem_free::?relay`; Banked call to: osal_mem_free
   1084            }
   1085          }
   \                     ??ZDO_ProcessMatchDescReq_3:
   \   000446   740A         MOV     A,#0xa
   \   000448   02....       LJMP    ?Subroutine6 & 0xFFFF

   \                                 In  segment BANKED_CODE, align 1, keep-with-next
   \                     ?Subroutine80:
   \   000000   E0           MOVX    A,@DPTR
   \   000001   FC           MOV     R4,A
   \   000002   A3           INC     DPTR
   \   000003   E0           MOVX    A,@DPTR
   \   000004   FD           MOV     R5,A
   \   000005   740F         MOV     A,#0xf
   \   000007   22           RET

   \                                 In  segment BANKED_CODE, align 1, keep-with-next
   \                     ?Subroutine59:
   \   000000   12....       LCALL   ?Subroutine152 & 0xFFFF
   \                     ??CrossCallReturnLabel_355:
   \   000003   F5..         MOV     ?V0,A
   \   000005   78..         MOV     R0,#?V0
   \   000007   22           RET

   \                                 In  segment BANKED_CODE, align 1, keep-with-next
   \                     ?Subroutine56:
   \   000000   12....       LCALL   ?Subroutine152 & 0xFFFF
   \                     ??CrossCallReturnLabel_354:
   \   000003   F9           MOV     R1,A
   \   000004   7A06         MOV     R2,#0x6
   \   000006   7B80         MOV     R3,#-0x80
   \   000008   22           RET

   \                                 In  segment BANKED_CODE, align 1, keep-with-next
   \                     ?Subroutine23:
   \   000000   FB           MOV     R3,A
   \   000001                REQUIRE ??Subroutine184_0
   \   000001                ; // Fall through to label ??Subroutine184_0

   \                                 In  segment BANKED_CODE, align 1, keep-with-next
   \                     ??Subroutine190_0:
   \   000000   12....       LCALL   ??Subroutine221_0 & 0xFFFF
   \                     ??CrossCallReturnLabel_559:
   \   000003   22           RET

   \                                 In  segment BANKED_CODE, align 1, keep-with-next
   \                     ?Subroutine171:
   \   000000   F0           MOVX    @DPTR,A
   \   000001   85..82       MOV     DPL,?XSP + 0
   \   000004   85..83       MOV     DPH,?XSP + 1
   \   000007   22           RET

   \                                 In  segment BANKED_CODE, align 1, keep-with-next
   \                     ?Subroutine40:
   \   000000   E8           MOV     A,R0
   \   000001                REQUIRE ??Subroutine195_0
   \   000001                ; // Fall through to label ??Subroutine195_0

   \                                 In  segment BANKED_CODE, align 1, keep-with-next
   \                     ??Subroutine195_0:
   \   000000   F0           MOVX    @DPTR,A
   \   000001   A3           INC     DPTR
   \   000002   E9           MOV     A,R1
   \   000003   F0           MOVX    @DPTR,A
   \   000004   22           RET

   \                                 In  segment BANKED_CODE, align 1, keep-with-next
   \                     ?Subroutine22:
   \   000000   12....       LCALL   ?Subroutine149 & 0xFFFF
   \                     ??CrossCallReturnLabel_261:
   \   000003   F8           MOV     R0,A
   \   000004   A3           INC     DPTR
   \   000005   E0           MOVX    A,@DPTR
   \   000006   F9           MOV     R1,A
   \   000007   22           RET

   \                                 In  segment BANKED_CODE, align 1, keep-with-next
   \                     ?Subroutine6:
   \   000000   12....       LCALL   ?DEALLOC_XSTACK8
   \   000003                REQUIRE ??Subroutine196_0
   \   000003                ; // Fall through to label ??Subroutine196_0

   \                                 In  segment BANKED_CODE, align 1, keep-with-next
   \                     ??Subroutine196_0:
   \   000000   7F10         MOV     R7,#0x10
   \   000002   02....       LJMP    ?BANKED_LEAVE_XDATA

   \                                 In  segment BANKED_CODE, align 1, keep-with-next
   \                     ?Subroutine126:
   \   000000   25E0         ADD     A,0xE0 /* A   */
   \   000002   FA           MOV     R2,A
   \   000003   E4           CLR     A
   \   000004   33           RLC     A
   \   000005   FB           MOV     R3,A
   \   000006   22           RET

   \                                 In  segment BANKED_CODE, align 1, keep-with-next
   \                     ??Subroutine210_0:
   \   000000   12....       LCALL   ??Subroutine214_0 & 0xFFFF
   \                     ??CrossCallReturnLabel_515:
   \   000003   22           RET

   \                                 In  segment BANKED_CODE, align 1, keep-with-next
   \                     ?Subroutine169:
   \   000000   F582         MOV     DPL,A
   \   000002   E4           CLR     A
   \   000003   38           ADDC    A,R0
   \   000004   F583         MOV     DPH,A
   \   000006   E0           MOVX    A,@DPTR
   \   000007   22           RET

   \                                 In  segment BANKED_CODE, align 1, keep-with-next
   \                     ?Subroutine149:
   \   000000   12....       LCALL   ?Subroutine171 & 0xFFFF
   \                     ??CrossCallReturnLabel_295:
   \   000003   E0           MOVX    A,@DPTR
   \   000004   22           RET

   \                                 In  segment BANKED_CODE, align 1, keep-with-next
   \                     ?Subroutine70:
   \   000000   12....       LCALL   ??Subroutine214_0 & 0xFFFF
   \                     ??CrossCallReturnLabel_511:
   \   000003   240B         ADD     A,#0xb
   \   000005   12....       LCALL   ?Subroutine169 & 0xFFFF
   \                     ??CrossCallReturnLabel_432:
   \   000008   22           RET

   \                                 In  segment BANKED_CODE, align 1, keep-with-next
   \                     ??Subroutine214_0:
   \   000000   12....       LCALL   ?Subroutine174 & 0xFFFF
   \                     ??CrossCallReturnLabel_522:
   \   000003   C8           XCH     A,R0
   \   000004   22           RET

   \                                 In  segment BANKED_CODE, align 1, keep-with-next
   \                     ?Subroutine26:
   \   000000   F0           MOVX    @DPTR,A
   \   000001   A3           INC     DPTR
   \   000002   E9           MOV     A,R1
   \   000003   12....       LCALL   ?Subroutine145 & 0xFFFF
   \                     ??CrossCallReturnLabel_252:
   \   000006   22           RET

   \                                 In  segment BANKED_CODE, align 1, keep-with-next
   \                     ?Subroutine145:
   \   000000   12....       LCALL   ?Subroutine173 & 0xFFFF
   \                     ??CrossCallReturnLabel_298:
   \   000003   22           RET

   \                                 In  segment BANKED_CODE, align 1, keep-with-next
   \                     ?Subroutine173:
   \   000000   F0           MOVX    @DPTR,A
   \   000001   8E82         MOV     DPL,R6
   \   000003   8F83         MOV     DPH,R7
   \   000005   A3           INC     DPTR
   \   000006   A3           INC     DPTR
   \   000007   A3           INC     DPTR
   \   000008   22           RET

   \                                 In  segment BANKED_CODE, align 1, keep-with-next
   \                     ??Subroutine217_0:
   \   000000   F583         MOV     DPH,A
   \   000002                REQUIRE ??Subroutine218_0
   \   000002                ; // Fall through to label ??Subroutine218_0

   \                                 In  segment BANKED_CODE, align 1, keep-with-next
   \                     ??Subroutine218_0:
   \   000000   E0           MOVX    A,@DPTR
   \   000001   FE           MOV     R6,A
   \   000002   A3           INC     DPTR
   \   000003   E0           MOVX    A,@DPTR
   \   000004   FF           MOV     R7,A
   \   000005   8E82         MOV     DPL,R6
   \   000007   8F83         MOV     DPH,R7
   \   000009   E0           MOVX    A,@DPTR
   \   00000A   22           RET

   \                                 In  segment BANKED_CODE, align 1, keep-with-next
   \                     ?Subroutine41:
   \   000000   12....       LCALL   ?Subroutine145 & 0xFFFF
   \                     ??CrossCallReturnLabel_253:
   \   000003   A3           INC     DPTR
   \   000004   22           RET

   \                                 In  segment BANKED_CODE, align 1, keep-with-next
   \                     ?Subroutine132:
   \   000000   EE           MOV     A,R6
   \   000001                REQUIRE ??Subroutine229_0
   \   000001                ; // Fall through to label ??Subroutine229_0

   \                                 In  segment BANKED_CODE, align 1, keep-with-next
   \                     ??Subroutine229_0:
   \   000000   240A         ADD     A,#0xa
   \   000002   FA           MOV     R2,A
   \   000003   E4           CLR     A
   \   000004   22           RET
   1086          
   1087          #if defined ( REFLECTOR )
   1088          /*********************************************************************
   1089           * @fn      ZDO_ProcessBindUnbindReq()
   1090           *
   1091           * @brief   Called to process a Bind or Unbind Request message.
   1092           *
   1093           * @param   inMsg  - incoming message (request)
   1094           * @param   pReq - place to put parsed information
   1095           *
   1096           * @return  none
   1097           */

   \                                 In  segment BANKED_CODE, align 1, keep-with-next
   1098          void ZDO_ProcessBindUnbindReq( zdoIncomingMsg_t *inMsg, ZDO_BindUnbindReq_t *pReq )
   \                     ZDO_ProcessBindUnbindReq:
   1099          {
   \   000000                REQUIRE ?V0
   \   000000                REQUIRE ?V1
   \   000000                REQUIRE ?V2
   \   000000                REQUIRE ?V3
   \   000000                REQUIRE ?V4
   \   000000                REQUIRE ?V5
   \   000000                REQUIRE ?V6
   \   000000                REQUIRE ?V7
   \   000000                REQUIRE ?V8
   \   000000   74EF         MOV     A,#-0x11
   \   000002   12....       LCALL   ?BANKED_ENTER_XDATA
   \   000005                ; Saved register size: 17
   \   000005                ; Auto size: 12
   \   000005   74F4         MOV     A,#-0xc
   \   000007   12....       LCALL   ?ALLOC_XSTACK8
   \   00000A   8A..         MOV     ?V0,R2
   \   00000C   8B..         MOV     ?V1,R3
   \   00000E   EC           MOV     A,R4
   \   00000F   FE           MOV     R6,A
   \   000010   ED           MOV     A,R5
   \   000011   FF           MOV     R7,A
   1100            zAddrType_t SourceAddr;       // Binding Source addres
   1101            byte bindStat;
   1102          
   1103            SourceAddr.addrMode = Addr64Bit;
   \   000012   740B         MOV     A,#0xb
   \   000014   12....       LCALL   ?XSTACK_DISP0_8
   \   000017   7403         MOV     A,#0x3
   \   000019   F0           MOVX    @DPTR,A
   1104            osal_cpyExtAddr( SourceAddr.addr.extAddr, pReq->srcAddress );
   \   00001A                ; Setup parameters for call to function sAddrExtCpy
   \   00001A   12....       LCALL   ?XSTACK_DISP101_8
   \   00001D   12....       LCALL   `??sAddrExtCpy::?relay`; Banked call to: sAddrExtCpy
   1105          
   1106            // If the local device is not the primary binding cache
   1107            // check the src address of the bind request.
   1108            // If it is not the local device's extended address
   1109            // discard the request.
   1110            if ( !osal_ExtAddrEqual( SourceAddr.addr.extAddr, NLME_GetExtAddr()) ||
   1111                  (pReq->dstAddress.addrMode != Addr64Bit &&
   1112                   pReq->dstAddress.addrMode != AddrGroup) )
   \   000020                ; Setup parameters for call to function NLME_GetExtAddr
   \   000020   12....       LCALL   `??NLME_GetExtAddr::?relay`; Banked call to: NLME_GetExtAddr
   \   000023   8A..         MOV     ?V2,R2
   \   000025   8B..         MOV     ?V3,R3
   \   000027   AC..         MOV     R4,?V2
   \   000029   AD..         MOV     R5,?V3
   \   00002B   E5..         MOV     A,?V0
   \   00002D   240C         ADD     A,#0xc
   \   00002F   F5..         MOV     ?V4,A
   \   000031   E4           CLR     A
   \   000032   35..         ADDC    A,?V1
   \   000034   F5..         MOV     ?V5,A
   \   000036                ; Setup parameters for call to function sAddrExtCmp
   \   000036   7403         MOV     A,#0x3
   \   000038   12....       LCALL   ?XSTACK_DISP101_8
   \   00003B   12....       LCALL   `??sAddrExtCmp::?relay`; Banked call to: sAddrExtCmp
   \   00003E   E9           MOV     A,R1
   \   00003F   601D         JZ      ??ZDO_ProcessBindUnbindReq_0
   \   000041   EE           MOV     A,R6
   \   000042   2413         ADD     A,#0x13
   \   000044   F5..         MOV     ?V2,A
   \   000046   E4           CLR     A
   \   000047   3F           ADDC    A,R7
   \   000048   F5..         MOV     ?V3,A
   \   00004A   85..82       MOV     DPL,?V2
   \   00004D   F583         MOV     DPH,A
   \   00004F   E0           MOVX    A,@DPTR
   \   000050   F5..         MOV     ?V8,A
   \   000052   7403         MOV     A,#0x3
   \   000054   65..         XRL     A,?V8
   \   000056   6011         JZ      ??ZDO_ProcessBindUnbindReq_1
   \   000058   7401         MOV     A,#0x1
   \   00005A   65..         XRL     A,?V8
   \   00005C   600B         JZ      ??ZDO_ProcessBindUnbindReq_1
   1113            {
   1114              bindStat = ZDP_NOT_SUPPORTED;
   \                     ??ZDO_ProcessBindUnbindReq_0:
   \   00005E   85..82       MOV     DPL,?XSP + 0
   \   000061   85..83       MOV     DPH,?XSP + 1
   \   000064   7484         MOV     A,#-0x7c
   \   000066   02....       LJMP    ??ZDO_ProcessBindUnbindReq_2 & 0xFFFF
   1115            }
   1116            else
   1117            {
   1118              // Check source & destination endpoints
   1119              if ( (pReq->srcEndpoint == 0 || pReq->srcEndpoint > MAX_ENDPOINTS)
   1120                  || (( pReq->dstAddress.addrMode == Addr64Bit ) &&
   1121                      (pReq->dstEndpoint == 0 || pReq->dstEndpoint > MAX_ENDPOINTS)) )
   \                     ??ZDO_ProcessBindUnbindReq_1:
   \   000069   EE           MOV     A,R6
   \   00006A   2408         ADD     A,#0x8
   \   00006C   F8           MOV     R0,A
   \   00006D   E4           CLR     A
   \   00006E   3F           ADDC    A,R7
   \   00006F   F9           MOV     R1,A
   \   000070   88..         MOV     ?V6,R0
   \   000072   89..         MOV     ?V7,R1
   \   000074   8882         MOV     DPL,R0
   \   000076   F583         MOV     DPH,A
   \   000078   E0           MOVX    A,@DPTR
   \   000079   F9           MOV     R1,A
   \   00007A   6023         JZ      ??ZDO_ProcessBindUnbindReq_3
   \   00007C   74FF         MOV     A,#-0x1
   \   00007E   69           XRL     A,R1
   \   00007F   601E         JZ      ??ZDO_ProcessBindUnbindReq_3
   \   000081   EE           MOV     A,R6
   \   000082   2414         ADD     A,#0x14
   \   000084   FA           MOV     R2,A
   \   000085   E4           CLR     A
   \   000086   3F           ADDC    A,R7
   \   000087   FB           MOV     R3,A
   \   000088   EA           MOV     A,R2
   \   000089   FC           MOV     R4,A
   \   00008A   EB           MOV     A,R3
   \   00008B   FD           MOV     R5,A
   \   00008C   7403         MOV     A,#0x3
   \   00008E   65..         XRL     A,?V8
   \   000090   7018         JNZ     ??ZDO_ProcessBindUnbindReq_4
   \   000092   8C82         MOV     DPL,R4
   \   000094   8D83         MOV     DPH,R5
   \   000096   E0           MOVX    A,@DPTR
   \   000097   F8           MOV     R0,A
   \   000098   6005         JZ      ??ZDO_ProcessBindUnbindReq_3
   \   00009A   74FF         MOV     A,#-0x1
   \   00009C   68           XRL     A,R0
   \   00009D   700B         JNZ     ??ZDO_ProcessBindUnbindReq_4
   1122              {
   1123                bindStat = ZDP_INVALID_EP;
   \                     ??ZDO_ProcessBindUnbindReq_3:
   \   00009F   85..82       MOV     DPL,?XSP + 0
   \   0000A2   85..83       MOV     DPH,?XSP + 1
   \   0000A5   7482         MOV     A,#-0x7e
   \   0000A7   02....       LJMP    ??ZDO_ProcessBindUnbindReq_2 & 0xFFFF
   1124              }
   1125              else
   1126              {
   1127                if ( inMsg->clusterID == Bind_req )
   \                     ??ZDO_ProcessBindUnbindReq_4:
   \   0000AA   EE           MOV     A,R6
   \   0000AB   2409         ADD     A,#0x9
   \   0000AD   FA           MOV     R2,A
   \   0000AE   E4           CLR     A
   \   0000AF   3F           ADDC    A,R7
   \   0000B0   FB           MOV     R3,A
   \   0000B1   EE           MOV     A,R6
   \   0000B2   240B         ADD     A,#0xb
   \   0000B4   FE           MOV     R6,A
   \   0000B5   5001         JNC     ??ZDO_ProcessBindUnbindReq_5
   \   0000B7   0F           INC     R7
   \                     ??ZDO_ProcessBindUnbindReq_5:
   \   0000B8   85..82       MOV     DPL,?V4
   \   0000BB   85..83       MOV     DPH,?V5
   \   0000BE   E0           MOVX    A,@DPTR
   \   0000BF   6421         XRL     A,#0x21
   \   0000C1   7002         JNZ     ??ZDO_ProcessBindUnbindReq_6
   \   0000C3   A3           INC     DPTR
   \   0000C4   E0           MOVX    A,@DPTR
   \                     ??ZDO_ProcessBindUnbindReq_6:
   \   0000C5   7065         JNZ     ??ZDO_ProcessBindUnbindReq_7
   1128                {
   1129                  // Assume the table is full
   1130                  bindStat = ZDP_TABLE_FULL;
   \   0000C7   85..82       MOV     DPL,?XSP + 0
   \   0000CA   85..83       MOV     DPH,?XSP + 1
   \   0000CD   748C         MOV     A,#-0x74
   \   0000CF   12....       LCALL   ?Subroutine29 & 0xFFFF
   1131          
   1132          #if defined( APP_TP ) || defined( APP_TP2 )
   1133                  // For ZigBee Conformance Testing
   1134                  if ( bindNumOfEntries() < gNWK_MAX_BINDING_ENTRIES )
   1135          #endif
   1136                  {
   1137          #if defined ( ZDP_BIND_VALIDATION )
   1138                    uint16 nwkAddr;
   1139          
   1140                    // Verifies that a valid NWK address exists for the device
   1141                    // before creating a Binding entry. If NWK address does not
   1142                    // exist the request is sent out and the BindReq is saved, to
   1143                    // create the Bind Entry once the NwkAddrRsp is received
   1144                    if ( ( pReq->dstAddress.addrMode == Addr64Bit ) &&
   1145                         ( APSME_LookupNwkAddr( pReq->dstAddress.addr.extAddr, &nwkAddr ) == FALSE ) )
   1146                    {
   1147                      // find an empty bind slot in the pending Bind Req list
   1148                      ZDO_PendingBindReq_t *pPendingBind;
   1149          
   1150                      if ( ( pPendingBind = ZDApp_GetEmptyPendingBindReq() ) != NULL )
   1151                      {
   1152                        // copy the received request into the empty slot and all required info
   1153                        osal_memcpy( &(pPendingBind->bindReq), pReq, sizeof( ZDO_BindUnbindReq_t ) );
   1154          
   1155                        pPendingBind->srcAddr = inMsg->srcAddr;
   1156                        pPendingBind->securityUse = inMsg->SecurityUse;
   1157                        pPendingBind->transSeq = inMsg->TransSeq;
   1158                        pPendingBind->age = MAX_TIME_ADDR_REQ;
   1159          
   1160                        // create an entry in Address Manager
   1161                        ( void )bindAddrIndexGet( &(pReq->dstAddress) );
   1162          
   1163                        ZDP_NwkAddrReq( pReq->dstAddress.addr.extAddr, ZDP_ADDR_REQTYPE_SINGLE, 0, 0 );
   1164          
   1165                        osal_start_timerEx( ZDAppTaskID, ZDO_PENDING_BIND_REQ_EVT,
   1166                                            AGE_OUT_PEND_BIND_REQ_DELAY );
   1167                        return;
   1168                      }
   1169                    }
   1170                    // Add Bind entry
   1171                    else if ( APSME_BindRequest( pReq->srcEndpoint, pReq->clusterID,
   1172                                                 &(pReq->dstAddress), pReq->dstEndpoint ) == ZSuccess )
   1173                    {
   1174                      // valid entry
   1175                      bindStat = ZDP_SUCCESS;
   1176          
   1177                      // Notify to save info into NV
   1178                      ZDApp_NVUpdate();
   1179                    }
   1180          #else // ZDP_BIND_VALIDATION  is not Defined
   1181                    // Create binding entry first independently of existance of  valid NWK addres
   1182                    // if NWK address does not exist a request is sent out
   1183                    if ( APSME_BindRequest( pReq->srcEndpoint, pReq->clusterID,
   1184                                   &(pReq->dstAddress), pReq->dstEndpoint ) == ZSuccess )
   \                     ??CrossCallReturnLabel_29:
   \   0000D2   E0           MOVX    A,@DPTR
   \   0000D3   F5..         MOV     ?V8,A
   \   0000D5   78..         MOV     R0,#?V8
   \   0000D7   12....       LCALL   ?PUSH_XSTACK_I_ONE
   \   0000DA   EE           MOV     A,R6
   \   0000DB   FC           MOV     R4,A
   \   0000DC   EF           MOV     A,R7
   \   0000DD   FD           MOV     R5,A
   \   0000DE   8A82         MOV     DPL,R2
   \   0000E0   8B83         MOV     DPH,R3
   \   0000E2   12....       LCALL   ??Subroutine200_0 & 0xFFFF
   \                     ??CrossCallReturnLabel_405:
   \   0000E5   85..82       MOV     DPL,?V6
   \   0000E8   85..83       MOV     DPH,?V7
   \   0000EB   E0           MOVX    A,@DPTR
   \   0000EC   F9           MOV     R1,A
   \   0000ED   12....       LCALL   `??APSME_BindRequest::?relay`; Banked call to: APSME_BindRequest
   \   0000F0   7401         MOV     A,#0x1
   \   0000F2   12....       LCALL   ?DEALLOC_XSTACK8
   \   0000F5   E9           MOV     A,R1
   \   0000F6   7066         JNZ     ??ZDO_ProcessBindUnbindReq_8
   1185                    {
   1186                      uint16 nwkAddr;
   1187          
   1188                      // valid entry
   1189                      bindStat = ZDP_SUCCESS;
   \   0000F8   85..82       MOV     DPL,?XSP + 0
   \   0000FB   85..83       MOV     DPH,?XSP + 1
   \   0000FE   E4           CLR     A
   \   0000FF   F0           MOVX    @DPTR,A
   1190          
   1191                      // Notify to save info into NV
   1192                      ZDApp_NVUpdate();
   \   000100                ; Setup parameters for call to function ZDApp_NVUpdate
   \   000100   12....       LCALL   `??ZDApp_NVUpdate::?relay`; Banked call to: ZDApp_NVUpdate
   1193          
   1194                      // Check for the destination address
   1195                      if ( pReq->dstAddress.addrMode == Addr64Bit )
   \   000103   85..82       MOV     DPL,?V2
   \   000106   85..83       MOV     DPH,?V3
   \   000109   E0           MOVX    A,@DPTR
   \   00010A   6403         XRL     A,#0x3
   \   00010C   7050         JNZ     ??ZDO_ProcessBindUnbindReq_8
   1196                      {
   1197                        if ( APSME_LookupNwkAddr( pReq->dstAddress.addr.extAddr, &nwkAddr ) == FALSE )
   \   00010E                ; Setup parameters for call to function APSME_LookupNwkAddr
   \   00010E   7401         MOV     A,#0x1
   \   000110   12....       LCALL   ?XSTACK_DISP102_8
   \   000113   EE           MOV     A,R6
   \   000114   FA           MOV     R2,A
   \   000115   EF           MOV     A,R7
   \   000116   FB           MOV     R3,A
   \   000117   12....       LCALL   `??APSME_LookupNwkAddr::?relay`; Banked call to: APSME_LookupNwkAddr
   \   00011A   E9           MOV     A,R1
   \   00011B   7041         JNZ     ??ZDO_ProcessBindUnbindReq_8
   1198                        {
   1199                          ZDP_NwkAddrReq( pReq->dstAddress.addr.extAddr, ZDP_ADDR_REQTYPE_SINGLE, 0, 0 );
   \   00011D                ; Setup parameters for call to function ZDP_NwkAddrReq
   \   00011D   7D00         MOV     R5,#0x0
   \   00011F   7C00         MOV     R4,#0x0
   \   000121   7900         MOV     R1,#0x0
   \   000123   EE           MOV     A,R6
   \   000124   FA           MOV     R2,A
   \   000125   EF           MOV     A,R7
   \   000126   FB           MOV     R3,A
   \   000127   12....       LCALL   `??ZDP_NwkAddrReq::?relay`; Banked call to: ZDP_NwkAddrReq
   \   00012A   8032         SJMP    ??ZDO_ProcessBindUnbindReq_8
   1200                        }
   1201                      }
   1202                    }
   1203          #endif
   1204                  }
   1205                }
   1206                else // Unbind_req
   1207                {
   1208                  if ( APSME_UnBindRequest( pReq->srcEndpoint, pReq->clusterID,
   1209                                 &(pReq->dstAddress), pReq->dstEndpoint ) == ZSuccess )
   \                     ??ZDO_ProcessBindUnbindReq_7:
   \   00012C                ; Setup parameters for call to function APSME_UnBindRequest
   \   00012C   8C82         MOV     DPL,R4
   \   00012E   8D83         MOV     DPH,R5
   \   000130   E0           MOVX    A,@DPTR
   \   000131   F5..         MOV     ?V2,A
   \   000133   78..         MOV     R0,#?V2
   \   000135   12....       LCALL   ?PUSH_XSTACK_I_ONE
   \   000138   EE           MOV     A,R6
   \   000139   FC           MOV     R4,A
   \   00013A   EF           MOV     A,R7
   \   00013B   FD           MOV     R5,A
   \   00013C   8A82         MOV     DPL,R2
   \   00013E   8B83         MOV     DPH,R3
   \   000140   12....       LCALL   ??Subroutine200_0 & 0xFFFF
   \                     ??CrossCallReturnLabel_406:
   \   000143   12....       LCALL   `??APSME_UnBindRequest::?relay`; Banked call to: APSME_UnBindRequest
   \   000146   7401         MOV     A,#0x1
   \   000148   12....       LCALL   ?DEALLOC_XSTACK8
   \   00014B   E9           MOV     A,R1
   \   00014C   85..82       MOV     DPL,?XSP + 0
   \   00014F   85..83       MOV     DPH,?XSP + 1
   \   000152   7007         JNZ     ??ZDO_ProcessBindUnbindReq_9
   1210                  {
   1211                    bindStat = ZDP_SUCCESS;
   \   000154   E4           CLR     A
   \   000155   F0           MOVX    @DPTR,A
   1212          
   1213                    // Notify to save info into NV
   1214                    ZDApp_NVUpdate();
   \   000156                ; Setup parameters for call to function ZDApp_NVUpdate
   \   000156   12....       LCALL   `??ZDApp_NVUpdate::?relay`; Banked call to: ZDApp_NVUpdate
   \   000159   8003         SJMP    ??ZDO_ProcessBindUnbindReq_8
   1215                  }
   1216                  else
   1217                    bindStat = ZDP_NO_ENTRY;
   \                     ??ZDO_ProcessBindUnbindReq_9:
   \   00015B   7488         MOV     A,#-0x78
   \                     ??ZDO_ProcessBindUnbindReq_2:
   \   00015D   F0           MOVX    @DPTR,A
   1218                }
   1219              }
   1220            }
   1221          
   1222            // Send back a response message
   1223            ZDP_SendData( &(inMsg->TransSeq), &(inMsg->srcAddr),
   1224                         (inMsg->clusterID | ZDO_RESPONSE_BIT), 1, &bindStat,
   1225                         inMsg->SecurityUse );
   \                     ??ZDO_ProcessBindUnbindReq_8:
   \   00015E                ; Setup parameters for call to function ZDP_SendData
   \   00015E   12....       LCALL   ?Subroutine113 & 0xFFFF
   \                     ??CrossCallReturnLabel_178:
   \   000161   F5..         MOV     ?V2,A
   \   000163   78..         MOV     R0,#?V2
   \   000165   12....       LCALL   ?PUSH_XSTACK_I_ONE
   \   000168   7401         MOV     A,#0x1
   \   00016A   12....       LCALL   ?XSTACK_DISP100_8
   \   00016D   88..         MOV     ?V2,R0
   \   00016F   89..         MOV     ?V3,R1
   \   000171   78..         MOV     R0,#?V2
   \   000173   12....       LCALL   ?PUSH_XSTACK_I_TWO
   \   000176   85..82       MOV     DPL,?V4
   \   000179   85..83       MOV     DPH,?V5
   \   00017C   12....       LCALL   ?Subroutine96 & 0xFFFF
   \                     ??CrossCallReturnLabel_142:
   \   00017F   4480         ORL     A,#0x80
   \   000181   F5..         MOV     ?V3,A
   \   000183   78..         MOV     R0,#?V2
   \   000185   12....       LCALL   ?PUSH_XSTACK_I_TWO
   \   000188   12....       LCALL   ?Subroutine118 & 0xFFFF
   \                     ??CrossCallReturnLabel_191:
   \   00018B   12....       LCALL   `??ZDP_SendData::?relay`; Banked call to: ZDP_SendData
   \   00018E   7405         MOV     A,#0x5
   \   000190   12....       LCALL   ?DEALLOC_XSTACK8
   1226          }
   \   000193   740C         MOV     A,#0xc
   \   000195   12....       LCALL   ?DEALLOC_XSTACK8
   \   000198   7F09         MOV     R7,#0x9
   \   00019A   02....       LJMP    ?BANKED_LEAVE_XDATA

   \                                 In  segment BANKED_CODE, align 1, keep-with-next
   \                     ?Subroutine118:
   \   000000   7901         MOV     R1,#0x1
   \   000002   E5..         MOV     A,?V0
   \   000004   2402         ADD     A,#0x2
   \   000006   FC           MOV     R4,A
   \   000007   E4           CLR     A
   \   000008   35..         ADDC    A,?V1
   \   00000A   FD           MOV     R5,A
   \   00000B   E5..         MOV     A,?V0
   \   00000D   240F         ADD     A,#0xf
   \   00000F   FA           MOV     R2,A
   \   000010   E4           CLR     A
   \   000011   35..         ADDC    A,?V1
   \   000013   FB           MOV     R3,A
   \   000014   22           RET

   \                                 In  segment BANKED_CODE, align 1, keep-with-next
   \                     ?Subroutine29:
   \   000000   F0           MOVX    @DPTR,A
   \   000001                ; Setup parameters for call to function APSME_BindRequest
   \   000001   8C82         MOV     DPL,R4
   \   000003   8D83         MOV     DPH,R5
   \   000005   22           RET

   \                                 In  segment BANKED_CODE, align 1, keep-with-next
   \                     ?Subroutine113:
   \   000000   E5..         MOV     A,?V0
   \   000002   240E         ADD     A,#0xe
   \   000004   F582         MOV     DPL,A
   \   000006   E4           CLR     A
   \   000007   35..         ADDC    A,?V1
   \   000009   F583         MOV     DPH,A
   \   00000B   E0           MOVX    A,@DPTR
   \   00000C   22           RET

   \                                 In  segment BANKED_CODE, align 1, keep-with-next
   \                     ?Subroutine96:
   \   000000   E0           MOVX    A,@DPTR
   \   000001   F5..         MOV     ?V2,A
   \   000003   A3           INC     DPTR
   \   000004   E0           MOVX    A,@DPTR
   \   000005   22           RET
   1227          #endif // REFLECTOR
   1228          
   1229          /*********************************************************************
   1230           * @fn      ZDO_UpdateAddrManager
   1231           *
   1232           * @brief   Update the Address Manager.
   1233           *
   1234           * @param   nwkAddr - network address
   1235           * @param   extAddr - extended address
   1236           *
   1237           * @return  none
   1238           */

   \                                 In  segment BANKED_CODE, align 1, keep-with-next
   1239          void ZDO_UpdateAddrManager( uint16 nwkAddr, uint8 *extAddr )
   \                     ZDO_UpdateAddrManager:
   1240          {
   \   000000   C082         PUSH    DPL
   \   000002   C083         PUSH    DPH
   \   000004                ; Saved register size: 2
   \   000004                ; Auto size: 13
   \   000004   74F3         MOV     A,#-0xd
   \   000006   12....       LCALL   ?ALLOC_XSTACK8
   1241            AddrMgrEntry_t addrEntry;
   1242          
   1243            // Update the address manager
   1244            addrEntry.user = ADDRMGR_USER_DEFAULT;
   \   000009   85..82       MOV     DPL,?XSP + 0
   \   00000C   85..83       MOV     DPH,?XSP + 1
   \   00000F   E4           CLR     A
   \   000010   F0           MOVX    @DPTR,A
   1245            addrEntry.nwkAddr = nwkAddr;
   \   000011   04           INC     A
   \   000012   12....       LCALL   ?XSTACK_DISP0_8
   \   000015   12....       LCALL   ??Subroutine184_0 & 0xFFFF
   1246            AddrMgrExtAddrSet( addrEntry.extAddr, extAddr );
   \                     ??CrossCallReturnLabel_328:
   \   000018                ; Setup parameters for call to function AddrMgrExtAddrSet
   \   000018   7403         MOV     A,#0x3
   \   00001A   12....       LCALL   ?XSTACK_DISP0_8
   \   00001D   AA82         MOV     R2,DPL
   \   00001F   AB83         MOV     R3,DPH
   \   000021   12....       LCALL   `??AddrMgrExtAddrSet::?relay`; Banked call to: AddrMgrExtAddrSet
   1247            AddrMgrEntryUpdate( &addrEntry );
   \   000024                ; Setup parameters for call to function AddrMgrEntryUpdate
   \   000024   AA..         MOV     R2,?XSP + 0
   \   000026   AB..         MOV     R3,?XSP + 1
   \   000028   12....       LCALL   `??AddrMgrEntryUpdate::?relay`; Banked call to: AddrMgrEntryUpdate
   1248          }
   \   00002B   740D         MOV     A,#0xd
   \   00002D   12....       LCALL   ?DEALLOC_XSTACK8
   \   000030   02....       LJMP    ?Subroutine0 & 0xFFFF
   1249          
   1250          /*********************************************************************
   1251           * @fn      ZDO_ProcessServerDiscReq
   1252           *
   1253           * @brief   Process the Server_Discovery_req message.
   1254           *
   1255           * @param   inMsg  - incoming message (request)
   1256           *
   1257           * @return  none
   1258           */

   \                                 In  segment BANKED_CODE, align 1, keep-with-next
   1259          void ZDO_ProcessServerDiscReq( zdoIncomingMsg_t *inMsg )
   \                     ZDO_ProcessServerDiscReq:
   1260          {
   \   000000                REQUIRE ?V0
   \   000000                REQUIRE ?V1
   \   000000   74F6         MOV     A,#-0xa
   \   000002   12....       LCALL   ?BANKED_ENTER_XDATA
   \   000005                ; Saved register size: 10
   \   000005                ; Auto size: 0
   \   000005   12....       LCALL   ?Subroutine74 & 0xFFFF
   1261            uint16 serverMask = BUILD_UINT16( inMsg->asdu[0], inMsg->asdu[1] );
   1262            uint16 matchMask = serverMask & ZDO_Config_Node_Descriptor.ServerMask;
   \                     ??CrossCallReturnLabel_106:
   \   000008   F9           MOV     R1,A
   \   000009   EA           MOV     A,R2
   \   00000A   F8           MOV     R0,A
   \   00000B   90....       MOV     DPTR,#ZDO_Config_Node_Descriptor + 8
   \   00000E   E0           MOVX    A,@DPTR
   \   00000F   58           ANL     A,R0
   \   000010   F5..         MOV     ?V0,A
   \   000012   A3           INC     DPTR
   \   000013   E0           MOVX    A,@DPTR
   \   000014   59           ANL     A,R1
   \   000015   F5..         MOV     ?V1,A
   1263          
   1264            if ( matchMask )
   \   000017   E5..         MOV     A,?V0
   \   000019   45..         ORL     A,?V1
   \   00001B   6026         JZ      ??ZDO_ProcessServerDiscReq_0
   1265            {
   1266              ZDP_ServerDiscRsp( inMsg->TransSeq, &(inMsg->srcAddr), ZSUCCESS,
   1267                          ZDAppNwkAddr.addr.shortAddr, matchMask, inMsg->SecurityUse );
   \   00001D                ; Setup parameters for call to function ZDP_ServerDiscRsp
   \   00001D   78..         MOV     R0,#?V0
   \   00001F   12....       LCALL   ?PUSH_XSTACK_I_TWO
   \   000022   90....       MOV     DPTR,#ZDAppNwkAddr
   \   000025   12....       LCALL   ?PUSH_XSTACK8_X_TWO
   \   000028   12....       LCALL   ?Subroutine112 & 0xFFFF
   1268            }
   \                     ??CrossCallReturnLabel_381:
   \   00002B   FD           MOV     R5,A
   \   00002C   7C00         MOV     R4,#0x0
   \   00002E   EE           MOV     A,R6
   \   00002F   12....       LCALL   ??Subroutine188_0 & 0xFFFF
   \                     ??CrossCallReturnLabel_357:
   \   000032   3F           ADDC    A,R7
   \   000033   FB           MOV     R3,A
   \   000034   EE           MOV     A,R6
   \   000035   240F         ADD     A,#0xf
   \   000037   12....       LCALL   ??Subroutine194_0 & 0xFFFF
   \                     ??CrossCallReturnLabel_376:
   \   00003A   F9           MOV     R1,A
   \   00003B   12....       LCALL   `??ZDP_ServerDiscRsp::?relay`; Banked call to: ZDP_ServerDiscRsp
   \   00003E   7404         MOV     A,#0x4
   \   000040   12....       LCALL   ?DEALLOC_XSTACK8
   1269          }
   \                     ??ZDO_ProcessServerDiscReq_0:
   \   000043   02....       LJMP    ??Subroutine180_0 & 0xFFFF

   \                                 In  segment BANKED_CODE, align 1, keep-with-next
   \                     ??Subroutine188_0:
   \   000000   2402         ADD     A,#0x2
   \   000002   FA           MOV     R2,A
   \   000003   E4           CLR     A
   \   000004   22           RET

   \                                 In  segment BANKED_CODE, align 1, keep-with-next
   \                     ?Subroutine74:
   \   000000   12....       LCALL   ?Subroutine153 & 0xFFFF
   \                     ??CrossCallReturnLabel_268:
   \   000003   22           RET
   1270          
   1271          /*********************************************************************
   1272           * Call Back Functions from APS  - API
   1273           */
   1274          
   1275          /*********************************************************************
   1276           * @fn          ZDO_EndDeviceTimeoutCB
   1277           *
   1278           * @brief       This function handles the binding timer for the End
   1279           *              Device Bind command.
   1280           *
   1281           * @param       none
   1282           *
   1283           * @return      none
   1284           */

   \                                 In  segment BANKED_CODE, align 1, keep-with-next
   1285          void ZDO_EndDeviceTimeoutCB( void )
   \                     ZDO_EndDeviceTimeoutCB:
   1286          {
   \   000000                REQUIRE ?V0
   \   000000                REQUIRE ?V1
   \   000000   74F6         MOV     A,#-0xa
   \   000002   12....       LCALL   ?BANKED_ENTER_XDATA
   \   000005                ; Saved register size: 10
   \   000005                ; Auto size: 2
   \   000005   74FE         MOV     A,#-0x2
   \   000007   12....       LCALL   ?ALLOC_XSTACK8
   1287          #if defined ( REFLECTOR )
   1288            byte stat;
   1289            if ( ZDO_EDBind )
   \   00000A   90....       MOV     DPTR,#ZDO_EDBind
   \   00000D   12....       LCALL   ??Subroutine204_0 & 0xFFFF
   \                     ??CrossCallReturnLabel_436:
   \   000010   7003         JNZ     $+5
   \   000012   02....       LJMP    ??ZDO_EndDeviceTimeoutCB_0 & 0xFFFF
   1290            {
   1291              stat = ZDO_EDBind->status;
   1292          
   1293              // Send the response message to the first sent
   1294              ZDO_SendEDBindRsp( ZDO_EDBind->SrcTransSeq, &(ZDO_EDBind->SrcAddr),
   1295                                  stat, ZDO_EDBind->SecurityUse );
   \   000015   E0           MOVX    A,@DPTR
   \   000016   C8           XCH     A,R0
   \   000017   2416         ADD     A,#0x16
   \   000019   12....       LCALL   ?Subroutine125 & 0xFFFF
   \                     ??CrossCallReturnLabel_208:
   \   00001C   85..82       MOV     DPL,?XSP + 0
   \   00001F   85..83       MOV     DPH,?XSP + 1
   \   000022   12....       LCALL   ?Subroutine46 & 0xFFFF
   \                     ??CrossCallReturnLabel_67:
   \   000025   F583         MOV     DPH,A
   \   000027   8882         MOV     DPL,R0
   \   000029   E0           MOVX    A,@DPTR
   \   00002A   C0E0         PUSH    A
   \   00002C   7401         MOV     A,#0x1
   \   00002E   12....       LCALL   ?XSTACK_DISP0_8
   \   000031   D0E0         POP     A
   \   000033   12....       LCALL   ?Subroutine46 & 0xFFFF
   \                     ??CrossCallReturnLabel_66:
   \   000036   C8           XCH     A,R0
   \   000037   2415         ADD     A,#0x15
   \   000039   12....       LCALL   ?Subroutine124 & 0xFFFF
   \                     ??CrossCallReturnLabel_206:
   \   00003C   12....       LCALL   ?PUSH_XSTACK_I_ONE
   \   00003F   7401         MOV     A,#0x1
   \   000041   12....       LCALL   ?XSTACK_DISP100_8
   \   000044   88..         MOV     ?V0,R0
   \   000046   89..         MOV     ?V1,R1
   \   000048   78..         MOV     R0,#?V0
   \   00004A   12....       LCALL   ?PUSH_XSTACK_I_TWO
   \   00004D   75..20       MOV     ?V0,#0x20
   \   000050   75..80       MOV     ?V1,#-0x80
   \   000053   78..         MOV     R0,#?V0
   \   000055   12....       LCALL   ?PUSH_XSTACK_I_TWO
   \   000058   7901         MOV     R1,#0x1
   \   00005A   90....       MOV     DPTR,#ZDO_EDBind
   \   00005D   E0           MOVX    A,@DPTR
   \   00005E   29           ADD     A,R1
   \   00005F   FC           MOV     R4,A
   \   000060   A3           INC     DPTR
   \   000061   E0           MOVX    A,@DPTR
   \   000062   3400         ADDC    A,#0x0
   \   000064   FD           MOV     R5,A
   \   000065   7406         MOV     A,#0x6
   \   000067   12....       LCALL   ?XSTACK_DISP101_8
   \   00006A   12....       LCALL   `??ZDP_SendData::?relay`; Banked call to: ZDP_SendData
   \   00006D   7405         MOV     A,#0x5
   \   00006F   12....       LCALL   ?DEALLOC_XSTACK8
   \   000072                ; Setup parameters for call to function HalLcdWriteString
   \   000072   7901         MOV     R1,#0x1
   \   000074   7A..         MOV     R2,#`?<Constant "End Device Bind">` & 0xff
   \   000076   7B..         MOV     R3,#(`?<Constant "End Device Bind">` >> 8) & 0xff
   \   000078   12....       LCALL   `??HalLcdWriteString::?relay`; Banked call to: HalLcdWriteString
   \   00007B   85..82       MOV     DPL,?XSP + 0
   \   00007E   85..83       MOV     DPH,?XSP + 1
   \   000081   E0           MOVX    A,@DPTR
   \   000082   7902         MOV     R1,#0x2
   \   000084   7006         JNZ     ??ZDO_EndDeviceTimeoutCB_1
   \   000086                ; Setup parameters for call to function HalLcdWriteString
   \   000086   7A..         MOV     R2,#`?<Constant "Success Sent">` & 0xff
   \   000088   7B..         MOV     R3,#(`?<Constant "Success Sent">` >> 8) & 0xff
   \   00008A   8004         SJMP    ??ZDO_EndDeviceTimeoutCB_2
   \                     ??ZDO_EndDeviceTimeoutCB_1:
   \   00008C                ; Setup parameters for call to function HalLcdWriteString
   \   00008C   7A..         MOV     R2,#`?<Constant "Timeout">` & 0xff
   \   00008E   7B..         MOV     R3,#(`?<Constant "Timeout">` >> 8) & 0xff
   \                     ??ZDO_EndDeviceTimeoutCB_2:
   \   000090   12....       LCALL   `??HalLcdWriteString::?relay`; Banked call to: HalLcdWriteString
   1296          
   1297              ZDO_RemoveEndDeviceBind();
   \   000093   90....       MOV     DPTR,#ZDO_EDBind
   \   000096   12....       LCALL   ??Subroutine204_0 & 0xFFFF
   \                     ??CrossCallReturnLabel_437:
   \   000099   602C         JZ      ??ZDO_EndDeviceTimeoutCB_0
   \   00009B   E0           MOVX    A,@DPTR
   \   00009C   C8           XCH     A,R0
   \   00009D   2410         ADD     A,#0x10
   \   00009F   12....       LCALL   ?Subroutine52 & 0xFFFF
   \                     ??CrossCallReturnLabel_317:
   \   0000A2   6003         JZ      ??ZDO_EndDeviceTimeoutCB_3
   \   0000A4                ; Setup parameters for call to function osal_mem_free
   \   0000A4   12....       LCALL   `??osal_mem_free::?relay`; Banked call to: osal_mem_free
   \                     ??ZDO_EndDeviceTimeoutCB_3:
   \   0000A7   90....       MOV     DPTR,#ZDO_EDBind
   \   0000AA   12....       LCALL   ??Subroutine210_0 & 0xFFFF
   \                     ??CrossCallReturnLabel_467:
   \   0000AD   2413         ADD     A,#0x13
   \   0000AF   12....       LCALL   ?Subroutine52 & 0xFFFF
   \                     ??CrossCallReturnLabel_318:
   \   0000B2   6003         JZ      ??ZDO_EndDeviceTimeoutCB_4
   \   0000B4                ; Setup parameters for call to function osal_mem_free
   \   0000B4   12....       LCALL   `??osal_mem_free::?relay`; Banked call to: osal_mem_free
   \                     ??ZDO_EndDeviceTimeoutCB_4:
   \   0000B7                ; Setup parameters for call to function osal_mem_free
   \   0000B7   90....       MOV     DPTR,#ZDO_EDBind
   \   0000BA   12....       LCALL   ??Subroutine200_0 & 0xFFFF
   \                     ??CrossCallReturnLabel_407:
   \   0000BD   12....       LCALL   `??osal_mem_free::?relay`; Banked call to: osal_mem_free
   \   0000C0   90....       MOV     DPTR,#ZDO_EDBind
   \   0000C3   E4           CLR     A
   \   0000C4   F0           MOVX    @DPTR,A
   \   0000C5   A3           INC     DPTR
   \   0000C6   F0           MOVX    @DPTR,A
   1298            }
   1299          #endif  // REFLECTOR
   1300          }
   \                     ??ZDO_EndDeviceTimeoutCB_0:
   \   0000C7   02....       LJMP    ?Subroutine2 & 0xFFFF

   \                                 In  segment BANKED_CODE, align 1, keep-with-next
   \                     ?Subroutine52:
   \   000000   F582         MOV     DPL,A
   \   000002   E4           CLR     A
   \   000003   38           ADDC    A,R0
   \   000004   F583         MOV     DPH,A
   \   000006                REQUIRE ??Subroutine183_0
   \   000006                ; // Fall through to label ??Subroutine183_0

   \                                 In  segment BANKED_CODE, align 1, keep-with-next
   \                     ??Subroutine183_0:
   \   000000   12....       LCALL   ??Subroutine211_0 & 0xFFFF
   \                     ??CrossCallReturnLabel_493:
   \   000003   EA           MOV     A,R2
   \   000004   4B           ORL     A,R3
   \   000005   22           RET

   \                                 In  segment BANKED_CODE, align 1, keep-with-next
   \                     ?Subroutine46:
   \   000000   F0           MOVX    @DPTR,A
   \   000001                ; Setup parameters for call to function ZDP_SendData
   \   000001   90....       MOV     DPTR,#ZDO_EDBind
   \   000004   12....       LCALL   ??Subroutine198_0 & 0xFFFF
   \                     ??CrossCallReturnLabel_506:
   \   000007   22           RET

   \                                 In  segment BANKED_CODE, align 1, keep-with-next
   \                     ?Subroutine125:
   \   000000   12....       LCALL   ?Subroutine169 & 0xFFFF
   \                     ??CrossCallReturnLabel_434:
   \   000003   22           RET
   1301          
   1302          /*********************************************************************
   1303           * Optional Management Messages
   1304           */
   1305          
   1306          /*********************************************************************
   1307           * @fn          ZDO_ProcessMgmtLqiReq
   1308           *
   1309           * @brief       This function handles parsing the incoming Management
   1310           *              LQI request and generate the response.
   1311           *
   1312           *   Note:      This function will limit the number of items returned
   1313           *              to ZDO_MAX_LQI_ITEMS items.
   1314           *
   1315           * @param       inMsg - incoming message (request)
   1316           *
   1317           * @return      none
   1318           */

   \                                 In  segment BANKED_CODE, align 1, keep-with-next
   1319          void ZDO_ProcessMgmtLqiReq( zdoIncomingMsg_t *inMsg )
   \                     ZDO_ProcessMgmtLqiReq:
   1320          {
   \   000000                REQUIRE ?V0
   \   000000                REQUIRE ?V1
   \   000000                REQUIRE ?V2
   \   000000                REQUIRE ?V3
   \   000000                REQUIRE ?V4
   \   000000                REQUIRE ?V5
   \   000000                REQUIRE ?V6
   \   000000                REQUIRE ?V7
   \   000000                REQUIRE ?V8
   \   000000                REQUIRE ?V9
   \   000000                REQUIRE ?V10
   \   000000                REQUIRE ?V11
   \   000000                REQUIRE ?V12
   \   000000                REQUIRE ?V13
   \   000000                REQUIRE ?V14
   \   000000                REQUIRE ?V15
   \   000000   74E8         MOV     A,#-0x18
   \   000002   12....       LCALL   ?BANKED_ENTER_XDATA
   \   000005                ; Saved register size: 24
   \   000005                ; Auto size: 37
   \   000005   74DB         MOV     A,#-0x25
   \   000007   12....       LCALL   ?ALLOC_XSTACK8
   \   00000A   8A..         MOV     ?V14,R2
   \   00000C   8B..         MOV     ?V15,R3
   1321            byte x;
   1322            byte index;
   1323            byte numItems;
   1324            byte maxItems;
   1325            ZDP_MgmtLqiItem_t* table = NULL;
   \   00000E   75..00       MOV     ?V12,#0x0
   \   000011   75..00       MOV     ?V13,#0x0
   1326            ZDP_MgmtLqiItem_t* item;
   1327            neighborEntry_t    entry;
   1328            byte aItems;
   1329            associated_devices_t *aDevice;
   1330            AddrMgrEntry_t  nwkEntry;
   1331            uint8 StartIndex = inMsg->asdu[0];
   \   000014   12....       LCALL   ??Subroutine189_0 & 0xFFFF
   \                     ??CrossCallReturnLabel_367:
   \   000017   35..         ADDC    A,?V15
   \   000019   12....       LCALL   ?Subroutine60 & 0xFFFF
   \                     ??CrossCallReturnLabel_350:
   \   00001C   F5..         MOV     ?V4,A
   1332          
   1333            // Get the number of neighbor items
   1334            NLME_GetRequest( nwkNumNeighborTableEntries, 0, &maxItems );
   \   00001E                ; Setup parameters for call to function NLME_GetRequest
   \   00001E   AC..         MOV     R4,?XSP + 0
   \   000020   AD..         MOV     R5,?XSP + 1
   \   000022   7A00         MOV     R2,#0x0
   \   000024   7B00         MOV     R3,#0x0
   \   000026   799C         MOV     R1,#-0x64
   \   000028   12....       LCALL   `??NLME_GetRequest::?relay`; Banked call to: NLME_GetRequest
   1335          
   1336            // Get the number of associated items
   1337            aItems = (uint8)AssocCount( PARENT, CHILD_FFD_RX_IDLE );
   \   00002B                ; Setup parameters for call to function AssocCount
   \   00002B   7A04         MOV     R2,#0x4
   \   00002D   7900         MOV     R1,#0x0
   \   00002F   12....       LCALL   `??AssocCount::?relay`; Banked call to: AssocCount
   \   000032   EA           MOV     A,R2
   \   000033   F5..         MOV     ?V2,A
   1338          
   1339            // Total number of items
   1340            maxItems += aItems;
   \   000035   85..82       MOV     DPL,?XSP + 0
   \   000038   85..83       MOV     DPH,?XSP + 1
   \   00003B   E0           MOVX    A,@DPTR
   \   00003C   2A           ADD     A,R2
   \   00003D   F0           MOVX    @DPTR,A
   1341            
   1342            if ( ZG_DEVICE_ENDDEVICE_TYPE )
   \   00003E   90....       MOV     DPTR,#zgDeviceLogicalType
   \   000041   E0           MOVX    A,@DPTR
   \   000042   6402         XRL     A,#0x2
   \   000044   7009         JNZ     ??ZDO_ProcessMgmtLqiReq_0
   1343            {
   1344              maxItems = 1;
   \   000046   85..82       MOV     DPL,?XSP + 0
   \   000049   85..83       MOV     DPH,?XSP + 1
   \   00004C   7401         MOV     A,#0x1
   \   00004E   F0           MOVX    @DPTR,A
   1345            }
   1346          
   1347            // Start with the supplied index
   1348            if ( maxItems > StartIndex )
   \                     ??ZDO_ProcessMgmtLqiReq_0:
   \   00004F   85..82       MOV     DPL,?XSP + 0
   \   000052   85..83       MOV     DPH,?XSP + 1
   \   000055   E0           MOVX    A,@DPTR
   \   000056   F8           MOV     R0,A
   \   000057   E5..         MOV     A,?V4
   \   000059   C3           CLR     C
   \   00005A   98           SUBB    A,R0
   \   00005B   4003         JC      $+5
   \   00005D   02....       LJMP    ??ZDO_ProcessMgmtLqiReq_1 & 0xFFFF
   1349            {
   1350              numItems = maxItems - StartIndex;
   \   000060   E0           MOVX    A,@DPTR
   \   000061   C3           CLR     C
   \   000062   95..         SUBB    A,?V4
   \   000064   F5..         MOV     ?V1,A
   1351          
   1352              // limit the size of the list
   1353              if ( numItems > ZDO_MAX_LQI_ITEMS )
   \   000066   C3           CLR     C
   \   000067   9404         SUBB    A,#0x4
   \   000069   4003         JC      ??ZDO_ProcessMgmtLqiReq_2
   1354                numItems = ZDO_MAX_LQI_ITEMS;
   \   00006B   75..03       MOV     ?V1,#0x3
   1355          
   1356              // Allocate the memory to build the table
   1357              table = (ZDP_MgmtLqiItem_t*)osal_mem_alloc( (short)
   1358                        ( numItems * sizeof( ZDP_MgmtLqiItem_t ) ) );
   \                     ??ZDO_ProcessMgmtLqiReq_2:
   \   00006E                ; Setup parameters for call to function osal_mem_alloc
   \   00006E   E5..         MOV     A,?V1
   \   000070   75F01A       MOV     B,#0x1a
   \   000073   A4           MUL     AB
   \   000074   FA           MOV     R2,A
   \   000075   ABF0         MOV     R3,B
   \   000077   12....       LCALL   `??osal_mem_alloc::?relay`; Banked call to: osal_mem_alloc
   \   00007A   8A..         MOV     ?V12,R2
   \   00007C   8B..         MOV     ?V13,R3
   1359          
   1360              if ( table != NULL )
   \   00007E   EA           MOV     A,R2
   \   00007F   45..         ORL     A,?V13
   \   000081   7003         JNZ     $+5
   \   000083   02....       LJMP    ??ZDO_ProcessMgmtLqiReq_3 & 0xFFFF
   1361              {
   1362                x = 0;
   \   000086   75..00       MOV     ?V3,#0x0
   1363                item = table;
   \   000089   AE..         MOV     R6,?V12
   \   00008B   AF..         MOV     R7,?V13
   1364                index = StartIndex;
   \   00008D   85....       MOV     ?V0,?V4
   \   000090   02....       LJMP    ??ZDO_ProcessMgmtLqiReq_4 & 0xFFFF
   1365          
   1366                // Loop through associated items and build list
   1367                for ( ; x < numItems; x++ )
   1368                {
   1369                  if ( index < aItems )
   1370                  {
   1371                    // get next associated device
   1372                    aDevice = AssocFindDevice( index++ );
   1373          
   1374                    // set basic fields
   1375                    item->panID   = _NIB.nwkPanId;
   1376                    osal_cpyExtAddr( item->extPanID, _NIB.extendedPANID );
   1377                    item->nwkAddr = aDevice->shortAddr;
   1378                    item->permit  = ZDP_MGMT_BOOL_UNKNOWN;
   1379                    item->depth   = 0xFF;
   1380                    item->lqi     = aDevice->linkInfo.rxLqi;
   1381          
   1382                    // set extented address
   1383                    nwkEntry.user    = ADDRMGR_USER_DEFAULT;
   1384                    nwkEntry.nwkAddr = aDevice->shortAddr;
   1385          
   1386                    if ( AddrMgrEntryLookupNwk( &nwkEntry ) == TRUE )
   1387                    {
   1388                      osal_cpyExtAddr( item->extAddr, nwkEntry.extAddr );
   1389                    }
   1390                    else
   1391                    {
   1392                      osal_memset( item->extAddr, 0xFF, Z_EXTADDR_LEN );
   \                     ??ZDO_ProcessMgmtLqiReq_5:
   \   000093                ; Setup parameters for call to function osal_memset
   \   000093   7C08         MOV     R4,#0x8
   \   000095   7D00         MOV     R5,#0x0
   \   000097   79FF         MOV     R1,#-0x1
   \   000099   AA..         MOV     R2,?V10
   \   00009B   AB..         MOV     R3,?V11
   \   00009D   12....       LCALL   `??osal_memset::?relay`; Banked call to: osal_memset
   1393                    }
   1394          
   1395                    // use association info to set other fields
   1396                    if ( aDevice->nodeRelation == PARENT )
   \                     ??ZDO_ProcessMgmtLqiReq_6:
   \   0000A0   E5..         MOV     A,?V6
   \   0000A2   2404         ADD     A,#0x4
   \   0000A4   F8           MOV     R0,A
   \   0000A5   E4           CLR     A
   \   0000A6   35..         ADDC    A,?V7
   \   0000A8   F9           MOV     R1,A
   \   0000A9   EE           MOV     A,R6
   \   0000AA   2416         ADD     A,#0x16
   \   0000AC   FA           MOV     R2,A
   \   0000AD   E4           CLR     A
   \   0000AE   3F           ADDC    A,R7
   \   0000AF   FB           MOV     R3,A
   \   0000B0   EE           MOV     A,R6
   \   0000B1   2415         ADD     A,#0x15
   \   0000B3   FC           MOV     R4,A
   \   0000B4   E4           CLR     A
   \   0000B5   3F           ADDC    A,R7
   \   0000B6   FD           MOV     R5,A
   \   0000B7   EE           MOV     A,R6
   \   0000B8   2414         ADD     A,#0x14
   \   0000BA   F5..         MOV     ?V10,A
   \   0000BC   E4           CLR     A
   \   0000BD   3F           ADDC    A,R7
   \   0000BE   F5..         MOV     ?V11,A
   \   0000C0   8882         MOV     DPL,R0
   \   0000C2   8983         MOV     DPH,R1
   \   0000C4   E0           MOVX    A,@DPTR
   \   0000C5   702E         JNZ     ??ZDO_ProcessMgmtLqiReq_7
   1397                    {
   1398                      if (  aDevice->shortAddr == 0 )
   \   0000C7   85..82       MOV     DPL,?V6
   \   0000CA   85..83       MOV     DPH,?V7
   \   0000CD   12....       LCALL   ??Subroutine204_0 & 0xFFFF
   \                     ??CrossCallReturnLabel_438:
   \   0000D0   85..82       MOV     DPL,?V10
   \   0000D3   85..83       MOV     DPH,?V11
   \   0000D6   7004         JNZ     ??ZDO_ProcessMgmtLqiReq_8
   1399                      {
   1400                        item->devType = ZDP_MGMT_DT_COORD;
   \   0000D8   E4           CLR     A
   \   0000D9   F0           MOVX    @DPTR,A
   1401                        item->depth = 0;
   \   0000DA   8008         SJMP    ??ZDO_ProcessMgmtLqiReq_9
   1402                      }
   1403                      else
   1404                      {
   1405                        item->devType = ZDP_MGMT_DT_ROUTER;
   \                     ??ZDO_ProcessMgmtLqiReq_8:
   \   0000DC   7401         MOV     A,#0x1
   \   0000DE   F0           MOVX    @DPTR,A
   1406                        item->depth = _NIB.nodeDepth - 1;
   \   0000DF   90....       MOV     DPTR,#_NIB + 52
   \   0000E2   E0           MOVX    A,@DPTR
   \   0000E3   14           DEC     A
   \                     ??ZDO_ProcessMgmtLqiReq_9:
   \   0000E4   85..82       MOV     DPL,?V8
   \   0000E7   85..83       MOV     DPH,?V9
   1407                      }
   1408          
   1409                      item->rxOnIdle = ZDP_MGMT_BOOL_UNKNOWN;
   1410                      item->relation = ZDP_MGMT_REL_PARENT;
   1411                    }
   \   0000EA   12....       LCALL   ?Subroutine29 & 0xFFFF
   \                     ??CrossCallReturnLabel_30:
   \   0000ED   7402         MOV     A,#0x2
   \   0000EF   12....       LCALL   ?Subroutine170 & 0xFFFF
   \                     ??CrossCallReturnLabel_288:
   \   0000F2   E4           CLR     A
   \   0000F3   8033         SJMP    ??ZDO_ProcessMgmtLqiReq_10
   1412                    else
   1413                    {
   1414                      // If not parent, then it's a child
   1415                      item->depth = _NIB.nodeDepth + 1;
   \                     ??ZDO_ProcessMgmtLqiReq_7:
   \   0000F5   90....       MOV     DPTR,#_NIB + 52
   \   0000F8   E0           MOVX    A,@DPTR
   \   0000F9   04           INC     A
   \   0000FA   85..82       MOV     DPL,?V8
   \   0000FD   85..83       MOV     DPH,?V9
   \   000100   12....       LCALL   ?Subroutine44 & 0xFFFF
   1416          
   1417                      if ( aDevice->nodeRelation < CHILD_FFD )
   \                     ??CrossCallReturnLabel_62:
   \   000103   C3           CLR     C
   \   000104   9403         SUBB    A,#0x3
   \   000106   85..82       MOV     DPL,?V10
   \   000109   85..83       MOV     DPH,?V11
   \   00010C   4003         JC      $+5
   \   00010E   02....       LJMP    ??ZDO_ProcessMgmtLqiReq_11 & 0xFFFF
   1418                      {
   1419                        item->devType = ZDP_MGMT_DT_ENDDEV;
   \   000111   7402         MOV     A,#0x2
   \   000113   12....       LCALL   ?Subroutine44 & 0xFFFF
   1420          
   1421                        if ( aDevice->nodeRelation == CHILD_RFD )
   1422                        {
   1423                          item->rxOnIdle = FALSE;
   1424                        }
   1425                        else
   1426                        {
   1427                          item->rxOnIdle = TRUE;
   1428                        }
   1429                      }
   \                     ??CrossCallReturnLabel_63:
   \   000116   6401         XRL     A,#0x1
   \   000118   7003         JNZ     $+5
   \   00011A   02....       LJMP    ??ZDO_ProcessMgmtLqiReq_12 & 0xFFFF
   1430                      else
   1431                      {
   1432                        item->devType = ZDP_MGMT_DT_ROUTER;
   1433          
   1434                        if ( aDevice->nodeRelation == CHILD_FFD )
   1435                        {
   1436                          item->rxOnIdle = FALSE;
   1437                        }
   1438                        else
   1439                        {
   1440                          item->rxOnIdle = TRUE;
   \                     ??ZDO_ProcessMgmtLqiReq_13:
   \   00011D   8C82         MOV     DPL,R4
   \   00011F   8D83         MOV     DPH,R5
   \   000121   7401         MOV     A,#0x1
   1441                        }
   \                     ??ZDO_ProcessMgmtLqiReq_14:
   \   000123   12....       LCALL   ?Subroutine170 & 0xFFFF
   1442                      }
   1443          
   1444                      item->relation = ZDP_MGMT_REL_CHILD;
   \                     ??CrossCallReturnLabel_289:
   \   000126   7401         MOV     A,#0x1
   \                     ??ZDO_ProcessMgmtLqiReq_10:
   \   000128   F0           MOVX    @DPTR,A
   1445                    }
   1446          
   1447                    item++;
   \   000129   EE           MOV     A,R6
   \   00012A   241A         ADD     A,#0x1a
   \   00012C   FE           MOV     R6,A
   \   00012D   5001         JNC     ??ZDO_ProcessMgmtLqiReq_15
   \   00012F   0F           INC     R7
   \                     ??ZDO_ProcessMgmtLqiReq_15:
   \   000130   05..         INC     ?V3
   \                     ??ZDO_ProcessMgmtLqiReq_4:
   \   000132   E5..         MOV     A,?V3
   \   000134   C3           CLR     C
   \   000135   95..         SUBB    A,?V1
   \   000137   4003         JC      $+5
   \   000139   02....       LJMP    ??ZDO_ProcessMgmtLqiReq_16 & 0xFFFF
   \   00013C   E5..         MOV     A,?V0
   \   00013E   C3           CLR     C
   \   00013F   95..         SUBB    A,?V2
   \   000141   4003         JC      $+5
   \   000143   02....       LJMP    ??ZDO_ProcessMgmtLqiReq_17 & 0xFFFF
   \   000146                ; Setup parameters for call to function AssocFindDevice
   \   000146   AA..         MOV     R2,?V0
   \   000148   7B00         MOV     R3,#0x0
   \   00014A   12....       LCALL   `??AssocFindDevice::?relay`; Banked call to: AssocFindDevice
   \   00014D   8A..         MOV     ?V6,R2
   \   00014F   8B..         MOV     ?V7,R3
   \   000151   05..         INC     ?V0
   \   000153   90....       MOV     DPTR,#_NIB + 33
   \   000156   12....       LCALL   ?Subroutine14 & 0xFFFF
   \                     ??CrossCallReturnLabel_8:
   \   000159   12....       LCALL   `??sAddrExtCpy::?relay`; Banked call to: sAddrExtCpy
   \   00015C   12....       LCALL   ?Subroutine88 & 0xFFFF
   \                     ??CrossCallReturnLabel_502:
   \   00015F   EE           MOV     A,R6
   \   000160   2412         ADD     A,#0x12
   \   000162   F582         MOV     DPL,A
   \   000164   E4           CLR     A
   \   000165   3F           ADDC    A,R7
   \   000166   F583         MOV     DPH,A
   \   000168   E8           MOV     A,R0
   \   000169   F0           MOVX    @DPTR,A
   \   00016A   A3           INC     DPTR
   \   00016B   E9           MOV     A,R1
   \   00016C   12....       LCALL   ?Subroutine13 & 0xFFFF
   \                     ??CrossCallReturnLabel_6:
   \   00016F   12....       LCALL   ?Subroutine117 & 0xFFFF
   \                     ??CrossCallReturnLabel_189:
   \   000172   74FF         MOV     A,#-0x1
   \   000174   F0           MOVX    @DPTR,A
   \   000175   85..82       MOV     DPL,?V6
   \   000178   85..83       MOV     DPH,?V7
   \   00017B   A3           INC     DPTR
   \   00017C   A3           INC     DPTR
   \   00017D   A3           INC     DPTR
   \   00017E   A3           INC     DPTR
   \   00017F   A3           INC     DPTR
   \   000180   A3           INC     DPTR
   \   000181   A3           INC     DPTR
   \   000182   A3           INC     DPTR
   \   000183   A3           INC     DPTR
   \   000184   A3           INC     DPTR
   \   000185   E0           MOVX    A,@DPTR
   \   000186   C0E0         PUSH    A
   \   000188   12....       LCALL   ?Subroutine137 & 0xFFFF
   \                     ??CrossCallReturnLabel_237:
   \   00018B   D0E0         POP     A
   \   00018D   F0           MOVX    @DPTR,A
   \   00018E   7401         MOV     A,#0x1
   \   000190   12....       LCALL   ?XSTACK_DISP0_8
   \   000193   E4           CLR     A
   \   000194   F0           MOVX    @DPTR,A
   \   000195   12....       LCALL   ?Subroutine88 & 0xFFFF
   \                     ??CrossCallReturnLabel_503:
   \   000198   7402         MOV     A,#0x2
   \   00019A   12....       LCALL   ?XSTACK_DISP0_8
   \   00019D   12....       LCALL   ?Subroutine40 & 0xFFFF
   \                     ??CrossCallReturnLabel_389:
   \   0001A0   EE           MOV     A,R6
   \   0001A1   240A         ADD     A,#0xa
   \   0001A3   F5..         MOV     ?V10,A
   \   0001A5   E4           CLR     A
   \   0001A6   3F           ADDC    A,R7
   \   0001A7   F5..         MOV     ?V11,A
   \   0001A9                ; Setup parameters for call to function AddrMgrEntryLookupNwk
   \   0001A9   7401         MOV     A,#0x1
   \   0001AB   12....       LCALL   ?XSTACK_DISP101_8
   \   0001AE   12....       LCALL   `??AddrMgrEntryLookupNwk::?relay`; Banked call to: AddrMgrEntryLookupNwk
   \   0001B1   E9           MOV     A,R1
   \   0001B2   6401         XRL     A,#0x1
   \   0001B4   6003         JZ      $+5
   \   0001B6   02....       LJMP    ??ZDO_ProcessMgmtLqiReq_5 & 0xFFFF
   \   0001B9                ; Setup parameters for call to function sAddrExtCpy
   \   0001B9   7404         MOV     A,#0x4
   \   0001BB   12....       LCALL   ?XSTACK_DISP0_8
   \   0001BE   AC82         MOV     R4,DPL
   \   0001C0   AD83         MOV     R5,DPH
   \   0001C2   AA..         MOV     R2,?V10
   \   0001C4   AB..         MOV     R3,?V11
   \   0001C6   12....       LCALL   `??sAddrExtCpy::?relay`; Banked call to: sAddrExtCpy
   \   0001C9   02....       LJMP    ??ZDO_ProcessMgmtLqiReq_6 & 0xFFFF
   \                     ??ZDO_ProcessMgmtLqiReq_11:
   \   0001CC   7401         MOV     A,#0x1
   \   0001CE   12....       LCALL   ?Subroutine44 & 0xFFFF
   \                     ??CrossCallReturnLabel_64:
   \   0001D1   6403         XRL     A,#0x3
   \   0001D3   6003         JZ      $+5
   \   0001D5   02....       LJMP    ??ZDO_ProcessMgmtLqiReq_13 & 0xFFFF
   \                     ??ZDO_ProcessMgmtLqiReq_12:
   \   0001D8   8C82         MOV     DPL,R4
   \   0001DA   8D83         MOV     DPH,R5
   \   0001DC   E4           CLR     A
   \   0001DD   02....       LJMP    ??ZDO_ProcessMgmtLqiReq_14 & 0xFFFF
   1448                  }
   1449                  else
   1450                  {
   1451                    if ( StartIndex <= aItems )
   \                     ??ZDO_ProcessMgmtLqiReq_17:
   \   0001E0   E5..         MOV     A,?V2
   \   0001E2   C3           CLR     C
   \   0001E3   95..         SUBB    A,?V4
   \   0001E5   4005         JC      ??ZDO_ProcessMgmtLqiReq_18
   1452                      // Start with 1st neighbor
   1453                      index = 0;
   \   0001E7   75..00       MOV     ?V0,#0x0
   \   0001EA   801F         SJMP    ??ZDO_ProcessMgmtLqiReq_19
   1454                    else
   1455                      // Start with >1st neighbor
   1456                      index = StartIndex - aItems;
   \                     ??ZDO_ProcessMgmtLqiReq_18:
   \   0001EC   E5..         MOV     A,?V4
   \   0001EE   C3           CLR     C
   \   0001EF   95..         SUBB    A,?V2
   \   0001F1   F5..         MOV     ?V0,A
   \   0001F3   8016         SJMP    ??ZDO_ProcessMgmtLqiReq_19
   1457                    break;
   1458                  }
   1459                }
   1460          
   1461                // Loop through neighbor items and finish list
   1462                for ( ; x < numItems; x++ )
   1463                {
   1464                  // Add next neighbor table item
   1465                  NLME_GetRequest( nwkNeighborTable, index++, &entry );
   1466          
   1467                  // set ZDP_MgmtLqiItem_t fields
   1468                  item->panID    = entry.panId;
   1469                  osal_cpyExtAddr( item->extPanID, _NIB.extendedPANID );
   1470                  osal_cpyExtAddr( item->extAddr, entry.neighborExtAddr);
   1471                  item->nwkAddr  = entry.neighborAddress;
   1472                  item->rxOnIdle = ZDP_MGMT_BOOL_UNKNOWN;
   1473                  item->relation = ZDP_MGMT_REL_UNKNOWN;
   1474                  item->permit   = ZDP_MGMT_BOOL_UNKNOWN;
   1475                  item->depth    = 0xFF;
   1476                  item->lqi      = entry.linkInfo.rxLqi;
   1477          
   1478                  if ( item->nwkAddr == 0 )
   1479                  {
   1480                    item->devType = ZDP_MGMT_DT_COORD;
   1481                  }
   1482                  else
   1483                  {
   1484                    item->devType = ZDP_MGMT_DT_ROUTER;
   \                     ??ZDO_ProcessMgmtLqiReq_20:
   \   0001F5   7401         MOV     A,#0x1
   \                     ??ZDO_ProcessMgmtLqiReq_21:
   \   0001F7   F0           MOVX    @DPTR,A
   1485                  }
   1486          
   1487                  item++;
   \   0001F8   EE           MOV     A,R6
   \   0001F9   241A         ADD     A,#0x1a
   \   0001FB   FE           MOV     R6,A
   \   0001FC   5001         JNC     ??ZDO_ProcessMgmtLqiReq_22
   \   0001FE   0F           INC     R7
   \                     ??ZDO_ProcessMgmtLqiReq_22:
   \   0001FF   05..         INC     ?V3
   \                     ??ZDO_ProcessMgmtLqiReq_16:
   \   000201   E5..         MOV     A,?V3
   \   000203   C3           CLR     C
   \   000204   95..         SUBB    A,?V1
   \   000206   4003         JC      $+5
   \   000208   02....       LJMP    ??ZDO_ProcessMgmtLqiReq_3 & 0xFFFF
   \                     ??ZDO_ProcessMgmtLqiReq_19:
   \   00020B                ; Setup parameters for call to function NLME_GetRequest
   \   00020B   740E         MOV     A,#0xe
   \   00020D   12....       LCALL   ?XSTACK_DISP102_8
   \   000210   AA..         MOV     R2,?V0
   \   000212   7B00         MOV     R3,#0x0
   \   000214   7987         MOV     R1,#-0x79
   \   000216   12....       LCALL   `??NLME_GetRequest::?relay`; Banked call to: NLME_GetRequest
   \   000219   05..         INC     ?V0
   \   00021B   7418         MOV     A,#0x18
   \   00021D   12....       LCALL   ?XSTACK_DISP0_8
   \   000220   12....       LCALL   ?Subroutine14 & 0xFFFF
   \                     ??CrossCallReturnLabel_9:
   \   000223   12....       LCALL   `??sAddrExtCpy::?relay`; Banked call to: sAddrExtCpy
   \   000226                ; Setup parameters for call to function sAddrExtCpy
   \   000226   7410         MOV     A,#0x10
   \   000228   12....       LCALL   ?XSTACK_DISP0_8
   \   00022B   AC82         MOV     R4,DPL
   \   00022D   AD83         MOV     R5,DPH
   \   00022F   12....       LCALL   ?Subroutine132 & 0xFFFF
   \                     ??CrossCallReturnLabel_592:
   \   000232   3F           ADDC    A,R7
   \   000233   FB           MOV     R3,A
   \   000234   12....       LCALL   `??sAddrExtCpy::?relay`; Banked call to: sAddrExtCpy
   \   000237   EE           MOV     A,R6
   \   000238   2412         ADD     A,#0x12
   \   00023A   F8           MOV     R0,A
   \   00023B   E4           CLR     A
   \   00023C   3F           ADDC    A,R7
   \   00023D   F9           MOV     R1,A
   \   00023E   740E         MOV     A,#0xe
   \   000240   12....       LCALL   ?XSTACK_DISP0_8
   \   000243   12....       LCALL   ??Subroutine200_0 & 0xFFFF
   \                     ??CrossCallReturnLabel_408:
   \   000246   8882         MOV     DPL,R0
   \   000248   8983         MOV     DPH,R1
   \   00024A   12....       LCALL   ??Subroutine184_0 & 0xFFFF
   \                     ??CrossCallReturnLabel_329:
   \   00024D   EE           MOV     A,R6
   \   00024E   2415         ADD     A,#0x15
   \   000250   F582         MOV     DPL,A
   \   000252   E4           CLR     A
   \   000253   3F           ADDC    A,R7
   \   000254   F583         MOV     DPH,A
   \   000256   7402         MOV     A,#0x2
   \   000258   F0           MOVX    @DPTR,A
   \   000259   EE           MOV     A,R6
   \   00025A   2416         ADD     A,#0x16
   \   00025C   F582         MOV     DPL,A
   \   00025E   E4           CLR     A
   \   00025F   3F           ADDC    A,R7
   \   000260   F583         MOV     DPH,A
   \   000262   7403         MOV     A,#0x3
   \   000264   12....       LCALL   ?Subroutine13 & 0xFFFF
   \                     ??CrossCallReturnLabel_7:
   \   000267   F582         MOV     DPL,A
   \   000269   E4           CLR     A
   \   00026A   3F           ADDC    A,R7
   \   00026B   F583         MOV     DPH,A
   \   00026D   74FF         MOV     A,#-0x1
   \   00026F   F0           MOVX    @DPTR,A
   \   000270   741D         MOV     A,#0x1d
   \   000272   12....       LCALL   ?XSTACK_DISP0_8
   \   000275   E0           MOVX    A,@DPTR
   \   000276   C0E0         PUSH    A
   \   000278   12....       LCALL   ?Subroutine137 & 0xFFFF
   \                     ??CrossCallReturnLabel_238:
   \   00027B   D0E0         POP     A
   \   00027D   F0           MOVX    @DPTR,A
   \   00027E   EE           MOV     A,R6
   \   00027F   2414         ADD     A,#0x14
   \   000281   FA           MOV     R2,A
   \   000282   E4           CLR     A
   \   000283   3F           ADDC    A,R7
   \   000284   FB           MOV     R3,A
   \   000285   8882         MOV     DPL,R0
   \   000287   8983         MOV     DPH,R1
   \   000289   12....       LCALL   ??Subroutine204_0 & 0xFFFF
   \                     ??CrossCallReturnLabel_439:
   \   00028C   8A82         MOV     DPL,R2
   \   00028E   8B83         MOV     DPH,R3
   \   000290   6003         JZ      $+5
   \   000292   02....       LJMP    ??ZDO_ProcessMgmtLqiReq_20 & 0xFFFF
   \   000295   E4           CLR     A
   \   000296   02....       LJMP    ??ZDO_ProcessMgmtLqiReq_21 & 0xFFFF
   1488                }
   1489              }
   1490            }
   1491            else
   1492            {
   1493              numItems = 0;
   \                     ??ZDO_ProcessMgmtLqiReq_1:
   \   000299   75..00       MOV     ?V1,#0x0
   1494            }
   1495          
   1496            // Send response
   1497            ZDP_MgmtLqiRsp( inMsg->TransSeq, &(inMsg->srcAddr), ZSuccess, maxItems,
   1498                            StartIndex, numItems, table, false );
   \                     ??ZDO_ProcessMgmtLqiReq_3:
   \   00029C                ; Setup parameters for call to function ZDP_MgmtLqiRsp
   \   00029C   75..00       MOV     ?V2,#0x0
   \   00029F   78..         MOV     R0,#?V2
   \   0002A1   12....       LCALL   ?PUSH_XSTACK_I_ONE
   \   0002A4   78..         MOV     R0,#?V12
   \   0002A6   12....       LCALL   ?PUSH_XSTACK_I_TWO
   \   0002A9   78..         MOV     R0,#?V1
   \   0002AB   12....       LCALL   ?PUSH_XSTACK_I_ONE
   \   0002AE   E5..         MOV     A,?V4
   \   0002B0   F5..         MOV     ?V1,A
   \   0002B2   78..         MOV     R0,#?V1
   \   0002B4   12....       LCALL   ?PUSH_XSTACK_I_ONE
   \   0002B7   7405         MOV     A,#0x5
   \   0002B9   12....       LCALL   ?XSTACK_DISP0_8
   \   0002BC   E0           MOVX    A,@DPTR
   \   0002BD   FD           MOV     R5,A
   \   0002BE   7C00         MOV     R4,#0x0
   \   0002C0   E5..         MOV     A,?V14
   \   0002C2   12....       LCALL   ??Subroutine188_0 & 0xFFFF
   \                     ??CrossCallReturnLabel_358:
   \   0002C5   35..         ADDC    A,?V15
   \   0002C7   FB           MOV     R3,A
   \   0002C8   E5..         MOV     A,?V14
   \   0002CA   12....       LCALL   ?Subroutine121 & 0xFFFF
   \                     ??CrossCallReturnLabel_195:
   \   0002CD   35..         ADDC    A,?V15
   \   0002CF   F583         MOV     DPH,A
   \   0002D1   E0           MOVX    A,@DPTR
   \   0002D2   F9           MOV     R1,A
   \   0002D3   12....       LCALL   `??ZDP_MgmtLqiRsp::?relay`; Banked call to: ZDP_MgmtLqiRsp
   \   0002D6   7405         MOV     A,#0x5
   \   0002D8   12....       LCALL   ?DEALLOC_XSTACK8
   1499          
   1500            if ( table )
   \   0002DB   E5..         MOV     A,?V12
   \   0002DD   45..         ORL     A,?V13
   \   0002DF   6007         JZ      ??ZDO_ProcessMgmtLqiReq_23
   1501            {
   1502              osal_mem_free( table );
   \   0002E1                ; Setup parameters for call to function osal_mem_free
   \   0002E1   AA..         MOV     R2,?V12
   \   0002E3   AB..         MOV     R3,?V13
   \   0002E5   12....       LCALL   `??osal_mem_free::?relay`; Banked call to: osal_mem_free
   1503            }
   1504          }
   \                     ??ZDO_ProcessMgmtLqiReq_23:
   \   0002E8   7425         MOV     A,#0x25
   \   0002EA   02....       LJMP    ?Subroutine6 & 0xFFFF

   \                                 In  segment BANKED_CODE, align 1, keep-with-next
   \                     ?Subroutine137:
   \   000000   EE           MOV     A,R6
   \   000001   2419         ADD     A,#0x19
   \   000003   F582         MOV     DPL,A
   \   000005   E4           CLR     A
   \   000006   3F           ADDC    A,R7
   \   000007   F583         MOV     DPH,A
   \   000009   22           RET

   \                                 In  segment BANKED_CODE, align 1, keep-with-next
   \                     ?Subroutine14:
   \   000000   12....       LCALL   ??Subroutine198_0 & 0xFFFF
   \                     ??CrossCallReturnLabel_505:
   \   000003   F9           MOV     R1,A
   \   000004   8E82         MOV     DPL,R6
   \   000006   8F83         MOV     DPH,R7
   \   000008   E8           MOV     A,R0
   \   000009   F0           MOVX    @DPTR,A
   \   00000A   A3           INC     DPTR
   \   00000B   E9           MOV     A,R1
   \   00000C   F0           MOVX    @DPTR,A
   \   00000D                ; Setup parameters for call to function sAddrExtCpy
   \   00000D                ; Setup parameters for call to function sAddrExtCpy
   \   00000D   7C..         MOV     R4,#(_NIB + 53) & 0xff
   \   00000F   7D..         MOV     R5,#((_NIB + 53) >> 8) & 0xff
   \   000011   EE           MOV     A,R6
   \   000012   2402         ADD     A,#0x2
   \   000014   FA           MOV     R2,A
   \   000015   E4           CLR     A
   \   000016   3F           ADDC    A,R7
   \   000017   FB           MOV     R3,A
   \   000018   22           RET

   \                                 In  segment BANKED_CODE, align 1, keep-with-next
   \                     ?Subroutine13:
   \   000000   F0           MOVX    @DPTR,A
   \   000001   EE           MOV     A,R6
   \   000002   2417         ADD     A,#0x17
   \   000004   F582         MOV     DPL,A
   \   000006   E4           CLR     A
   \   000007   3F           ADDC    A,R7
   \   000008   F583         MOV     DPH,A
   \   00000A   7402         MOV     A,#0x2
   \   00000C   F0           MOVX    @DPTR,A
   \   00000D   EE           MOV     A,R6
   \   00000E   2418         ADD     A,#0x18
   \   000010   22           RET

   \                                 In  segment BANKED_CODE, align 1, keep-with-next
   \                     ?Subroutine60:
   \   000000   F583         MOV     DPH,A
   \   000002                REQUIRE ??Subroutine187_0
   \   000002                ; // Fall through to label ??Subroutine187_0

   \                                 In  segment BANKED_CODE, align 1, keep-with-next
   \                     ?Subroutine121:
   \   000000   240F         ADD     A,#0xf
   \   000002   F582         MOV     DPL,A
   \   000004   E4           CLR     A
   \   000005   22           RET

   \                                 In  segment BANKED_CODE, align 1, keep-with-next
   \                     ??Subroutine189_0:
   \   000000   EA           MOV     A,R2
   \   000001                REQUIRE ??Subroutine190_0
   \   000001                ; // Fall through to label ??Subroutine190_0

   \                                 In  segment BANKED_CODE, align 1, keep-with-next
   \                     ?Subroutine117:
   \   000000   F5..         MOV     ?V8,A
   \   000002   E4           CLR     A
   \   000003   3F           ADDC    A,R7
   \   000004   F5..         MOV     ?V9,A
   \   000006   85..82       MOV     DPL,?V8
   \   000009   F583         MOV     DPH,A
   \   00000B   22           RET

   \                                 In  segment BANKED_CODE, align 1, keep-with-next
   \                     ?Subroutine88:
   \   000000   85..82       MOV     DPL,?V6
   \   000003   85..83       MOV     DPH,?V7
   \   000006                REQUIRE ??Subroutine212_0
   \   000006                ; // Fall through to label ??Subroutine212_0

   \                                 In  segment BANKED_CODE, align 1, keep-with-next
   \                     ?Subroutine44:
   \   000000   12....       LCALL   ?Subroutine148 & 0xFFFF
   \                     ??CrossCallReturnLabel_259:
   \   000003   22           RET

   \                                 In  segment BANKED_CODE, align 1, keep-with-next
   \                     ?Subroutine148:
   \   000000   F0           MOVX    @DPTR,A
   \   000001   8882         MOV     DPL,R0
   \   000003   8983         MOV     DPH,R1
   \   000005   E0           MOVX    A,@DPTR
   \   000006   22           RET

   \                                 In  segment BANKED_CODE, align 1, keep-with-next
   \                     ?Subroutine170:
   \   000000   F0           MOVX    @DPTR,A
   \   000001   8A82         MOV     DPL,R2
   \   000003   8B83         MOV     DPH,R3
   \   000005   22           RET
   1505          
   1506          /*********************************************************************
   1507           * @fn          ZDO_ProcessMgmtNwkDiscReq
   1508           *
   1509           * @brief       This function handles parsing the incoming Management
   1510           *              Network Discover request and starts the request.
   1511           *
   1512           * @param       inMsg - incoming message (request)
   1513           *
   1514           * @return      none
   1515           */

   \                                 In  segment BANKED_CODE, align 1, keep-with-next
   1516          void ZDO_ProcessMgmtNwkDiscReq( zdoIncomingMsg_t *inMsg )
   \                     ZDO_ProcessMgmtNwkDiscReq:
   1517          {
   \   000000                REQUIRE ?V0
   \   000000                REQUIRE ?V1
   \   000000   74F6         MOV     A,#-0xa
   \   000002   12....       LCALL   ?BANKED_ENTER_XDATA
   \   000005                ; Saved register size: 10
   \   000005                ; Auto size: 7
   \   000005   74F9         MOV     A,#-0x7
   \   000007   12....       LCALL   ?ALLOC_XSTACK8
   \   00000A   12....       LCALL   ?Subroutine111 & 0xFFFF
   1518            NLME_ScanFields_t scan;
   1519            uint8             index;
   1520            uint8             *msg;
   1521          
   1522            msg = inMsg->asdu;
   \                     ??CrossCallReturnLabel_364:
   \   00000D   35..         ADDC    A,?V1
   \   00000F   12....       LCALL   ?Subroutine79 & 0xFFFF
   1523            scan.channels = osal_build_uint32( msg, 4 );
   \                     ??CrossCallReturnLabel_112:
   \   000012   12....       LCALL   `??osal_build_uint32::?relay`; Banked call to: osal_build_uint32
   \   000015   EA           MOV     A,R2
   \   000016   F8           MOV     R0,A
   \   000017   EB           MOV     A,R3
   \   000018   F9           MOV     R1,A
   \   000019   EC           MOV     A,R4
   \   00001A   FA           MOV     R2,A
   \   00001B   ED           MOV     A,R5
   \   00001C   FB           MOV     R3,A
   \   00001D   85..82       MOV     DPL,?XSP + 0
   \   000020   85..83       MOV     DPH,?XSP + 1
   \   000023   12....       LCALL   ?XSTORE_R0123
   1524            msg += 4;
   1525            scan.duration = *msg++;
   \   000026   8E82         MOV     DPL,R6
   \   000028   8F83         MOV     DPH,R7
   \   00002A   A3           INC     DPTR
   \   00002B   A3           INC     DPTR
   \   00002C   A3           INC     DPTR
   \   00002D   A3           INC     DPTR
   \   00002E   E0           MOVX    A,@DPTR
   \   00002F   C0E0         PUSH    A
   \   000031   7404         MOV     A,#0x4
   \   000033   12....       LCALL   ?XSTACK_DISP0_8
   \   000036   D0E0         POP     A
   \   000038   12....       LCALL   ?Subroutine28 & 0xFFFF
   1526            index         = *msg;
   \                     ??CrossCallReturnLabel_27:
   \   00003B   F8           MOV     R0,A
   1527            scan.scanType = ZMAC_ACTIVE_SCAN;
   \   00003C   7405         MOV     A,#0x5
   \   00003E   12....       LCALL   ?XSTACK_DISP0_8
   \   000041   7401         MOV     A,#0x1
   \   000043   F0           MOVX    @DPTR,A
   1528            scan.scanApp  = NLME_DISC_SCAN;
   \   000044   7406         MOV     A,#0x6
   \   000046   12....       LCALL   ?XSTACK_DISP0_8
   \   000049   7401         MOV     A,#0x1
   \   00004B   F0           MOVX    @DPTR,A
   1529          
   1530            // Save off the information to be used for the response
   1531            zdappMgmtNwkDiscReqInProgress          = true;
   \   00004C   90....       MOV     DPTR,#zdappMgmtNwkDiscReqInProgress
   \   00004F   F0           MOVX    @DPTR,A
   1532            zdappMgmtNwkDiscRspAddr.addrMode       = Addr16Bit;
   \   000050   90....       MOV     DPTR,#zdappMgmtNwkDiscRspAddr + 8
   \   000053   04           INC     A
   \   000054   12....       LCALL   ?Subroutine36 & 0xFFFF
   1533            zdappMgmtNwkDiscRspAddr.addr.shortAddr = inMsg->srcAddr.addr.shortAddr;
   \                     ??CrossCallReturnLabel_48:
   \   000057   FA           MOV     R2,A
   \   000058   A3           INC     DPTR
   \   000059   E0           MOVX    A,@DPTR
   \   00005A   FB           MOV     R3,A
   \   00005B   90....       MOV     DPTR,#zdappMgmtNwkDiscRspAddr
   \   00005E   12....       LCALL   ??Subroutine184_0 & 0xFFFF
   1534            zdappMgmtNwkDiscStartIndex             = index;
   \                     ??CrossCallReturnLabel_330:
   \   000061   E8           MOV     A,R0
   \   000062   90....       MOV     DPTR,#zdappMgmtNwkDiscStartIndex
   \   000065   F0           MOVX    @DPTR,A
   1535            zdappMgmtNwkDiscRspTransSeq            = inMsg->TransSeq;
   \   000066   12....       LCALL   ?Subroutine120 & 0xFFFF
   \                     ??CrossCallReturnLabel_193:
   \   000069   E0           MOVX    A,@DPTR
   \   00006A   90....       MOV     DPTR,#zdappMgmtNwkDiscRspTransSeq
   \   00006D   F0           MOVX    @DPTR,A
   1536          
   1537            if ( NLME_NwkDiscReq2( &scan ) != ZSuccess )
   \   00006E                ; Setup parameters for call to function NLME_NwkDiscReq2
   \   00006E   AA..         MOV     R2,?XSP + 0
   \   000070   AB..         MOV     R3,?XSP + 1
   \   000072   12....       LCALL   `??NLME_NwkDiscReq2::?relay`; Banked call to: NLME_NwkDiscReq2
   \   000075   E9           MOV     A,R1
   \   000076   6003         JZ      ??ZDO_ProcessMgmtNwkDiscReq_0
   1538            {
   1539              NLME_NwkDiscTerm();
   \   000078                ; Setup parameters for call to function NLME_NwkDiscTerm
   \   000078   12....       LCALL   `??NLME_NwkDiscTerm::?relay`; Banked call to: NLME_NwkDiscTerm
   1540          
   1541              // zdappMgmtNwkDiscReqInProgress will be reset in the confirm callback
   1542            }
   1543          }
   \                     ??ZDO_ProcessMgmtNwkDiscReq_0:
   \   00007B   7407         MOV     A,#0x7
   \   00007D   02....       LJMP    ??Subroutine179_0 & 0xFFFF

   \                                 In  segment BANKED_CODE, align 1, keep-with-next
   \                     ?Subroutine111:
   \   000000   8A..         MOV     ?V0,R2
   \   000002   8B..         MOV     ?V1,R3
   \   000004                REQUIRE ??Subroutine189_0
   \   000004                ; // Fall through to label ??Subroutine189_0

   \                                 In  segment BANKED_CODE, align 1, keep-with-next
   \                     ?Subroutine36:
   \   000000   F0           MOVX    @DPTR,A
   \   000001   85..82       MOV     DPL,?V0
   \   000004   85..83       MOV     DPH,?V1
   \   000007   A3           INC     DPTR
   \   000008   A3           INC     DPTR
   \   000009   E0           MOVX    A,@DPTR
   \   00000A   22           RET

   \                                 In  segment BANKED_CODE, align 1, keep-with-next
   \                     ?Subroutine28:
   \   000000   12....       LCALL   ?Subroutine144 & 0xFFFF
   \                     ??CrossCallReturnLabel_250:
   \   000003   E0           MOVX    A,@DPTR
   \   000004   22           RET

   \                                 In  segment BANKED_CODE, align 1, keep-with-next
   \                     ?Subroutine120:
   \   000000   E5..         MOV     A,?V0
   \   000002   240F         ADD     A,#0xf
   \   000004   F582         MOV     DPL,A
   \   000006   E4           CLR     A
   \   000007   35..         ADDC    A,?V1
   \   000009   F583         MOV     DPH,A
   \   00000B   22           RET

   \                                 In  segment BANKED_CODE, align 1, keep-with-next
   \                     ?Subroutine144:
   \   000000   12....       LCALL   ?Subroutine173 & 0xFFFF
   \                     ??CrossCallReturnLabel_299:
   \   000003   A3           INC     DPTR
   \   000004   A3           INC     DPTR
   \   000005   22           RET

   \                                 In  segment BANKED_CODE, align 1, keep-with-next
   \                     ?Subroutine79:
   \   000000   F583         MOV     DPH,A
   \   000002   E0           MOVX    A,@DPTR
   \   000003   FE           MOV     R6,A
   \   000004   A3           INC     DPTR
   \   000005   E0           MOVX    A,@DPTR
   \   000006   FF           MOV     R7,A
   \   000007                ; Setup parameters for call to function osal_build_uint32
   \   000007                ; Setup parameters for call to function osal_build_uint32
   \   000007   7904         MOV     R1,#0x4
   \   000009   EE           MOV     A,R6
   \   00000A   FA           MOV     R2,A
   \   00000B   EF           MOV     A,R7
   \   00000C   FB           MOV     R3,A
   \   00000D   22           RET
   1544          
   1545          #if defined ( ZDO_MGMT_NWKDISC_RESPONSE )
   1546          /*********************************************************************
   1547           * @fn          ZDO_FinishProcessingMgmtNwkDiscReq
   1548           *
   1549           * @brief       This function finishes the processing of the Management
   1550           *              Network Discover Request and generates the response.
   1551           *
   1552           *   Note:      This function will limit the number of items returned
   1553           *              to ZDO_MAX_NWKDISC_ITEMS items.
   1554           *
   1555           * @param       ResultCountSrcAddr - source of the request
   1556           * @param       msg - pointer to incoming message
   1557           * @param       SecurityUse -
   1558           *
   1559           * @return      none
   1560           */
   1561          void ZDO_FinishProcessingMgmtNwkDiscReq( void )
   1562          {
   1563            byte count, i, ResultCount = 0;
   1564            networkDesc_t *newDesc = NULL, *pList, *NetworkList;
   1565          
   1566            NetworkList = nwk_getNwkDescList();
   1567          
   1568            // Count the number of nwk descriptors in the list
   1569            pList = nwk_getNwkDescList();
   1570            while (pList)
   1571            {
   1572              ResultCount++;
   1573              pList = pList->nextDesc;
   1574            }
   1575          
   1576            if ( ZSTACK_ROUTER_BUILD )
   1577            {
   1578              // Look for my PanID.
   1579              pList = nwk_getNwkDescList();
   1580              while ( pList )
   1581              {
   1582                if ( pList->panId == _NIB.nwkPanId )
   1583                {
   1584                  break;
   1585                }
   1586          
   1587          
   1588                if ( !pList->nextDesc )
   1589                {
   1590                  break;
   1591                }
   1592                pList = pList->nextDesc;
   1593              }
   1594          
   1595          
   1596              // If my Pan not present (query to a star network ZC or an isolated ZR?),
   1597              // prepend it.
   1598              if ( !pList || (pList->panId != _NIB.nwkPanId) )
   1599              {
   1600                newDesc = (networkDesc_t *)osal_mem_alloc( sizeof( networkDesc_t ) );
   1601                if ( newDesc )
   1602                {
   1603                  byte pJoin;
   1604          
   1605                  newDesc->panId = _NIB.nwkPanId;
   1606                  newDesc->logicalChannel = _NIB.nwkLogicalChannel;
   1607                  newDesc->version = NLME_GetProtocolVersion();
   1608                  newDesc->stackProfile = zgStackProfile;
   1609          
   1610                  //Extended PanID
   1611                  osal_cpyExtAddr( newDesc->extendedPANID, _NIB.extendedPANID);
   1612          
   1613                  ZMacGetReq( ZMacAssociationPermit, &pJoin );
   1614                  newDesc->chosenRouter = ((pJoin) ? ZDAppNwkAddr.addr.shortAddr :
   1615                                                     INVALID_NODE_ADDR);
   1616          
   1617                  newDesc->nextDesc = NetworkList;
   1618                  NetworkList = newDesc;
   1619                  ResultCount++;
   1620                }
   1621              }
   1622            }
   1623          
   1624            // Calc the count and apply a max count.
   1625            if ( zdappMgmtNwkDiscStartIndex > ResultCount )
   1626            {
   1627              count = 0;
   1628            }
   1629            else
   1630            {
   1631              count = ResultCount - zdappMgmtNwkDiscStartIndex;
   1632              if ( count > ZDO_MAX_NWKDISC_ITEMS )
   1633              {
   1634                count = ZDO_MAX_NWKDISC_ITEMS;
   1635              }
   1636          
   1637              // Move the list pointer up to the start index.
   1638              for ( i = 0; i < zdappMgmtNwkDiscStartIndex; i++ )
   1639              {
   1640                NetworkList = NetworkList->nextDesc;
   1641              }
   1642            }
   1643          
   1644            ZDP_MgmtNwkDiscRsp( zdappMgmtNwkDiscRspTransSeq,
   1645                               &zdappMgmtNwkDiscRspAddr, ZSuccess, ResultCount,
   1646                                zdappMgmtNwkDiscStartIndex,
   1647                                count,
   1648                                NetworkList,
   1649                                false );
   1650          
   1651            if ( ZSTACK_ROUTER_BUILD )
   1652            {
   1653              if ( newDesc != NULL )
   1654              {
   1655                osal_mem_free( newDesc );
   1656              }
   1657            }
   1658          
   1659            NLME_NwkDiscTerm();
   1660          }
   1661          #endif
   1662          
   1663          /*********************************************************************
   1664           * @fn          ZDO_ProcessMgmtRtgReq
   1665           *
   1666           * @brief       This function finishes the processing of the Management
   1667           *              Routing Request and generates the response.
   1668           *
   1669           *   Note:      This function will limit the number of items returned
   1670           *              to ZDO_MAX_RTG_ITEMS items.
   1671           *
   1672           * @param       inMsg - incoming message (request)
   1673           *
   1674           * @return      none
   1675           */

   \                                 In  segment BANKED_CODE, align 1, keep-with-next
   1676          void ZDO_ProcessMgmtRtgReq( zdoIncomingMsg_t *inMsg )
   \                     ZDO_ProcessMgmtRtgReq:
   1677          {
   \   000000                REQUIRE ?V0
   \   000000                REQUIRE ?V1
   \   000000                REQUIRE ?V2
   \   000000                REQUIRE ?V3
   \   000000                REQUIRE ?V4
   \   000000                REQUIRE ?V6
   \   000000                REQUIRE ?V7
   \   000000   74F0         MOV     A,#-0x10
   \   000002   12....       LCALL   ?BANKED_ENTER_XDATA
   \   000005                ; Saved register size: 16
   \   000005                ; Auto size: 1
   \   000005   74FF         MOV     A,#-0x1
   \   000007   12....       LCALL   ?ALLOC_XSTACK8
   \   00000A   8A..         MOV     ?V2,R2
   \   00000C   8B..         MOV     ?V3,R3
   1678            byte x;
   1679            byte maxNumItems;
   1680            byte numItems = 0;
   \   00000E   7E00         MOV     R6,#0x0
   1681            uint8 *pBuf = NULL;
   \   000010   8E..         MOV     ?V6,R6
   \   000012   8E..         MOV     ?V7,R6
   1682            rtgItem_t *pList;
   1683            uint8 StartIndex = inMsg->asdu[0];
   \   000014   12....       LCALL   ??Subroutine189_0 & 0xFFFF
   \                     ??CrossCallReturnLabel_368:
   \   000017   35..         ADDC    A,?V3
   \   000019   12....       LCALL   ?Subroutine60 & 0xFFFF
   \                     ??CrossCallReturnLabel_351:
   \   00001C   FF           MOV     R7,A
   1684          
   1685            // Get the number of table items
   1686            NLME_GetRequest( nwkNumRoutingTableEntries, 0, &maxNumItems );
   \   00001D                ; Setup parameters for call to function NLME_GetRequest
   \   00001D   AC..         MOV     R4,?XSP + 0
   \   00001F   AD..         MOV     R5,?XSP + 1
   \   000021   7A00         MOV     R2,#0x0
   \   000023   7B00         MOV     R3,#0x0
   \   000025   799D         MOV     R1,#-0x63
   \   000027   12....       LCALL   `??NLME_GetRequest::?relay`; Banked call to: NLME_GetRequest
   1687          
   1688            if ( maxNumItems > StartIndex )
   \   00002A   85..82       MOV     DPL,?XSP + 0
   \   00002D   85..83       MOV     DPH,?XSP + 1
   \   000030   E0           MOVX    A,@DPTR
   \   000031   F8           MOV     R0,A
   \   000032   EF           MOV     A,R7
   \   000033   C3           CLR     C
   \   000034   98           SUBB    A,R0
   \   000035   506E         JNC     ??ZDO_ProcessMgmtRtgReq_0
   1689            {
   1690              numItems = maxNumItems - StartIndex;    // Start at the passed in index
   \   000037   E0           MOVX    A,@DPTR
   \   000038   C3           CLR     C
   \   000039   9F           SUBB    A,R7
   \   00003A   FE           MOV     R6,A
   1691          
   1692              // limit the size of the list
   1693              if ( numItems > ZDO_MAX_RTG_ITEMS )
   \   00003B   C3           CLR     C
   \   00003C   940B         SUBB    A,#0xb
   \   00003E   4002         JC      ??ZDO_ProcessMgmtRtgReq_1
   1694              {
   1695                numItems = ZDO_MAX_RTG_ITEMS;
   \   000040   7E0A         MOV     R6,#0xa
   1696              }
   1697          
   1698              // Allocate the memory to build the table
   1699              pBuf = osal_mem_alloc( (short)(sizeof( rtgItem_t ) * numItems) );
   \                     ??ZDO_ProcessMgmtRtgReq_1:
   \   000042                ; Setup parameters for call to function osal_mem_alloc
   \   000042   EE           MOV     A,R6
   \   000043   75F007       MOV     B,#0x7
   \   000046   A4           MUL     AB
   \   000047   FA           MOV     R2,A
   \   000048   ABF0         MOV     R3,B
   \   00004A   12....       LCALL   `??osal_mem_alloc::?relay`; Banked call to: osal_mem_alloc
   \   00004D   8A..         MOV     ?V0,R2
   \   00004F   8B..         MOV     ?V1,R3
   \   000051   8A..         MOV     ?V6,R2
   \   000053   8B..         MOV     ?V7,R3
   1700          
   1701              if ( pBuf != NULL )
   \   000055   EA           MOV     A,R2
   \   000056   45..         ORL     A,?V7
   \   000058   6049         JZ      ??ZDO_ProcessMgmtRtgReq_2
   1702              {
   1703                // Convert buffer to list
   1704                pList = (rtgItem_t *)pBuf;
   1705          
   1706                // Loop through items and build list
   1707                for ( x = 0; x < numItems; x++ )
   \   00005A   75..00       MOV     ?V4,#0x0
   \   00005D   800F         SJMP    ??ZDO_ProcessMgmtRtgReq_3
   1708                {
   1709                  NLME_GetRequest( nwkRoutingTable, (uint16)(x + StartIndex), (void*)pList );
   1710          
   1711                  // Remap the status to the RoutingTableList Record Format defined in the ZigBee spec
   1712                  switch( pList->status )
   1713                  {
   1714                    case RT_ACTIVE:
   1715                      pList->status = ZDO_MGMT_RTG_ENTRY_ACTIVE;
   1716                      break;
   1717          
   1718                    case RT_DISC:
   1719                      pList->status = ZDO_MGMT_RTG_ENTRY_DISCOVERY_UNDERWAY;
   1720                      break;
   1721          
   1722                    case RT_LINK_FAIL:
   1723                      pList->status = ZDO_MGMT_RTG_ENTRY_DISCOVERY_FAILED;
   1724                      break;
   1725          
   1726                    case RT_INIT:
   1727                    case RT_REPAIR:
   1728                    default:
   1729                      pList->status = ZDO_MGMT_RTG_ENTRY_INACTIVE;
   \                     ??ZDO_ProcessMgmtRtgReq_4:
   \   00005F   7403         MOV     A,#0x3
   \                     ??ZDO_ProcessMgmtRtgReq_5:
   \   000061   F0           MOVX    @DPTR,A
   1730                      break;
   1731                  }
   1732          
   1733                  // Increment pointer to next record
   1734                  pList++;
   \   000062   E5..         MOV     A,?V0
   \   000064   2407         ADD     A,#0x7
   \   000066   F5..         MOV     ?V0,A
   \   000068   5002         JNC     ??ZDO_ProcessMgmtRtgReq_6
   \   00006A   05..         INC     ?V1
   \                     ??ZDO_ProcessMgmtRtgReq_6:
   \   00006C   05..         INC     ?V4
   \                     ??ZDO_ProcessMgmtRtgReq_3:
   \   00006E   E5..         MOV     A,?V4
   \   000070   C3           CLR     C
   \   000071   9E           SUBB    A,R6
   \   000072   5031         JNC     ??ZDO_ProcessMgmtRtgReq_0
   \   000074                ; Setup parameters for call to function NLME_GetRequest
   \   000074   AC..         MOV     R4,?V0
   \   000076   AD..         MOV     R5,?V1
   \   000078   E5..         MOV     A,?V4
   \   00007A   2F           ADD     A,R7
   \   00007B   FA           MOV     R2,A
   \   00007C   E4           CLR     A
   \   00007D   3400         ADDC    A,#0x0
   \   00007F   FB           MOV     R3,A
   \   000080   798B         MOV     R1,#-0x75
   \   000082   12....       LCALL   `??NLME_GetRequest::?relay`; Banked call to: NLME_GetRequest
   \   000085   E5..         MOV     A,?V0
   \   000087   2405         ADD     A,#0x5
   \   000089   12....       LCALL   ?Subroutine133 & 0xFFFF
   \                     ??CrossCallReturnLabel_337:
   \   00008C   E0           MOVX    A,@DPTR
   \   00008D   14           DEC     A
   \   00008E   6008         JZ      ??ZDO_ProcessMgmtRtgReq_7
   \   000090   14           DEC     A
   \   000091   6008         JZ      ??ZDO_ProcessMgmtRtgReq_8
   \   000093   14           DEC     A
   \   000094   6009         JZ      ??ZDO_ProcessMgmtRtgReq_9
   \   000096   80C7         SJMP    ??ZDO_ProcessMgmtRtgReq_4
   \                     ??ZDO_ProcessMgmtRtgReq_7:
   \   000098   E4           CLR     A
   \   000099   80C6         SJMP    ??ZDO_ProcessMgmtRtgReq_5
   \                     ??ZDO_ProcessMgmtRtgReq_8:
   \   00009B   7401         MOV     A,#0x1
   \   00009D   80C2         SJMP    ??ZDO_ProcessMgmtRtgReq_5
   \                     ??ZDO_ProcessMgmtRtgReq_9:
   \   00009F   7402         MOV     A,#0x2
   \   0000A1   80BE         SJMP    ??ZDO_ProcessMgmtRtgReq_5
   1735                }
   1736              }
   1737              else
   1738              {
   1739                numItems = 0;
   \                     ??ZDO_ProcessMgmtRtgReq_2:
   \   0000A3   7E00         MOV     R6,#0x0
   1740              }
   1741            }
   1742          
   1743            // Send response
   1744            ZDP_MgmtRtgRsp( inMsg->TransSeq, &(inMsg->srcAddr), ZSuccess, maxNumItems, StartIndex, numItems,
   1745                                  (rtgItem_t *)pBuf, false );
   \                     ??ZDO_ProcessMgmtRtgReq_0:
   \   0000A5                ; Setup parameters for call to function ZDP_MgmtRtgRsp
   \   0000A5   75..00       MOV     ?V0,#0x0
   \   0000A8   78..         MOV     R0,#?V0
   \   0000AA   12....       LCALL   ?PUSH_XSTACK_I_ONE
   \   0000AD   78..         MOV     R0,#?V6
   \   0000AF   12....       LCALL   ?PUSH_XSTACK_I_TWO
   \   0000B2   EE           MOV     A,R6
   \   0000B3   F5..         MOV     ?V0,A
   \   0000B5   78..         MOV     R0,#?V0
   \   0000B7   12....       LCALL   ?PUSH_XSTACK_I_ONE
   \   0000BA   EF           MOV     A,R7
   \   0000BB   F5..         MOV     ?V0,A
   \   0000BD   78..         MOV     R0,#?V0
   \   0000BF   12....       LCALL   ?PUSH_XSTACK_I_ONE
   \   0000C2   7405         MOV     A,#0x5
   \   0000C4   12....       LCALL   ?XSTACK_DISP0_8
   \   0000C7   E0           MOVX    A,@DPTR
   \   0000C8   FD           MOV     R5,A
   \   0000C9   7C00         MOV     R4,#0x0
   \   0000CB   E5..         MOV     A,?V2
   \   0000CD   12....       LCALL   ??Subroutine188_0 & 0xFFFF
   \                     ??CrossCallReturnLabel_359:
   \   0000D0   35..         ADDC    A,?V3
   \   0000D2   FB           MOV     R3,A
   \   0000D3   E5..         MOV     A,?V2
   \   0000D5   12....       LCALL   ?Subroutine121 & 0xFFFF
   \                     ??CrossCallReturnLabel_196:
   \   0000D8   35..         ADDC    A,?V3
   \   0000DA   F583         MOV     DPH,A
   \   0000DC   E0           MOVX    A,@DPTR
   \   0000DD   F9           MOV     R1,A
   \   0000DE   12....       LCALL   `??ZDP_MgmtRtgRsp::?relay`; Banked call to: ZDP_MgmtRtgRsp
   \   0000E1   7405         MOV     A,#0x5
   \   0000E3   12....       LCALL   ?DEALLOC_XSTACK8
   1746          
   1747            if ( pBuf != NULL )
   \   0000E6   E5..         MOV     A,?V6
   \   0000E8   45..         ORL     A,?V7
   \   0000EA   6007         JZ      ??ZDO_ProcessMgmtRtgReq_10
   1748            {
   1749              osal_mem_free( pBuf );
   \   0000EC                ; Setup parameters for call to function osal_mem_free
   \   0000EC   AA..         MOV     R2,?V6
   \   0000EE   AB..         MOV     R3,?V7
   \   0000F0   12....       LCALL   `??osal_mem_free::?relay`; Banked call to: osal_mem_free
   1750            }
   1751          }
   \                     ??ZDO_ProcessMgmtRtgReq_10:
   \   0000F3   7401         MOV     A,#0x1
   \   0000F5                REQUIRE ?Subroutine8
   \   0000F5                ; // Fall through to label ?Subroutine8

   \                                 In  segment BANKED_CODE, align 1, keep-with-next
   \                     ?Subroutine8:
   \   000000   12....       LCALL   ?DEALLOC_XSTACK8
   \   000003   02....       LJMP    ??Subroutine191_0 & 0xFFFF

   \                                 In  segment BANKED_CODE, align 1, keep-with-next
   \                     ?Subroutine133:
   \   000000   F582         MOV     DPL,A
   \   000002   E4           CLR     A
   \   000003                REQUIRE ??Subroutine186_0
   \   000003                ; // Fall through to label ??Subroutine186_0

   \                                 In  segment BANKED_CODE, align 1, keep-with-next
   \                     ??Subroutine186_0:
   \   000000   35..         ADDC    A,?V1
   \   000002   F583         MOV     DPH,A
   \   000004   22           RET
   1752          
   1753          /*********************************************************************
   1754           * @fn          ZDO_ProcessMgmtBindReq
   1755           *
   1756           * @brief       This function finishes the processing of the Management
   1757           *              Bind Request and generates the response.
   1758           *
   1759           *   Note:      This function will limit the number of items returned
   1760           *              to ZDO_MAX_BIND_ITEMS items.
   1761           *
   1762           * @param       inMsg - incoming message (request)
   1763           *
   1764           * @return      none
   1765           */

   \                                 In  segment BANKED_CODE, align 1, keep-with-next
   1766          void ZDO_ProcessMgmtBindReq( zdoIncomingMsg_t *inMsg )
   \                     ZDO_ProcessMgmtBindReq:
   1767          {
   \   000000                REQUIRE ?V0
   \   000000                REQUIRE ?V1
   \   000000                REQUIRE ?V2
   \   000000                REQUIRE ?V3
   \   000000                REQUIRE ?V4
   \   000000                REQUIRE ?V5
   \   000000                REQUIRE ?V6
   \   000000                REQUIRE ?V8
   \   000000                REQUIRE ?V9
   \   000000   74EE         MOV     A,#-0x12
   \   000002   12....       LCALL   ?BANKED_ENTER_XDATA
   \   000005                ; Saved register size: 18
   \   000005                ; Auto size: 2
   \   000005   74FE         MOV     A,#-0x2
   \   000007   12....       LCALL   ?ALLOC_XSTACK8
   \   00000A   8A..         MOV     ?V4,R2
   \   00000C   8B..         MOV     ?V5,R3
   1768          #if defined ( REFLECTOR )
   1769            byte x;
   1770            uint16 maxNumItems;
   1771            uint16 numItems;
   1772            uint8 *pBuf = NULL;
   \   00000E   75..00       MOV     ?V8,#0x0
   \   000011   75..00       MOV     ?V9,#0x0
   1773            apsBindingItem_t *pList;
   1774            uint8 StartIndex = inMsg->asdu[0];
   \   000014   12....       LCALL   ??Subroutine189_0 & 0xFFFF
   \                     ??CrossCallReturnLabel_369:
   \   000017   35..         ADDC    A,?V5
   \   000019   12....       LCALL   ?Subroutine60 & 0xFFFF
   \                     ??CrossCallReturnLabel_352:
   \   00001C   F5..         MOV     ?V2,A
   1775            uint8 status;
   1776          
   1777            // Get the number of table items
   1778            APSME_GetRequest( apsNumBindingTableEntries, 0, (byte*)(&maxNumItems) );
   \   00001E                ; Setup parameters for call to function APSME_GetRequest
   \   00001E   AC..         MOV     R4,?XSP + 0
   \   000020   AD..         MOV     R5,?XSP + 1
   \   000022   7A00         MOV     R2,#0x0
   \   000024   7B00         MOV     R3,#0x0
   \   000026   79A3         MOV     R1,#-0x5d
   \   000028   12....       LCALL   `??APSME_GetRequest::?relay`; Banked call to: APSME_GetRequest
   1779          
   1780            if ( maxNumItems > StartIndex )
   \   00002B   A8..         MOV     R0,?V2
   \   00002D   12....       LCALL   ?Subroutine85 & 0xFFFF
   \                     ??CrossCallReturnLabel_417:
   \   000030   C3           CLR     C
   \   000031   E8           MOV     A,R0
   \   000032   9A           SUBB    A,R2
   \   000033   E4           CLR     A
   \   000034   9B           SUBB    A,R3
   \   000035   501E         JNC     ??ZDO_ProcessMgmtBindReq_0
   1781            {
   1782              numItems = maxNumItems - StartIndex;    // Start at the passed in index
   \   000037   85..82       MOV     DPL,?XSP + 0
   \   00003A   85..83       MOV     DPH,?XSP + 1
   \   00003D   E0           MOVX    A,@DPTR
   \   00003E   C3           CLR     C
   \   00003F   98           SUBB    A,R0
   \   000040   FE           MOV     R6,A
   \   000041   A3           INC     DPTR
   \   000042   E0           MOVX    A,@DPTR
   \   000043   9400         SUBB    A,#0x0
   \   000045   FF           MOV     R7,A
   1783            }
   1784            else
   1785            {
   1786              numItems = 0;
   1787            }
   1788          
   1789            // limit the size of the list
   1790            if ( numItems > ZDO_MAX_BIND_ITEMS )
   \   000046   C3           CLR     C
   \   000047   EE           MOV     A,R6
   \   000048   9404         SUBB    A,#0x4
   \   00004A   EF           MOV     A,R7
   \   00004B   9400         SUBB    A,#0x0
   \   00004D   4061         JC      ??ZDO_ProcessMgmtBindReq_1
   1791            {
   1792              numItems = ZDO_MAX_BIND_ITEMS;
   \   00004F   7E03         MOV     R6,#0x3
   \   000051   7F00         MOV     R7,#0x0
   \   000053   805F         SJMP    ??ZDO_ProcessMgmtBindReq_2
   1793            }
   \                     ??ZDO_ProcessMgmtBindReq_0:
   \   000055   7E00         MOV     R6,#0x0
   1794          
   1795            // Allocate the memory to build the table
   1796            if ( numItems )
   1797            {
   1798              pBuf = osal_mem_alloc( sizeof( apsBindingItem_t ) * numItems );
   1799              
   1800              if(pBuf != NULL)
   1801              {
   1802              
   1803                status = ZSuccess;
   1804          
   1805                // Convert buffer to list
   1806                pList = (apsBindingItem_t *)pBuf;
   1807          
   1808                // Loop through items and build list
   1809                for ( x = 0; x < numItems; x++ )
   1810                {
   1811                  APSME_GetRequest( apsBindingTable, (x + StartIndex), (void*)pList );
   1812                  pList++;
   1813                }
   1814              }
   1815              else
   1816              {
   1817                //No memory to allocate response, respond unsupported attribute
   1818                status = ZApsUnsupportedAttrib;
   1819                numItems = 0;
   1820              }
   1821            }
   1822            else
   1823            {
   1824              status = ZSuccess;
   \                     ??ZDO_ProcessMgmtBindReq_3:
   \   000057   75..00       MOV     ?V3,#0x0
   \                     ??ZDO_ProcessMgmtBindReq_4:
   \   00005A   EE           MOV     A,R6
   \   00005B   F9           MOV     R1,A
   1825            }
   1826          
   1827            // Send response
   1828            ZDP_MgmtBindRsp( inMsg->TransSeq, &(inMsg->srcAddr), status, (byte)maxNumItems, StartIndex,
   1829                             (byte)numItems, (apsBindingItem_t *)pBuf, false );
   \                     ??ZDO_ProcessMgmtBindReq_5:
   \   00005C                ; Setup parameters for call to function ZDP_MgmtBindRsp
   \   00005C   75..00       MOV     ?V0,#0x0
   \   00005F   78..         MOV     R0,#?V0
   \   000061   12....       LCALL   ?PUSH_XSTACK_I_ONE
   \   000064   78..         MOV     R0,#?V8
   \   000066   12....       LCALL   ?PUSH_XSTACK_I_TWO
   \   000069   E9           MOV     A,R1
   \   00006A   F5..         MOV     ?V0,A
   \   00006C   78..         MOV     R0,#?V0
   \   00006E   12....       LCALL   ?PUSH_XSTACK_I_ONE
   \   000071   E5..         MOV     A,?V2
   \   000073   F5..         MOV     ?V0,A
   \   000075   78..         MOV     R0,#?V0
   \   000077   12....       LCALL   ?PUSH_XSTACK_I_ONE
   \   00007A   7405         MOV     A,#0x5
   \   00007C   12....       LCALL   ?XSTACK_DISP0_8
   \   00007F   E0           MOVX    A,@DPTR
   \   000080   FD           MOV     R5,A
   \   000081   AC..         MOV     R4,?V3
   \   000083   E5..         MOV     A,?V4
   \   000085   12....       LCALL   ??Subroutine188_0 & 0xFFFF
   \                     ??CrossCallReturnLabel_360:
   \   000088   35..         ADDC    A,?V5
   \   00008A   FB           MOV     R3,A
   \   00008B   E5..         MOV     A,?V4
   \   00008D   12....       LCALL   ?Subroutine121 & 0xFFFF
   \                     ??CrossCallReturnLabel_197:
   \   000090   35..         ADDC    A,?V5
   \   000092   F583         MOV     DPH,A
   \   000094   E0           MOVX    A,@DPTR
   \   000095   F9           MOV     R1,A
   \   000096   12....       LCALL   `??ZDP_MgmtBindRsp::?relay`; Banked call to: ZDP_MgmtBindRsp
   \   000099   7405         MOV     A,#0x5
   \   00009B   12....       LCALL   ?DEALLOC_XSTACK8
   1830          
   1831            if ( pBuf )
   \   00009E   E5..         MOV     A,?V8
   \   0000A0   45..         ORL     A,?V9
   \   0000A2   6007         JZ      ??ZDO_ProcessMgmtBindReq_6
   1832            {
   1833              osal_mem_free( pBuf );
   \   0000A4                ; Setup parameters for call to function osal_mem_free
   \   0000A4   AA..         MOV     R2,?V8
   \   0000A6   AB..         MOV     R3,?V9
   \   0000A8   12....       LCALL   `??osal_mem_free::?relay`; Banked call to: osal_mem_free
   1834            }
   1835          #else
   1836            (void)inMsg;
   1837          #endif
   1838          }
   \                     ??ZDO_ProcessMgmtBindReq_6:
   \   0000AB   7402         MOV     A,#0x2
   \   0000AD   02....       LJMP    ?Subroutine7 & 0xFFFF
   \                     ??ZDO_ProcessMgmtBindReq_1:
   \   0000B0   EE           MOV     A,R6
   \   0000B1   4F           ORL     A,R7
   \   0000B2   60A3         JZ      ??ZDO_ProcessMgmtBindReq_3
   \                     ??ZDO_ProcessMgmtBindReq_2:
   \   0000B4                ; Setup parameters for call to function osal_mem_alloc
   \   0000B4   EE           MOV     A,R6
   \   0000B5   FA           MOV     R2,A
   \   0000B6   EF           MOV     A,R7
   \   0000B7   FB           MOV     R3,A
   \   0000B8   EA           MOV     A,R2
   \   0000B9   75F015       MOV     B,#0x15
   \   0000BC   A4           MUL     AB
   \   0000BD   FA           MOV     R2,A
   \   0000BE   A8F0         MOV     R0,B
   \   0000C0   75F015       MOV     B,#0x15
   \   0000C3   EB           MOV     A,R3
   \   0000C4   A4           MUL     AB
   \   0000C5   28           ADD     A,R0
   \   0000C6   FB           MOV     R3,A
   \   0000C7   12....       LCALL   `??osal_mem_alloc::?relay`; Banked call to: osal_mem_alloc
   \   0000CA   8A..         MOV     ?V0,R2
   \   0000CC   8B..         MOV     ?V1,R3
   \   0000CE   8A..         MOV     ?V8,R2
   \   0000D0   8B..         MOV     ?V9,R3
   \   0000D2   EA           MOV     A,R2
   \   0000D3   45..         ORL     A,?V9
   \   0000D5   6032         JZ      ??ZDO_ProcessMgmtBindReq_7
   \   0000D7   75..00       MOV     ?V3,#0x0
   \   0000DA   75..00       MOV     ?V6,#0x0
   \                     ??ZDO_ProcessMgmtBindReq_8:
   \   0000DD   C3           CLR     C
   \   0000DE   E5..         MOV     A,?V6
   \   0000E0   9E           SUBB    A,R6
   \   0000E1   E4           CLR     A
   \   0000E2   9F           SUBB    A,R7
   \   0000E3   4003         JC      $+5
   \   0000E5   02....       LJMP    ??ZDO_ProcessMgmtBindReq_4 & 0xFFFF
   \   0000E8                ; Setup parameters for call to function APSME_GetRequest
   \   0000E8   AC..         MOV     R4,?V0
   \   0000EA   AD..         MOV     R5,?V1
   \   0000EC   A8..         MOV     R0,?V2
   \   0000EE   E5..         MOV     A,?V6
   \   0000F0   28           ADD     A,R0
   \   0000F1   FA           MOV     R2,A
   \   0000F2   E4           CLR     A
   \   0000F3   3400         ADDC    A,#0x0
   \   0000F5   FB           MOV     R3,A
   \   0000F6   79A2         MOV     R1,#-0x5e
   \   0000F8   12....       LCALL   `??APSME_GetRequest::?relay`; Banked call to: APSME_GetRequest
   \   0000FB   E5..         MOV     A,?V0
   \   0000FD   2415         ADD     A,#0x15
   \   0000FF   F5..         MOV     ?V0,A
   \   000101   5002         JNC     ??ZDO_ProcessMgmtBindReq_9
   \   000103   05..         INC     ?V1
   \                     ??ZDO_ProcessMgmtBindReq_9:
   \   000105   05..         INC     ?V6
   \   000107   80D4         SJMP    ??ZDO_ProcessMgmtBindReq_8
   \                     ??ZDO_ProcessMgmtBindReq_7:
   \   000109   75..B5       MOV     ?V3,#-0x4b
   \   00010C   7900         MOV     R1,#0x0
   \   00010E   02....       LJMP    ??ZDO_ProcessMgmtBindReq_5 & 0xFFFF

   \                                 In  segment BANKED_CODE, align 1, keep-with-next
   \                     ?Subroutine7:
   \   000000   12....       LCALL   ?DEALLOC_XSTACK8
   \   000003                REQUIRE ??Subroutine213_0
   \   000003                ; // Fall through to label ??Subroutine213_0

   \                                 In  segment BANKED_CODE, align 1, keep-with-next
   \                     ??Subroutine213_0:
   \   000000   7F0A         MOV     R7,#0xa
   \   000002   02....       LJMP    ?BANKED_LEAVE_XDATA
   1839          
   1840          /*********************************************************************
   1841           * @fn          ZDO_ProcessMgmtDirectJoinReq
   1842           *
   1843           * @brief       This function finishes the processing of the Management
   1844           *              Direct Join Request and generates the response.
   1845           *
   1846           * @param       inMsg - incoming message (request)
   1847           *
   1848           * @return      none
   1849           */

   \                                 In  segment BANKED_CODE, align 1, keep-with-next
   1850          void ZDO_ProcessMgmtDirectJoinReq( zdoIncomingMsg_t *inMsg )
   \                     ZDO_ProcessMgmtDirectJoinReq:
   1851          {
   \   000000                REQUIRE ?V0
   \   000000                REQUIRE ?V1
   \   000000   74F6         MOV     A,#-0xa
   \   000002   12....       LCALL   ?BANKED_ENTER_XDATA
   \   000005                ; Saved register size: 10
   \   000005                ; Auto size: 1
   \   000005   74FF         MOV     A,#-0x1
   \   000007   12....       LCALL   ?ALLOC_XSTACK8
   \   00000A   EA           MOV     A,R2
   \   00000B   FE           MOV     R6,A
   \   00000C   EB           MOV     A,R3
   \   00000D   FF           MOV     R7,A
   1852            uint8 *deviceAddr;
   1853            uint8 capInfo;
   1854            uint8 stat;
   1855          
   1856            // Parse the message
   1857            deviceAddr = inMsg->asdu;
   1858            capInfo = inMsg->asdu[Z_EXTADDR_LEN];
   1859          
   1860            stat = (byte) NLME_DirectJoinRequest( deviceAddr, capInfo );
   \   00000E   12....       LCALL   ?Subroutine110 & 0xFFFF
   \                     ??CrossCallReturnLabel_176:
   \   000011   12....       LCALL   ?Subroutine84 & 0xFFFF
   \                     ??CrossCallReturnLabel_124:
   \   000014   A3           INC     DPTR
   \   000015   A3           INC     DPTR
   \   000016   A3           INC     DPTR
   \   000017   A3           INC     DPTR
   \   000018   A3           INC     DPTR
   \   000019   A3           INC     DPTR
   \   00001A   A3           INC     DPTR
   \   00001B   A3           INC     DPTR
   \   00001C   E0           MOVX    A,@DPTR
   \   00001D   F9           MOV     R1,A
   \   00001E   12....       LCALL   `??NLME_DirectJoinRequest::?relay`; Banked call to: NLME_DirectJoinRequest
   \   000021   E9           MOV     A,R1
   \   000022   85..82       MOV     DPL,?XSP + 0
   \   000025   85..83       MOV     DPH,?XSP + 1
   \   000028   F0           MOVX    @DPTR,A
   1861          
   1862            ZDP_MgmtDirectJoinRsp( inMsg->TransSeq, &(inMsg->srcAddr), stat, false );
   \   000029                ; Setup parameters for call to function ZDP_SendData
   \   000029   75..00       MOV     ?V0,#0x0
   \   00002C   78..         MOV     R0,#?V0
   \   00002E   12....       LCALL   ?PUSH_XSTACK_I_ONE
   \   000031   7401         MOV     A,#0x1
   \   000033   12....       LCALL   ?XSTACK_DISP100_8
   \   000036   88..         MOV     ?V0,R0
   \   000038   89..         MOV     ?V1,R1
   \   00003A   78..         MOV     R0,#?V0
   \   00003C   12....       LCALL   ?PUSH_XSTACK_I_TWO
   \   00003F   75..35       MOV     ?V0,#0x35
   \   000042   75..80       MOV     ?V1,#-0x80
   \   000045   78..         MOV     R0,#?V0
   \   000047   12....       LCALL   ?PUSH_XSTACK_I_TWO
   \   00004A   12....       LCALL   ?Subroutine115 & 0xFFFF
   \                     ??CrossCallReturnLabel_185:
   \   00004D   12....       LCALL   `??ZDP_SendData::?relay`; Banked call to: ZDP_SendData
   \   000050   7405         MOV     A,#0x5
   \   000052   12....       LCALL   ?DEALLOC_XSTACK8
   1863          }
   \   000055                REQUIRE ?Subroutine9
   \   000055                ; // Fall through to label ?Subroutine9

   \                                 In  segment BANKED_CODE, align 1, keep-with-next
   \                     ?Subroutine9:
   \   000000   7401         MOV     A,#0x1
   \   000002   02....       LJMP    ??Subroutine179_0 & 0xFFFF

   \                                 In  segment BANKED_CODE, align 1, keep-with-next
   \                     ?Subroutine115:
   \   000000   7901         MOV     R1,#0x1
   \   000002   12....       LCALL   ?Subroutine164 & 0xFFFF
   \                     ??CrossCallReturnLabel_280:
   \   000005   FA           MOV     R2,A
   \   000006   E4           CLR     A
   \   000007   3F           ADDC    A,R7
   \   000008   FB           MOV     R3,A
   \   000009   22           RET

   \                                 In  segment BANKED_CODE, align 1, keep-with-next
   \                     ?Subroutine158:
   \   000000   F583         MOV     DPH,A
   \   000002                REQUIRE ??Subroutine211_0
   \   000002                ; // Fall through to label ??Subroutine211_0

   \                                 In  segment BANKED_CODE, align 1, keep-with-next
   \                     ?Subroutine84:
   \   000000   12....       LCALL   ?Subroutine158 & 0xFFFF
   \                     ??CrossCallReturnLabel_492:
   \   000003                ; Setup parameters for call to function NLME_DirectJoinRequest
   \   000003   8A82         MOV     DPL,R2
   \   000005   8B83         MOV     DPH,R3
   \   000007   22           RET
   1864          
   1865          /*********************************************************************
   1866           * @fn          ZDO_ProcessMgmtLeaveReq
   1867           *
   1868           * @brief       This function processes a Management Leave Request
   1869           *              and generates the response.
   1870           *
   1871           * @param       inMsg - incoming message (request)
   1872           *
   1873           * @return      none
   1874           */

   \                                 In  segment BANKED_CODE, align 1, keep-with-next
   1875          void ZDO_ProcessMgmtLeaveReq( zdoIncomingMsg_t *inMsg )
   \                     ZDO_ProcessMgmtLeaveReq:
   1876          {
   \   000000                REQUIRE ?V0
   \   000000                REQUIRE ?V1
   \   000000                REQUIRE ?V2
   \   000000                REQUIRE ?V3
   \   000000   74F4         MOV     A,#-0xc
   \   000002   12....       LCALL   ?BANKED_ENTER_XDATA
   \   000005                ; Saved register size: 12
   \   000005                ; Auto size: 6
   \   000005   74FA         MOV     A,#-0x6
   \   000007   12....       LCALL   ?ALLOC_XSTACK8
   \   00000A   12....       LCALL   ?Subroutine111 & 0xFFFF
   1877            NLME_LeaveReq_t req;
   1878            ZStatus_t       status;
   1879            uint8           option;
   1880            uint8 *msg = inMsg->asdu;
   \                     ??CrossCallReturnLabel_365:
   \   00000D   35..         ADDC    A,?V1
   \   00000F   12....       LCALL   ?Subroutine101 & 0xFFFF
   \                     ??CrossCallReturnLabel_528:
   \   000012   FF           MOV     R7,A
   1881            
   1882            if ( ( AddrMgrExtAddrValid( msg ) == FALSE                 ) ||
   1883                 ( osal_ExtAddrEqual( msg, NLME_GetExtAddr() ) == TRUE )    )
   \   000013                ; Setup parameters for call to function AddrMgrExtAddrValid
   \   000013   EE           MOV     A,R6
   \   000014   FA           MOV     R2,A
   \   000015   EF           MOV     A,R7
   \   000016   FB           MOV     R3,A
   \   000017   12....       LCALL   `??AddrMgrExtAddrValid::?relay`; Banked call to: AddrMgrExtAddrValid
   \   00001A   E9           MOV     A,R1
   \   00001B   6017         JZ      ??ZDO_ProcessMgmtLeaveReq_0
   \   00001D                ; Setup parameters for call to function NLME_GetExtAddr
   \   00001D   12....       LCALL   `??NLME_GetExtAddr::?relay`; Banked call to: NLME_GetExtAddr
   \   000020   8A..         MOV     ?V2,R2
   \   000022   8B..         MOV     ?V3,R3
   \   000024   AC..         MOV     R4,?V2
   \   000026   AD..         MOV     R5,?V3
   \   000028                ; Setup parameters for call to function sAddrExtCmp
   \   000028   EE           MOV     A,R6
   \   000029   FA           MOV     R2,A
   \   00002A   EF           MOV     A,R7
   \   00002B   FB           MOV     R3,A
   \   00002C   12....       LCALL   `??sAddrExtCmp::?relay`; Banked call to: sAddrExtCmp
   \   00002F   E9           MOV     A,R1
   \   000030   6401         XRL     A,#0x1
   \   000032   7002         JNZ     ??ZDO_ProcessMgmtLeaveReq_1
   1884            {
   1885              if ( ( ZG_BUILD_COORDINATOR_TYPE ) && ( ZG_DEVICE_COORDINATOR_TYPE ) )
   1886              {
   1887                // Coordinator shall drop the leave request for itself
   1888                // section 3.6.1.10.3.1 R21
   1889                return;
   \                     ??ZDO_ProcessMgmtLeaveReq_0:
   \   000034   8075         SJMP    ??ZDO_ProcessMgmtLeaveReq_2
   1890              }
   1891              else
   1892              {
   1893                // Remove this device
   1894                req.extAddr = NULL;
   1895              }
   1896            }
   1897            else
   1898            {
   1899              // Remove child device
   1900              req.extAddr = msg;
   \                     ??ZDO_ProcessMgmtLeaveReq_1:
   \   000036   7401         MOV     A,#0x1
   \   000038   12....       LCALL   ?XSTACK_DISP0_8
   \   00003B   EE           MOV     A,R6
   \   00003C   F0           MOVX    @DPTR,A
   \   00003D   A3           INC     DPTR
   \   00003E   EF           MOV     A,R7
   \   00003F   12....       LCALL   ?Subroutine17 & 0xFFFF
   1901            }
   1902          
   1903            option = msg[Z_EXTADDR_LEN];
   \                     ??CrossCallReturnLabel_13:
   \   000042   FE           MOV     R6,A
   1904            if ( option & ZDP_MGMT_LEAVE_REQ_RC )
   \   000043   A2E6         MOV     C,0xE0 /* A   */.6
   \   000045   5008         JNC     ??ZDO_ProcessMgmtLeaveReq_3
   1905            {
   1906              req.removeChildren = TRUE;
   \   000047   7403         MOV     A,#0x3
   \   000049   12....       LCALL   ?XSTACK_DISP0_8
   \   00004C   7401         MOV     A,#0x1
   \   00004E   F0           MOVX    @DPTR,A
   1907            }
   1908          
   1909            if ( option & ZDP_MGMT_LEAVE_REQ_REJOIN )
   \                     ??ZDO_ProcessMgmtLeaveReq_3:
   \   00004F   EE           MOV     A,R6
   \   000050   A2E7         MOV     C,0xE0 /* A   */.7
   \   000052   5008         JNC     ??ZDO_ProcessMgmtLeaveReq_4
   1910            {
   1911               req.rejoin = TRUE;
   \   000054   7404         MOV     A,#0x4
   \   000056   12....       LCALL   ?XSTACK_DISP0_8
   \   000059   7401         MOV     A,#0x1
   \   00005B   F0           MOVX    @DPTR,A
   1912            }
   1913          
   1914            req.silent = FALSE;
   \                     ??ZDO_ProcessMgmtLeaveReq_4:
   \   00005C   7405         MOV     A,#0x5
   \   00005E   12....       LCALL   ?XSTACK_DISP0_8
   \   000061   E4           CLR     A
   \   000062   12....       LCALL   ?Subroutine171 & 0xFFFF
   1915            
   1916            //According to R21 spec sec2.4.3.3.5.2 Mgmt leave rsp must contain the status response from the nwk leave processing. 
   1917            //Latest discussion in Zigbee indicates that mgmt leave rsp due to an OTA command must have status=success (9/12/16)
   1918            status = ZSuccess;
   \                     ??CrossCallReturnLabel_293:
   \   000065   F0           MOVX    @DPTR,A
   1919            
   1920            ZDP_MgmtLeaveRsp( inMsg->TransSeq, &(inMsg->srcAddr), status, FALSE );
   \   000066                ; Setup parameters for call to function ZDP_SendData
   \   000066   F5..         MOV     ?V2,A
   \   000068   78..         MOV     R0,#?V2
   \   00006A   12....       LCALL   ?PUSH_XSTACK_I_ONE
   \   00006D   7401         MOV     A,#0x1
   \   00006F   12....       LCALL   ?XSTACK_DISP100_8
   \   000072   88..         MOV     ?V2,R0
   \   000074   89..         MOV     ?V3,R1
   \   000076   78..         MOV     R0,#?V2
   \   000078   12....       LCALL   ?PUSH_XSTACK_I_TWO
   \   00007B   75..34       MOV     ?V2,#0x34
   \   00007E   75..80       MOV     ?V3,#-0x80
   \   000081   78..         MOV     R0,#?V2
   \   000083   12....       LCALL   ?PUSH_XSTACK_I_TWO
   \   000086   12....       LCALL   ?Subroutine118 & 0xFFFF
   \                     ??CrossCallReturnLabel_192:
   \   000089   12....       LCALL   `??ZDP_SendData::?relay`; Banked call to: ZDP_SendData
   \   00008C   7405         MOV     A,#0x5
   \   00008E   12....       LCALL   ?DEALLOC_XSTACK8
   1921            
   1922            if ( ZG_BUILD_ENDDEVICE_TYPE )
   1923            {
   1924              // Stop polling and get ready to reset
   1925              NLME_SetPollRate( 0 );
   1926              NLME_SetResponseRate(0);
   1927              NLME_SetQueuedPollRate(0);
   1928            }
   1929            
   1930            NLME_LeaveReq(&req);
   \   000091                ; Setup parameters for call to function NLME_LeaveReq
   \   000091   7401         MOV     A,#0x1
   \   000093   12....       LCALL   ?XSTACK_DISP101_8
   \   000096   12....       LCALL   `??NLME_LeaveReq::?relay`; Banked call to: NLME_LeaveReq
   1931            
   1932            if (! (option & ZDP_MGMT_LEAVE_REQ_REJOIN) )
   \   000099   EE           MOV     A,R6
   \   00009A   A2E7         MOV     C,0xE0 /* A   */.7
   \   00009C   400D         JC      ??ZDO_ProcessMgmtLeaveReq_2
   1933            {
   1934              if(req.extAddr == NULL)
   \   00009E   7401         MOV     A,#0x1
   \   0000A0   12....       LCALL   ?XSTACK_DISP0_8
   \   0000A3   12....       LCALL   ??Subroutine204_0 & 0xFFFF
   \                     ??CrossCallReturnLabel_440:
   \   0000A6   7003         JNZ     ??ZDO_ProcessMgmtLeaveReq_2
   1935              {
   1936                bdb_setFN();
   \   0000A8                ; Setup parameters for call to function bdb_setFN
   \   0000A8   12....       LCALL   `??bdb_setFN::?relay`; Banked call to: bdb_setFN
   1937              }
   1938            }
   1939          }
   \                     ??ZDO_ProcessMgmtLeaveReq_2:
   \   0000AB   7406         MOV     A,#0x6
   \   0000AD   12....       LCALL   ?DEALLOC_XSTACK8
   \   0000B0                REQUIRE ?Subroutine1
   \   0000B0                ; // Fall through to label ?Subroutine1

   \                                 In  segment BANKED_CODE, align 1, keep-with-next
   \                     ?Subroutine17:
   \   000000   12....       LCALL   ?Subroutine144 & 0xFFFF
   \                     ??CrossCallReturnLabel_251:
   \   000003   A3           INC     DPTR
   \   000004   A3           INC     DPTR
   \   000005   A3           INC     DPTR
   \   000006   E0           MOVX    A,@DPTR
   \   000007   22           RET
   1940          
   1941          
   1942          /*********************************************************************
   1943           * @fn          ZDO_ProcessMgmtPermitJoinReq
   1944           *
   1945           * @brief       This function processes a Management Permit Join Request
   1946           *              and generates the response.
   1947           *
   1948           * @param       inMsg - incoming message (request)
   1949           *
   1950           * @return      none
   1951           */

   \                                 In  segment BANKED_CODE, align 1, keep-with-next
   1952          void ZDO_ProcessMgmtPermitJoinReq( zdoIncomingMsg_t *inMsg )
   \                     ZDO_ProcessMgmtPermitJoinReq:
   1953          {
   \   000000                REQUIRE ?V0
   \   000000                REQUIRE ?V1
   \   000000   74F6         MOV     A,#-0xa
   \   000002   12....       LCALL   ?BANKED_ENTER_XDATA
   \   000005                ; Saved register size: 10
   \   000005                ; Auto size: 1
   \   000005   74FF         MOV     A,#-0x1
   \   000007   12....       LCALL   ?ALLOC_XSTACK8
   \   00000A   EA           MOV     A,R2
   \   00000B   FE           MOV     R6,A
   \   00000C   EB           MOV     A,R3
   \   00000D   FF           MOV     R7,A
   1954            uint8 stat;
   1955            uint8 duration;
   1956          #if (ZG_BUILD_COORDINATOR_TYPE)
   1957            if(ZG_DEVICE_COORDINATOR_TYPE)
   1958            {
   1959              //If zgAllowRemoteTCPolicyChange is set to FALSE, the request cannot affect the 
   1960              //Trust Center policies
   1961              if(zgAllowRemoteTCPolicyChange == 0)
   \   00000E   90....       MOV     DPTR,#zgAllowRemoteTCPolicyChange
   \   000011   E0           MOVX    A,@DPTR
   \   000012   6062         JZ      ??ZDO_ProcessMgmtPermitJoinReq_0
   1962              {
   1963                return;
   1964              }
   1965            }
   1966          #endif
   1967            
   1968            duration = inMsg->asdu[ZDP_MGMT_PERMIT_JOIN_REQ_DURATION];
   \   000014   12....       LCALL   ?Subroutine110 & 0xFFFF
   \                     ??CrossCallReturnLabel_177:
   \   000017   12....       LCALL   ?Subroutine60 & 0xFFFF
   \                     ??CrossCallReturnLabel_353:
   \   00001A   F5..         MOV     ?V0,A
   1969            // Per R21 Spec this field is not longer relevant 2.4.3.3.7.2 (Mgmt_Permit_Joining_req Effect on Receipt)
   1970            //tcsig    = inMsg->asdu[ZDP_MGMT_PERMIT_JOIN_REQ_TC_SIG];
   1971          
   1972            // Per R21 Spec this duration cannot last forever 2.4.3.3.7.2 (Mgmt_Permit_Joining_req Effect on Receipt)
   1973            if(duration == 0xFF)
   \   00001C   74FF         MOV     A,#-0x1
   \   00001E   65..         XRL     A,?V0
   \   000020   7003         JNZ     ??ZDO_ProcessMgmtPermitJoinReq_1
   1974            {
   1975              duration = 0xFE;
   \   000022   75..FE       MOV     ?V0,#-0x2
   1976            }
   1977            
   1978            // Set the network layer permit join duration
   1979            stat = (byte) NLME_PermitJoiningRequest( duration );
   \                     ??ZDO_ProcessMgmtPermitJoinReq_1:
   \   000025                ; Setup parameters for call to function NLME_PermitJoiningRequest
   \   000025   A9..         MOV     R1,?V0
   \   000027   12....       LCALL   `??NLME_PermitJoiningRequest::?relay`; Banked call to: NLME_PermitJoiningRequest
   \   00002A   E9           MOV     A,R1
   \   00002B   85..82       MOV     DPL,?XSP + 0
   \   00002E   85..83       MOV     DPH,?XSP + 1
   \   000031   F0           MOVX    @DPTR,A
   1980          
   1981            //Handle the permit joining if running a distributed network
   1982            if(APSME_IsDistributedSecurity())
   \   000032                ; Setup parameters for call to function APSME_IsDistributedSecurity
   \   000032   12....       LCALL   `??APSME_IsDistributedSecurity::?relay`; Banked call to: APSME_IsDistributedSecurity
   \   000035   E9           MOV     A,R1
   \   000036   6005         JZ      ??ZDO_ProcessMgmtPermitJoinReq_2
   1983            {
   1984              ZDSecMgrPermitJoining( duration );
   \   000038                ; Setup parameters for call to function ZDSecMgrPermitJoining
   \   000038   A9..         MOV     R1,?V0
   \   00003A   12....       LCALL   `??ZDSecMgrPermitJoining::?relay`; Banked call to: ZDSecMgrPermitJoining
   1985            }
   1986            
   1987            // Handle the Trust Center Significance
   1988            if ( ZG_SECURE_ENABLED && ZG_BUILD_COORDINATOR_TYPE && ZG_DEVICE_COORDINATOR_TYPE )
   1989            {
   1990              ZDSecMgrPermitJoining( duration );
   \                     ??ZDO_ProcessMgmtPermitJoinReq_2:
   \   00003D                ; Setup parameters for call to function ZDSecMgrPermitJoining
   \   00003D   A9..         MOV     R1,?V0
   \   00003F   12....       LCALL   `??ZDSecMgrPermitJoining::?relay`; Banked call to: ZDSecMgrPermitJoining
   1991            }
   1992          
   1993            // Send a response if unicast
   1994            if ( !inMsg->wasBroadcast )
   \   000042   EE           MOV     A,R6
   \   000043   240B         ADD     A,#0xb
   \   000045   12....       LCALL   ??Subroutine194_0 & 0xFFFF
   \                     ??CrossCallReturnLabel_377:
   \   000048   702C         JNZ     ??ZDO_ProcessMgmtPermitJoinReq_0
   1995            {
   1996              ZDP_MgmtPermitJoinRsp( inMsg->TransSeq, &(inMsg->srcAddr), stat, false );
   \   00004A                ; Setup parameters for call to function ZDP_SendData
   \   00004A   75..00       MOV     ?V0,#0x0
   \   00004D   78..         MOV     R0,#?V0
   \   00004F   12....       LCALL   ?PUSH_XSTACK_I_ONE
   \   000052   7401         MOV     A,#0x1
   \   000054   12....       LCALL   ?XSTACK_DISP100_8
   \   000057   88..         MOV     ?V0,R0
   \   000059   89..         MOV     ?V1,R1
   \   00005B   78..         MOV     R0,#?V0
   \   00005D   12....       LCALL   ?PUSH_XSTACK_I_TWO
   \   000060   75..36       MOV     ?V0,#0x36
   \   000063   75..80       MOV     ?V1,#-0x80
   \   000066   78..         MOV     R0,#?V0
   \   000068   12....       LCALL   ?PUSH_XSTACK_I_TWO
   \   00006B   12....       LCALL   ?Subroutine115 & 0xFFFF
   1997            }
   \                     ??CrossCallReturnLabel_186:
   \   00006E   12....       LCALL   `??ZDP_SendData::?relay`; Banked call to: ZDP_SendData
   \   000071   7405         MOV     A,#0x5
   \   000073   12....       LCALL   ?DEALLOC_XSTACK8
   1998          }
   \                     ??ZDO_ProcessMgmtPermitJoinReq_0:
   \   000076   02....       LJMP    ?Subroutine9 & 0xFFFF
   1999          
   2000          /*
   2001           * This function stub allows the next higher layer to be notified of
   2002           * a permit joining timeout.
   2003           */
   2004          /*********************************************************************
   2005           * @fn          ZDO_ProcessMgmtPermitJoinTimeout
   2006           *
   2007           * @brief       This function stub allows the next higher layer to be
   2008           *              notified of a permit joining timeout. Currently, this
   2009           *              directly bypasses the APS layer.
   2010           *
   2011           * @param       none
   2012           *
   2013           * @return      none
   2014           */

   \                                 In  segment BANKED_CODE, align 1, keep-with-next
   2015          void ZDO_ProcessMgmtPermitJoinTimeout( void )
   \                     NLME_PermitJoiningTimeout:
   2016          {
   \   000000   C082         PUSH    DPL
   \   000002   C083         PUSH    DPH
   \   000004                ; Saved register size: 2
   \   000004                ; Auto size: 0
   2017            #if defined( ZDO_MGMT_PERMIT_JOIN_RESPONSE )
   2018            // Currently, only the ZDSecMgr needs to be notified
   2019            if ( ZG_SECURE_ENABLED && ZG_BUILD_COORDINATOR_TYPE && ZG_DEVICE_COORDINATOR_TYPE )
   2020            {
   2021              ZDSecMgrPermitJoiningTimeout();
   \   000004                ; Setup parameters for call to function ZDSecMgrPermitJoiningTimeout
   \   000004   12....       LCALL   `??ZDSecMgrPermitJoiningTimeout::?relay`; Banked call to: ZDSecMgrPermitJoiningTimeout
   2022            }
   2023            #endif
   2024          }
   \   000007                REQUIRE ?Subroutine0
   \   000007                ; // Fall through to label ?Subroutine0
   2025          
   2026          /*********************************************************************
   2027           * @fn          ZDO_ProcessUserDescReq
   2028           *
   2029           * @brief       This function finishes the processing of the User
   2030           *              Descriptor Request and generates the response.
   2031           *
   2032           * @param       inMsg - incoming message (request)
   2033           *
   2034           * @return      none
   2035           */

   \                                 In  segment BANKED_CODE, align 1, keep-with-next
   2036          void ZDO_ProcessUserDescReq( zdoIncomingMsg_t *inMsg )
   \                     ZDO_ProcessUserDescReq:
   2037          {
   \   000000                REQUIRE ?V0
   \   000000                REQUIRE ?V1
   \   000000                REQUIRE ?V2
   \   000000                REQUIRE ?V3
   \   000000                REQUIRE ?V4
   \   000000                REQUIRE ?V5
   \   000000                REQUIRE ?V6
   \   000000                REQUIRE ?V7
   \   000000   74F0         MOV     A,#-0x10
   \   000002   12....       LCALL   ?BANKED_ENTER_XDATA
   \   000005                ; Saved register size: 16
   \   000005                ; Auto size: 17
   \   000005   74EF         MOV     A,#-0x11
   \   000007   12....       LCALL   ?ALLOC_XSTACK8
   \   00000A   12....       LCALL   ?Subroutine74 & 0xFFFF
   2038            uint16 aoi = BUILD_UINT16( inMsg->asdu[0], inMsg->asdu[1] );
   \                     ??CrossCallReturnLabel_107:
   \   00000D   F8           MOV     R0,A
   \   00000E   E4           CLR     A
   \   00000F   C8           XCH     A,R0
   \   000010   F9           MOV     R1,A
   \   000011   EA           MOV     A,R2
   \   000012   28           ADD     A,R0
   \   000013   F5..         MOV     ?V4,A
   \   000015   E4           CLR     A
   \   000016   39           ADDC    A,R1
   \   000017   F5..         MOV     ?V5,A
   2039            UserDescriptorFormat_t userDesc;
   2040          
   2041            if ( (aoi == ZDAppNwkAddr.addr.shortAddr) && (ZSUCCESS == osal_nv_read(
   2042                       ZCD_NV_USERDESC, 0, sizeof(UserDescriptorFormat_t), &userDesc )) )
   \   000019   EE           MOV     A,R6
   \   00001A   240F         ADD     A,#0xf
   \   00001C   F5..         MOV     ?V2,A
   \   00001E   E4           CLR     A
   \   00001F   3F           ADDC    A,R7
   \   000020   F5..         MOV     ?V3,A
   \   000022   EE           MOV     A,R6
   \   000023   2402         ADD     A,#0x2
   \   000025   F5..         MOV     ?V0,A
   \   000027   E4           CLR     A
   \   000028   3F           ADDC    A,R7
   \   000029   F5..         MOV     ?V1,A
   \   00002B   90....       MOV     DPTR,#ZDAppNwkAddr
   \   00002E   E0           MOVX    A,@DPTR
   \   00002F   65..         XRL     A,?V4
   \   000031   7004         JNZ     ??ZDO_ProcessUserDescReq_0
   \   000033   A3           INC     DPTR
   \   000034   E0           MOVX    A,@DPTR
   \   000035   65..         XRL     A,?V5
   \                     ??ZDO_ProcessUserDescReq_0:
   \   000037   705B         JNZ     ??ZDO_ProcessUserDescReq_1
   \   000039                ; Setup parameters for call to function osal_nv_read
   \   000039   A8..         MOV     R0,?XSP + 0
   \   00003B   A9..         MOV     R1,?XSP + 1
   \   00003D   88..         MOV     ?V6,R0
   \   00003F   89..         MOV     ?V7,R1
   \   000041   78..         MOV     R0,#?V6
   \   000043   12....       LCALL   ?PUSH_XSTACK_I_TWO
   \   000046   75..11       MOV     ?V6,#0x11
   \   000049   75..00       MOV     ?V7,#0x0
   \   00004C   78..         MOV     R0,#?V6
   \   00004E   12....       LCALL   ?PUSH_XSTACK_I_TWO
   \   000051   7C00         MOV     R4,#0x0
   \   000053   7D00         MOV     R5,#0x0
   \   000055   7A81         MOV     R2,#-0x7f
   \   000057   7B00         MOV     R3,#0x0
   \   000059   12....       LCALL   `??osal_nv_read::?relay`; Banked call to: osal_nv_read
   \   00005C   7404         MOV     A,#0x4
   \   00005E   12....       LCALL   ?DEALLOC_XSTACK8
   \   000061   E9           MOV     A,R1
   \   000062   7030         JNZ     ??ZDO_ProcessUserDescReq_1
   2043            {
   2044              ZDP_UserDescRsp( inMsg->TransSeq, &(inMsg->srcAddr), aoi, &userDesc, false );
   \   000064                ; Setup parameters for call to function ZDP_UserDescRsp
   \   000064   75..00       MOV     ?V6,#0x0
   \   000067   78..         MOV     R0,#?V6
   \   000069   12....       LCALL   ?PUSH_XSTACK_I_ONE
   \   00006C   7401         MOV     A,#0x1
   \   00006E   12....       LCALL   ?XSTACK_DISP100_8
   \   000071   88..         MOV     ?V6,R0
   \   000073   89..         MOV     ?V7,R1
   \   000075   78..         MOV     R0,#?V6
   \   000077   12....       LCALL   ?PUSH_XSTACK_I_TWO
   \   00007A   AC..         MOV     R4,?V4
   \   00007C   AD..         MOV     R5,?V5
   \   00007E   AA..         MOV     R2,?V0
   \   000080   AB..         MOV     R3,?V1
   \   000082   85..82       MOV     DPL,?V2
   \   000085   85..83       MOV     DPH,?V3
   \   000088   E0           MOVX    A,@DPTR
   \   000089   F9           MOV     R1,A
   \   00008A   12....       LCALL   `??ZDP_UserDescRsp::?relay`; Banked call to: ZDP_UserDescRsp
   \   00008D   7403         MOV     A,#0x3
   \   00008F   12....       LCALL   ?DEALLOC_XSTACK8
   \   000092   802A         SJMP    ??ZDO_ProcessUserDescReq_2
   2045            }
   2046            else
   2047            {
   2048              ZDP_GenericRsp(inMsg->TransSeq, &(inMsg->srcAddr),
   2049                     ZDP_NOT_SUPPORTED, aoi, User_Desc_rsp, inMsg->SecurityUse );
   \                     ??ZDO_ProcessUserDescReq_1:
   \   000094                ; Setup parameters for call to function ZDP_GenericRsp
   \   000094   75..11       MOV     ?V6,#0x11
   \   000097   75..80       MOV     ?V7,#-0x80
   \   00009A   78..         MOV     R0,#?V6
   \   00009C   12....       LCALL   ?PUSH_XSTACK_I_TWO
   \   00009F   78..         MOV     R0,#?V4
   \   0000A1   12....       LCALL   ?PUSH_XSTACK_I_TWO
   \   0000A4   12....       LCALL   ?Subroutine112 & 0xFFFF
   2050            }
   \                     ??CrossCallReturnLabel_382:
   \   0000A7   FD           MOV     R5,A
   \   0000A8   7C84         MOV     R4,#-0x7c
   \   0000AA   AA..         MOV     R2,?V0
   \   0000AC   AB..         MOV     R3,?V1
   \   0000AE   85..82       MOV     DPL,?V2
   \   0000B1   85..83       MOV     DPH,?V3
   \   0000B4   E0           MOVX    A,@DPTR
   \   0000B5   F9           MOV     R1,A
   \   0000B6   12....       LCALL   `??ZDP_GenericRsp::?relay`; Banked call to: ZDP_GenericRsp
   \   0000B9   7404         MOV     A,#0x4
   \   0000BB   12....       LCALL   ?DEALLOC_XSTACK8
   2051          }
   \                     ??ZDO_ProcessUserDescReq_2:
   \   0000BE   7411         MOV     A,#0x11
   \   0000C0   02....       LJMP    ?Subroutine8 & 0xFFFF
   2052          
   2053          /*********************************************************************
   2054           * @fn          ZDO_ProcessUserDescSet
   2055           *
   2056           * @brief       This function finishes the processing of the User
   2057           *              Descriptor Set and generates the response.
   2058           *
   2059           * @param       inMsg - incoming message (request)
   2060           *
   2061           * @return      none
   2062           */

   \                                 In  segment BANKED_CODE, align 1, keep-with-next
   2063          void ZDO_ProcessUserDescSet( zdoIncomingMsg_t *inMsg )
   \                     ZDO_ProcessUserDescSet:
   2064          {
   \   000000                REQUIRE ?V0
   \   000000                REQUIRE ?V1
   \   000000                REQUIRE ?V2
   \   000000                REQUIRE ?V3
   \   000000                REQUIRE ?V4
   \   000000                REQUIRE ?V5
   \   000000                REQUIRE ?V6
   \   000000   74F1         MOV     A,#-0xf
   \   000002   12....       LCALL   ?BANKED_ENTER_XDATA
   \   000005                ; Saved register size: 15
   \   000005                ; Auto size: 21
   \   000005   74EB         MOV     A,#-0x15
   \   000007   12....       LCALL   ?ALLOC_XSTACK8
   \   00000A   8A..         MOV     ?V2,R2
   \   00000C   8B..         MOV     ?V3,R3
   2065            uint8 *msg;
   2066            uint16 aoi;
   2067            UserDescriptorFormat_t userDesc;
   2068            uint8 outMsg[3];
   2069            uint8 status;
   2070          
   2071            msg = inMsg->asdu;
   \   00000E   12....       LCALL   ??Subroutine189_0 & 0xFFFF
   \                     ??CrossCallReturnLabel_370:
   \   000011   35..         ADDC    A,?V3
   \   000013   12....       LCALL   ?Subroutine73 & 0xFFFF
   2072            aoi = BUILD_UINT16( msg[0], msg[1] );
   \                     ??CrossCallReturnLabel_104:
   \   000016   FA           MOV     R2,A
   \   000017   E4           CLR     A
   \   000018   CA           XCH     A,R2
   \   000019   FB           MOV     R3,A
   \   00001A   EC           MOV     A,R4
   \   00001B   2A           ADD     A,R2
   \   00001C   FE           MOV     R6,A
   \   00001D   E4           CLR     A
   \   00001E   3B           ADDC    A,R3
   \   00001F   FF           MOV     R7,A
   2073          
   2074            if ( aoi == ZDAppNwkAddr.addr.shortAddr )
   \   000020   90....       MOV     DPTR,#ZDAppNwkAddr
   \   000023   E0           MOVX    A,@DPTR
   \   000024   6E           XRL     A,R6
   \   000025   7003         JNZ     ??ZDO_ProcessUserDescSet_0
   \   000027   A3           INC     DPTR
   \   000028   E0           MOVX    A,@DPTR
   \   000029   6F           XRL     A,R7
   \                     ??ZDO_ProcessUserDescSet_0:
   \   00002A   6003         JZ      $+5
   \   00002C   02....       LJMP    ??ZDO_ProcessUserDescSet_1 & 0xFFFF
   2075            {
   2076              userDesc.len = (msg[2] < AF_MAX_USER_DESCRIPTOR_LEN) ? msg[2] : AF_MAX_USER_DESCRIPTOR_LEN;
   \   00002F   8882         MOV     DPL,R0
   \   000031   8983         MOV     DPH,R1
   \   000033   A3           INC     DPTR
   \   000034   A3           INC     DPTR
   \   000035   E0           MOVX    A,@DPTR
   \   000036   FA           MOV     R2,A
   \   000037   9410         SUBB    A,#0x10
   \   000039   5004         JNC     ??ZDO_ProcessUserDescSet_2
   \   00003B   8A..         MOV     ?V0,R2
   \   00003D   8003         SJMP    ??ZDO_ProcessUserDescSet_3
   \                     ??ZDO_ProcessUserDescSet_2:
   \   00003F   75..10       MOV     ?V0,#0x10
   \                     ??ZDO_ProcessUserDescSet_3:
   \   000042   7404         MOV     A,#0x4
   \   000044   12....       LCALL   ?XSTACK_DISP0_8
   \   000047   E5..         MOV     A,?V0
   \   000049   12....       LCALL   ?Subroutine35 & 0xFFFF
   2077              msg ++;  // increment one for the length field
   2078          
   2079              osal_memcpy( userDesc.desc, &msg[2], userDesc.len );
   \                     ??CrossCallReturnLabel_45:
   \   00004C   A982         MOV     R1,DPL
   \   00004E   AA83         MOV     R2,DPH
   \   000050   89..         MOV     ?V4,R1
   \   000052   8A..         MOV     ?V5,R2
   \   000054   75..00       MOV     ?V6,#0x0
   \   000057   78..         MOV     R0,#?V4
   \   000059   12....       LCALL   ?PUSH_XSTACK_I_THREE
   \   00005C   7407         MOV     A,#0x7
   \   00005E   12....       LCALL   ?XSTACK_DISP0_8
   \   000061   E0           MOVX    A,@DPTR
   \   000062   FC           MOV     R4,A
   \   000063   7D00         MOV     R5,#0x0
   \   000065   7408         MOV     A,#0x8
   \   000067   12....       LCALL   ?XSTACK_DISP0_8
   \   00006A   AA82         MOV     R2,DPL
   \   00006C   AB83         MOV     R3,DPH
   \   00006E   12....       LCALL   `??osal_memcpy::?relay`; Banked call to: osal_memcpy
   \   000071   7403         MOV     A,#0x3
   \   000073   12....       LCALL   ?DEALLOC_XSTACK8
   2080              osal_nv_write( ZCD_NV_USERDESC, 0, sizeof(UserDescriptorFormat_t), &userDesc );
   \   000076                ; Setup parameters for call to function osal_nv_write
   \   000076   7404         MOV     A,#0x4
   \   000078   12....       LCALL   ?XSTACK_DISP100_8
   \   00007B   88..         MOV     ?V4,R0
   \   00007D   89..         MOV     ?V5,R1
   \   00007F   78..         MOV     R0,#?V4
   \   000081   12....       LCALL   ?PUSH_XSTACK_I_TWO
   \   000084   75..11       MOV     ?V4,#0x11
   \   000087   75..00       MOV     ?V5,#0x0
   \   00008A   78..         MOV     R0,#?V4
   \   00008C   12....       LCALL   ?PUSH_XSTACK_I_TWO
   \   00008F   7C00         MOV     R4,#0x0
   \   000091   7D00         MOV     R5,#0x0
   \   000093   7A81         MOV     R2,#-0x7f
   \   000095   7B00         MOV     R3,#0x0
   \   000097   12....       LCALL   `??osal_nv_write::?relay`; Banked call to: osal_nv_write
   \   00009A   7404         MOV     A,#0x4
   \   00009C   12....       LCALL   ?DEALLOC_XSTACK8
   2081              if ( userDesc.len != 0 )
   \   00009F   7404         MOV     A,#0x4
   \   0000A1   12....       LCALL   ?XSTACK_DISP0_8
   \   0000A4   E0           MOVX    A,@DPTR
   \   0000A5   90....       MOV     DPTR,#ZDO_Config_Node_Descriptor
   \   0000A8   6005         JZ      ??ZDO_ProcessUserDescSet_4
   2082              {
   2083                ZDO_Config_Node_Descriptor.UserDescAvail = TRUE;
   \   0000AA   E0           MOVX    A,@DPTR
   \   0000AB   D2E4         SETB    0xE0 /* A   */.4
   \   0000AD   8003         SJMP    ??ZDO_ProcessUserDescSet_5
   2084              }
   2085              else
   2086              {
   2087                ZDO_Config_Node_Descriptor.UserDescAvail = FALSE;
   \                     ??ZDO_ProcessUserDescSet_4:
   \   0000AF   E0           MOVX    A,@DPTR
   \   0000B0   C2E4         CLR     0xE0 /* A   */.4
   2088              }
   2089          
   2090              status = ZDP_SUCCESS;
   2091            }
   \                     ??ZDO_ProcessUserDescSet_5:
   \   0000B2   12....       LCALL   ?Subroutine171 & 0xFFFF
   \                     ??CrossCallReturnLabel_294:
   \   0000B5   E4           CLR     A
   \   0000B6   8008         SJMP    ??ZDO_ProcessUserDescSet_6
   2092            else
   2093            {
   2094              status =  ZDP_NOT_SUPPORTED;
   \                     ??ZDO_ProcessUserDescSet_1:
   \   0000B8   85..82       MOV     DPL,?XSP + 0
   \   0000BB   85..83       MOV     DPH,?XSP + 1
   \   0000BE   7484         MOV     A,#-0x7c
   \                     ??ZDO_ProcessUserDescSet_6:
   \   0000C0   F0           MOVX    @DPTR,A
   2095            }
   2096          
   2097            outMsg[0] = status;
   \   0000C1   E0           MOVX    A,@DPTR
   \   0000C2   C0E0         PUSH    A
   \   0000C4   7401         MOV     A,#0x1
   \   0000C6   12....       LCALL   ?XSTACK_DISP0_8
   \   0000C9   D0E0         POP     A
   \   0000CB   F0           MOVX    @DPTR,A
   2098            outMsg[1] = LO_UINT16( aoi );
   \   0000CC   7402         MOV     A,#0x2
   \   0000CE   12....       LCALL   ?XSTACK_DISP0_8
   \   0000D1   EE           MOV     A,R6
   \   0000D2   F0           MOVX    @DPTR,A
   2099            outMsg[2] = LO_UINT16( aoi );
   \   0000D3   7403         MOV     A,#0x3
   \   0000D5   12....       LCALL   ?XSTACK_DISP0_8
   \   0000D8   EE           MOV     A,R6
   \   0000D9   F0           MOVX    @DPTR,A
   2100          
   2101            ZDP_SendData( &(inMsg->TransSeq), &(inMsg->srcAddr), User_Desc_conf, 3, outMsg,
   2102                         inMsg->SecurityUse );
   \   0000DA                ; Setup parameters for call to function ZDP_SendData
   \   0000DA   E5..         MOV     A,?V2
   \   0000DC   12....       LCALL   ?Subroutine114 & 0xFFFF
   \                     ??CrossCallReturnLabel_180:
   \   0000DF   35..         ADDC    A,?V3
   \   0000E1   F583         MOV     DPH,A
   \   0000E3   E0           MOVX    A,@DPTR
   \   0000E4   F5..         MOV     ?V1,A
   \   0000E6   78..         MOV     R0,#?V1
   \   0000E8   12....       LCALL   ?PUSH_XSTACK_I_ONE
   \   0000EB   7402         MOV     A,#0x2
   \   0000ED   12....       LCALL   ?XSTACK_DISP100_8
   \   0000F0   88..         MOV     ?V4,R0
   \   0000F2   89..         MOV     ?V5,R1
   \   0000F4   78..         MOV     R0,#?V4
   \   0000F6   12....       LCALL   ?PUSH_XSTACK_I_TWO
   \   0000F9   75..14       MOV     ?V4,#0x14
   \   0000FC   75..80       MOV     ?V5,#-0x80
   \   0000FF   78..         MOV     R0,#?V4
   \   000101   12....       LCALL   ?PUSH_XSTACK_I_TWO
   \   000104   7903         MOV     R1,#0x3
   \   000106   E5..         MOV     A,?V2
   \   000108   2402         ADD     A,#0x2
   \   00010A   FC           MOV     R4,A
   \   00010B   E4           CLR     A
   \   00010C   35..         ADDC    A,?V3
   \   00010E   FD           MOV     R5,A
   \   00010F   E5..         MOV     A,?V2
   \   000111   240F         ADD     A,#0xf
   \   000113   FA           MOV     R2,A
   \   000114   E4           CLR     A
   \   000115   35..         ADDC    A,?V3
   \   000117   FB           MOV     R3,A
   \   000118   12....       LCALL   `??ZDP_SendData::?relay`; Banked call to: ZDP_SendData
   \   00011B   7405         MOV     A,#0x5
   \   00011D   12....       LCALL   ?DEALLOC_XSTACK8
   2103          }
   \   000120   7415         MOV     A,#0x15
   \   000122   12....       LCALL   ?DEALLOC_XSTACK8
   \   000125   7F07         MOV     R7,#0x7
   \   000127   02....       LJMP    ?BANKED_LEAVE_XDATA

   \                                 In  segment BANKED_CODE, align 1, keep-with-next
   \                     ?Subroutine114:
   \   000000   240E         ADD     A,#0xe
   \   000002   F582         MOV     DPL,A
   \   000004   E4           CLR     A
   \   000005   22           RET

   \                                 In  segment BANKED_CODE, align 1, keep-with-next
   \                     ?Subroutine35:
   \   000000   12....       LCALL   ?Subroutine150 & 0xFFFF
   \                     ??CrossCallReturnLabel_263:
   \   000003   22           RET

   \                                 In  segment BANKED_CODE, align 1, keep-with-next
   \                     ?Subroutine150:
   \   000000   12....       LCALL   ?Subroutine172 & 0xFFFF
   \                     ??CrossCallReturnLabel_296:
   \   000003   22           RET

   \                                 In  segment BANKED_CODE, align 1, keep-with-next
   \                     ?Subroutine172:
   \   000000   F0           MOVX    @DPTR,A
   \   000001                ; Setup parameters for call to function osal_memcpy
   \   000001   8882         MOV     DPL,R0
   \   000003   8983         MOV     DPH,R1
   \   000005   A3           INC     DPTR
   \   000006   A3           INC     DPTR
   \   000007   A3           INC     DPTR
   \   000008   22           RET
   2104          
   2105          /*********************************************************************
   2106           * @fn          ZDO_ProcessDeviceAnnce
   2107           *
   2108           * @brief       This function processes a device annouce message.
   2109           *
   2110           * @param       inMsg - incoming message
   2111           *
   2112           * @return      none
   2113           */

   \                                 In  segment BANKED_CODE, align 1, keep-with-next
   2114          void ZDO_ProcessDeviceAnnce( zdoIncomingMsg_t *inMsg )
   \                     ZDO_ProcessDeviceAnnce:
   2115          {
   \   000000                REQUIRE ?V0
   \   000000                REQUIRE ?V1
   \   000000                REQUIRE ?V2
   \   000000   74F5         MOV     A,#-0xb
   \   000002   12....       LCALL   ?BANKED_ENTER_XDATA
   \   000005                ; Saved register size: 11
   \   000005                ; Auto size: 40
   \   000005   74D8         MOV     A,#-0x28
   \   000007   12....       LCALL   ?ALLOC_XSTACK8
   \   00000A   EA           MOV     A,R2
   \   00000B   FE           MOV     R6,A
   \   00000C   EB           MOV     A,R3
   \   00000D   FF           MOV     R7,A
   2116            ZDO_DeviceAnnce_t Annce;
   2117            AddrMgrEntry_t addrEntry;
   2118            uint8 parentExt[Z_EXTADDR_LEN];
   2119          #if ZG_BUILD_RTR_TYPE 
   2120            uint8 invalidIEEE[Z_EXTADDR_LEN] = {0xFF};
   \   00000E   90....       MOV     DPTR,#`?<Constant {255, 0, 0, 0, 0, 0, 0, 0}>`
   \   000011   7420         MOV     A,#0x20
   \   000013   12....       LCALL   ?XSTACK_DISP102_8
   \   000016   7408         MOV     A,#0x8
   \   000018   12....       LCALL   ?MOVE_LONG8_XDATA_XDATA
   2121          #endif
   2122          
   2123            if ( (_NIB.nwkState != NWK_ROUTER) && (_NIB.nwkState != NWK_ENDDEVICE) )
   \   00001B   90....       MOV     DPTR,#_NIB + 35
   \   00001E   E0           MOVX    A,@DPTR
   \   00001F   F8           MOV     R0,A
   \   000020   7408         MOV     A,#0x8
   \   000022   68           XRL     A,R0
   \   000023   6008         JZ      ??ZDO_ProcessDeviceAnnce_0
   \   000025   7404         MOV     A,#0x4
   \   000027   68           XRL     A,R0
   \   000028   6003         JZ      $+5
   \   00002A   02....       LJMP    ??ZDO_ProcessDeviceAnnce_1 & 0xFFFF
   2124            {
   2125              // we arent stable, ignore the message
   2126              return;
   2127            }
   2128            
   2129            // Parse incoming message
   2130            ZDO_ParseDeviceAnnce( inMsg, &Annce );
   \                     ??ZDO_ProcessDeviceAnnce_0:
   \   00002D                ; Setup parameters for call to function ZDO_ParseDeviceAnnce
   \   00002D   AC..         MOV     R4,?XSP + 0
   \   00002F   AD..         MOV     R5,?XSP + 1
   \   000031   12....       LCALL   `??ZDO_ParseDeviceAnnce::?relay`; Banked call to: ZDO_ParseDeviceAnnce
   2131          
   2132            if ( ZSTACK_END_DEVICE_BUILD )
   2133            {
   2134              // Make sure the message didn't come from myself - end device only
   2135              if ( osal_ExtAddrEqual( NLME_GetExtAddr(), Annce.extAddr ) && Annce.nwkAddr == NLME_GetShortAddr() )
   2136              {
   2137                return;
   2138              }
   2139            }
   2140          
   2141          #if defined ( ZIGBEEPRO )
   2142            // Clean up the neighbor table
   2143            nwkNeighborRemoveAllStranded();
   \   000034                ; Setup parameters for call to function nwkNeighborRemoveAllStranded
   \   000034   12....       LCALL   `??nwkNeighborRemoveAllStranded::?relay`; Banked call to: nwkNeighborRemoveAllStranded
   2144          
   2145            // If address conflict is detected, no need to update the address manager
   2146            if ( NLME_CheckNewAddrSet( Annce.nwkAddr, Annce.extAddr )== ZFailure )
   \   000037                ; Setup parameters for call to function NLME_CheckNewAddrSet
   \   000037   7402         MOV     A,#0x2
   \   000039   12....       LCALL   ?XSTACK_DISP0_8
   \   00003C   AC82         MOV     R4,DPL
   \   00003E   AD83         MOV     R5,DPH
   \   000040   12....       LCALL   ?Subroutine85 & 0xFFFF
   \                     ??CrossCallReturnLabel_418:
   \   000043   12....       LCALL   `??NLME_CheckNewAddrSet::?relay`; Banked call to: NLME_CheckNewAddrSet
   \   000046   E9           MOV     A,R1
   \   000047   6401         XRL     A,#0x1
   \   000049   7003         JNZ     $+5
   \   00004B   02....       LJMP    ??ZDO_ProcessDeviceAnnce_1 & 0xFFFF
   2147            {
   2148              return;
   2149            }
   2150          
   2151            // Check for parent's address
   2152            NLME_GetCoordExtAddr( parentExt );
   \   00004E                ; Setup parameters for call to function NLME_GetCoordExtAddr
   \   00004E   7418         MOV     A,#0x18
   \   000050   12....       LCALL   ?XSTACK_DISP101_8
   \   000053   12....       LCALL   `??NLME_GetCoordExtAddr::?relay`; Banked call to: NLME_GetCoordExtAddr
   2153            if ( osal_ExtAddrEqual( parentExt, Annce.extAddr ) )
   \   000056                ; Setup parameters for call to function sAddrExtCmp
   \   000056   7402         MOV     A,#0x2
   \   000058   12....       LCALL   ?XSTACK_DISP0_8
   \   00005B   AC82         MOV     R4,DPL
   \   00005D   AD83         MOV     R5,DPH
   \   00005F   7418         MOV     A,#0x18
   \   000061   12....       LCALL   ?XSTACK_DISP101_8
   \   000064   12....       LCALL   `??sAddrExtCmp::?relay`; Banked call to: sAddrExtCmp
   \   000067   E9           MOV     A,R1
   \   000068   6032         JZ      ??ZDO_ProcessDeviceAnnce_2
   2154            {
   2155              if ( Annce.nwkAddr != NLME_GetCoordShortAddr() )
   \   00006A                ; Setup parameters for call to function NLME_GetCoordShortAddr
   \   00006A   12....       LCALL   `??NLME_GetCoordShortAddr::?relay`; Banked call to: NLME_GetCoordShortAddr
   \   00006D   8A..         MOV     ?V0,R2
   \   00006F   8B..         MOV     ?V1,R3
   \   000071   A8..         MOV     R0,?V0
   \   000073   A9..         MOV     R1,?V1
   \   000075   85..82       MOV     DPL,?XSP + 0
   \   000078   85..83       MOV     DPH,?XSP + 1
   \   00007B   E0           MOVX    A,@DPTR
   \   00007C   68           XRL     A,R0
   \   00007D   7003         JNZ     ??ZDO_ProcessDeviceAnnce_3
   \   00007F   A3           INC     DPTR
   \   000080   E0           MOVX    A,@DPTR
   \   000081   69           XRL     A,R1
   \                     ??ZDO_ProcessDeviceAnnce_3:
   \   000082   6018         JZ      ??ZDO_ProcessDeviceAnnce_2
   2156              {
   2157                // Set the Parent's MAC's new short address
   2158                _NIB.nwkCoordAddress = Annce.nwkAddr;
   \   000084   85..82       MOV     DPL,?XSP + 0
   \   000087   85..83       MOV     DPH,?XSP + 1
   \   00008A   12....       LCALL   ??Subroutine212_0 & 0xFFFF
   \                     ??CrossCallReturnLabel_497:
   \   00008D   90....       MOV     DPTR,#_NIB + 23
   \   000090   12....       LCALL   ?Subroutine40 & 0xFFFF
   2159                ZMacSetReq( ZMacCoordShortAddress, (byte*)&(_NIB.nwkCoordAddress) );
   \                     ??CrossCallReturnLabel_390:
   \   000093                ; Setup parameters for call to function ZMacSetReq
   \   000093   7A..         MOV     R2,#(_NIB + 23) & 0xff
   \   000095   7B..         MOV     R3,#((_NIB + 23) >> 8) & 0xff
   \   000097   794B         MOV     R1,#0x4b
   \   000099   12....       LCALL   `??ZMacSetReq::?relay`; Banked call to: ZMacSetReq
   2160              }
   2161            }
   2162          
   2163            if ( ZSTACK_ROUTER_BUILD )
   2164            {
   2165              // If the device annce comes from a end device child that has moved
   2166              // to another parent, remove it from associated device list
   2167          
   2168              // If the dev annce is coming from other device's children,
   2169              // (The dev annce from its own children shall be unicast to itself,
   2170              // So check the mac destination address)
   2171              // Remove it from the associated device list. If it is not
   2172              // a child, no action will be taken in AssocRemove() anyway.
   2173              if ( inMsg->macDestAddr != NLME_GetShortAddr() )
   \                     ??ZDO_ProcessDeviceAnnce_2:
   \   00009C                ; Setup parameters for call to function NLME_GetShortAddr
   \   00009C   12....       LCALL   `??NLME_GetShortAddr::?relay`; Banked call to: NLME_GetShortAddr
   \   00009F   8A..         MOV     ?V0,R2
   \   0000A1   8B..         MOV     ?V1,R3
   \   0000A3   A8..         MOV     R0,?V0
   \   0000A5   A9..         MOV     R1,?V1
   \   0000A7   EE           MOV     A,R6
   \   0000A8   2411         ADD     A,#0x11
   \   0000AA   12....       LCALL   ??Subroutine194_0 & 0xFFFF
   \                     ??CrossCallReturnLabel_378:
   \   0000AD   68           XRL     A,R0
   \   0000AE   7003         JNZ     ??ZDO_ProcessDeviceAnnce_4
   \   0000B0   A3           INC     DPTR
   \   0000B1   E0           MOVX    A,@DPTR
   \   0000B2   69           XRL     A,R1
   \                     ??ZDO_ProcessDeviceAnnce_4:
   \   0000B3   6050         JZ      ??ZDO_ProcessDeviceAnnce_5
   2174              {
   2175                associated_devices_t *dev_ptr;
   2176          
   2177                // If it's an end device child
   2178                dev_ptr = AssocGetWithExt( Annce.extAddr );
   \   0000B5                ; Setup parameters for call to function AssocGetWithExt
   \   0000B5   7402         MOV     A,#0x2
   \   0000B7   12....       LCALL   ?XSTACK_DISP0_8
   \   0000BA   AA82         MOV     R2,DPL
   \   0000BC   AB83         MOV     R3,DPH
   \   0000BE   12....       LCALL   `??AssocGetWithExt::?relay`; Banked call to: AssocGetWithExt
   \   0000C1   8A82         MOV     DPL,R2
   \   0000C3   8B83         MOV     DPH,R3
   2179                if ( dev_ptr )
   \   0000C5   E582         MOV     A,DPL
   \   0000C7   4583         ORL     A,DPH
   \   0000C9   601C         JZ      ??ZDO_ProcessDeviceAnnce_6
   2180                {
   2181                  if ( dev_ptr->nodeRelation == CHILD_RFD ||
   2182                       dev_ptr->nodeRelation == CHILD_RFD_RX_IDLE )
   \   0000CB   A3           INC     DPTR
   \   0000CC   A3           INC     DPTR
   \   0000CD   A3           INC     DPTR
   \   0000CE   A3           INC     DPTR
   \   0000CF   E0           MOVX    A,@DPTR
   \   0000D0   F8           MOV     R0,A
   \   0000D1   7401         MOV     A,#0x1
   \   0000D3   68           XRL     A,R0
   \   0000D4   6005         JZ      ??ZDO_ProcessDeviceAnnce_7
   \   0000D6   7402         MOV     A,#0x2
   \   0000D8   68           XRL     A,R0
   \   0000D9   700C         JNZ     ??ZDO_ProcessDeviceAnnce_6
   2183                  {
   2184                    AssocRemove( Annce.extAddr );
   \                     ??ZDO_ProcessDeviceAnnce_7:
   \   0000DB                ; Setup parameters for call to function AssocRemove
   \   0000DB   7402         MOV     A,#0x2
   \   0000DD   12....       LCALL   ?XSTACK_DISP0_8
   \   0000E0   AA82         MOV     R2,DPL
   \   0000E2   AB83         MOV     R3,DPH
   \   0000E4   12....       LCALL   `??AssocRemove::?relay`; Banked call to: AssocRemove
   2185                  }
   2186                }
   2187          
   2188                // Remove the address from the SrcMatch table,
   2189                // just in case the device was aged out by Child Management Table process
   2190                if ( ( pNwkNotMyChildListDelete != NULL ) &&
   2191                     ( zgChildAgingEnable == TRUE ) )
   \                     ??ZDO_ProcessDeviceAnnce_6:
   \   0000E7   90....       MOV     DPTR,#pNwkNotMyChildListDelete
   \   0000EA   12....       LCALL   ??Subroutine204_0 & 0xFFFF
   \                     ??CrossCallReturnLabel_441:
   \   0000ED   6016         JZ      ??ZDO_ProcessDeviceAnnce_5
   \   0000EF   90....       MOV     DPTR,#zgChildAgingEnable
   \   0000F2   E0           MOVX    A,@DPTR
   \   0000F3   6401         XRL     A,#0x1
   \   0000F5   700E         JNZ     ??ZDO_ProcessDeviceAnnce_5
   2192                {
   2193                  pNwkNotMyChildListDelete( Annce.nwkAddr );
   \   0000F7                ; Setup parameters for indirect call
   \   0000F7   12....       LCALL   ?Subroutine85 & 0xFFFF
   2194                }
   2195              }
   2196            }
   \                     ??CrossCallReturnLabel_419:
   \   0000FA   90....       MOV     DPTR,#pNwkNotMyChildListDelete + 1
   \   0000FD   E0           MOVX    A,@DPTR
   \   0000FE   F583         MOV     DPH,A
   \   000100   8882         MOV     DPL,R0
   \   000102   12....       LCALL   ?CALL_IND
   2197          
   2198            // Assume that the device has moved, remove existing routing entries
   2199            RTG_RemoveRtgEntry( Annce.nwkAddr, 0 );
   \                     ??ZDO_ProcessDeviceAnnce_5:
   \   000105                ; Setup parameters for call to function RTG_RemoveRtgEntry
   \   000105   7900         MOV     R1,#0x0
   \   000107   12....       LCALL   ?Subroutine85 & 0xFFFF
   \                     ??CrossCallReturnLabel_420:
   \   00010A   12....       LCALL   `??RTG_RemoveRtgEntry::?relay`; Banked call to: RTG_RemoveRtgEntry
   2200          
   2201            // Remove entry from neighborTable
   2202            nwkNeighborRemove( Annce.nwkAddr, _NIB.nwkPanId );
   \   00010D                ; Setup parameters for call to function nwkNeighborRemove
   \   00010D   90....       MOV     DPTR,#_NIB + 33
   \   000110   12....       LCALL   ??Subroutine181_0 & 0xFFFF
   \                     ??CrossCallReturnLabel_307:
   \   000113   12....       LCALL   ?Subroutine85 & 0xFFFF
   \                     ??CrossCallReturnLabel_421:
   \   000116   12....       LCALL   `??nwkNeighborRemove::?relay`; Banked call to: nwkNeighborRemove
   2203          
   2204          #endif // ZIGBEEPRO
   2205          
   2206            // Fill in the extended address in address manager if we don't have it already.
   2207            addrEntry.user = ADDRMGR_USER_DEFAULT;
   \   000119   740B         MOV     A,#0xb
   \   00011B   12....       LCALL   ?XSTACK_DISP0_8
   \   00011E   E4           CLR     A
   \   00011F   12....       LCALL   ?Subroutine22 & 0xFFFF
   2208            addrEntry.nwkAddr = Annce.nwkAddr;
   \                     ??CrossCallReturnLabel_19:
   \   000122   740C         MOV     A,#0xc
   \   000124   12....       LCALL   ?XSTACK_DISP0_8
   \   000127   12....       LCALL   ?Subroutine40 & 0xFFFF
   2209            if ( AddrMgrEntryLookupNwk( &addrEntry ) )
   \                     ??CrossCallReturnLabel_391:
   \   00012A                ; Setup parameters for call to function AddrMgrEntryLookupNwk
   \   00012A   740B         MOV     A,#0xb
   \   00012C   12....       LCALL   ?XSTACK_DISP101_8
   \   00012F   12....       LCALL   `??AddrMgrEntryLookupNwk::?relay`; Banked call to: AddrMgrEntryLookupNwk
   \   000132   E9           MOV     A,R1
   \   000133   603F         JZ      ??ZDO_ProcessDeviceAnnce_8
   2210            {
   2211              osal_memset( parentExt, 0, Z_EXTADDR_LEN );
   \   000135                ; Setup parameters for call to function osal_memset
   \   000135   7C08         MOV     R4,#0x8
   \   000137   7D00         MOV     R5,#0x0
   \   000139   7900         MOV     R1,#0x0
   \   00013B   7418         MOV     A,#0x18
   \   00013D   12....       LCALL   ?XSTACK_DISP101_8
   \   000140   12....       LCALL   `??osal_memset::?relay`; Banked call to: osal_memset
   2212              if ( osal_ExtAddrEqual( parentExt, addrEntry.extAddr ) )
   \   000143                ; Setup parameters for call to function sAddrExtCmp
   \   000143   740E         MOV     A,#0xe
   \   000145   12....       LCALL   ?XSTACK_DISP0_8
   \   000148   AC82         MOV     R4,DPL
   \   00014A   AD83         MOV     R5,DPH
   \   00014C   7418         MOV     A,#0x18
   \   00014E   12....       LCALL   ?XSTACK_DISP101_8
   \   000151   12....       LCALL   `??sAddrExtCmp::?relay`; Banked call to: sAddrExtCmp
   \   000154   E9           MOV     A,R1
   \   000155   601D         JZ      ??ZDO_ProcessDeviceAnnce_8
   2213              {
   2214                AddrMgrExtAddrSet( addrEntry.extAddr, Annce.extAddr );
   \   000157                ; Setup parameters for call to function AddrMgrExtAddrSet
   \   000157   7402         MOV     A,#0x2
   \   000159   12....       LCALL   ?XSTACK_DISP0_8
   \   00015C   AC82         MOV     R4,DPL
   \   00015E   AD83         MOV     R5,DPH
   \   000160   740E         MOV     A,#0xe
   \   000162   12....       LCALL   ?XSTACK_DISP0_8
   \   000165   AA82         MOV     R2,DPL
   \   000167   AB83         MOV     R3,DPH
   \   000169   12....       LCALL   `??AddrMgrExtAddrSet::?relay`; Banked call to: AddrMgrExtAddrSet
   2215                AddrMgrEntryUpdate( &addrEntry );
   \   00016C                ; Setup parameters for call to function AddrMgrEntryUpdate
   \   00016C   740B         MOV     A,#0xb
   \   00016E   12....       LCALL   ?XSTACK_DISP101_8
   \   000171   12....       LCALL   `??AddrMgrEntryUpdate::?relay`; Banked call to: AddrMgrEntryUpdate
   2216              }
   2217            }
   2218          
   2219            // Update the short address in address manager if it's been changed
   2220            AddrMgrExtAddrSet( addrEntry.extAddr, Annce.extAddr );
   \                     ??ZDO_ProcessDeviceAnnce_8:
   \   000174                ; Setup parameters for call to function AddrMgrExtAddrSet
   \   000174   7402         MOV     A,#0x2
   \   000176   12....       LCALL   ?XSTACK_DISP0_8
   \   000179   AC82         MOV     R4,DPL
   \   00017B   AD83         MOV     R5,DPH
   \   00017D   740E         MOV     A,#0xe
   \   00017F   12....       LCALL   ?XSTACK_DISP0_8
   \   000182   AA82         MOV     R2,DPL
   \   000184   AB83         MOV     R3,DPH
   \   000186   12....       LCALL   `??AddrMgrExtAddrSet::?relay`; Banked call to: AddrMgrExtAddrSet
   2221            if ( AddrMgrEntryLookupExt( &addrEntry ) )
   \   000189                ; Setup parameters for call to function AddrMgrEntryLookupExt
   \   000189   740B         MOV     A,#0xb
   \   00018B   12....       LCALL   ?XSTACK_DISP101_8
   \   00018E   12....       LCALL   `??AddrMgrEntryLookupExt::?relay`; Banked call to: AddrMgrEntryLookupExt
   \   000191   E9           MOV     A,R1
   \   000192   6030         JZ      ??ZDO_ProcessDeviceAnnce_9
   2222            {
   2223              if ( addrEntry.nwkAddr != Annce.nwkAddr )
   \   000194   740C         MOV     A,#0xc
   \   000196   12....       LCALL   ?XSTACK_DISP0_8
   \   000199   12....       LCALL   ??Subroutine212_0 & 0xFFFF
   \                     ??CrossCallReturnLabel_498:
   \   00019C   85..82       MOV     DPL,?XSP + 0
   \   00019F   85..83       MOV     DPH,?XSP + 1
   \   0001A2   E0           MOVX    A,@DPTR
   \   0001A3   68           XRL     A,R0
   \   0001A4   7003         JNZ     ??ZDO_ProcessDeviceAnnce_10
   \   0001A6   A3           INC     DPTR
   \   0001A7   E0           MOVX    A,@DPTR
   \   0001A8   69           XRL     A,R1
   \                     ??ZDO_ProcessDeviceAnnce_10:
   \   0001A9   6019         JZ      ??ZDO_ProcessDeviceAnnce_9
   2224              {
   2225                addrEntry.nwkAddr = Annce.nwkAddr;
   \   0001AB   85..82       MOV     DPL,?XSP + 0
   \   0001AE   85..83       MOV     DPH,?XSP + 1
   \   0001B1   12....       LCALL   ??Subroutine212_0 & 0xFFFF
   \                     ??CrossCallReturnLabel_499:
   \   0001B4   740C         MOV     A,#0xc
   \   0001B6   12....       LCALL   ?XSTACK_DISP0_8
   \   0001B9   12....       LCALL   ?Subroutine40 & 0xFFFF
   2226                AddrMgrEntryUpdate( &addrEntry );
   \                     ??CrossCallReturnLabel_392:
   \   0001BC                ; Setup parameters for call to function AddrMgrEntryUpdate
   \   0001BC   740B         MOV     A,#0xb
   \   0001BE   12....       LCALL   ?XSTACK_DISP101_8
   \   0001C1   12....       LCALL   `??AddrMgrEntryUpdate::?relay`; Banked call to: AddrMgrEntryUpdate
   2227              }
   2228            }
   2229            
   2230          #if ZG_BUILD_RTR_TYPE
   2231            if(ZG_DEVICE_RTR_TYPE)
   \                     ??ZDO_ProcessDeviceAnnce_9:
   \   0001C4   90....       MOV     DPTR,#zgDeviceLogicalType
   \   0001C7   E0           MOVX    A,@DPTR
   \   0001C8   6007         JZ      ??ZDO_ProcessDeviceAnnce_11
   \   0001CA   6401         XRL     A,#0x1
   \   0001CC   6003         JZ      $+5
   \   0001CE   02....       LJMP    ??ZDO_ProcessDeviceAnnce_1 & 0xFFFF
   2232            {
   2233              // Check GP proxy table to update the entry if necesary
   2234              if( osal_memcmp( Annce.extAddr, invalidIEEE, Z_EXTADDR_LEN ) )
   \                     ??ZDO_ProcessDeviceAnnce_11:
   \   0001D1                ; Setup parameters for call to function osal_memcmp
   \   0001D1   7420         MOV     A,#0x20
   \   0001D3   12....       LCALL   ?XSTACK_DISP100_8
   \   0001D6   88..         MOV     ?V0,R0
   \   0001D8   89..         MOV     ?V1,R1
   \   0001DA   75..00       MOV     ?V2,#0x0
   \   0001DD   78..         MOV     R0,#?V0
   \   0001DF   12....       LCALL   ?PUSH_XSTACK_I_THREE
   \   0001E2   7C08         MOV     R4,#0x8
   \   0001E4   7D00         MOV     R5,#0x0
   \   0001E6   7405         MOV     A,#0x5
   \   0001E8   12....       LCALL   ?XSTACK_DISP0_8
   \   0001EB   A982         MOV     R1,DPL
   \   0001ED   AA83         MOV     R2,DPH
   \   0001EF   7B00         MOV     R3,#0x0
   \   0001F1   12....       LCALL   `??osal_memcmp::?relay`; Banked call to: osal_memcmp
   \   0001F4   7403         MOV     A,#0x3
   \   0001F6   12....       LCALL   ?DEALLOC_XSTACK8
   \   0001F9   E9           MOV     A,R1
   \   0001FA   6043         JZ      ??ZDO_ProcessDeviceAnnce_12
   2235              {
   2236                if( osal_get_timeoutEx( gp_TaskID, GP_PROXY_ALIAS_CONFLICT_TIMEOUT ) )
   \   0001FC                ; Setup parameters for call to function osal_get_timeoutEx
   \   0001FC   7A10         MOV     R2,#0x10
   \   0001FE   7B00         MOV     R3,#0x0
   \   000200   90....       MOV     DPTR,#gp_TaskID
   \   000203   E0           MOVX    A,@DPTR
   \   000204   F9           MOV     R1,A
   \   000205   12....       LCALL   `??osal_get_timeoutEx::?relay`; Banked call to: osal_get_timeoutEx
   \   000208   EA           MOV     A,R2
   \   000209   4B           ORL     A,R3
   \   00020A   4C           ORL     A,R4
   \   00020B   4D           ORL     A,R5
   \   00020C   6050         JZ      ??ZDO_ProcessDeviceAnnce_1
   2237                {
   2238                  if ( osal_memcmp( &Annce, GP_aliasConflictAnnce, sizeof( ZDO_DeviceAnnce_t ) ) )
   \   00020E                ; Setup parameters for call to function osal_memcmp
   \   00020E   90....       MOV     DPTR,#GP_aliasConflictAnnce
   \   000211   12....       LCALL   ?Subroutine92 & 0xFFFF
   \                     ??CrossCallReturnLabel_136:
   \   000214   12....       LCALL   ?PUSH_XSTACK_I_THREE
   \   000217   7C0B         MOV     R4,#0xb
   \   000219   7D00         MOV     R5,#0x0
   \   00021B   7403         MOV     A,#0x3
   \   00021D   12....       LCALL   ?XSTACK_DISP0_8
   \   000220   A982         MOV     R1,DPL
   \   000222   AA83         MOV     R2,DPH
   \   000224   7B00         MOV     R3,#0x0
   \   000226   12....       LCALL   `??osal_memcmp::?relay`; Banked call to: osal_memcmp
   \   000229   7403         MOV     A,#0x3
   \   00022B   12....       LCALL   ?DEALLOC_XSTACK8
   \   00022E   E9           MOV     A,R1
   \   00022F   602D         JZ      ??ZDO_ProcessDeviceAnnce_1
   2239                  {
   2240                    osal_stop_timerEx( gp_TaskID, GP_PROXY_ALIAS_CONFLICT_TIMEOUT );
   \   000231                ; Setup parameters for call to function osal_stop_timerEx
   \   000231   7A10         MOV     R2,#0x10
   \   000233   7B00         MOV     R3,#0x0
   \   000235   90....       MOV     DPTR,#gp_TaskID
   \   000238   E0           MOVX    A,@DPTR
   \   000239   F9           MOV     R1,A
   \   00023A   12....       LCALL   `??osal_stop_timerEx::?relay`; Banked call to: osal_stop_timerEx
   \   00023D   801F         SJMP    ??ZDO_ProcessDeviceAnnce_1
   2241                  }
   2242                }
   2243              }
   2244              else
   2245              {
   2246                if(GP_CheckAnnouncedDeviceGCB != NULL)
   \                     ??ZDO_ProcessDeviceAnnce_12:
   \   00023F   90....       MOV     DPTR,#GP_CheckAnnouncedDeviceGCB
   \   000242   12....       LCALL   ??Subroutine204_0 & 0xFFFF
   \                     ??CrossCallReturnLabel_442:
   \   000245   6017         JZ      ??ZDO_ProcessDeviceAnnce_1
   2247                {
   2248                  GP_CheckAnnouncedDeviceGCB( Annce.extAddr, Annce.nwkAddr );
   \   000247                ; Setup parameters for indirect call
   \   000247   12....       LCALL   ?Subroutine91 & 0xFFFF
   2249                }
   2250              }
   2251            }
   \                     ??CrossCallReturnLabel_310:
   \   00024A   7402         MOV     A,#0x2
   \   00024C   12....       LCALL   ?XSTACK_DISP0_8
   \   00024F   AA82         MOV     R2,DPL
   \   000251   AB83         MOV     R3,DPH
   \   000253   90....       MOV     DPTR,#GP_CheckAnnouncedDeviceGCB + 1
   \   000256   E0           MOVX    A,@DPTR
   \   000257   F583         MOV     DPH,A
   \   000259   8882         MOV     DPL,R0
   \   00025B   12....       LCALL   ?CALL_IND
   2252          #endif
   2253          }
   \                     ??ZDO_ProcessDeviceAnnce_1:
   \   00025E   7428         MOV     A,#0x28
   \   000260   12....       LCALL   ?DEALLOC_XSTACK8
   \   000263   7F03         MOV     R7,#0x3
   \   000265   02....       LJMP    ?BANKED_LEAVE_XDATA
   2254          
   2255          /*********************************************************************
   2256           * @fn          ZDO_ProcessParentAnnce
   2257           *
   2258           * @brief       This function processes a Parent annouce message.
   2259           *
   2260           * @param       inMsg - incoming message
   2261           *
   2262           * @return      none
   2263           */

   \                                 In  segment BANKED_CODE, align 1, keep-with-next
   2264          void ZDO_ProcessParentAnnce( zdoIncomingMsg_t *inMsg )
   \                     ZDO_ProcessParentAnnce:
   2265          {
   \   000000                REQUIRE ?V0
   \   000000                REQUIRE ?V1
   \   000000                REQUIRE ?V2
   \   000000                REQUIRE ?V3
   \   000000                REQUIRE ?V4
   \   000000                REQUIRE ?V5
   \   000000                REQUIRE ?V6
   \   000000                REQUIRE ?V7
   \   000000                REQUIRE ?V8
   \   000000                REQUIRE ?V9
   \   000000                REQUIRE ?V10
   \   000000                REQUIRE ?V11
   \   000000                REQUIRE ?V12
   \   000000                REQUIRE ?V13
   \   000000                REQUIRE ?V14
   \   000000                REQUIRE ?V15
   \   000000   74E8         MOV     A,#-0x18
   \   000002   12....       LCALL   ?BANKED_ENTER_XDATA
   \   000005                ; Saved register size: 24
   \   000005                ; Auto size: 11
   \   000005   74F5         MOV     A,#-0xb
   \   000007   12....       LCALL   ?ALLOC_XSTACK8
   \   00000A   85..82       MOV     DPL,?XSP + 0
   \   00000D   85..83       MOV     DPH,?XSP + 1
   \   000010   12....       LCALL   ??Subroutine184_0 & 0xFFFF
   2266            ZDO_ParentAnnce_t *parentAnnce;
   2267            uint8 x;
   2268            uint8 childCount = 0;
   \                     ??CrossCallReturnLabel_331:
   \   000013   7F00         MOV     R7,#0x0
   2269            uint32 localAge;
   2270          
   2271            ZDO_ChildInfoList_t *listHead = NULL;
   \   000015   8F..         MOV     ?V0,R7
   \   000017   8F..         MOV     ?V1,R7
   2272            ZDO_ChildInfoList_t *listTail;
   2273            ZDO_ChildInfoList_t *newNode;
   2274          
   2275            // Parse incoming message, memory is allocated by the parse function,
   2276            // it should be free after processing the message
   2277            parentAnnce = ZDO_ParseParentAnnce( inMsg );
   \   000019                ; Setup parameters for call to function ZDO_ParseParentAnnce
   \   000019   85..82       MOV     DPL,?XSP + 0
   \   00001C   85..83       MOV     DPH,?XSP + 1
   \   00001F   E0           MOVX    A,@DPTR
   \   000020   FA           MOV     R2,A
   \   000021   12....       LCALL   `??ZDO_ParseParentAnnce::?relay`; Banked call to: ZDO_ParseParentAnnce
   \   000024   8A..         MOV     ?V14,R2
   \   000026   8B..         MOV     ?V15,R3
   2278          
   2279            if ( parentAnnce != NULL )
   \   000028   EA           MOV     A,R2
   \   000029   45..         ORL     A,?V15
   \   00002B   7003         JNZ     $+5
   \   00002D   02....       LJMP    ??ZDO_ProcessParentAnnce_0 & 0xFFFF
   2280            {
   2281              for ( x = 0; x < parentAnnce->numOfChildren; x++ )
   \   000030   7E00         MOV     R6,#0x0
   \   000032   8008         SJMP    ??ZDO_ProcessParentAnnce_1
   2282              {
   2283                associated_devices_t *dev_ptr;
   2284                localAge = 0xFFFFFFFF;
   2285          
   2286                // If it's an End Device child
   2287                dev_ptr = AssocGetWithExt( parentAnnce->childInfo[x].extAddr );
   2288          
   2289                if ( dev_ptr )
   2290                {
   2291                  if ( dev_ptr->nodeRelation == CHILD_RFD ||
   2292                       dev_ptr->nodeRelation == CHILD_RFD_RX_IDLE )
   2293                  {
   2294                    if ( dev_ptr->keepaliveRcv == TRUE )
   2295                    {
   2296                      localAge = dev_ptr->endDev.deviceTimeout - dev_ptr->timeoutCounter;
   2297                    }
   2298          
   2299                    if ( localAge < parentAnnce->childInfo[x].age )
   2300                    {
   2301                      // Add one element to the list
   2302                      newNode = (ZDO_ChildInfoList_t *)osal_mem_alloc( sizeof(ZDO_ChildInfoList_t) );
   2303          
   2304                      osal_cpyExtAddr( newNode->child.extAddr, parentAnnce->childInfo[x].extAddr );
   2305          
   2306                      newNode->child.age = localAge;
   2307          
   2308                      newNode->next = NULL;
   2309          
   2310                      if ( listHead == NULL )
   2311                      {
   2312                        // Initialize the head of the list
   2313                        listHead = listTail = newNode;
   2314                      }
   2315                      else
   2316                      {
   2317                        // Add new element to the end
   2318                        listTail->next = newNode;
   2319          
   2320                        listTail = listTail->next;
   2321                      }
   2322          
   2323                      childCount++;
   2324                    }
   2325                    else
   2326                    {
   2327                      AssocRemove( parentAnnce->childInfo[x].extAddr );
   \                     ??ZDO_ProcessParentAnnce_2:
   \   000034                ; Setup parameters for call to function AssocRemove
   \   000034   AA..         MOV     R2,?V12
   \   000036   AB..         MOV     R3,?V13
   \   000038   12....       LCALL   `??AssocRemove::?relay`; Banked call to: AssocRemove
   2328                    }
   \                     ??ZDO_ProcessParentAnnce_3:
   \   00003B   0E           INC     R6
   \                     ??ZDO_ProcessParentAnnce_1:
   \   00003C   85..82       MOV     DPL,?V14
   \   00003F   85..83       MOV     DPH,?V15
   \   000042   E0           MOVX    A,@DPTR
   \   000043   F8           MOV     R0,A
   \   000044   EE           MOV     A,R6
   \   000045   C3           CLR     C
   \   000046   98           SUBB    A,R0
   \   000047   4003         JC      $+5
   \   000049   02....       LJMP    ??ZDO_ProcessParentAnnce_4 & 0xFFFF
   \   00004C   75..FF       MOV     ?V4,#-0x1
   \   00004F   75..FF       MOV     ?V5,#-0x1
   \   000052   75..FF       MOV     ?V6,#-0x1
   \   000055   75..FF       MOV     ?V7,#-0x1
   \   000058   EE           MOV     A,R6
   \   000059   75F00C       MOV     B,#0xc
   \   00005C   A4           MUL     AB
   \   00005D   F8           MOV     R0,A
   \   00005E   A9F0         MOV     R1,B
   \   000060   E5..         MOV     A,?V14
   \   000062   28           ADD     A,R0
   \   000063   F5..         MOV     ?V10,A
   \   000065   E5..         MOV     A,?V15
   \   000067   39           ADDC    A,R1
   \   000068   F5..         MOV     ?V11,A
   \   00006A   85..82       MOV     DPL,?V10
   \   00006D   F583         MOV     DPH,A
   \   00006F   A3           INC     DPTR
   \   000070   8582..       MOV     ?V12,DPL
   \   000073   8583..       MOV     ?V13,DPH
   \   000076                ; Setup parameters for call to function AssocGetWithExt
   \   000076   AA..         MOV     R2,?V12
   \   000078   AB..         MOV     R3,?V13
   \   00007A   12....       LCALL   `??AssocGetWithExt::?relay`; Banked call to: AssocGetWithExt
   \   00007D   EA           MOV     A,R2
   \   00007E   4B           ORL     A,R3
   \   00007F   60BA         JZ      ??ZDO_ProcessParentAnnce_3
   \   000081   8A82         MOV     DPL,R2
   \   000083   8B83         MOV     DPH,R3
   \   000085   A3           INC     DPTR
   \   000086   A3           INC     DPTR
   \   000087   A3           INC     DPTR
   \   000088   A3           INC     DPTR
   \   000089   E0           MOVX    A,@DPTR
   \   00008A   F8           MOV     R0,A
   \   00008B   7401         MOV     A,#0x1
   \   00008D   68           XRL     A,R0
   \   00008E   6005         JZ      ??ZDO_ProcessParentAnnce_5
   \   000090   7402         MOV     A,#0x2
   \   000092   68           XRL     A,R0
   \   000093   70A6         JNZ     ??ZDO_ProcessParentAnnce_3
   \                     ??ZDO_ProcessParentAnnce_5:
   \   000095   12....       LCALL   ?Subroutine138 & 0xFFFF
   \                     ??CrossCallReturnLabel_239:
   \   000098   7010         JNZ     ??ZDO_ProcessParentAnnce_6
   \   00009A   12....       LCALL   ?Subroutine105 & 0xFFFF
   \                     ??CrossCallReturnLabel_159:
   \   00009D   78..         MOV     R0,#?V4
   \   00009F   12....       LCALL   ?L_MOV_X
   \   0000A2   12....       LCALL   ?Subroutine136 & 0xFFFF
   \                     ??CrossCallReturnLabel_235:
   \   0000A5   78..         MOV     R0,#?V4
   \   0000A7   12....       LCALL   ?L_SUB_X
   \                     ??ZDO_ProcessParentAnnce_6:
   \   0000AA   85..82       MOV     DPL,?V10
   \   0000AD   85..83       MOV     DPH,?V11
   \   0000B0   A3           INC     DPTR
   \   0000B1   A3           INC     DPTR
   \   0000B2   A3           INC     DPTR
   \   0000B3   A3           INC     DPTR
   \   0000B4   A3           INC     DPTR
   \   0000B5   A3           INC     DPTR
   \   0000B6   A3           INC     DPTR
   \   0000B7   A3           INC     DPTR
   \   0000B8   A3           INC     DPTR
   \   0000B9   78..         MOV     R0,#?V4
   \   0000BB   12....       LCALL   ?UL_GE_X
   \   0000BE   5003         JNC     $+5
   \   0000C0   02....       LJMP    ??ZDO_ProcessParentAnnce_2 & 0xFFFF
   \   0000C3                ; Setup parameters for call to function osal_mem_alloc
   \   0000C3   7A0E         MOV     R2,#0xe
   \   0000C5   7B00         MOV     R3,#0x0
   \   0000C7   12....       LCALL   `??osal_mem_alloc::?relay`; Banked call to: osal_mem_alloc
   \   0000CA   8A..         MOV     ?V2,R2
   \   0000CC   8B..         MOV     ?V3,R3
   \   0000CE   8A..         MOV     ?V10,R2
   \   0000D0                ; Setup parameters for call to function sAddrExtCpy
   \   0000D0   AC..         MOV     R4,?V12
   \   0000D2   AD..         MOV     R5,?V13
   \   0000D4   12....       LCALL   `??sAddrExtCpy::?relay`; Banked call to: sAddrExtCpy
   \   0000D7   85..82       MOV     DPL,?V2
   \   0000DA   85..83       MOV     DPH,?V3
   \   0000DD   A3           INC     DPTR
   \   0000DE   A3           INC     DPTR
   \   0000DF   A3           INC     DPTR
   \   0000E0   A3           INC     DPTR
   \   0000E1   A3           INC     DPTR
   \   0000E2   A3           INC     DPTR
   \   0000E3   A3           INC     DPTR
   \   0000E4   A3           INC     DPTR
   \   0000E5   78..         MOV     R0,#?V4
   \   0000E7   12....       LCALL   ?L_MOV_TO_X
   \   0000EA   E5..         MOV     A,?V2
   \   0000EC   12....       LCALL   ??Subroutine228_0 & 0xFFFF
   \                     ??CrossCallReturnLabel_584:
   \   0000EF   35..         ADDC    A,?V3
   \   0000F1   F583         MOV     DPH,A
   \   0000F3   E4           CLR     A
   \   0000F4   F0           MOVX    @DPTR,A
   \   0000F5   A3           INC     DPTR
   \   0000F6   F0           MOVX    @DPTR,A
   \   0000F7   E5..         MOV     A,?V0
   \   0000F9   45..         ORL     A,?V1
   \   0000FB   700E         JNZ     ??ZDO_ProcessParentAnnce_7
   \   0000FD   85....       MOV     ?V8,?V2
   \   000100   85....       MOV     ?V9,?V3
   \   000103   85....       MOV     ?V0,?V8
   \   000106   85....       MOV     ?V1,?V9
   \   000109   8013         SJMP    ??ZDO_ProcessParentAnnce_8
   \                     ??ZDO_ProcessParentAnnce_7:
   \   00010B   12....       LCALL   ?Subroutine131 & 0xFFFF
   \                     ??CrossCallReturnLabel_586:
   \   00010E   35..         ADDC    A,?V9
   \   000110   F583         MOV     DPH,A
   \   000112   E5..         MOV     A,?V2
   \   000114   F0           MOVX    @DPTR,A
   \   000115   A3           INC     DPTR
   \   000116   E5..         MOV     A,?V3
   \   000118   F0           MOVX    @DPTR,A
   \   000119   85....       MOV     ?V8,?V10
   \   00011C   F5..         MOV     ?V9,A
   \                     ??ZDO_ProcessParentAnnce_8:
   \   00011E   0F           INC     R7
   \   00011F   02....       LJMP    ??ZDO_ProcessParentAnnce_3 & 0xFFFF
   2329                  }
   2330                }
   2331              }
   2332          
   2333              // If the device has children that match some in the received list,
   2334              // it should send a unicast Parent_Annce_rsp message.
   2335              if ( childCount > 0 )
   \                     ??ZDO_ProcessParentAnnce_4:
   \   000122   EF           MOV     A,R7
   \   000123   7003         JNZ     $+5
   \   000125   02....       LJMP    ??ZDO_ProcessParentAnnce_9 & 0xFFFF
   2336              {
   2337                ZDO_ChildInfo_t *childInfo;
   2338                zAddrType_t dstAddr;
   2339          
   2340                dstAddr.addrMode = (afAddrMode_t)Addr16Bit;
   \   000128   740A         MOV     A,#0xa
   \   00012A   12....       LCALL   ?XSTACK_DISP0_8
   \   00012D   12....       LCALL   ?Subroutine49 & 0xFFFF
   2341                dstAddr.addr.shortAddr = inMsg->srcAddr.addr.shortAddr;
   \                     ??CrossCallReturnLabel_73:
   \   000130   12....       LCALL   ?Subroutine81 & 0xFFFF
   \                     ??CrossCallReturnLabel_118:
   \   000133   F9           MOV     R1,A
   \   000134   7402         MOV     A,#0x2
   \   000136   12....       LCALL   ?XSTACK_DISP0_8
   \   000139   12....       LCALL   ?Subroutine40 & 0xFFFF
   2342          
   2343                x = 0;
   \                     ??CrossCallReturnLabel_393:
   \   00013C   7E00         MOV     R6,#0x0
   2344          
   2345                childInfo = (ZDO_ChildInfo_t *)osal_mem_alloc( childCount * sizeof(ZDO_ChildInfo_t) );
   \   00013E                ; Setup parameters for call to function osal_mem_alloc
   \   00013E   EF           MOV     A,R7
   \   00013F   75F00C       MOV     B,#0xc
   \   000142   A4           MUL     AB
   \   000143   FA           MOV     R2,A
   \   000144   ABF0         MOV     R3,B
   \   000146   12....       LCALL   `??osal_mem_alloc::?relay`; Banked call to: osal_mem_alloc
   \   000149   8A..         MOV     ?V4,R2
   \   00014B   8B..         MOV     ?V5,R3
   2346          
   2347                if ( childInfo != NULL )
   \   00014D   EA           MOV     A,R2
   \   00014E   45..         ORL     A,?V5
   \   000150   7003         JNZ     $+5
   \   000152   02....       LJMP    ??ZDO_ProcessParentAnnce_9 & 0xFFFF
   \   000155   8054         SJMP    ??ZDO_ProcessParentAnnce_10
   2348                {
   2349                  // Copy the content of the link list into this buffer
   2350                  while ( listHead != NULL )
   2351                  {
   2352                    listTail = listHead;
   \                     ??ZDO_ProcessParentAnnce_11:
   \   000157   85....       MOV     ?V8,?V0
   \   00015A   85....       MOV     ?V9,?V1
   2353          
   2354                    osal_cpyExtAddr( childInfo[x].extAddr,  listHead->child.extAddr );
   \   00015D   EE           MOV     A,R6
   \   00015E   75F00C       MOV     B,#0xc
   \   000161   A4           MUL     AB
   \   000162   F8           MOV     R0,A
   \   000163   A9F0         MOV     R1,B
   \   000165   E5..         MOV     A,?V4
   \   000167   28           ADD     A,R0
   \   000168   F5..         MOV     ?V2,A
   \   00016A   E5..         MOV     A,?V5
   \   00016C   39           ADDC    A,R1
   \   00016D   F5..         MOV     ?V3,A
   \   00016F                ; Setup parameters for call to function sAddrExtCpy
   \   00016F   AC..         MOV     R4,?V0
   \   000171   AD..         MOV     R5,?V1
   \   000173   AA..         MOV     R2,?V2
   \   000175   FB           MOV     R3,A
   \   000176   12....       LCALL   `??sAddrExtCpy::?relay`; Banked call to: sAddrExtCpy
   2355                    childInfo[x].age = listHead->child.age;
   \   000179   85..82       MOV     DPL,?V0
   \   00017C   85..83       MOV     DPH,?V1
   \   00017F   A3           INC     DPTR
   \   000180   A3           INC     DPTR
   \   000181   A3           INC     DPTR
   \   000182   A3           INC     DPTR
   \   000183   A3           INC     DPTR
   \   000184   A3           INC     DPTR
   \   000185   A3           INC     DPTR
   \   000186   A3           INC     DPTR
   \   000187   12....       LCALL   ?XLOAD_R0123
   \   00018A   85..82       MOV     DPL,?V2
   \   00018D   85..83       MOV     DPH,?V3
   \   000190   A3           INC     DPTR
   \   000191   A3           INC     DPTR
   \   000192   A3           INC     DPTR
   \   000193   A3           INC     DPTR
   \   000194   A3           INC     DPTR
   \   000195   A3           INC     DPTR
   \   000196   A3           INC     DPTR
   \   000197   A3           INC     DPTR
   \   000198   12....       LCALL   ?XSTORE_R0123
   2356          
   2357                    x++;
   \   00019B   0E           INC     R6
   2358          
   2359                    listHead = listTail->next;
   \   00019C   12....       LCALL   ?Subroutine131 & 0xFFFF
   \                     ??CrossCallReturnLabel_587:
   \   00019F   35..         ADDC    A,?V9
   \   0001A1   12....       LCALL   ?Subroutine93 & 0xFFFF
   2360          
   2361                    // Free this element of the link list
   2362                    osal_mem_free( listTail );
   \                     ??CrossCallReturnLabel_398:
   \   0001A4                ; Setup parameters for call to function osal_mem_free
   \   0001A4   AA..         MOV     R2,?V8
   \   0001A6   AB..         MOV     R3,?V9
   \   0001A8   12....       LCALL   `??osal_mem_free::?relay`; Banked call to: osal_mem_free
   2363                  }
   \                     ??ZDO_ProcessParentAnnce_10:
   \   0001AB   E5..         MOV     A,?V0
   \   0001AD   45..         ORL     A,?V1
   \   0001AF   70A6         JNZ     ??ZDO_ProcessParentAnnce_11
   2364          
   2365                  ZDP_ParentAnnceRsp( (inMsg->TransSeq), dstAddr, childCount,
   2366                                      ((uint8 *)childInfo), 0 );
   \   0001B1                ; Setup parameters for call to function ZDP_ParentAnnce
   \   0001B1   75..00       MOV     ?V0,#0x0
   \   0001B4   78..         MOV     R0,#?V0
   \   0001B6   12....       LCALL   ?PUSH_XSTACK_I_ONE
   \   0001B9   75..1F       MOV     ?V0,#0x1f
   \   0001BC   75..80       MOV     ?V1,#-0x80
   \   0001BF   78..         MOV     R0,#?V0
   \   0001C1   12....       LCALL   ?PUSH_XSTACK_I_TWO
   \   0001C4   78..         MOV     R0,#?V4
   \   0001C6   12....       LCALL   ?PUSH_XSTACK_I_TWO
   \   0001C9   EF           MOV     A,R7
   \   0001CA   F9           MOV     R1,A
   \   0001CB   7407         MOV     A,#0x7
   \   0001CD   12....       LCALL   ?XSTACK_DISP102_8
   \   0001D0   7405         MOV     A,#0x5
   \   0001D2   12....       LCALL   ?XSTACK_DISP0_8
   \   0001D5   E0           MOVX    A,@DPTR
   \   0001D6   240F         ADD     A,#0xf
   \   0001D8   FA           MOV     R2,A
   \   0001D9   A3           INC     DPTR
   \   0001DA   E0           MOVX    A,@DPTR
   \   0001DB   3400         ADDC    A,#0x0
   \   0001DD   FB           MOV     R3,A
   \   0001DE   12....       LCALL   `??ZDP_ParentAnnce::?relay`; Banked call to: ZDP_ParentAnnce
   \   0001E1   7405         MOV     A,#0x5
   \   0001E3   12....       LCALL   ?DEALLOC_XSTACK8
   2367                }
   2368              }
   2369          
   2370              // Free memory allocated by parsing function
   2371              osal_mem_free( parentAnnce );
   \                     ??ZDO_ProcessParentAnnce_9:
   \   0001E6                ; Setup parameters for call to function osal_mem_free
   \   0001E6   AA..         MOV     R2,?V14
   \   0001E8   AB..         MOV     R3,?V15
   \   0001EA   12....       LCALL   `??osal_mem_free::?relay`; Banked call to: osal_mem_free
   2372            }
   2373          }
   \                     ??ZDO_ProcessParentAnnce_0:
   \   0001ED   740B         MOV     A,#0xb
   \   0001EF                REQUIRE ?Subroutine6
   \   0001EF                ; // Fall through to label ?Subroutine6

   \                                 In  segment BANKED_CODE, align 1, keep-with-next
   \                     ?Subroutine93:
   \   000000   F583         MOV     DPH,A
   \   000002                REQUIRE ??Subroutine197_0
   \   000002                ; // Fall through to label ??Subroutine197_0

   \                                 In  segment BANKED_CODE, align 1, keep-with-next
   \                     ??Subroutine197_0:
   \   000000   E0           MOVX    A,@DPTR
   \   000001   F5..         MOV     ?V0,A
   \   000003   A3           INC     DPTR
   \   000004   E0           MOVX    A,@DPTR
   \   000005   F5..         MOV     ?V1,A
   \   000007   22           RET

   \                                 In  segment BANKED_CODE, align 1, keep-with-next
   \                     ?Subroutine138:
   \   000000   EA           MOV     A,R2
   \   000001   241B         ADD     A,#0x1b
   \   000003   F582         MOV     DPL,A
   \   000005   E4           CLR     A
   \   000006   3B           ADDC    A,R3
   \   000007   F583         MOV     DPH,A
   \   000009   E0           MOVX    A,@DPTR
   \   00000A   6401         XRL     A,#0x1
   \   00000C   22           RET

   \                                 In  segment BANKED_CODE, align 1, keep-with-next
   \                     ?Subroutine136:
   \   000000   EA           MOV     A,R2
   \   000001   2417         ADD     A,#0x17
   \   000003   F582         MOV     DPL,A
   \   000005   E4           CLR     A
   \   000006   3B           ADDC    A,R3
   \   000007   F583         MOV     DPH,A
   \   000009   22           RET

   \                                 In  segment BANKED_CODE, align 1, keep-with-next
   \                     ?Subroutine49:
   \   000000   7402         MOV     A,#0x2
   \   000002   12....       LCALL   ?Subroutine149 & 0xFFFF
   \                     ??CrossCallReturnLabel_262:
   \   000005   22           RET

   \                                 In  segment BANKED_CODE, align 1, keep-with-next
   \                     ?Subroutine105:
   \   000000   12....       LCALL   ?Subroutine166 & 0xFFFF
   \                     ??CrossCallReturnLabel_284:
   \   000003   22           RET

   \                                 In  segment BANKED_CODE, align 1, keep-with-next
   \                     ?Subroutine166:
   \   000000   12....       LCALL   ?Subroutine176 & 0xFFFF
   \                     ??CrossCallReturnLabel_557:
   \   000003   3B           ADDC    A,R3
   \   000004   F583         MOV     DPH,A
   \   000006   22           RET

   \                                 In  segment BANKED_CODE, align 1, keep-with-next
   \                     ?Subroutine176:
   \   000000   EA           MOV     A,R2
   \   000001                REQUIRE ??Subroutine221_0
   \   000001                ; // Fall through to label ??Subroutine221_0

   \                                 In  segment BANKED_CODE, align 1, keep-with-next
   \                     ?Subroutine131:
   \   000000   E5..         MOV     A,?V8
   \   000002                REQUIRE ??Subroutine228_0
   \   000002                ; // Fall through to label ??Subroutine228_0

   \                                 In  segment BANKED_CODE, align 1, keep-with-next
   \                     ??Subroutine228_0:
   \   000000   240C         ADD     A,#0xc
   \   000002   F582         MOV     DPL,A
   \   000004   E4           CLR     A
   \   000005   22           RET
   2374          
   2375          /*********************************************************************
   2376           * @fn          ZDO_ProcessParentAnnceRsp
   2377           *
   2378           * @brief       This function processes a Parent annouce response message.
   2379           *
   2380           * @param       inMsg - incoming message
   2381           *
   2382           * @return      none
   2383           */

   \                                 In  segment BANKED_CODE, align 1, keep-with-next
   2384          void ZDO_ProcessParentAnnceRsp( zdoIncomingMsg_t *inMsg )
   \                     ZDO_ProcessParentAnnceRsp:
   2385          {
   \   000000                REQUIRE ?V0
   \   000000                REQUIRE ?V1
   \   000000                REQUIRE ?V2
   \   000000                REQUIRE ?V3
   \   000000                REQUIRE ?V4
   \   000000                REQUIRE ?V6
   \   000000                REQUIRE ?V7
   \   000000                REQUIRE ?V8
   \   000000                REQUIRE ?V9
   \   000000                REQUIRE ?V10
   \   000000                REQUIRE ?V11
   \   000000   74EC         MOV     A,#-0x14
   \   000002   12....       LCALL   ?BANKED_ENTER_XDATA
   \   000005                ; Saved register size: 20
   \   000005                ; Auto size: 0
   2386            ZDO_ParentAnnce_t *parentAnnce;
   2387            uint8 x;
   2388            uint32 localAge;
   2389          
   2390            // Parse incoming message, memory is allocated by the parse function,
   2391            // it should be free after processing the message
   2392            parentAnnce = ZDO_ParseParentAnnce( inMsg );
   \   000005                ; Setup parameters for call to function ZDO_ParseParentAnnce
   \   000005   12....       LCALL   `??ZDO_ParseParentAnnce::?relay`; Banked call to: ZDO_ParseParentAnnce
   \   000008   8A..         MOV     ?V0,R2
   \   00000A   8B..         MOV     ?V1,R3
   \   00000C   AE..         MOV     R6,?V0
   \   00000E   AF..         MOV     R7,?V1
   2393          
   2394            if ( parentAnnce != NULL )
   \   000010   EE           MOV     A,R6
   \   000011   4F           ORL     A,R7
   \   000012   7003         JNZ     $+5
   \   000014   02....       LJMP    ??ZDO_ProcessParentAnnceRsp_0 & 0xFFFF
   2395            {
   2396              for ( x = 0; x < parentAnnce->numOfChildren; x++ )
   \   000017   75..00       MOV     ?V4,#0x0
   \   00001A   807C         SJMP    ??ZDO_ProcessParentAnnceRsp_1
   2397              {
   2398                associated_devices_t *dev_ptr;
   2399                localAge = 0xFFFFFFFF;
   \                     ??ZDO_ProcessParentAnnceRsp_2:
   \   00001C   75..FF       MOV     ?V0,#-0x1
   \   00001F   75..FF       MOV     ?V1,#-0x1
   \   000022   75..FF       MOV     ?V2,#-0x1
   \   000025   75..FF       MOV     ?V3,#-0x1
   2400          
   2401                // If it's an End Device child
   2402                dev_ptr = AssocGetWithExt( parentAnnce->childInfo[x].extAddr );
   \   000028   E5..         MOV     A,?V4
   \   00002A   75F00C       MOV     B,#0xc
   \   00002D   A4           MUL     AB
   \   00002E   F8           MOV     R0,A
   \   00002F   A9F0         MOV     R1,B
   \   000031   EE           MOV     A,R6
   \   000032   28           ADD     A,R0
   \   000033   F5..         MOV     ?V8,A
   \   000035   EF           MOV     A,R7
   \   000036   39           ADDC    A,R1
   \   000037   F5..         MOV     ?V9,A
   \   000039   85..82       MOV     DPL,?V8
   \   00003C   F583         MOV     DPH,A
   \   00003E   A3           INC     DPTR
   \   00003F   8582..       MOV     ?V6,DPL
   \   000042   8583..       MOV     ?V7,DPH
   \   000045                ; Setup parameters for call to function AssocGetWithExt
   \   000045   AA..         MOV     R2,?V6
   \   000047   AB..         MOV     R3,?V7
   \   000049   12....       LCALL   `??AssocGetWithExt::?relay`; Banked call to: AssocGetWithExt
   2403          
   2404                if ( dev_ptr )
   \   00004C   EA           MOV     A,R2
   \   00004D   4B           ORL     A,R3
   \   00004E   6046         JZ      ??ZDO_ProcessParentAnnceRsp_3
   2405                {
   2406                  if ( dev_ptr->nodeRelation == CHILD_RFD ||
   2407                       dev_ptr->nodeRelation == CHILD_RFD_RX_IDLE )
   \   000050   8A82         MOV     DPL,R2
   \   000052   8B83         MOV     DPH,R3
   \   000054   A3           INC     DPTR
   \   000055   A3           INC     DPTR
   \   000056   A3           INC     DPTR
   \   000057   A3           INC     DPTR
   \   000058   E0           MOVX    A,@DPTR
   \   000059   F8           MOV     R0,A
   \   00005A   7401         MOV     A,#0x1
   \   00005C   68           XRL     A,R0
   \   00005D   6005         JZ      ??ZDO_ProcessParentAnnceRsp_4
   \   00005F   7402         MOV     A,#0x2
   \   000061   68           XRL     A,R0
   \   000062   7032         JNZ     ??ZDO_ProcessParentAnnceRsp_3
   2408                  {
   2409                    if ( dev_ptr->keepaliveRcv == TRUE )
   \                     ??ZDO_ProcessParentAnnceRsp_4:
   \   000064   12....       LCALL   ?Subroutine138 & 0xFFFF
   \                     ??CrossCallReturnLabel_240:
   \   000067   7010         JNZ     ??ZDO_ProcessParentAnnceRsp_5
   2410                    {
   2411                      localAge = dev_ptr->endDev.deviceTimeout - dev_ptr->timeoutCounter;
   \   000069   12....       LCALL   ?Subroutine105 & 0xFFFF
   2412                    }
   \                     ??CrossCallReturnLabel_160:
   \   00006C   78..         MOV     R0,#?V0
   \   00006E   12....       LCALL   ?L_MOV_X
   \   000071   12....       LCALL   ?Subroutine136 & 0xFFFF
   \                     ??CrossCallReturnLabel_236:
   \   000074   78..         MOV     R0,#?V0
   \   000076   12....       LCALL   ?L_SUB_X
   2413          
   2414                    if ( localAge >= parentAnnce->childInfo[x].age )
   \                     ??ZDO_ProcessParentAnnceRsp_5:
   \   000079   85..82       MOV     DPL,?V8
   \   00007C   85..83       MOV     DPH,?V9
   \   00007F   A3           INC     DPTR
   \   000080   A3           INC     DPTR
   \   000081   A3           INC     DPTR
   \   000082   A3           INC     DPTR
   \   000083   A3           INC     DPTR
   \   000084   A3           INC     DPTR
   \   000085   A3           INC     DPTR
   \   000086   A3           INC     DPTR
   \   000087   A3           INC     DPTR
   \   000088   78..         MOV     R0,#?V0
   \   00008A   12....       LCALL   ?UL_GE_X
   \   00008D   5007         JNC     ??ZDO_ProcessParentAnnceRsp_3
   2415                    {
   2416                      AssocRemove( parentAnnce->childInfo[x].extAddr );
   \   00008F                ; Setup parameters for call to function AssocRemove
   \   00008F   AA..         MOV     R2,?V6
   \   000091   AB..         MOV     R3,?V7
   \   000093   12....       LCALL   `??AssocRemove::?relay`; Banked call to: AssocRemove
   2417                    }
   2418                  }
   2419                }
   2420              }
   \                     ??ZDO_ProcessParentAnnceRsp_3:
   \   000096   05..         INC     ?V4
   \                     ??ZDO_ProcessParentAnnceRsp_1:
   \   000098   8E82         MOV     DPL,R6
   \   00009A   8F83         MOV     DPH,R7
   \   00009C   E0           MOVX    A,@DPTR
   \   00009D   F8           MOV     R0,A
   \   00009E   E5..         MOV     A,?V4
   \   0000A0   C3           CLR     C
   \   0000A1   98           SUBB    A,R0
   \   0000A2   5003         JNC     $+5
   \   0000A4   02....       LJMP    ??ZDO_ProcessParentAnnceRsp_2 & 0xFFFF
   2421          
   2422              // Free memory allocated by parsing function
   2423              osal_mem_free( parentAnnce );
   \   0000A7                ; Setup parameters for call to function osal_mem_free
   \   0000A7   EE           MOV     A,R6
   \   0000A8   FA           MOV     R2,A
   \   0000A9   EF           MOV     A,R7
   \   0000AA   FB           MOV     R3,A
   \   0000AB   12....       LCALL   `??osal_mem_free::?relay`; Banked call to: osal_mem_free
   2424            }
   2425          }
   \                     ??ZDO_ProcessParentAnnceRsp_0:
   \   0000AE   7F0C         MOV     R7,#0xc
   \   0000B0   02....       LJMP    ?BANKED_LEAVE_XDATA
   2426          
   2427          /*********************************************************************
   2428           * @fn          ZDO_BuildSimpleDescBuf
   2429           *
   2430           * @brief       Build a byte sequence representation of a Simple Descriptor.
   2431           *
   2432           * @param       buf  - pointer to a byte array big enough for data.
   2433           * @param       desc - SimpleDescriptionFormat_t *
   2434           *
   2435           * @return      none
   2436           */

   \                                 In  segment BANKED_CODE, align 1, keep-with-next
   2437          void ZDO_BuildSimpleDescBuf( uint8 *buf, SimpleDescriptionFormat_t *desc )
   \                     ZDO_BuildSimpleDescBuf:
   2438          {
   \   000000                REQUIRE ?V0
   \   000000                REQUIRE ?V1
   \   000000                REQUIRE ?V2
   \   000000                REQUIRE ?V3
   \   000000                REQUIRE ?V4
   \   000000                REQUIRE ?V5
   \   000000   74F2         MOV     A,#-0xe
   \   000002   12....       LCALL   ?BANKED_ENTER_XDATA
   \   000005                ; Saved register size: 14
   \   000005                ; Auto size: 0
   2439            byte cnt;
   2440            uint16 *ptr;
   2441          
   2442            *buf++ = desc->EndPoint;
   \   000005   8C82         MOV     DPL,R4
   \   000007   8D83         MOV     DPH,R5
   \   000009   12....       LCALL   ??Subroutine222_0 & 0xFFFF
   \                     ??CrossCallReturnLabel_560:
   \   00000C   12....       LCALL   ?Subroutine29 & 0xFFFF
   2443            *buf++ = HI_UINT16( desc->AppProfId );
   \                     ??CrossCallReturnLabel_31:
   \   00000F   A3           INC     DPTR
   \   000010   A882         MOV     R0,DPL
   \   000012   A983         MOV     R1,DPH
   \   000014   12....       LCALL   ?Subroutine69 & 0xFFFF
   \                     ??CrossCallReturnLabel_564:
   \   000017   12....       LCALL   ?Subroutine25 & 0xFFFF
   2444            *buf++ = LO_UINT16( desc->AppProfId );
   \                     ??CrossCallReturnLabel_23:
   \   00001A   F0           MOVX    @DPTR,A
   2445            *buf++ = HI_UINT16( desc->AppDeviceId );
   \   00001B   EC           MOV     A,R4
   \   00001C   2403         ADD     A,#0x3
   \   00001E   F8           MOV     R0,A
   \   00001F   E4           CLR     A
   \   000020   3D           ADDC    A,R5
   \   000021   F9           MOV     R1,A
   \   000022   8882         MOV     DPL,R0
   \   000024   8983         MOV     DPH,R1
   \   000026   12....       LCALL   ?Subroutine69 & 0xFFFF
   \                     ??CrossCallReturnLabel_565:
   \   000029   A3           INC     DPTR
   \   00002A   A3           INC     DPTR
   \   00002B   12....       LCALL   ?Subroutine25 & 0xFFFF
   2446            *buf++ = LO_UINT16( desc->AppDeviceId );
   \                     ??CrossCallReturnLabel_24:
   \   00002E   A3           INC     DPTR
   \   00002F   A3           INC     DPTR
   \   000030   12....       LCALL   ?Subroutine29 & 0xFFFF
   2447          
   2448            *buf++ = (byte)(desc->AppDevVer << 4);
   \                     ??CrossCallReturnLabel_32:
   \   000033   A3           INC     DPTR
   \   000034   A3           INC     DPTR
   \   000035   A3           INC     DPTR
   \   000036   A3           INC     DPTR
   \   000037   A3           INC     DPTR
   \   000038   E0           MOVX    A,@DPTR
   \   000039   C4           SWAP    A
   \   00003A   54F0         ANL     A,#0xf0
   \   00003C   8A82         MOV     DPL,R2
   \   00003E   8B83         MOV     DPH,R3
   \   000040   A3           INC     DPTR
   \   000041   A3           INC     DPTR
   \   000042   A3           INC     DPTR
   \   000043   A3           INC     DPTR
   \   000044   A3           INC     DPTR
   \   000045   F0           MOVX    @DPTR,A
   2449          
   2450            *buf++ = desc->AppNumInClusters;
   \   000046   EC           MOV     A,R4
   \   000047   2406         ADD     A,#0x6
   \   000049   F8           MOV     R0,A
   \   00004A   E4           CLR     A
   \   00004B   3D           ADDC    A,R5
   \   00004C   F9           MOV     R1,A
   \   00004D   88..         MOV     ?V2,R0
   \   00004F   89..         MOV     ?V3,R1
   \   000051   8882         MOV     DPL,R0
   \   000053   F583         MOV     DPH,A
   \   000055   12....       LCALL   ??Subroutine222_0 & 0xFFFF
   \                     ??CrossCallReturnLabel_561:
   \   000058   A3           INC     DPTR
   \   000059   A3           INC     DPTR
   \   00005A   A3           INC     DPTR
   \   00005B   A3           INC     DPTR
   \   00005C   A3           INC     DPTR
   \   00005D   A3           INC     DPTR
   \   00005E   F0           MOVX    @DPTR,A
   \   00005F   EA           MOV     A,R2
   \   000060   2407         ADD     A,#0x7
   \   000062   FA           MOV     R2,A
   \   000063   5001         JNC     ??ZDO_BuildSimpleDescBuf_0
   \   000065   0B           INC     R3
   2451            ptr = desc->pAppInClusterList;
   \                     ??ZDO_BuildSimpleDescBuf_0:
   \   000066   8C82         MOV     DPL,R4
   \   000068   8D83         MOV     DPH,R5
   \   00006A   12....       LCALL   ?Subroutine100 & 0xFFFF
   2452            for ( cnt = 0; cnt < desc->AppNumInClusters; ptr++, cnt++ )
   \                     ??CrossCallReturnLabel_150:
   \   00006D   8018         SJMP    ??ZDO_BuildSimpleDescBuf_1
   2453            {
   2454              *buf++ = HI_UINT16( *ptr );
   \                     ??ZDO_BuildSimpleDescBuf_2:
   \   00006F   12....       LCALL   ?Subroutine45 & 0xFFFF
   2455              *buf++ = LO_UINT16( *ptr );
   2456            }
   \                     ??CrossCallReturnLabel_400:
   \   000072   8882         MOV     DPL,R0
   \   000074   8983         MOV     DPH,R1
   \   000076   F0           MOVX    @DPTR,A
   \   000077   EA           MOV     A,R2
   \   000078   2402         ADD     A,#0x2
   \   00007A   FA           MOV     R2,A
   \   00007B   5001         JNC     ??ZDO_BuildSimpleDescBuf_3
   \   00007D   0B           INC     R3
   \                     ??ZDO_BuildSimpleDescBuf_3:
   \   00007E   EE           MOV     A,R6
   \   00007F   2402         ADD     A,#0x2
   \   000081   FE           MOV     R6,A
   \   000082   5001         JNC     ??ZDO_BuildSimpleDescBuf_4
   \   000084   0F           INC     R7
   \                     ??ZDO_BuildSimpleDescBuf_4:
   \   000085   05..         INC     ?V0
   \                     ??ZDO_BuildSimpleDescBuf_1:
   \   000087   8A82         MOV     DPL,R2
   \   000089   8B83         MOV     DPH,R3
   \   00008B   A3           INC     DPTR
   \   00008C   A882         MOV     R0,DPL
   \   00008E   A983         MOV     R1,DPH
   \   000090   85..82       MOV     DPL,?V2
   \   000093   85..83       MOV     DPH,?V3
   \   000096   E0           MOVX    A,@DPTR
   \   000097   F5..         MOV     ?V1,A
   \   000099   E5..         MOV     A,?V0
   \   00009B   C3           CLR     C
   \   00009C   95..         SUBB    A,?V1
   \   00009E   40CF         JC      ??ZDO_BuildSimpleDescBuf_2
   2457          
   2458            *buf++ = desc->AppNumOutClusters;
   \   0000A0   EC           MOV     A,R4
   \   0000A1   2409         ADD     A,#0x9
   \   0000A3   FE           MOV     R6,A
   \   0000A4   E4           CLR     A
   \   0000A5   3D           ADDC    A,R5
   \   0000A6   FF           MOV     R7,A
   \   0000A7   8E..         MOV     ?V2,R6
   \   0000A9   8F..         MOV     ?V3,R7
   \   0000AB   8E82         MOV     DPL,R6
   \   0000AD   F583         MOV     DPH,A
   \   0000AF   12....       LCALL   ??Subroutine222_0 & 0xFFFF
   \                     ??CrossCallReturnLabel_562:
   \   0000B2   F0           MOVX    @DPTR,A
   \   0000B3   E8           MOV     A,R0
   \   0000B4   FA           MOV     R2,A
   \   0000B5   E9           MOV     A,R1
   \   0000B6   FB           MOV     R3,A
   2459            ptr = desc->pAppOutClusterList;
   \   0000B7   8C82         MOV     DPL,R4
   \   0000B9   8D83         MOV     DPH,R5
   \   0000BB   A3           INC     DPTR
   \   0000BC   A3           INC     DPTR
   \   0000BD   A3           INC     DPTR
   \   0000BE   12....       LCALL   ?Subroutine100 & 0xFFFF
   2460            for ( cnt = 0; cnt < desc->AppNumOutClusters; ptr++, cnt++ )
   \                     ??CrossCallReturnLabel_151:
   \   0000C1   8019         SJMP    ??ZDO_BuildSimpleDescBuf_5
   2461            {
   2462              *buf++ = HI_UINT16( *ptr );
   \                     ??ZDO_BuildSimpleDescBuf_6:
   \   0000C3   12....       LCALL   ?Subroutine45 & 0xFFFF
   2463              *buf++ = LO_UINT16( *ptr );
   2464            }
   \                     ??CrossCallReturnLabel_401:
   \   0000C6   8A82         MOV     DPL,R2
   \   0000C8   8B83         MOV     DPH,R3
   \   0000CA   A3           INC     DPTR
   \   0000CB   F0           MOVX    @DPTR,A
   \   0000CC   EA           MOV     A,R2
   \   0000CD   2402         ADD     A,#0x2
   \   0000CF   FA           MOV     R2,A
   \   0000D0   5001         JNC     ??ZDO_BuildSimpleDescBuf_7
   \   0000D2   0B           INC     R3
   \                     ??ZDO_BuildSimpleDescBuf_7:
   \   0000D3   EE           MOV     A,R6
   \   0000D4   2402         ADD     A,#0x2
   \   0000D6   FE           MOV     R6,A
   \   0000D7   5001         JNC     ??ZDO_BuildSimpleDescBuf_8
   \   0000D9   0F           INC     R7
   \                     ??ZDO_BuildSimpleDescBuf_8:
   \   0000DA   05..         INC     ?V0
   \                     ??ZDO_BuildSimpleDescBuf_5:
   \   0000DC   85..82       MOV     DPL,?V2
   \   0000DF   85..83       MOV     DPH,?V3
   \   0000E2   E0           MOVX    A,@DPTR
   \   0000E3   F8           MOV     R0,A
   \   0000E4   E5..         MOV     A,?V0
   \   0000E6   C3           CLR     C
   \   0000E7   98           SUBB    A,R0
   \   0000E8   40D9         JC      ??ZDO_BuildSimpleDescBuf_6
   2465          }
   \   0000EA   02....       LJMP    ?Subroutine5 & 0xFFFF

   \                                 In  segment BANKED_CODE, align 1, keep-with-next
   \                     ?Subroutine100:
   \   000000   A3           INC     DPTR
   \   000001   A3           INC     DPTR
   \   000002   A3           INC     DPTR
   \   000003   A3           INC     DPTR
   \   000004   A3           INC     DPTR
   \   000005   A3           INC     DPTR
   \   000006   A3           INC     DPTR
   \   000007   E0           MOVX    A,@DPTR
   \   000008   FE           MOV     R6,A
   \   000009   A3           INC     DPTR
   \   00000A   E0           MOVX    A,@DPTR
   \   00000B   FF           MOV     R7,A
   \   00000C   75..00       MOV     ?V0,#0x0
   \   00000F   22           RET

   \                                 In  segment BANKED_CODE, align 1, keep-with-next
   \                     ?Subroutine45:
   \   000000   8E82         MOV     DPL,R6
   \   000002   8F83         MOV     DPH,R7
   \   000004   A3           INC     DPTR
   \   000005   E0           MOVX    A,@DPTR
   \   000006   8A82         MOV     DPL,R2
   \   000008   8B83         MOV     DPH,R3
   \   00000A                REQUIRE ??Subroutine199_0
   \   00000A                ; // Fall through to label ??Subroutine199_0

   \                                 In  segment BANKED_CODE, align 1, keep-with-next
   \                     ??Subroutine199_0:
   \   000000   12....       LCALL   ?Subroutine147 & 0xFFFF
   \                     ??CrossCallReturnLabel_546:
   \   000003   E0           MOVX    A,@DPTR
   \   000004   22           RET

   \                                 In  segment BANKED_CODE, align 1, keep-with-next
   \                     ?Subroutine25:
   \   000000   A3           INC     DPTR
   \   000001   12....       LCALL   ?Subroutine148 & 0xFFFF
   \                     ??CrossCallReturnLabel_258:
   \   000004   8A82         MOV     DPL,R2
   \   000006   8B83         MOV     DPH,R3
   \   000008   A3           INC     DPTR
   \   000009   A3           INC     DPTR
   \   00000A   22           RET

   \                                 In  segment BANKED_CODE, align 1, keep-with-next
   \                     ?Subroutine147:
   \   000000   F0           MOVX    @DPTR,A
   \   000001   8E82         MOV     DPL,R6
   \   000003   8F83         MOV     DPH,R7
   \   000005   22           RET

   \                                 In  segment BANKED_CODE, align 1, keep-with-next
   \                     ?Subroutine69:
   \   000000   A3           INC     DPTR
   \   000001                REQUIRE ??Subroutine222_0
   \   000001                ; // Fall through to label ??Subroutine222_0

   \                                 In  segment BANKED_CODE, align 1, keep-with-next
   \                     ??Subroutine222_0:
   \   000000   E0           MOVX    A,@DPTR
   \   000001   8A82         MOV     DPL,R2
   \   000003   8B83         MOV     DPH,R3
   \   000005   22           RET
   2466          
   2467          #if ( ZG_BUILD_COORDINATOR_TYPE )
   2468          #ifdef ZDO_ENDDEVICEBIND_RESPONSE
   2469          /*********************************************************************
   2470           * @fn      ZDO_MatchEndDeviceBind()
   2471           *
   2472           * @brief
   2473           *
   2474           *   Called to match end device binding requests
   2475           *
   2476           * @param  bindReq  - binding request information
   2477           * @param  SecurityUse - Security enable/disable
   2478           *
   2479           * @return  none
   2480           */

   \                                 In  segment BANKED_CODE, align 1, keep-with-next
   2481          void ZDO_MatchEndDeviceBind( ZDEndDeviceBind_t *bindReq )
   \                     ZDO_MatchEndDeviceBind:
   2482          {
   \   000000                REQUIRE ?V0
   \   000000                REQUIRE ?V1
   \   000000                REQUIRE ?V2
   \   000000                REQUIRE ?V4
   \   000000                REQUIRE ?V5
   \   000000                REQUIRE ?V6
   \   000000                REQUIRE ?V7
   \   000000   74F0         MOV     A,#-0x10
   \   000002   12....       LCALL   ?BANKED_ENTER_XDATA
   \   000005                ; Saved register size: 16
   \   000005                ; Auto size: 10
   \   000005   74F6         MOV     A,#-0xa
   \   000007   12....       LCALL   ?ALLOC_XSTACK8
   \   00000A   8A..         MOV     ?V4,R2
   \   00000C   8B..         MOV     ?V5,R3
   2483            zAddrType_t dstAddr;
   2484            uint8 sendRsp = FALSE;
   \   00000E   7E00         MOV     R6,#0x0
   2485            uint8 status;
   2486          
   2487            // Is this the first request?
   2488            if ( matchED == NULL )
   \   000010   90....       MOV     DPTR,#matchED
   \   000013   12....       LCALL   ??Subroutine204_0 & 0xFFFF
   \                     ??CrossCallReturnLabel_443:
   \   000016   7052         JNZ     ??ZDO_MatchEndDeviceBind_0
   2489            {
   2490              // Create match info structure
   2491              matchED = (ZDMatchEndDeviceBind_t *)osal_mem_alloc( sizeof ( ZDMatchEndDeviceBind_t ) );
   \   000018                ; Setup parameters for call to function osal_mem_alloc
   \   000018   7A37         MOV     R2,#0x37
   \   00001A   7B00         MOV     R3,#0x0
   \   00001C   12....       LCALL   `??osal_mem_alloc::?relay`; Banked call to: osal_mem_alloc
   \   00001F   90....       MOV     DPTR,#matchED
   \   000022   12....       LCALL   ??Subroutine184_0 & 0xFFFF
   2492              if ( matchED )
   \                     ??CrossCallReturnLabel_332:
   \   000025   90....       MOV     DPTR,#matchED
   \   000028   12....       LCALL   ??Subroutine204_0 & 0xFFFF
   \                     ??CrossCallReturnLabel_444:
   \   00002B   6019         JZ      ??ZDO_MatchEndDeviceBind_1
   2493              {
   2494                // Clear the structure
   2495                osal_memset( (uint8 *)matchED, 0, sizeof ( ZDMatchEndDeviceBind_t ) );
   \   00002D                ; Setup parameters for call to function osal_memset
   \   00002D   7C37         MOV     R4,#0x37
   \   00002F   7D00         MOV     R5,#0x0
   \   000031   7900         MOV     R1,#0x0
   \   000033   12....       LCALL   `??osal_memset::?relay`; Banked call to: osal_memset
   2496          
   2497                // Copy the first request's information
   2498                if ( !ZDO_CopyMatchInfo( &(matchED->ed1), bindReq ) )
   \   000036                ; Setup parameters for call to function ZDO_CopyMatchInfo
   \   000036   AC..         MOV     R4,?V4
   \   000038   AD..         MOV     R5,?V5
   \   00003A   90....       MOV     DPTR,#matchED
   \   00003D   12....       LCALL   ??Subroutine200_0 & 0xFFFF
   2499                {
   2500                  status = ZDP_NO_ENTRY;
   2501                  sendRsp = TRUE;
   2502                }
   2503              }
   \                     ??CrossCallReturnLabel_409:
   \   000040   12....       LCALL   `??ZDO_CopyMatchInfo::?relay`; Banked call to: ZDO_CopyMatchInfo
   \   000043   E9           MOV     A,R1
   \   000044   700B         JNZ     ??ZDO_MatchEndDeviceBind_2
   2504              else
   2505              {
   2506                status = ZDP_NO_ENTRY;
   \                     ??ZDO_MatchEndDeviceBind_1:
   \   000046   85..82       MOV     DPL,?XSP + 0
   \   000049   85..83       MOV     DPH,?XSP + 1
   \   00004C   7488         MOV     A,#-0x78
   \   00004E   02....       LJMP    ??ZDO_MatchEndDeviceBind_3 & 0xFFFF
   2507                sendRsp = TRUE;
   2508              }
   2509          
   2510              if ( !sendRsp )
   2511              {
   2512                // Set into the correct state
   2513                matchED->state = ZDMATCH_WAIT_REQ;
   \                     ??ZDO_MatchEndDeviceBind_2:
   \   000051   12....       LCALL   ??Subroutine209_0 & 0xFFFF
   \                     ??CrossCallReturnLabel_469:
   \   000054   12....       LCALL   ?Subroutine140 & 0xFFFF
   \                     ??CrossCallReturnLabel_243:
   \   000057   7401         MOV     A,#0x1
   \   000059   F0           MOVX    @DPTR,A
   2514          
   2515                // Setup the timeout
   2516                APS_SetEndDeviceBindTimeout( AIB_MaxBindingTime, ZDO_EndDeviceBindMatchTimeoutCB );
   \   00005A                ; Setup parameters for call to function APS_SetEndDeviceBindTimeout
   \   00005A   7C..         MOV     R4,#`??ZDO_EndDeviceBindMatchTimeoutCB::?relay` & 0xff
   \   00005C   7D..         MOV     R5,#(`??ZDO_EndDeviceBindMatchTimeoutCB::?relay` >> 8) & 0xff
   \   00005E   90....       MOV     DPTR,#AIB_MaxBindingTime
   \   000061   12....       LCALL   ??Subroutine200_0 & 0xFFFF
   2517              }
   2518            }
   \                     ??CrossCallReturnLabel_410:
   \   000064   12....       LCALL   `??APS_SetEndDeviceBindTimeout::?relay`; Banked call to: APS_SetEndDeviceBindTimeout
   \   000067   02....       LJMP    ??ZDO_MatchEndDeviceBind_4 & 0xFFFF
   2519            else
   2520            {
   2521                matchED->state = ZDMATCH_SENDING_BINDS;
   \                     ??ZDO_MatchEndDeviceBind_0:
   \   00006A   E0           MOVX    A,@DPTR
   \   00006B   C8           XCH     A,R0
   \   00006C   12....       LCALL   ?Subroutine140 & 0xFFFF
   \                     ??CrossCallReturnLabel_244:
   \   00006F   7402         MOV     A,#0x2
   \   000071   F0           MOVX    @DPTR,A
   2522          
   2523                // Copy the 2nd request's information
   2524                if ( !ZDO_CopyMatchInfo( &(matchED->ed2), bindReq ) )
   \   000072                ; Setup parameters for call to function ZDO_CopyMatchInfo
   \   000072   AC..         MOV     R4,?V4
   \   000074   AD..         MOV     R5,?V5
   \   000076   12....       LCALL   ?Subroutine97 & 0xFFFF
   \                     ??CrossCallReturnLabel_145:
   \   000079   12....       LCALL   `??ZDO_CopyMatchInfo::?relay`; Banked call to: ZDO_CopyMatchInfo
   \   00007C   E9           MOV     A,R1
   \   00007D   700B         JNZ     ??ZDO_MatchEndDeviceBind_5
   2525                {
   2526                  status = ZDP_NO_ENTRY;
   \   00007F   85..82       MOV     DPL,?XSP + 0
   \   000082   85..83       MOV     DPH,?XSP + 1
   \   000085   7488         MOV     A,#-0x78
   \   000087   F0           MOVX    @DPTR,A
   2527                  sendRsp = TRUE;
   \   000088   7E01         MOV     R6,#0x1
   2528                }
   2529          
   2530                // Make a source match for ed1
   2531                matchED->ed1numMatched = ZDO_CompareClusterLists(
   2532                            matchED->ed1.numOutClusters, matchED->ed1.outClusters,
   2533                            matchED->ed2.numInClusters, matchED->ed2.inClusters, ZDOBuildBuf );
   \                     ??ZDO_MatchEndDeviceBind_5:
   \   00008A                ; Setup parameters for call to function ZDO_CompareClusterLists
   \   00008A   75....       MOV     ?V0,#ZDOBuildBuf & 0xff
   \   00008D   75....       MOV     ?V1,#(ZDOBuildBuf >> 8) & 0xff
   \   000090   78..         MOV     R0,#?V0
   \   000092   12....       LCALL   ?PUSH_XSTACK_I_TWO
   \   000095   12....       LCALL   ??Subroutine209_0 & 0xFFFF
   \                     ??CrossCallReturnLabel_470:
   \   000098   2429         ADD     A,#0x29
   \   00009A   F582         MOV     DPL,A
   \   00009C   E4           CLR     A
   \   00009D   38           ADDC    A,R0
   \   00009E   F583         MOV     DPH,A
   \   0000A0   12....       LCALL   ?PUSH_XSTACK8_X_TWO
   \   0000A3   12....       LCALL   ??Subroutine209_0 & 0xFFFF
   \                     ??CrossCallReturnLabel_471:
   \   0000A6   2428         ADD     A,#0x28
   \   0000A8   12....       LCALL   ?Subroutine125 & 0xFFFF
   \                     ??CrossCallReturnLabel_209:
   \   0000AB   FC           MOV     R4,A
   \   0000AC   12....       LCALL   ??Subroutine209_0 & 0xFFFF
   \                     ??CrossCallReturnLabel_472:
   \   0000AF   2415         ADD     A,#0x15
   \   0000B1   12....       LCALL   ?Subroutine71 & 0xFFFF
   \                     ??CrossCallReturnLabel_489:
   \   0000B4   2414         ADD     A,#0x14
   \   0000B6   12....       LCALL   ?Subroutine125 & 0xFFFF
   \                     ??CrossCallReturnLabel_210:
   \   0000B9   F9           MOV     R1,A
   \   0000BA   12....       LCALL   `??ZDO_CompareClusterLists::?relay`; Banked call to: ZDO_CompareClusterLists
   \   0000BD   7404         MOV     A,#0x4
   \   0000BF   12....       LCALL   ?DEALLOC_XSTACK8
   \   0000C2   12....       LCALL   ??Subroutine209_0 & 0xFFFF
   \                     ??CrossCallReturnLabel_473:
   \   0000C5   2431         ADD     A,#0x31
   \   0000C7   12....       LCALL   ?Subroutine16 & 0xFFFF
   2534                if ( matchED->ed1numMatched )
   \                     ??CrossCallReturnLabel_456:
   \   0000CA   2431         ADD     A,#0x31
   \   0000CC   12....       LCALL   ?Subroutine125 & 0xFFFF
   \                     ??CrossCallReturnLabel_211:
   \   0000CF   FA           MOV     R2,A
   \   0000D0   75..00       MOV     ?V2,#0x0
   \   0000D3   6030         JZ      ??ZDO_MatchEndDeviceBind_6
   2535                {
   2536                  // Save the match list
   2537                  matchED->ed1Matched = osal_mem_alloc( (short)(matchED->ed1numMatched * sizeof ( uint16 )) );
   \   0000D5                ; Setup parameters for call to function osal_mem_alloc
   \   0000D5   12....       LCALL   ?Subroutine126 & 0xFFFF
   \                     ??CrossCallReturnLabel_219:
   \   0000D8   12....       LCALL   `??osal_mem_alloc::?relay`; Banked call to: osal_mem_alloc
   \   0000DB   12....       LCALL   ??Subroutine209_0 & 0xFFFF
   \                     ??CrossCallReturnLabel_474:
   \   0000DE   2432         ADD     A,#0x32
   \   0000E0   12....       LCALL   ?Subroutine20 & 0xFFFF
   2538                  if ( matchED->ed1Matched )
   \                     ??CrossCallReturnLabel_452:
   \   0000E3   6015         JZ      ??ZDO_MatchEndDeviceBind_7
   2539                  {
   2540                    osal_memcpy( matchED->ed1Matched, ZDOBuildBuf, (matchED->ed1numMatched * sizeof ( uint16 )) );
   \   0000E5                ; Setup parameters for call to function osal_memcpy
   \   0000E5   78..         MOV     R0,#?V0
   \   0000E7   12....       LCALL   ?PUSH_XSTACK_I_THREE
   \   0000EA   12....       LCALL   ?Subroutine57 & 0xFFFF
   2541                  }
   \                     ??CrossCallReturnLabel_84:
   \   0000ED   12....       LCALL   ??Subroutine208_0 & 0xFFFF
   \                     ??CrossCallReturnLabel_462:
   \   0000F0   12....       LCALL   `??osal_memcpy::?relay`; Banked call to: osal_memcpy
   \   0000F3   7403         MOV     A,#0x3
   \   0000F5   12....       LCALL   ?DEALLOC_XSTACK8
   \   0000F8   800B         SJMP    ??ZDO_MatchEndDeviceBind_6
   2542                  else
   2543                  {
   2544                    // Allocation error, stop
   2545                    status = ZDP_NO_ENTRY;
   \                     ??ZDO_MatchEndDeviceBind_7:
   \   0000FA   85..82       MOV     DPL,?XSP + 0
   \   0000FD   85..83       MOV     DPH,?XSP + 1
   \   000100   7488         MOV     A,#-0x78
   \   000102   F0           MOVX    @DPTR,A
   2546                    sendRsp = TRUE;
   \   000103   7E01         MOV     R6,#0x1
   2547                  }
   2548                }
   2549          
   2550                // Make a source match for ed2
   2551                matchED->ed2numMatched = ZDO_CompareClusterLists(
   2552                            matchED->ed2.numOutClusters, matchED->ed2.outClusters,
   2553                            matchED->ed1.numInClusters, matchED->ed1.inClusters, ZDOBuildBuf );
   \                     ??ZDO_MatchEndDeviceBind_6:
   \   000105                ; Setup parameters for call to function ZDO_CompareClusterLists
   \   000105   75....       MOV     ?V6,#ZDOBuildBuf & 0xff
   \   000108   75....       MOV     ?V7,#(ZDOBuildBuf >> 8) & 0xff
   \   00010B   78..         MOV     R0,#?V6
   \   00010D   12....       LCALL   ?PUSH_XSTACK_I_TWO
   \   000110   12....       LCALL   ??Subroutine209_0 & 0xFFFF
   \                     ??CrossCallReturnLabel_475:
   \   000113   2412         ADD     A,#0x12
   \   000115   F582         MOV     DPL,A
   \   000117   E4           CLR     A
   \   000118   38           ADDC    A,R0
   \   000119   F583         MOV     DPH,A
   \   00011B   12....       LCALL   ?PUSH_XSTACK8_X_TWO
   \   00011E   12....       LCALL   ??Subroutine209_0 & 0xFFFF
   \                     ??CrossCallReturnLabel_476:
   \   000121   2411         ADD     A,#0x11
   \   000123   12....       LCALL   ?Subroutine125 & 0xFFFF
   \                     ??CrossCallReturnLabel_212:
   \   000126   FC           MOV     R4,A
   \   000127   12....       LCALL   ??Subroutine209_0 & 0xFFFF
   \                     ??CrossCallReturnLabel_477:
   \   00012A   242C         ADD     A,#0x2c
   \   00012C   12....       LCALL   ?Subroutine71 & 0xFFFF
   \                     ??CrossCallReturnLabel_490:
   \   00012F   242B         ADD     A,#0x2b
   \   000131   12....       LCALL   ?Subroutine125 & 0xFFFF
   \                     ??CrossCallReturnLabel_213:
   \   000134   F9           MOV     R1,A
   \   000135   12....       LCALL   `??ZDO_CompareClusterLists::?relay`; Banked call to: ZDO_CompareClusterLists
   \   000138   7404         MOV     A,#0x4
   \   00013A   12....       LCALL   ?DEALLOC_XSTACK8
   \   00013D   E9           MOV     A,R1
   \   00013E   F8           MOV     R0,A
   \   00013F   12....       LCALL   ??Subroutine209_0 & 0xFFFF
   \                     ??CrossCallReturnLabel_478:
   \   000142   2434         ADD     A,#0x34
   \   000144   12....       LCALL   ?Subroutine16 & 0xFFFF
   2554                if ( matchED->ed2numMatched )
   \                     ??CrossCallReturnLabel_457:
   \   000147   2434         ADD     A,#0x34
   \   000149   12....       LCALL   ?Subroutine125 & 0xFFFF
   \                     ??CrossCallReturnLabel_214:
   \   00014C   FA           MOV     R2,A
   \   00014D   6023         JZ      ??ZDO_MatchEndDeviceBind_8
   2555                {
   2556                  // Save the match list
   2557                  matchED->ed2Matched = osal_mem_alloc( (short)(matchED->ed2numMatched * sizeof ( uint16 )) );
   \   00014F                ; Setup parameters for call to function osal_mem_alloc
   \   00014F   12....       LCALL   ?Subroutine126 & 0xFFFF
   \                     ??CrossCallReturnLabel_220:
   \   000152   12....       LCALL   `??osal_mem_alloc::?relay`; Banked call to: osal_mem_alloc
   \   000155   12....       LCALL   ??Subroutine209_0 & 0xFFFF
   \                     ??CrossCallReturnLabel_479:
   \   000158   2435         ADD     A,#0x35
   \   00015A   12....       LCALL   ?Subroutine20 & 0xFFFF
   2558                  if ( matchED->ed2Matched )
   \                     ??CrossCallReturnLabel_453:
   \   00015D   602E         JZ      ??ZDO_MatchEndDeviceBind_9
   2559                  {
   2560                    osal_memcpy( matchED->ed2Matched, ZDOBuildBuf, (matchED->ed2numMatched * sizeof ( uint16 )) );
   \   00015F                ; Setup parameters for call to function osal_memcpy
   \   00015F   78..         MOV     R0,#?V0
   \   000161   12....       LCALL   ?PUSH_XSTACK_I_THREE
   \   000164   12....       LCALL   ?Subroutine58 & 0xFFFF
   2561                  }
   \                     ??CrossCallReturnLabel_428:
   \   000167   12....       LCALL   ??Subroutine208_0 & 0xFFFF
   \                     ??CrossCallReturnLabel_463:
   \   00016A   12....       LCALL   `??osal_memcpy::?relay`; Banked call to: osal_memcpy
   \   00016D   7403         MOV     A,#0x3
   \   00016F   12....       LCALL   ?DEALLOC_XSTACK8
   2562                  else
   2563                  {
   2564                    // Allocation error, stop
   2565                    status = ZDP_NO_ENTRY;
   2566                    sendRsp = TRUE;
   2567                  }
   2568                }
   2569          
   2570                if ( (sendRsp == FALSE) && (matchED->ed1numMatched || matchED->ed2numMatched) )
   \                     ??ZDO_MatchEndDeviceBind_8:
   \   000172   EE           MOV     A,R6
   \   000173   A2E0         MOV     C,0xE0 /* A   */.0
   \   000175   401F         JC      ??ZDO_MatchEndDeviceBind_10
   \   000177   12....       LCALL   ?Subroutine57 & 0xFFFF
   \                     ??CrossCallReturnLabel_85:
   \   00017A   7005         JNZ     ??ZDO_MatchEndDeviceBind_11
   \   00017C   12....       LCALL   ?Subroutine58 & 0xFFFF
   \                     ??CrossCallReturnLabel_429:
   \   00017F   6015         JZ      ??ZDO_MatchEndDeviceBind_10
   2571                {
   2572                  // Do the first unbind/bind state
   2573                  ZDMatchSendState( ZDMATCH_REASON_START, ZDP_SUCCESS, 0 );
   \                     ??ZDO_MatchEndDeviceBind_11:
   \   000181                ; Setup parameters for call to function ZDMatchSendState
   \   000181   7B00         MOV     R3,#0x0
   \   000183   7A00         MOV     R2,#0x0
   \   000185   7900         MOV     R1,#0x0
   \   000187   12....       LCALL   `??ZDMatchSendState::?relay`; Banked call to: ZDMatchSendState
   2574                }
   2575                else
   2576                {
   2577                  status = ZDP_NO_MATCH;
   2578                  sendRsp = TRUE;
   2579                }
   2580            }
   2581          
   2582            if ( sendRsp )
   \   00018A   02....       LJMP    ??ZDO_MatchEndDeviceBind_4 & 0xFFFF
   \                     ??ZDO_MatchEndDeviceBind_9:
   \   00018D   85..82       MOV     DPL,?XSP + 0
   \   000190   85..83       MOV     DPH,?XSP + 1
   \   000193   7488         MOV     A,#-0x78
   \   000195   F0           MOVX    @DPTR,A
   \                     ??ZDO_MatchEndDeviceBind_10:
   \   000196   85..82       MOV     DPL,?XSP + 0
   \   000199   85..83       MOV     DPH,?XSP + 1
   \   00019C   7486         MOV     A,#-0x7a
   \                     ??ZDO_MatchEndDeviceBind_3:
   \   00019E   F0           MOVX    @DPTR,A
   2583            {
   2584              // send response to this requester
   2585              dstAddr.addrMode = Addr16Bit;
   \   00019F   7409         MOV     A,#0x9
   \   0001A1   12....       LCALL   ?XSTACK_DISP0_8
   \   0001A4   7402         MOV     A,#0x2
   \   0001A6   F0           MOVX    @DPTR,A
   2586              dstAddr.addr.shortAddr = bindReq->srcAddr;
   \   0001A7   85..82       MOV     DPL,?V4
   \   0001AA   85..83       MOV     DPH,?V5
   \   0001AD   12....       LCALL   ??Subroutine201_0 & 0xFFFF
   \                     ??CrossCallReturnLabel_423:
   \   0001B0   12....       LCALL   ?XSTACK_DISP0_8
   \   0001B3   12....       LCALL   ?Subroutine40 & 0xFFFF
   2587              ZDP_EndDeviceBindRsp( bindReq->TransSeq, &dstAddr, status, bindReq->SecurityUse );
   \                     ??CrossCallReturnLabel_394:
   \   0001B6                ; Setup parameters for call to function ZDP_SendData
   \   0001B6   85..82       MOV     DPL,?V4
   \   0001B9   85..83       MOV     DPH,?V5
   \   0001BC   A3           INC     DPTR
   \   0001BD   E0           MOVX    A,@DPTR
   \   0001BE   F5..         MOV     ?V0,A
   \   0001C0   78..         MOV     R0,#?V0
   \   0001C2   12....       LCALL   ?PUSH_XSTACK_I_ONE
   \   0001C5   7401         MOV     A,#0x1
   \   0001C7   12....       LCALL   ?XSTACK_DISP100_8
   \   0001CA   88..         MOV     ?V0,R0
   \   0001CC   89..         MOV     ?V1,R1
   \   0001CE   78..         MOV     R0,#?V0
   \   0001D0   12....       LCALL   ?PUSH_XSTACK_I_TWO
   \   0001D3   75..20       MOV     ?V0,#0x20
   \   0001D6   75..80       MOV     ?V1,#-0x80
   \   0001D9   78..         MOV     R0,#?V0
   \   0001DB   12....       LCALL   ?PUSH_XSTACK_I_TWO
   \   0001DE   7901         MOV     R1,#0x1
   \   0001E0   7406         MOV     A,#0x6
   \   0001E2   12....       LCALL   ?XSTACK_DISP102_8
   \   0001E5   AA..         MOV     R2,?V4
   \   0001E7   AB..         MOV     R3,?V5
   \   0001E9   12....       LCALL   `??ZDP_SendData::?relay`; Banked call to: ZDP_SendData
   \   0001EC   7405         MOV     A,#0x5
   \   0001EE   12....       LCALL   ?DEALLOC_XSTACK8
   2588          
   2589              if ( matchED->state == ZDMATCH_SENDING_BINDS )
   \   0001F1   12....       LCALL   ?Subroutine66 & 0xFFFF
   \                     ??CrossCallReturnLabel_96:
   \   0001F4   7044         JNZ     ??ZDO_MatchEndDeviceBind_12
   2590              {
   2591                // send response to first requester
   2592                dstAddr.addrMode = Addr16Bit;
   \   0001F6   7409         MOV     A,#0x9
   \   0001F8   12....       LCALL   ?XSTACK_DISP0_8
   \   0001FB   7402         MOV     A,#0x2
   \   0001FD   12....       LCALL   ?Subroutine50 & 0xFFFF
   2593                dstAddr.addr.shortAddr = matchED->ed1.srcAddr;
   2594                ZDP_EndDeviceBindRsp( matchED->ed1.TransSeq, &dstAddr, status, matchED->ed1.SecurityUse );
   2595              }
   \                     ??CrossCallReturnLabel_75:
   \   000200   12....       LCALL   ?Subroutine65 & 0xFFFF
   \                     ??CrossCallReturnLabel_425:
   \   000203   12....       LCALL   ?XSTACK_DISP0_8
   \   000206   12....       LCALL   ?Subroutine12 & 0xFFFF
   \                     ??CrossCallReturnLabel_4:
   \   000209   12....       LCALL   ?PUSH_XSTACK_I_ONE
   \   00020C   7401         MOV     A,#0x1
   \   00020E   12....       LCALL   ?XSTACK_DISP100_8
   \   000211   88..         MOV     ?V0,R0
   \   000213   89..         MOV     ?V1,R1
   \   000215   78..         MOV     R0,#?V0
   \   000217   12....       LCALL   ?PUSH_XSTACK_I_TWO
   \   00021A   75..20       MOV     ?V0,#0x20
   \   00021D   75..80       MOV     ?V1,#-0x80
   \   000220   78..         MOV     R0,#?V0
   \   000222   12....       LCALL   ?PUSH_XSTACK_I_TWO
   \   000225   7901         MOV     R1,#0x1
   \   000227   7406         MOV     A,#0x6
   \   000229   12....       LCALL   ?XSTACK_DISP102_8
   \   00022C   90....       MOV     DPTR,#matchED
   \   00022F   12....       LCALL   ??Subroutine200_0 & 0xFFFF
   \                     ??CrossCallReturnLabel_411:
   \   000232   12....       LCALL   `??ZDP_SendData::?relay`; Banked call to: ZDP_SendData
   \   000235   7405         MOV     A,#0x5
   \   000237   12....       LCALL   ?DEALLOC_XSTACK8
   2596          
   2597              // Process ended - release memory used
   2598              ZDO_RemoveMatchMemory();
   \                     ??ZDO_MatchEndDeviceBind_12:
   \   00023A                ; Setup parameters for call to function ZDO_RemoveMatchMemory
   \   00023A   12....       LCALL   `??ZDO_RemoveMatchMemory::?relay`; Banked call to: ZDO_RemoveMatchMemory
   2599            }
   2600          }
   \                     ??ZDO_MatchEndDeviceBind_4:
   \   00023D   740A         MOV     A,#0xa
   \   00023F   02....       LJMP    ?Subroutine8 & 0xFFFF

   \                                 In  segment BANKED_CODE, align 1, keep-with-next
   \                     ?Subroutine140:
   \   000000   242E         ADD     A,#0x2e
   \   000002   F582         MOV     DPL,A
   \   000004   E4           CLR     A
   \   000005   38           ADDC    A,R0
   \   000006   F583         MOV     DPH,A
   \   000008   22           RET

   \                                 In  segment BANKED_CODE, align 1, keep-with-next
   \                     ?Subroutine65:
   \   000000   F583         MOV     DPH,A
   \   000002   8882         MOV     DPL,R0
   \   000004                REQUIRE ??Subroutine201_0
   \   000004                ; // Fall through to label ??Subroutine201_0

   \                                 In  segment BANKED_CODE, align 1, keep-with-next
   \                     ??Subroutine201_0:
   \   000000   A3           INC     DPTR
   \   000001   A3           INC     DPTR
   \   000002                REQUIRE ??Subroutine202_0
   \   000002                ; // Fall through to label ??Subroutine202_0

   \                                 In  segment BANKED_CODE, align 1, keep-with-next
   \                     ??Subroutine202_0:
   \   000000   12....       LCALL   ??Subroutine198_0 & 0xFFFF
   \                     ??CrossCallReturnLabel_509:
   \   000003   F9           MOV     R1,A
   \   000004   7401         MOV     A,#0x1
   \   000006   22           RET

   \                                 In  segment BANKED_CODE, align 1, keep-with-next
   \                     ?Subroutine58:
   \   000000   90....       MOV     DPTR,#matchED
   \   000003                REQUIRE ??Subroutine203_0
   \   000003                ; // Fall through to label ??Subroutine203_0

   \                                 In  segment BANKED_CODE, align 1, keep-with-next
   \                     ??Subroutine203_0:
   \   000000   12....       LCALL   ??Subroutine214_0 & 0xFFFF
   \                     ??CrossCallReturnLabel_514:
   \   000003   2434         ADD     A,#0x34
   \   000005   12....       LCALL   ?Subroutine169 & 0xFFFF
   \                     ??CrossCallReturnLabel_435:
   \   000008   22           RET

   \                                 In  segment BANKED_CODE, align 1, keep-with-next
   \                     ?Subroutine20:
   \   000000   F582         MOV     DPL,A
   \   000002   E4           CLR     A
   \   000003   38           ADDC    A,R0
   \   000004   F583         MOV     DPH,A
   \   000006                REQUIRE ??Subroutine205_0
   \   000006                ; // Fall through to label ??Subroutine205_0

   \                                 In  segment BANKED_CODE, align 1, keep-with-next
   \                     ??Subroutine205_0:
   \   000000   EA           MOV     A,R2
   \   000001   F0           MOVX    @DPTR,A
   \   000002   A3           INC     DPTR
   \   000003   EB           MOV     A,R3
   \   000004   F0           MOVX    @DPTR,A
   \   000005   EA           MOV     A,R2
   \   000006   4B           ORL     A,R3
   \   000007   22           RET

   \                                 In  segment BANKED_CODE, align 1, keep-with-next
   \                     ?Subroutine16:
   \   000000   F582         MOV     DPL,A
   \   000002   E4           CLR     A
   \   000003   38           ADDC    A,R0
   \   000004   F583         MOV     DPH,A
   \   000006                REQUIRE ??Subroutine206_0
   \   000006                ; // Fall through to label ??Subroutine206_0

   \                                 In  segment BANKED_CODE, align 1, keep-with-next
   \                     ??Subroutine206_0:
   \   000000   12....       LCALL   ?Subroutine142 & 0xFFFF
   \                     ??CrossCallReturnLabel_459:
   \   000003   C8           XCH     A,R0
   \   000004   22           RET

   \                                 In  segment BANKED_CODE, align 1, keep-with-next
   \                     ?Subroutine142:
   \   000000   E9           MOV     A,R1
   \   000001                REQUIRE ??Subroutine207_0
   \   000001                ; // Fall through to label ??Subroutine207_0

   \                                 In  segment BANKED_CODE, align 1, keep-with-next
   \                     ??Subroutine207_0:
   \   000000   F0           MOVX    @DPTR,A
   \   000001                ; Setup parameters for call to function ZDP_SendData
   \   000001                ; Setup parameters for call to function ZDP_SendData
   \   000001                ; Setup parameters for call to function ZDP_SendData
   \   000001   90....       MOV     DPTR,#matchED
   \   000004   12....       LCALL   ?Subroutine174 & 0xFFFF
   \                     ??CrossCallReturnLabel_520:
   \   000007   22           RET

   \                                 In  segment BANKED_CODE, align 1, keep-with-next
   \                     ??Subroutine208_0:
   \   000000   25E0         ADD     A,0xE0 /* A   */
   \   000002   FC           MOV     R4,A
   \   000003   E4           CLR     A
   \   000004   33           RLC     A
   \   000005   FD           MOV     R5,A
   \   000006   22           RET

   \                                 In  segment BANKED_CODE, align 1, keep-with-next
   \                     ?Subroutine97:
   \   000000   90....       MOV     DPTR,#matchED
   \   000003   E0           MOVX    A,@DPTR
   \   000004   2417         ADD     A,#0x17
   \   000006   FA           MOV     R2,A
   \   000007   A3           INC     DPTR
   \   000008   E0           MOVX    A,@DPTR
   \   000009   3400         ADDC    A,#0x0
   \   00000B   FB           MOV     R3,A
   \   00000C   22           RET

   \                                 In  segment BANKED_CODE, align 1, keep-with-next
   \                     ?Subroutine71:
   \   000000   F582         MOV     DPL,A
   \   000002   E4           CLR     A
   \   000003   38           ADDC    A,R0
   \   000004   12....       LCALL   ?Subroutine158 & 0xFFFF
   \                     ??CrossCallReturnLabel_491:
   \   000007                REQUIRE ??Subroutine209_0
   \   000007                ; // Fall through to label ??Subroutine209_0

   \                                 In  segment BANKED_CODE, align 1, keep-with-next
   \                     ??Subroutine209_0:
   \   000000   90....       MOV     DPTR,#matchED
   \   000003                REQUIRE ??Subroutine210_0
   \   000003                ; // Fall through to label ??Subroutine210_0

   \                                 In  segment BANKED_CODE, align 1, keep-with-next
   \                     ?Subroutine66:
   \   000000   12....       LCALL   ?Subroutine157 & 0xFFFF
   \                     ??CrossCallReturnLabel_513:
   \   000003   242E         ADD     A,#0x2e
   \   000005   12....       LCALL   ?Subroutine169 & 0xFFFF
   \                     ??CrossCallReturnLabel_431:
   \   000008   6402         XRL     A,#0x2
   \   00000A   22           RET

   \                                 In  segment BANKED_CODE, align 1, keep-with-next
   \                     ?Subroutine57:
   \   000000   12....       LCALL   ?Subroutine157 & 0xFFFF
   \                     ??CrossCallReturnLabel_512:
   \   000003   2431         ADD     A,#0x31
   \   000005   12....       LCALL   ?Subroutine169 & 0xFFFF
   \                     ??CrossCallReturnLabel_430:
   \   000008   22           RET

   \                                 In  segment BANKED_CODE, align 1, keep-with-next
   \                     ?Subroutine50:
   \   000000   12....       LCALL   ??Subroutine207_0 & 0xFFFF
   \                     ??CrossCallReturnLabel_461:
   \   000003   22           RET

   \                                 In  segment BANKED_CODE, align 1, keep-with-next
   \                     ?Subroutine12:
   \   000000   E8           MOV     A,R0
   \   000001   F0           MOVX    @DPTR,A
   \   000002   A3           INC     DPTR
   \   000003   12....       LCALL   ?Subroutine142 & 0xFFFF
   \                     ??CrossCallReturnLabel_460:
   \   000006   F583         MOV     DPH,A
   \   000008   8882         MOV     DPL,R0
   \   00000A   A3           INC     DPTR
   \   00000B   E0           MOVX    A,@DPTR
   \   00000C   F5..         MOV     ?V0,A
   \   00000E   78..         MOV     R0,#?V0
   \   000010   22           RET

   \                                 In  segment BANKED_CODE, align 1, keep-with-next
   \                     ?Subroutine157:
   \   000000   90....       MOV     DPTR,#matchED
   \   000003                REQUIRE ??Subroutine214_0
   \   000003                ; // Fall through to label ??Subroutine214_0
   2601          #endif
   2602          
   2603          /*********************************************************************
   2604           * @fn      ZDO_RemoveMatchMemory()
   2605           *
   2606           * @brief   Called to clear the memory used for the end device bind.
   2607           *
   2608           * @param  none
   2609           *
   2610           * @return  none
   2611           */

   \                                 In  segment BANKED_CODE, align 1, keep-with-next
   2612          static void ZDO_RemoveMatchMemory( void )
   \                     ZDO_RemoveMatchMemory:
   2613          {
   \   000000   C082         PUSH    DPL
   \   000002   C083         PUSH    DPH
   \   000004                ; Saved register size: 2
   \   000004                ; Auto size: 0
   2614            if ( matchED != NULL )
   \   000004   90....       MOV     DPTR,#matchED
   \   000007   12....       LCALL   ??Subroutine204_0 & 0xFFFF
   \                     ??CrossCallReturnLabel_445:
   \   00000A   605D         JZ      ??ZDO_RemoveMatchMemory_0
   2615            {
   2616              if ( matchED->ed2Matched != NULL )
   \   00000C   E0           MOVX    A,@DPTR
   \   00000D   C8           XCH     A,R0
   \   00000E   2435         ADD     A,#0x35
   \   000010   12....       LCALL   ?Subroutine52 & 0xFFFF
   \                     ??CrossCallReturnLabel_319:
   \   000013   6003         JZ      ??ZDO_RemoveMatchMemory_1
   2617              {
   2618                osal_mem_free( matchED->ed2Matched );
   \   000015                ; Setup parameters for call to function osal_mem_free
   \   000015   12....       LCALL   `??osal_mem_free::?relay`; Banked call to: osal_mem_free
   2619              }
   2620              if ( matchED->ed1Matched != NULL )
   \                     ??ZDO_RemoveMatchMemory_1:
   \   000018   12....       LCALL   ??Subroutine209_0 & 0xFFFF
   \                     ??CrossCallReturnLabel_480:
   \   00001B   2432         ADD     A,#0x32
   \   00001D   12....       LCALL   ?Subroutine52 & 0xFFFF
   \                     ??CrossCallReturnLabel_320:
   \   000020   6003         JZ      ??ZDO_RemoveMatchMemory_2
   2621              {
   2622                osal_mem_free( matchED->ed1Matched );
   \   000022                ; Setup parameters for call to function osal_mem_free
   \   000022   12....       LCALL   `??osal_mem_free::?relay`; Banked call to: osal_mem_free
   2623              }
   2624              if ( matchED->ed1.inClusters != NULL )
   \                     ??ZDO_RemoveMatchMemory_2:
   \   000025   12....       LCALL   ??Subroutine209_0 & 0xFFFF
   \                     ??CrossCallReturnLabel_481:
   \   000028   2412         ADD     A,#0x12
   \   00002A   12....       LCALL   ?Subroutine52 & 0xFFFF
   \                     ??CrossCallReturnLabel_321:
   \   00002D   6003         JZ      ??ZDO_RemoveMatchMemory_3
   2625              {
   2626                osal_mem_free( matchED->ed1.inClusters );
   \   00002F                ; Setup parameters for call to function osal_mem_free
   \   00002F   12....       LCALL   `??osal_mem_free::?relay`; Banked call to: osal_mem_free
   2627              }
   2628              if ( matchED->ed1.outClusters != NULL )
   \                     ??ZDO_RemoveMatchMemory_3:
   \   000032   12....       LCALL   ??Subroutine209_0 & 0xFFFF
   \                     ??CrossCallReturnLabel_482:
   \   000035   2415         ADD     A,#0x15
   \   000037   12....       LCALL   ?Subroutine52 & 0xFFFF
   \                     ??CrossCallReturnLabel_322:
   \   00003A   6003         JZ      ??ZDO_RemoveMatchMemory_4
   2629              {
   2630                osal_mem_free( matchED->ed1.outClusters );
   \   00003C                ; Setup parameters for call to function osal_mem_free
   \   00003C   12....       LCALL   `??osal_mem_free::?relay`; Banked call to: osal_mem_free
   2631              }
   2632              if ( matchED->ed2.inClusters != NULL )
   \                     ??ZDO_RemoveMatchMemory_4:
   \   00003F   12....       LCALL   ??Subroutine209_0 & 0xFFFF
   \                     ??CrossCallReturnLabel_483:
   \   000042   2429         ADD     A,#0x29
   \   000044   12....       LCALL   ?Subroutine52 & 0xFFFF
   \                     ??CrossCallReturnLabel_323:
   \   000047   6003         JZ      ??ZDO_RemoveMatchMemory_5
   2633              {
   2634                osal_mem_free( matchED->ed2.inClusters );
   \   000049                ; Setup parameters for call to function osal_mem_free
   \   000049   12....       LCALL   `??osal_mem_free::?relay`; Banked call to: osal_mem_free
   2635              }
   2636              if ( matchED->ed2.outClusters != NULL )
   \                     ??ZDO_RemoveMatchMemory_5:
   \   00004C   12....       LCALL   ??Subroutine209_0 & 0xFFFF
   \                     ??CrossCallReturnLabel_484:
   \   00004F   242C         ADD     A,#0x2c
   \   000051   12....       LCALL   ?Subroutine52 & 0xFFFF
   \                     ??CrossCallReturnLabel_324:
   \   000054   6003         JZ      ??ZDO_RemoveMatchMemory_6
   2637              {
   2638                osal_mem_free( matchED->ed2.outClusters );
   \   000056                ; Setup parameters for call to function osal_mem_free
   \   000056   12....       LCALL   `??osal_mem_free::?relay`; Banked call to: osal_mem_free
   2639              }
   2640          
   2641              osal_mem_free( matchED );
   \                     ??ZDO_RemoveMatchMemory_6:
   \   000059                ; Setup parameters for call to function osal_mem_free
   \   000059   90....       MOV     DPTR,#matchED
   \   00005C   12....       LCALL   ??Subroutine200_0 & 0xFFFF
   \                     ??CrossCallReturnLabel_412:
   \   00005F   12....       LCALL   `??osal_mem_free::?relay`; Banked call to: osal_mem_free
   2642              matchED = (ZDMatchEndDeviceBind_t *)NULL;
   \   000062   90....       MOV     DPTR,#matchED
   \   000065   E4           CLR     A
   \   000066   F0           MOVX    @DPTR,A
   \   000067   A3           INC     DPTR
   \   000068   F0           MOVX    @DPTR,A
   2643            }
   2644          }
   \                     ??ZDO_RemoveMatchMemory_0:
   \   000069   02....       LJMP    ?Subroutine0 & 0xFFFF
   2645          
   2646          /*********************************************************************
   2647           * @fn      ZDO_CopyMatchInfo()
   2648           *
   2649           * @brief   Called to copy memory used for the end device bind.
   2650           *
   2651           * @param  srcReq - source information
   2652           * @param  dstReq - destination location
   2653           *
   2654           * @return  TRUE if copy was successful.
   2655           */

   \                                 In  segment BANKED_CODE, align 1, keep-with-next
   2656          static uint8 ZDO_CopyMatchInfo( ZDEndDeviceBind_t *destReq, ZDEndDeviceBind_t *srcReq )
   \                     ZDO_CopyMatchInfo:
   2657          {
   \   000000                REQUIRE ?V0
   \   000000                REQUIRE ?V1
   \   000000                REQUIRE ?V2
   \   000000                REQUIRE ?V3
   \   000000                REQUIRE ?V4
   \   000000                REQUIRE ?V5
   \   000000                REQUIRE ?V6
   \   000000                REQUIRE ?V7
   \   000000                REQUIRE ?V8
   \   000000                REQUIRE ?V9
   \   000000   74EE         MOV     A,#-0x12
   \   000002   12....       LCALL   ?BANKED_ENTER_XDATA
   \   000005                ; Saved register size: 18
   \   000005                ; Auto size: 0
   \   000005   EA           MOV     A,R2
   \   000006   FE           MOV     R6,A
   \   000007   EB           MOV     A,R3
   \   000008   FF           MOV     R7,A
   \   000009   8C..         MOV     ?V0,R4
   \   00000B   8D..         MOV     ?V1,R5
   2658            uint8 allOK = TRUE;
   \   00000D   75..01       MOV     ?V7,#0x1
   2659          
   2660            // Copy bind information into the match info structure
   2661            osal_memcpy( (uint8 *)destReq, srcReq, sizeof ( ZDEndDeviceBind_t ) );
   \   000010                ; Setup parameters for call to function osal_memcpy
   \   000010   8C..         MOV     ?V4,R4
   \   000012   8D..         MOV     ?V5,R5
   \   000014   75..00       MOV     ?V6,#0x0
   \   000017   78..         MOV     R0,#?V4
   \   000019   12....       LCALL   ?PUSH_XSTACK_I_THREE
   \   00001C   7C17         MOV     R4,#0x17
   \   00001E   7D00         MOV     R5,#0x0
   \   000020   12....       LCALL   `??osal_memcpy::?relay`; Banked call to: osal_memcpy
   \   000023   7403         MOV     A,#0x3
   \   000025   12....       LCALL   ?DEALLOC_XSTACK8
   2662          
   2663            // Initialize the destination cluster pointers
   2664            destReq->inClusters = NULL;
   \   000028   EE           MOV     A,R6
   \   000029   2412         ADD     A,#0x12
   \   00002B   12....       LCALL   ?Subroutine117 & 0xFFFF
   \                     ??CrossCallReturnLabel_190:
   \   00002E   E4           CLR     A
   \   00002F   F0           MOVX    @DPTR,A
   \   000030   A3           INC     DPTR
   \   000031   F0           MOVX    @DPTR,A
   2665            destReq->outClusters = NULL;
   \   000032   EE           MOV     A,R6
   \   000033   2415         ADD     A,#0x15
   \   000035   FE           MOV     R6,A
   \   000036   5001         JNC     ??ZDO_CopyMatchInfo_0
   \   000038   0F           INC     R7
   \                     ??ZDO_CopyMatchInfo_0:
   \   000039   8E82         MOV     DPL,R6
   \   00003B   8F83         MOV     DPH,R7
   \   00003D   E4           CLR     A
   \   00003E   F0           MOVX    @DPTR,A
   \   00003F   A3           INC     DPTR
   \   000040   F0           MOVX    @DPTR,A
   2666          
   2667            // Copy input cluster IDs
   2668            if ( srcReq->numInClusters )
   \   000041   E5..         MOV     A,?V0
   \   000043   2411         ADD     A,#0x11
   \   000045   12....       LCALL   ?Subroutine134 & 0xFFFF
   \                     ??CrossCallReturnLabel_231:
   \   000048   602B         JZ      ??ZDO_CopyMatchInfo_1
   2669            {
   2670              destReq->inClusters = osal_mem_alloc( (short)(srcReq->numInClusters * sizeof ( uint16 )) );
   \   00004A                ; Setup parameters for call to function osal_mem_alloc
   \   00004A   12....       LCALL   ?Subroutine126 & 0xFFFF
   \                     ??CrossCallReturnLabel_221:
   \   00004D   12....       LCALL   `??osal_mem_alloc::?relay`; Banked call to: osal_mem_alloc
   \   000050   85..82       MOV     DPL,?V8
   \   000053   85..83       MOV     DPH,?V9
   \   000056   12....       LCALL   ??Subroutine205_0 & 0xFFFF
   2671              if ( destReq->inClusters )
   \                     ??CrossCallReturnLabel_454:
   \   000059   6017         JZ      ??ZDO_CopyMatchInfo_2
   2672              {
   2673                // Copy the clusters
   2674                osal_memcpy( (uint8*)(destReq->inClusters), (uint8 *)(srcReq->inClusters),
   2675                                (srcReq->numInClusters * sizeof ( uint16 )) );
   \   00005B                ; Setup parameters for call to function osal_memcpy
   \   00005B   E5..         MOV     A,?V0
   \   00005D   2412         ADD     A,#0x12
   \   00005F   12....       LCALL   ?Subroutine94 & 0xFFFF
   2676              }
   \                     ??CrossCallReturnLabel_137:
   \   000062   12....       LCALL   ?PUSH_XSTACK_I_THREE
   \   000065   12....       LCALL   ?Subroutine127 & 0xFFFF
   \                     ??CrossCallReturnLabel_464:
   \   000068   12....       LCALL   `??osal_memcpy::?relay`; Banked call to: osal_memcpy
   \   00006B   7403         MOV     A,#0x3
   \   00006D   12....       LCALL   ?DEALLOC_XSTACK8
   \   000070   8003         SJMP    ??ZDO_CopyMatchInfo_1
   2677              else
   2678              {
   2679                allOK = FALSE;
   \                     ??ZDO_CopyMatchInfo_2:
   \   000072   75..00       MOV     ?V7,#0x0
   2680              }
   2681            }
   2682          
   2683            // Copy output cluster IDs
   2684            if ( srcReq->numOutClusters )
   \                     ??ZDO_CopyMatchInfo_1:
   \   000075   E5..         MOV     A,?V0
   \   000077   2414         ADD     A,#0x14
   \   000079   12....       LCALL   ?Subroutine134 & 0xFFFF
   \                     ??CrossCallReturnLabel_232:
   \   00007C   6024         JZ      ??ZDO_CopyMatchInfo_3
   2685            {
   2686              destReq->outClusters = osal_mem_alloc( (short)(srcReq->numOutClusters * sizeof ( uint16 )) );
   \   00007E                ; Setup parameters for call to function osal_mem_alloc
   \   00007E   12....       LCALL   ?Subroutine126 & 0xFFFF
   \                     ??CrossCallReturnLabel_222:
   \   000081   12....       LCALL   `??osal_mem_alloc::?relay`; Banked call to: osal_mem_alloc
   \   000084   8E82         MOV     DPL,R6
   \   000086   8F83         MOV     DPH,R7
   \   000088   12....       LCALL   ??Subroutine205_0 & 0xFFFF
   2687              if ( destReq->outClusters )
   \                     ??CrossCallReturnLabel_455:
   \   00008B   603A         JZ      ??ZDO_CopyMatchInfo_4
   2688              {
   2689                // Copy the clusters
   2690                osal_memcpy( (uint8 *)(destReq->outClusters), (uint8 *)(srcReq->outClusters),
   2691                                (srcReq->numOutClusters * sizeof ( uint16 )) );
   \   00008D                ; Setup parameters for call to function osal_memcpy
   \   00008D   E5..         MOV     A,?V0
   \   00008F   2415         ADD     A,#0x15
   \   000091   12....       LCALL   ?Subroutine94 & 0xFFFF
   2692              }
   \                     ??CrossCallReturnLabel_138:
   \   000094   12....       LCALL   ?PUSH_XSTACK_I_THREE
   \   000097   12....       LCALL   ?Subroutine127 & 0xFFFF
   \                     ??CrossCallReturnLabel_465:
   \   00009A   12....       LCALL   `??osal_memcpy::?relay`; Banked call to: osal_memcpy
   \   00009D   7403         MOV     A,#0x3
   \   00009F   12....       LCALL   ?DEALLOC_XSTACK8
   2693              else
   2694              {
   2695                allOK = FALSE;
   2696              }
   2697            }
   2698          
   2699            if ( allOK == FALSE )
   \                     ??ZDO_CopyMatchInfo_3:
   \   0000A2   E5..         MOV     A,?V7
   \   0000A4   A2E0         MOV     C,0xE0 /* A   */.0
   \   0000A6   401A         JC      ??ZDO_CopyMatchInfo_5
   2700            {
   2701              if ( destReq->inClusters != NULL )
   \                     ??ZDO_CopyMatchInfo_6:
   \   0000A8   85..82       MOV     DPL,?V8
   \   0000AB   85..83       MOV     DPH,?V9
   \   0000AE   12....       LCALL   ??Subroutine183_0 & 0xFFFF
   \                     ??CrossCallReturnLabel_314:
   \   0000B1   6003         JZ      ??ZDO_CopyMatchInfo_7
   2702              {
   2703                osal_mem_free( destReq->inClusters );
   \   0000B3                ; Setup parameters for call to function osal_mem_free
   \   0000B3   12....       LCALL   `??osal_mem_free::?relay`; Banked call to: osal_mem_free
   2704              }
   2705              if ( destReq->outClusters != NULL )
   \                     ??ZDO_CopyMatchInfo_7:
   \   0000B6   8E82         MOV     DPL,R6
   \   0000B8   8F83         MOV     DPH,R7
   \   0000BA   12....       LCALL   ??Subroutine183_0 & 0xFFFF
   \                     ??CrossCallReturnLabel_315:
   \   0000BD   6003         JZ      ??ZDO_CopyMatchInfo_5
   2706              {
   2707                osal_mem_free( destReq->outClusters );
   \   0000BF                ; Setup parameters for call to function osal_mem_free
   \   0000BF   12....       LCALL   `??osal_mem_free::?relay`; Banked call to: osal_mem_free
   2708              }
   2709            }
   2710          
   2711            return ( allOK );
   \                     ??ZDO_CopyMatchInfo_5:
   \   0000C2   A9..         MOV     R1,?V7
   \   0000C4   02....       LJMP    ??Subroutine213_0 & 0xFFFF
   \                     ??ZDO_CopyMatchInfo_4:
   \   0000C7   75..00       MOV     ?V7,#0x0
   \   0000CA   80DC         SJMP    ??ZDO_CopyMatchInfo_6
   2712          }

   \                                 In  segment BANKED_CODE, align 1, keep-with-next
   \                     ?Subroutine134:
   \   000000   F5..         MOV     ?V2,A
   \   000002   E4           CLR     A
   \   000003   35..         ADDC    A,?V1
   \   000005   F5..         MOV     ?V3,A
   \   000007   85..82       MOV     DPL,?V2
   \   00000A   F583         MOV     DPH,A
   \   00000C   E0           MOVX    A,@DPTR
   \   00000D   FA           MOV     R2,A
   \   00000E   22           RET

   \                                 In  segment BANKED_CODE, align 1, keep-with-next
   \                     ?Subroutine127:
   \   000000   85..82       MOV     DPL,?V2
   \   000003   85..83       MOV     DPH,?V3
   \   000006   E0           MOVX    A,@DPTR
   \   000007                REQUIRE ??Subroutine208_0
   \   000007                ; // Fall through to label ??Subroutine208_0

   \                                 In  segment BANKED_CODE, align 1, keep-with-next
   \                     ?Subroutine94:
   \   000000   F582         MOV     DPL,A
   \   000002   E4           CLR     A
   \   000003   35..         ADDC    A,?V1
   \   000005   F583         MOV     DPH,A
   \   000007   E0           MOVX    A,@DPTR
   \   000008   F5..         MOV     ?V4,A
   \   00000A   A3           INC     DPTR
   \   00000B   E0           MOVX    A,@DPTR
   \   00000C   F5..         MOV     ?V5,A
   \   00000E   78..         MOV     R0,#?V4
   \   000010   22           RET
   2713          
   2714          /*********************************************************************
   2715           * @fn      ZDMatchSendState()
   2716           *
   2717           * @brief   State machine for the End device match message algorithm.
   2718           *
   2719           * @param  reason - state of algoritm
   2720           * @param  status - initial message status
   2721           * @param  TransSeq - next transaction sequence number
   2722           *
   2723           * @return  FALSE if error and we are not currently matching, TRUE
   2724           *          if success.
   2725           */

   \                                 In  segment BANKED_CODE, align 1, keep-with-next
   2726          uint8 ZDMatchSendState( uint8 reason, uint8 status, uint8 TransSeq )
   \                     ZDMatchSendState:
   2727          {
   \   000000                REQUIRE ?V0
   \   000000                REQUIRE ?V1
   \   000000                REQUIRE ?V2
   \   000000                REQUIRE ?V3
   \   000000                REQUIRE ?V4
   \   000000                REQUIRE ?V5
   \   000000                REQUIRE ?V6
   \   000000                REQUIRE ?V7
   \   000000                REQUIRE ?V8
   \   000000                REQUIRE ?V9
   \   000000   74EE         MOV     A,#-0x12
   \   000002   12....       LCALL   ?BANKED_ENTER_XDATA
   \   000005                ; Saved register size: 18
   \   000005                ; Auto size: 19
   \   000005   74ED         MOV     A,#-0x13
   \   000007   12....       LCALL   ?ALLOC_XSTACK8
   \   00000A   89..         MOV     ?V3,R1
   \   00000C   8A..         MOV     ?V6,R2
   \   00000E   8B..         MOV     ?V7,R3
   2728            uint8 *dstIEEEAddr = NULL;
   \   000010   75..00       MOV     ?V4,#0x0
   \   000013   75..00       MOV     ?V5,#0x0
   2729            uint8 dstEP = 0xFF;
   \   000016   75..FF       MOV     ?V2,#-0x1
   2730            zAddrType_t dstAddr;
   2731            zAddrType_t destinationAddr;
   2732            uint16 msgType;
   2733            uint16 clusterID = 0xFFFF;
   \   000019   75..FF       MOV     ?V8,#-0x1
   \   00001C   75..FF       MOV     ?V9,#-0x1
   2734            ZDEndDeviceBind_t *ed = NULL;
   \   00001F   75..00       MOV     ?V0,#0x0
   \   000022   75..00       MOV     ?V1,#0x0
   2735            uint8 rspStatus = ZDP_SUCCESS;
   \   000025   85..82       MOV     DPL,?XSP + 0
   \   000028   85..83       MOV     DPH,?XSP + 1
   \   00002B   E4           CLR     A
   \   00002C   12....       LCALL   ?Subroutine50 & 0xFFFF
   2736          
   2737            if ( matchED == NULL )
   \                     ??CrossCallReturnLabel_76:
   \   00002F   F9           MOV     R1,A
   \   000030   E8           MOV     A,R0
   \   000031   49           ORL     A,R1
   \   000032   6017         JZ      ??ZDMatchSendState_0
   2738            {
   2739              return ( FALSE );
   2740            }
   2741          
   2742            // Check sequence number
   2743            if ( reason == ZDMATCH_REASON_BIND_RSP || reason == ZDMATCH_REASON_UNBIND_RSP )
   \   000034   7403         MOV     A,#0x3
   \   000036   65..         XRL     A,?V3
   \   000038   6006         JZ      ??ZDMatchSendState_1
   \   00003A   7402         MOV     A,#0x2
   \   00003C   65..         XRL     A,?V3
   \   00003E   7010         JNZ     ??ZDMatchSendState_2
   2744            {
   2745              if ( TransSeq != matchED->transSeq )
   \                     ??ZDMatchSendState_1:
   \   000040   E0           MOVX    A,@DPTR
   \   000041   C8           XCH     A,R0
   \   000042   2430         ADD     A,#0x30
   \   000044   12....       LCALL   ?Subroutine125 & 0xFFFF
   \                     ??CrossCallReturnLabel_215:
   \   000047   65..         XRL     A,?V7
   \   000049   6005         JZ      ??ZDMatchSendState_2
   2746              {
   2747                return( FALSE ); // ignore the message
   \                     ??ZDMatchSendState_0:
   \   00004B   7900         MOV     R1,#0x0
   \   00004D   02....       LJMP    ??ZDMatchSendState_3 & 0xFFFF
   2748              }
   2749            }
   2750          
   2751            // turn off timer
   2752            APS_SetEndDeviceBindTimeout( 0, ZDO_EndDeviceBindMatchTimeoutCB );
   \                     ??ZDMatchSendState_2:
   \   000050                ; Setup parameters for call to function APS_SetEndDeviceBindTimeout
   \   000050   7C..         MOV     R4,#`??ZDO_EndDeviceBindMatchTimeoutCB::?relay` & 0xff
   \   000052   7D..         MOV     R5,#(`??ZDO_EndDeviceBindMatchTimeoutCB::?relay` >> 8) & 0xff
   \   000054   7A00         MOV     R2,#0x0
   \   000056   7B00         MOV     R3,#0x0
   \   000058   12....       LCALL   `??APS_SetEndDeviceBindTimeout::?relay`; Banked call to: APS_SetEndDeviceBindTimeout
   2753          
   2754            if ( reason == ZDMATCH_REASON_TIMEOUT )
   \   00005B   7401         MOV     A,#0x1
   \   00005D   65..         XRL     A,?V3
   \   00005F   700A         JNZ     ??ZDMatchSendState_4
   2755            {
   2756              rspStatus = ZDP_TIMEOUT;    // The process will stop
   \   000061   85..82       MOV     DPL,?XSP + 0
   \   000064   85..83       MOV     DPH,?XSP + 1
   \   000067   7485         MOV     A,#-0x7b
   \   000069   803D         SJMP    ??ZDMatchSendState_5
   2757            }
   2758          
   2759            if ( reason == ZDMATCH_REASON_START || reason == ZDMATCH_REASON_BIND_RSP )
   \                     ??ZDMatchSendState_4:
   \   00006B   E5..         MOV     A,?V3
   \   00006D   6006         JZ      ??ZDMatchSendState_6
   \   00006F   7403         MOV     A,#0x3
   \   000071   65..         XRL     A,?V3
   \   000073   7019         JNZ     ??ZDMatchSendState_7
   2760            {
   2761              matchED->sending = ZDMATCH_SENDING_UNBIND;
   \                     ??ZDMatchSendState_6:
   \   000075   90....       MOV     DPTR,#matchED
   \   000078   12....       LCALL   ?Subroutine68 & 0xFFFF
   \                     ??CrossCallReturnLabel_100:
   \   00007B   F0           MOVX    @DPTR,A
   2762          
   2763              if ( reason == ZDMATCH_REASON_BIND_RSP && status != ZDP_SUCCESS )
   \   00007C   7403         MOV     A,#0x3
   \   00007E   65..         XRL     A,?V3
   \   000080   7029         JNZ     ??ZDMatchSendState_8
   \   000082   E5..         MOV     A,?V6
   \   000084   6029         JZ      ??ZDMatchSendState_9
   2764              {
   2765                rspStatus = status;
   \   000086   85..82       MOV     DPL,?XSP + 0
   \   000089   85..83       MOV     DPH,?XSP + 1
   \   00008C   801A         SJMP    ??ZDMatchSendState_5
   2766              }
   2767            }
   2768            else if ( reason == ZDMATCH_REASON_UNBIND_RSP )
   \                     ??ZDMatchSendState_7:
   \   00008E   7402         MOV     A,#0x2
   \   000090   65..         XRL     A,?V3
   \   000092   701B         JNZ     ??ZDMatchSendState_9
   2769            {
   2770              if ( status == ZDP_SUCCESS )
   \   000094   E5..         MOV     A,?V6
   \   000096   90....       MOV     DPTR,#matchED
   \   000099   7005         JNZ     ??ZDMatchSendState_10
   2771              {
   2772                matchED->sending = ZDMATCH_SENDING_UNBIND;
   \   00009B   12....       LCALL   ?Subroutine68 & 0xFFFF
   2773              }
   \                     ??CrossCallReturnLabel_101:
   \   00009E   8008         SJMP    ??ZDMatchSendState_5
   2774              else
   2775              {
   2776                matchED->sending = ZDMATCH_SENDING_BIND;
   \                     ??ZDMatchSendState_10:
   \   0000A0   12....       LCALL   ??Subroutine210_0 & 0xFFFF
   2777              }
   2778            }
   \                     ??CrossCallReturnLabel_468:
   \   0000A3   12....       LCALL   ?Subroutine177 & 0xFFFF
   \                     ??CrossCallReturnLabel_302:
   \   0000A6   7402         MOV     A,#0x2
   \                     ??ZDMatchSendState_5:
   \   0000A8   F0           MOVX    @DPTR,A
   \   0000A9   8004         SJMP    ??ZDMatchSendState_9
   2779          
   2780            if ( reason != ZDMATCH_REASON_START && matchED->sending == ZDMATCH_SENDING_UNBIND )
   \                     ??ZDMatchSendState_8:
   \   0000AB   E5..         MOV     A,?V3
   \   0000AD   601D         JZ      ??ZDMatchSendState_11
   \                     ??ZDMatchSendState_9:
   \   0000AF   12....       LCALL   ?Subroutine67 & 0xFFFF
   \                     ??CrossCallReturnLabel_98:
   \   0000B2   7018         JNZ     ??ZDMatchSendState_11
   2781            {
   2782              // Move to the next cluster ID
   2783              if ( matchED->ed1numMatched )
   \   0000B4   90....       MOV     DPTR,#matchED
   \   0000B7   E0           MOVX    A,@DPTR
   \   0000B8   2431         ADD     A,#0x31
   \   0000BA   12....       LCALL   ?Subroutine95 & 0xFFFF
   \                     ??CrossCallReturnLabel_139:
   \   0000BD   700B         JNZ     ??ZDMatchSendState_12
   2784              {
   2785                matchED->ed1numMatched--;
   2786              }
   2787              else if ( matchED->ed2numMatched )
   \   0000BF   90....       MOV     DPTR,#matchED
   \   0000C2   E0           MOVX    A,@DPTR
   \   0000C3   2434         ADD     A,#0x34
   \   0000C5   12....       LCALL   ?Subroutine95 & 0xFFFF
   \                     ??CrossCallReturnLabel_140:
   \   0000C8   6002         JZ      ??ZDMatchSendState_11
   2788              {
   2789                matchED->ed2numMatched--;
   \                     ??ZDMatchSendState_12:
   \   0000CA   14           DEC     A
   \   0000CB   F0           MOVX    @DPTR,A
   2790              }
   2791            }
   2792          
   2793            // What message do we send now
   2794            if ( matchED->ed1numMatched )
   \                     ??ZDMatchSendState_11:
   \   0000CC   12....       LCALL   ?Subroutine57 & 0xFFFF
   \                     ??CrossCallReturnLabel_86:
   \   0000CF   F8           MOV     R0,A
   \   0000D0   90....       MOV     DPTR,#matchED
   \   0000D3   601C         JZ      ??ZDMatchSendState_13
   2795            {
   2796              ed = &(matchED->ed1);
   \   0000D5   12....       LCALL   ??Subroutine197_0 & 0xFFFF
   2797              clusterID = matchED->ed1Matched[matchED->ed1numMatched-1];
   \                     ??CrossCallReturnLabel_397:
   \   0000D8   12....       LCALL   ?Subroutine103 & 0xFFFF
   \                     ??CrossCallReturnLabel_155:
   \   0000DB   2432         ADD     A,#0x32
   \   0000DD   12....       LCALL   ?Subroutine55 & 0xFFFF
   2798              dstIEEEAddr = matchED->ed2.ieeeAddr;
   \                     ??CrossCallReturnLabel_79:
   \   0000E0   241D         ADD     A,#0x1d
   \   0000E2   F5..         MOV     ?V4,A
   \   0000E4   A3           INC     DPTR
   \   0000E5   E0           MOVX    A,@DPTR
   \   0000E6   3400         ADDC    A,#0x0
   \   0000E8   F5..         MOV     ?V5,A
   2799              dstEP = matchED->ed2.endpoint;
   \   0000EA   12....       LCALL   ??Subroutine209_0 & 0xFFFF
   2800            }
   \                     ??CrossCallReturnLabel_485:
   \   0000ED   2425         ADD     A,#0x25
   \   0000EF   802B         SJMP    ??ZDMatchSendState_14
   2801            else if ( matchED->ed2numMatched )
   \                     ??ZDMatchSendState_13:
   \   0000F1   12....       LCALL   ??Subroutine203_0 & 0xFFFF
   \                     ??CrossCallReturnLabel_427:
   \   0000F4   F8           MOV     R0,A
   \   0000F5   602A         JZ      ??ZDMatchSendState_15
   2802            {
   2803              ed = &(matchED->ed2);
   \   0000F7   90....       MOV     DPTR,#matchED
   \   0000FA   E0           MOVX    A,@DPTR
   \   0000FB   2417         ADD     A,#0x17
   \   0000FD   F5..         MOV     ?V0,A
   \   0000FF   A3           INC     DPTR
   \   000100   E0           MOVX    A,@DPTR
   \   000101   3400         ADDC    A,#0x0
   \   000103   F5..         MOV     ?V1,A
   2804              clusterID = matchED->ed2Matched[matchED->ed2numMatched-1];
   \   000105   12....       LCALL   ?Subroutine103 & 0xFFFF
   \                     ??CrossCallReturnLabel_156:
   \   000108   2435         ADD     A,#0x35
   \   00010A   12....       LCALL   ?Subroutine55 & 0xFFFF
   2805              dstIEEEAddr = matchED->ed1.ieeeAddr;
   \                     ??CrossCallReturnLabel_80:
   \   00010D   2406         ADD     A,#0x6
   \   00010F   F5..         MOV     ?V4,A
   \   000111   A3           INC     DPTR
   \   000112   E0           MOVX    A,@DPTR
   \   000113   3400         ADDC    A,#0x0
   \   000115   F5..         MOV     ?V5,A
   2806              dstEP = matchED->ed1.endpoint;
   \   000117   12....       LCALL   ??Subroutine209_0 & 0xFFFF
   2807            }
   \                     ??CrossCallReturnLabel_486:
   \   00011A   240E         ADD     A,#0xe
   \                     ??ZDMatchSendState_14:
   \   00011C   12....       LCALL   ?Subroutine125 & 0xFFFF
   \                     ??CrossCallReturnLabel_216:
   \   00011F   F5..         MOV     ?V2,A
   2808          
   2809            dstAddr.addrMode = Addr16Bit;
   \                     ??ZDMatchSendState_15:
   \   000121   7409         MOV     A,#0x9
   \   000123   12....       LCALL   ?XSTACK_DISP0_8
   \   000126   12....       LCALL   ?Subroutine49 & 0xFFFF
   2810          
   2811            // Send the next message
   2812            if ( (rspStatus == ZDP_SUCCESS) && ed )
   \                     ??CrossCallReturnLabel_74:
   \   000129   6003         JZ      $+5
   \   00012B   02....       LJMP    ??ZDMatchSendState_16 & 0xFFFF
   \   00012E   E5..         MOV     A,?V0
   \   000130   45..         ORL     A,?V1
   \   000132   7003         JNZ     $+5
   \   000134   02....       LJMP    ??ZDMatchSendState_16 & 0xFFFF
   2813            {
   2814              // Send unbind/bind message to source
   2815              if ( matchED->sending == ZDMATCH_SENDING_UNBIND )
   \   000137   12....       LCALL   ?Subroutine67 & 0xFFFF
   \                     ??CrossCallReturnLabel_99:
   \   00013A   7004         JNZ     ??ZDMatchSendState_17
   2816              {
   2817                msgType = Unbind_req;
   \   00013C   7E22         MOV     R6,#0x22
   \   00013E   8002         SJMP    ??ZDMatchSendState_18
   2818              }
   2819              else
   2820              {
   2821                msgType = Bind_req;
   \                     ??ZDMatchSendState_17:
   \   000140   7E21         MOV     R6,#0x21
   2822              }
   2823          
   2824              dstAddr.addr.shortAddr = ed->srcAddr;
   \                     ??ZDMatchSendState_18:
   \   000142   85..82       MOV     DPL,?V0
   \   000145   85..83       MOV     DPH,?V1
   \   000148   12....       LCALL   ??Subroutine201_0 & 0xFFFF
   \                     ??CrossCallReturnLabel_424:
   \   00014B   12....       LCALL   ?XSTACK_DISP0_8
   \   00014E   12....       LCALL   ?Subroutine40 & 0xFFFF
   2825          
   2826              // Save off the transaction sequence number
   2827              matchED->transSeq = ZDP_TransID;
   \                     ??CrossCallReturnLabel_395:
   \   000151   90....       MOV     DPTR,#ZDP_TransID
   \   000154   E0           MOVX    A,@DPTR
   \   000155   C0E0         PUSH    A
   \   000157   12....       LCALL   ??Subroutine209_0 & 0xFFFF
   \                     ??CrossCallReturnLabel_487:
   \   00015A   2430         ADD     A,#0x30
   \   00015C   F582         MOV     DPL,A
   \   00015E   E4           CLR     A
   \   00015F   38           ADDC    A,R0
   \   000160   F583         MOV     DPH,A
   \   000162   D0E0         POP     A
   \   000164   F0           MOVX    @DPTR,A
   2828          
   2829              destinationAddr.addrMode = Addr64Bit;
   \   000165   7412         MOV     A,#0x12
   \   000167   12....       LCALL   ?XSTACK_DISP0_8
   \   00016A   7403         MOV     A,#0x3
   \   00016C   F0           MOVX    @DPTR,A
   2830              osal_cpyExtAddr( destinationAddr.addr.extAddr, dstIEEEAddr );
   \   00016D                ; Setup parameters for call to function sAddrExtCpy
   \   00016D   AC..         MOV     R4,?V4
   \   00016F   AD..         MOV     R5,?V5
   \   000171   740A         MOV     A,#0xa
   \   000173   12....       LCALL   ?XSTACK_DISP101_8
   \   000176   12....       LCALL   `??sAddrExtCpy::?relay`; Banked call to: sAddrExtCpy
   2831          
   2832              ZDP_BindUnbindReq( msgType, &dstAddr, ed->ieeeAddr, ed->endpoint, clusterID,
   2833                  &destinationAddr, dstEP, ed->SecurityUse );
   \   000179                ; Setup parameters for call to function ZDP_BindUnbindReq
   \   000179   85..82       MOV     DPL,?V0
   \   00017C   85..83       MOV     DPH,?V1
   \   00017F   A3           INC     DPTR
   \   000180   E0           MOVX    A,@DPTR
   \   000181   F5..         MOV     ?V4,A
   \   000183   78..         MOV     R0,#?V4
   \   000185   12....       LCALL   ?PUSH_XSTACK_I_ONE
   \   000188   78..         MOV     R0,#?V2
   \   00018A   12....       LCALL   ?PUSH_XSTACK_I_ONE
   \   00018D   740C         MOV     A,#0xc
   \   00018F   12....       LCALL   ?XSTACK_DISP100_8
   \   000192   88..         MOV     ?V4,R0
   \   000194   89..         MOV     ?V5,R1
   \   000196   78..         MOV     R0,#?V4
   \   000198   12....       LCALL   ?PUSH_XSTACK_I_TWO
   \   00019B   78..         MOV     R0,#?V8
   \   00019D   12....       LCALL   ?PUSH_XSTACK_I_TWO
   \   0001A0   E5..         MOV     A,?V0
   \   0001A2   2406         ADD     A,#0x6
   \   0001A4   F5..         MOV     ?V4,A
   \   0001A6   E4           CLR     A
   \   0001A7   35..         ADDC    A,?V1
   \   0001A9   F5..         MOV     ?V5,A
   \   0001AB   78..         MOV     R0,#?V4
   \   0001AD   12....       LCALL   ?PUSH_XSTACK_I_TWO
   \   0001B0   12....       LCALL   ?Subroutine113 & 0xFFFF
   \                     ??CrossCallReturnLabel_179:
   \   0001B3   F9           MOV     R1,A
   \   0001B4   7409         MOV     A,#0x9
   \   0001B6   12....       LCALL   ?XSTACK_DISP102_8
   \   0001B9   EE           MOV     A,R6
   \   0001BA   FA           MOV     R2,A
   \   0001BB   7B00         MOV     R3,#0x0
   \   0001BD   12....       LCALL   `??ZDP_BindUnbindReq::?relay`; Banked call to: ZDP_BindUnbindReq
   \   0001C0   7408         MOV     A,#0x8
   \   0001C2   12....       LCALL   ?DEALLOC_XSTACK8
   2834          
   2835              // Set timeout for response
   2836              APS_SetEndDeviceBindTimeout( AIB_MaxBindingTime, ZDO_EndDeviceBindMatchTimeoutCB );
   \   0001C5                ; Setup parameters for call to function APS_SetEndDeviceBindTimeout
   \   0001C5   7C..         MOV     R4,#`??ZDO_EndDeviceBindMatchTimeoutCB::?relay` & 0xff
   \   0001C7   7D..         MOV     R5,#(`??ZDO_EndDeviceBindMatchTimeoutCB::?relay` >> 8) & 0xff
   \   0001C9   90....       MOV     DPTR,#AIB_MaxBindingTime
   \   0001CC   12....       LCALL   ??Subroutine200_0 & 0xFFFF
   2837            }
   \                     ??CrossCallReturnLabel_413:
   \   0001CF   12....       LCALL   `??APS_SetEndDeviceBindTimeout::?relay`; Banked call to: APS_SetEndDeviceBindTimeout
   \   0001D2   02....       LJMP    ??ZDMatchSendState_19 & 0xFFFF
   2838            else
   2839            {
   2840              // Send the response messages to requesting devices
   2841              // send response to first requester
   2842              dstAddr.addr.shortAddr = matchED->ed1.srcAddr;
   \                     ??ZDMatchSendState_16:
   \   0001D5   90....       MOV     DPTR,#matchED
   \   0001D8   12....       LCALL   ??Subroutine198_0 & 0xFFFF
   \                     ??CrossCallReturnLabel_504:
   \   0001DB   12....       LCALL   ?Subroutine65 & 0xFFFF
   \                     ??CrossCallReturnLabel_426:
   \   0001DE   12....       LCALL   ?XSTACK_DISP0_8
   \   0001E1   12....       LCALL   ?Subroutine12 & 0xFFFF
   2843              ZDP_EndDeviceBindRsp( matchED->ed1.TransSeq, &dstAddr, rspStatus, matchED->ed1.SecurityUse );
   \                     ??CrossCallReturnLabel_5:
   \   0001E4   12....       LCALL   ?PUSH_XSTACK_I_ONE
   \   0001E7   7401         MOV     A,#0x1
   \   0001E9   12....       LCALL   ?XSTACK_DISP100_8
   \   0001EC   88..         MOV     ?V0,R0
   \   0001EE   89..         MOV     ?V1,R1
   \   0001F0   78..         MOV     R0,#?V0
   \   0001F2   12....       LCALL   ?PUSH_XSTACK_I_TWO
   \   0001F5   75..20       MOV     ?V0,#0x20
   \   0001F8   75..80       MOV     ?V1,#-0x80
   \   0001FB   78..         MOV     R0,#?V0
   \   0001FD   12....       LCALL   ?PUSH_XSTACK_I_TWO
   \   000200   7901         MOV     R1,#0x1
   \   000202   7406         MOV     A,#0x6
   \   000204   12....       LCALL   ?XSTACK_DISP102_8
   \   000207   90....       MOV     DPTR,#matchED
   \   00020A   12....       LCALL   ??Subroutine200_0 & 0xFFFF
   \                     ??CrossCallReturnLabel_414:
   \   00020D   12....       LCALL   `??ZDP_SendData::?relay`; Banked call to: ZDP_SendData
   \   000210   7405         MOV     A,#0x5
   \   000212   12....       LCALL   ?DEALLOC_XSTACK8
   2844          
   2845              // send response to second requester
   2846              if ( matchED->state == ZDMATCH_SENDING_BINDS )
   \   000215   12....       LCALL   ?Subroutine66 & 0xFFFF
   \                     ??CrossCallReturnLabel_97:
   \   000218   704A         JNZ     ??ZDMatchSendState_20
   2847              {
   2848                dstAddr.addr.shortAddr = matchED->ed2.srcAddr;
   \   00021A   12....       LCALL   ??Subroutine209_0 & 0xFFFF
   2849                ZDP_EndDeviceBindRsp( matchED->ed2.TransSeq, &dstAddr, rspStatus, matchED->ed2.SecurityUse );
   2850              }
   \                     ??CrossCallReturnLabel_488:
   \   00021D   2419         ADD     A,#0x19
   \   00021F   F582         MOV     DPL,A
   \   000221   E4           CLR     A
   \   000222   38           ADDC    A,R0
   \   000223   F583         MOV     DPH,A
   \   000225   12....       LCALL   ??Subroutine202_0 & 0xFFFF
   \                     ??CrossCallReturnLabel_422:
   \   000228   12....       LCALL   ?XSTACK_DISP0_8
   \   00022B   E8           MOV     A,R0
   \   00022C   F0           MOVX    @DPTR,A
   \   00022D   A3           INC     DPTR
   \   00022E   12....       LCALL   ??Subroutine206_0 & 0xFFFF
   \                     ??CrossCallReturnLabel_458:
   \   000231   2418         ADD     A,#0x18
   \   000233   12....       LCALL   ?Subroutine124 & 0xFFFF
   \                     ??CrossCallReturnLabel_207:
   \   000236   12....       LCALL   ?PUSH_XSTACK_I_ONE
   \   000239   7401         MOV     A,#0x1
   \   00023B   12....       LCALL   ?XSTACK_DISP100_8
   \   00023E   88..         MOV     ?V0,R0
   \   000240   89..         MOV     ?V1,R1
   \   000242   78..         MOV     R0,#?V0
   \   000244   12....       LCALL   ?PUSH_XSTACK_I_TWO
   \   000247   75..20       MOV     ?V0,#0x20
   \   00024A   75..80       MOV     ?V1,#-0x80
   \   00024D   78..         MOV     R0,#?V0
   \   00024F   12....       LCALL   ?PUSH_XSTACK_I_TWO
   \   000252   7901         MOV     R1,#0x1
   \   000254   7406         MOV     A,#0x6
   \   000256   12....       LCALL   ?XSTACK_DISP102_8
   \   000259   12....       LCALL   ?Subroutine97 & 0xFFFF
   \                     ??CrossCallReturnLabel_146:
   \   00025C   12....       LCALL   `??ZDP_SendData::?relay`; Banked call to: ZDP_SendData
   \   00025F   7405         MOV     A,#0x5
   \   000261   12....       LCALL   ?DEALLOC_XSTACK8
   2851          
   2852              // Process ended - release memory used
   2853              ZDO_RemoveMatchMemory();
   \                     ??ZDMatchSendState_20:
   \   000264                ; Setup parameters for call to function ZDO_RemoveMatchMemory
   \   000264   12....       LCALL   `??ZDO_RemoveMatchMemory::?relay`; Banked call to: ZDO_RemoveMatchMemory
   2854            }
   2855          
   2856            return ( TRUE );
   \                     ??ZDMatchSendState_19:
   \   000267   7901         MOV     R1,#0x1
   \                     ??ZDMatchSendState_3:
   \   000269   7413         MOV     A,#0x13
   \   00026B   02....       LJMP    ?Subroutine7 & 0xFFFF
   2857          }

   \                                 In  segment BANKED_CODE, align 1, keep-with-next
   \                     ?Subroutine124:
   \   000000   12....       LCALL   ?Subroutine169 & 0xFFFF
   \                     ??CrossCallReturnLabel_433:
   \   000003   F5..         MOV     ?V0,A
   \   000005   78..         MOV     R0,#?V0
   \   000007   22           RET

   \                                 In  segment BANKED_CODE, align 1, keep-with-next
   \                     ?Subroutine103:
   \   000000   12....       LCALL   ?Subroutine163 & 0xFFFF
   \                     ??CrossCallReturnLabel_277:
   \   000003   90....       MOV     DPTR,#matchED
   \   000006   E0           MOVX    A,@DPTR
   \   000007   FA           MOV     R2,A
   \   000008   A3           INC     DPTR
   \   000009   E0           MOVX    A,@DPTR
   \   00000A   CA           XCH     A,R2
   \   00000B   22           RET

   \                                 In  segment BANKED_CODE, align 1, keep-with-next
   \                     ?Subroutine95:
   \   000000   F8           MOV     R0,A
   \   000001   A3           INC     DPTR
   \   000002   E0           MOVX    A,@DPTR
   \   000003   3400         ADDC    A,#0x0
   \   000005   F9           MOV     R1,A
   \   000006   8882         MOV     DPL,R0
   \   000008   8983         MOV     DPH,R1
   \   00000A   E0           MOVX    A,@DPTR
   \   00000B   22           RET

   \                                 In  segment BANKED_CODE, align 1, keep-with-next
   \                     ?Subroutine68:
   \   000000   12....       LCALL   ?Subroutine154 & 0xFFFF
   \                     ??CrossCallReturnLabel_270:
   \   000003   7401         MOV     A,#0x1
   \   000005   22           RET

   \                                 In  segment BANKED_CODE, align 1, keep-with-next
   \                     ?Subroutine67:
   \   000000   90....       MOV     DPTR,#matchED
   \   000003   12....       LCALL   ?Subroutine154 & 0xFFFF
   \                     ??CrossCallReturnLabel_269:
   \   000006   E0           MOVX    A,@DPTR
   \   000007   6401         XRL     A,#0x1
   \   000009   22           RET

   \                                 In  segment BANKED_CODE, align 1, keep-with-next
   \                     ?Subroutine154:
   \   000000   12....       LCALL   ?Subroutine174 & 0xFFFF
   \                     ??CrossCallReturnLabel_517:
   \   000003   C8           XCH     A,R0
   \   000004   12....       LCALL   ?Subroutine177 & 0xFFFF
   \                     ??CrossCallReturnLabel_303:
   \   000007   22           RET

   \                                 In  segment BANKED_CODE, align 1, keep-with-next
   \                     ?Subroutine177:
   \   000000   242F         ADD     A,#0x2f
   \   000002   F582         MOV     DPL,A
   \   000004   E4           CLR     A
   \   000005   38           ADDC    A,R0
   \   000006   F583         MOV     DPH,A
   \   000008   22           RET

   \                                 In  segment BANKED_CODE, align 1, keep-with-next
   \                     ?Subroutine55:
   \   000000   F582         MOV     DPL,A
   \   000002   E4           CLR     A
   \   000003   3A           ADDC    A,R2
   \   000004   F583         MOV     DPH,A
   \   000006   E0           MOVX    A,@DPTR
   \   000007   28           ADD     A,R0
   \   000008   F8           MOV     R0,A
   \   000009   A3           INC     DPTR
   \   00000A   E0           MOVX    A,@DPTR
   \   00000B   39           ADDC    A,R1
   \   00000C   F9           MOV     R1,A
   \   00000D   E8           MOV     A,R0
   \   00000E   24FE         ADD     A,#-0x2
   \   000010   F582         MOV     DPL,A
   \   000012   E9           MOV     A,R1
   \   000013   34FF         ADDC    A,#-0x1
   \   000015   F583         MOV     DPH,A
   \   000017   E0           MOVX    A,@DPTR
   \   000018   F5..         MOV     ?V8,A
   \   00001A   A3           INC     DPTR
   \   00001B   E0           MOVX    A,@DPTR
   \   00001C   F5..         MOV     ?V9,A
   \   00001E   90....       MOV     DPTR,#matchED
   \   000021   E0           MOVX    A,@DPTR
   \   000022   22           RET
   2858          
   2859          /*********************************************************************
   2860           * @fn      ZDO_EndDeviceBindMatchTimeoutCB()
   2861           *
   2862           * @brief   End device bind timeout.
   2863           *
   2864           * @param  none
   2865           *
   2866           * @return  none
   2867           */

   \                                 In  segment BANKED_CODE, align 1, keep-with-next
   2868          static void ZDO_EndDeviceBindMatchTimeoutCB( void )
   \                     ZDO_EndDeviceBindMatchTimeoutCB:
   2869          {
   \   000000   C082         PUSH    DPL
   \   000002   C083         PUSH    DPH
   \   000004                ; Saved register size: 2
   \   000004                ; Auto size: 0
   2870            ZDMatchSendState( ZDMATCH_REASON_TIMEOUT, ZDP_TIMEOUT, 0 );
   \   000004                ; Setup parameters for call to function ZDMatchSendState
   \   000004   7B00         MOV     R3,#0x0
   \   000006   7A85         MOV     R2,#-0x7b
   \   000008   7901         MOV     R1,#0x1
   \   00000A   12....       LCALL   `??ZDMatchSendState::?relay`; Banked call to: ZDMatchSendState
   2871          }
   \   00000D   02....       LJMP    ?Subroutine0 & 0xFFFF
   2872          #endif // ZG_BUILD_COORDINATOR_TYPE
   2873          
   2874          /*********************************************************************
   2875           * ZDO MESSAGE PARSING API FUNCTIONS
   2876           */
   2877          
   2878          #ifdef ZDO_ENDDEVICEBIND_RESPONSE
   2879          /*********************************************************************
   2880           * @fn          ZDO_ParseEndDeviceBindReq
   2881           *
   2882           * @brief       This function parses the End_Device_Bind_req message.
   2883           *
   2884           *     NOTE:  The clusters lists in bindReq are allocated in this
   2885           *            function and must be freed by that calling function.
   2886           *
   2887           * @param       inMsg  - incoming message (request)
   2888           * @param       bindReq - pointer to place to parse message to
   2889           *
   2890           * @return      none
   2891           */

   \                                 In  segment BANKED_CODE, align 1, keep-with-next
   2892          void ZDO_ParseEndDeviceBindReq( zdoIncomingMsg_t *inMsg, ZDEndDeviceBind_t *bindReq )
   \                     ZDO_ParseEndDeviceBindReq:
   2893          {
   \   000000                REQUIRE ?V0
   \   000000                REQUIRE ?V1
   \   000000                REQUIRE ?V2
   \   000000                REQUIRE ?V3
   \   000000                REQUIRE ?V4
   \   000000                REQUIRE ?V5
   \   000000                REQUIRE ?V6
   \   000000                REQUIRE ?V7
   \   000000                REQUIRE ?V8
   \   000000                REQUIRE ?V9
   \   000000   74EE         MOV     A,#-0x12
   \   000002   12....       LCALL   ?BANKED_ENTER_XDATA
   \   000005                ; Saved register size: 18
   \   000005                ; Auto size: 0
   \   000005   EC           MOV     A,R4
   \   000006   FE           MOV     R6,A
   \   000007   ED           MOV     A,R5
   \   000008   FF           MOV     R7,A
   2894            uint8 *msg;
   2895          
   2896            // Parse the message
   2897            bindReq->TransSeq = inMsg->TransSeq;
   \   000009   EA           MOV     A,R2
   \   00000A   12....       LCALL   ?Subroutine121 & 0xFFFF
   \                     ??CrossCallReturnLabel_198:
   \   00000D   12....       LCALL   ?Subroutine139 & 0xFFFF
   \                     ??CrossCallReturnLabel_241:
   \   000010   12....       LCALL   ?Subroutine48 & 0xFFFF
   2898            bindReq->srcAddr = inMsg->srcAddr.addr.shortAddr;
   \                     ??CrossCallReturnLabel_70:
   \   000013   12....       LCALL   ??Subroutine212_0 & 0xFFFF
   \                     ??CrossCallReturnLabel_500:
   \   000016   8E82         MOV     DPL,R6
   \   000018   8F83         MOV     DPH,R7
   \   00001A   12....       LCALL   ?Subroutine39 & 0xFFFF
   2899            bindReq->SecurityUse = inMsg->SecurityUse;
   \                     ??CrossCallReturnLabel_575:
   \   00001D   12....       LCALL   ?Subroutine114 & 0xFFFF
   \                     ??CrossCallReturnLabel_181:
   \   000020   12....       LCALL   ?Subroutine139 & 0xFFFF
   \                     ??CrossCallReturnLabel_242:
   \   000023   A3           INC     DPTR
   \   000024   F0           MOVX    @DPTR,A
   2900            msg = inMsg->asdu;
   \   000025   12....       LCALL   ?Subroutine105 & 0xFFFF
   \                     ??CrossCallReturnLabel_161:
   \   000028   12....       LCALL   ?Subroutine96 & 0xFFFF
   \                     ??CrossCallReturnLabel_143:
   \   00002B   F5..         MOV     ?V3,A
   2901          
   2902            bindReq->localCoordinator = BUILD_UINT16( msg[0], msg[1] );
   \   00002D   85..82       MOV     DPL,?V2
   \   000030   F583         MOV     DPH,A
   \   000032   12....       LCALL   ??Subroutine216_0 & 0xFFFF
   \                     ??CrossCallReturnLabel_530:
   \   000035   8E82         MOV     DPL,R6
   \   000037   8F83         MOV     DPH,R7
   \   000039   A3           INC     DPTR
   \   00003A   A3           INC     DPTR
   \   00003B   A3           INC     DPTR
   \   00003C   A3           INC     DPTR
   \   00003D   12....       LCALL   ?Subroutine32 & 0xFFFF
   2903            msg += 2;
   \                     ??CrossCallReturnLabel_39:
   \   000040   5002         JNC     ??ZDO_ParseEndDeviceBindReq_0
   \   000042   05..         INC     ?V3
   2904          
   2905            osal_cpyExtAddr( bindReq->ieeeAddr, msg );
   \                     ??ZDO_ParseEndDeviceBindReq_0:
   \   000044                ; Setup parameters for call to function sAddrExtCpy
   \   000044   FC           MOV     R4,A
   \   000045   AD..         MOV     R5,?V3
   \   000047   EE           MOV     A,R6
   \   000048   2406         ADD     A,#0x6
   \   00004A   FA           MOV     R2,A
   \   00004B   E4           CLR     A
   \   00004C   3F           ADDC    A,R7
   \   00004D   FB           MOV     R3,A
   \   00004E   12....       LCALL   `??sAddrExtCpy::?relay`; Banked call to: sAddrExtCpy
   2906            msg += Z_EXTADDR_LEN;
   2907          
   2908            bindReq->endpoint = *msg++;
   \   000051   85..82       MOV     DPL,?V2
   \   000054   85..83       MOV     DPH,?V3
   \   000057   A3           INC     DPTR
   \   000058   A3           INC     DPTR
   \   000059   A3           INC     DPTR
   \   00005A   A3           INC     DPTR
   \   00005B   A3           INC     DPTR
   \   00005C   A3           INC     DPTR
   \   00005D   A3           INC     DPTR
   \   00005E   A3           INC     DPTR
   \   00005F   E0           MOVX    A,@DPTR
   \   000060   C0E0         PUSH    A
   \   000062   EE           MOV     A,R6
   \   000063   12....       LCALL   ?Subroutine114 & 0xFFFF
   \                     ??CrossCallReturnLabel_182:
   \   000066   3F           ADDC    A,R7
   \   000067   F583         MOV     DPH,A
   \   000069   D0E0         POP     A
   \   00006B   12....       LCALL   ?Subroutine31 & 0xFFFF
   \                     ??CrossCallReturnLabel_36:
   \   00006E   5002         JNC     ??ZDO_ParseEndDeviceBindReq_1
   \   000070   05..         INC     ?V3
   2909            bindReq->profileID = BUILD_UINT16( msg[0], msg[1] );
   \                     ??ZDO_ParseEndDeviceBindReq_1:
   \   000072   F582         MOV     DPL,A
   \   000074   85..83       MOV     DPH,?V3
   \   000077   12....       LCALL   ??Subroutine216_0 & 0xFFFF
   \                     ??CrossCallReturnLabel_531:
   \   00007A   F8           MOV     R0,A
   \   00007B   EE           MOV     A,R6
   \   00007C   12....       LCALL   ?Subroutine121 & 0xFFFF
   \                     ??CrossCallReturnLabel_199:
   \   00007F   3F           ADDC    A,R7
   \   000080   F583         MOV     DPH,A
   \   000082   12....       LCALL   ?Subroutine40 & 0xFFFF
   2910            msg += 2;
   2911          
   2912            bindReq->inClusters = NULL;
   \                     ??CrossCallReturnLabel_396:
   \   000085   EE           MOV     A,R6
   \   000086   2412         ADD     A,#0x12
   \   000088   F5..         MOV     ?V4,A
   \   00008A   E4           CLR     A
   \   00008B   3F           ADDC    A,R7
   \   00008C   F5..         MOV     ?V5,A
   \   00008E   85..82       MOV     DPL,?V4
   \   000091   F583         MOV     DPH,A
   \   000093   E4           CLR     A
   \   000094   F0           MOVX    @DPTR,A
   \   000095   A3           INC     DPTR
   \   000096   F0           MOVX    @DPTR,A
   2913            bindReq->outClusters = NULL;
   \   000097   EE           MOV     A,R6
   \   000098   2415         ADD     A,#0x15
   \   00009A   F5..         MOV     ?V6,A
   \   00009C   E4           CLR     A
   \   00009D   3F           ADDC    A,R7
   \   00009E   F5..         MOV     ?V7,A
   \   0000A0   85..82       MOV     DPL,?V6
   \   0000A3   F583         MOV     DPH,A
   \   0000A5   E4           CLR     A
   \   0000A6   F0           MOVX    @DPTR,A
   \   0000A7   A3           INC     DPTR
   \   0000A8   12....       LCALL   ?Subroutine37 & 0xFFFF
   2914          
   2915            if ((bindReq->numInClusters = *msg++) &&
   2916                (bindReq->inClusters = (uint16*)osal_mem_alloc( (bindReq->numInClusters * sizeof( uint16 )))))
   \                     ??CrossCallReturnLabel_50:
   \   0000AB   FA           MOV     R2,A
   \   0000AC   EE           MOV     A,R6
   \   0000AD   2411         ADD     A,#0x11
   \   0000AF   F5..         MOV     ?V0,A
   \   0000B1   E4           CLR     A
   \   0000B2   3F           ADDC    A,R7
   \   0000B3   F5..         MOV     ?V1,A
   \   0000B5   EA           MOV     A,R2
   \   0000B6   85..82       MOV     DPL,?V0
   \   0000B9   85..83       MOV     DPH,?V1
   \   0000BC   F0           MOVX    @DPTR,A
   \   0000BD   E5..         MOV     A,?V2
   \   0000BF   2403         ADD     A,#0x3
   \   0000C1   F5..         MOV     ?V2,A
   \   0000C3   5002         JNC     ??ZDO_ParseEndDeviceBindReq_2
   \   0000C5   05..         INC     ?V3
   \                     ??ZDO_ParseEndDeviceBindReq_2:
   \   0000C7   EA           MOV     A,R2
   \   0000C8   6034         JZ      ??ZDO_ParseEndDeviceBindReq_3
   \   0000CA                ; Setup parameters for call to function osal_mem_alloc
   \   0000CA   2A           ADD     A,R2
   \   0000CB   FA           MOV     R2,A
   \   0000CC   E4           CLR     A
   \   0000CD   33           RLC     A
   \   0000CE   FB           MOV     R3,A
   \   0000CF   12....       LCALL   `??osal_mem_alloc::?relay`; Banked call to: osal_mem_alloc
   \   0000D2   8A..         MOV     ?V8,R2
   \   0000D4   8B..         MOV     ?V9,R3
   \   0000D6   AC..         MOV     R4,?V8
   \   0000D8   AD..         MOV     R5,?V9
   \   0000DA   85..82       MOV     DPL,?V4
   \   0000DD   85..83       MOV     DPH,?V5
   \   0000E0   EC           MOV     A,R4
   \   0000E1   F0           MOVX    @DPTR,A
   \   0000E2   A3           INC     DPTR
   \   0000E3   ED           MOV     A,R5
   \   0000E4   F0           MOVX    @DPTR,A
   \   0000E5   EC           MOV     A,R4
   \   0000E6   4D           ORL     A,R5
   \   0000E7   6015         JZ      ??ZDO_ParseEndDeviceBindReq_3
   2917            {
   2918              msg = ZDO_ConvertOTAClusters( bindReq->numInClusters, msg, bindReq->inClusters );
   \   0000E9                ; Setup parameters for call to function ZDO_ConvertOTAClusters
   \   0000E9   AA..         MOV     R2,?V2
   \   0000EB   AB..         MOV     R3,?V3
   \   0000ED   85..82       MOV     DPL,?V0
   \   0000F0   85..83       MOV     DPH,?V1
   \   0000F3   E0           MOVX    A,@DPTR
   \   0000F4   F9           MOV     R1,A
   \   0000F5   12....       LCALL   `??ZDO_ConvertOTAClusters::?relay`; Banked call to: ZDO_ConvertOTAClusters
   \   0000F8   8A..         MOV     ?V2,R2
   \   0000FA   8B..         MOV     ?V3,R3
   \   0000FC   8008         SJMP    ??ZDO_ParseEndDeviceBindReq_4
   2919            }
   2920            else
   2921            {
   2922              bindReq->numInClusters = 0;
   \                     ??ZDO_ParseEndDeviceBindReq_3:
   \   0000FE   85..82       MOV     DPL,?V0
   \   000101   85..83       MOV     DPH,?V1
   \   000104   E4           CLR     A
   \   000105   F0           MOVX    @DPTR,A
   2923            }
   2924          
   2925            if ((bindReq->numOutClusters = *msg++) &&
   2926                (bindReq->outClusters = (uint16*)osal_mem_alloc((bindReq->numOutClusters * sizeof(uint16)))))
   \                     ??ZDO_ParseEndDeviceBindReq_4:
   \   000106   85..82       MOV     DPL,?V2
   \   000109   85..83       MOV     DPH,?V3
   \   00010C   E0           MOVX    A,@DPTR
   \   00010D   FA           MOV     R2,A
   \   00010E   EE           MOV     A,R6
   \   00010F   2414         ADD     A,#0x14
   \   000111   F8           MOV     R0,A
   \   000112   E4           CLR     A
   \   000113   3F           ADDC    A,R7
   \   000114   F9           MOV     R1,A
   \   000115   E8           MOV     A,R0
   \   000116   FE           MOV     R6,A
   \   000117   E9           MOV     A,R1
   \   000118   FF           MOV     R7,A
   \   000119   EA           MOV     A,R2
   \   00011A   8E82         MOV     DPL,R6
   \   00011C   8F83         MOV     DPH,R7
   \   00011E   12....       LCALL   ?Subroutine38 & 0xFFFF
   \                     ??CrossCallReturnLabel_54:
   \   000121   8582..       MOV     ?V2,DPL
   \   000124   8583..       MOV     ?V3,DPH
   \   000127   602E         JZ      ??ZDO_ParseEndDeviceBindReq_5
   \   000129                ; Setup parameters for call to function osal_mem_alloc
   \   000129   2A           ADD     A,R2
   \   00012A   FA           MOV     R2,A
   \   00012B   E4           CLR     A
   \   00012C   33           RLC     A
   \   00012D   FB           MOV     R3,A
   \   00012E   12....       LCALL   `??osal_mem_alloc::?relay`; Banked call to: osal_mem_alloc
   \   000131   8A..         MOV     ?V0,R2
   \   000133   8B..         MOV     ?V1,R3
   \   000135   AC..         MOV     R4,?V0
   \   000137   AD..         MOV     R5,?V1
   \   000139   85..82       MOV     DPL,?V6
   \   00013C   85..83       MOV     DPH,?V7
   \   00013F   EC           MOV     A,R4
   \   000140   F0           MOVX    @DPTR,A
   \   000141   A3           INC     DPTR
   \   000142   ED           MOV     A,R5
   \   000143   F0           MOVX    @DPTR,A
   \   000144   EC           MOV     A,R4
   \   000145   4D           ORL     A,R5
   \   000146   600F         JZ      ??ZDO_ParseEndDeviceBindReq_5
   2927            {
   2928              msg = ZDO_ConvertOTAClusters( bindReq->numOutClusters, msg, bindReq->outClusters );
   \   000148                ; Setup parameters for call to function ZDO_ConvertOTAClusters
   \   000148   AA..         MOV     R2,?V2
   \   00014A   AB..         MOV     R3,?V3
   \   00014C   8E82         MOV     DPL,R6
   \   00014E   8F83         MOV     DPH,R7
   \   000150   E0           MOVX    A,@DPTR
   \   000151   F9           MOV     R1,A
   \   000152   12....       LCALL   `??ZDO_ConvertOTAClusters::?relay`; Banked call to: ZDO_ConvertOTAClusters
   \   000155   8006         SJMP    ??ZDO_ParseEndDeviceBindReq_6
   2929            }
   2930            else
   2931            {
   2932              bindReq->numOutClusters = 0;
   \                     ??ZDO_ParseEndDeviceBindReq_5:
   \   000157   8E82         MOV     DPL,R6
   \   000159   8F83         MOV     DPH,R7
   \   00015B   E4           CLR     A
   \   00015C   F0           MOVX    @DPTR,A
   2933            }
   2934          }
   \                     ??ZDO_ParseEndDeviceBindReq_6:
   \   00015D   80..         SJMP    ??Subroutine213_0

   \                                 In  segment BANKED_CODE, align 1, keep-with-next
   \                     ?Subroutine139:
   \   000000   3B           ADDC    A,R3
   \   000001   F583         MOV     DPH,A
   \   000003   E0           MOVX    A,@DPTR
   \   000004   8E82         MOV     DPL,R6
   \   000006   8F83         MOV     DPH,R7
   \   000008   22           RET

   \                                 In  segment BANKED_CODE, align 1, keep-with-next
   \                     ?Subroutine38:
   \   000000   12....       LCALL   ?Subroutine151 & 0xFFFF
   \                     ??CrossCallReturnLabel_265:
   \   000003   22           RET

   \                                 In  segment BANKED_CODE, align 1, keep-with-next
   \                     ?Subroutine151:
   \   000000   F0           MOVX    @DPTR,A
   \   000001                ; Setup parameters for call to function osal_memcpy
   \   000001   85..82       MOV     DPL,?V2
   \   000004   85..83       MOV     DPH,?V3
   \   000007   A3           INC     DPTR
   \   000008   22           RET

   \                                 In  segment BANKED_CODE, align 1, keep-with-next
   \                     ??Subroutine216_0:
   \   000000   12....       LCALL   ?Subroutine159 & 0xFFFF
   \                     ??CrossCallReturnLabel_537:
   \   000003   22           RET

   \                                 In  segment BANKED_CODE, align 1, keep-with-next
   \                     ?Subroutine159:
   \   000000   E0           MOVX    A,@DPTR
   \   000001   FA           MOV     R2,A
   \   000002   A3           INC     DPTR
   \   000003   E0           MOVX    A,@DPTR
   \   000004   F9           MOV     R1,A
   \   000005   EA           MOV     A,R2
   \   000006   22           RET

   \                                 In  segment BANKED_CODE, align 1, keep-with-next
   \                     ?Subroutine48:
   \   000000   12....       LCALL   ?Subroutine146 & 0xFFFF
   \                     ??CrossCallReturnLabel_255:
   \   000003   A3           INC     DPTR
   \   000004   22           RET

   \                                 In  segment BANKED_CODE, align 1, keep-with-next
   \                     ?Subroutine146:
   \   000000   12....       LCALL   ?Subroutine170 & 0xFFFF
   \                     ??CrossCallReturnLabel_291:
   \   000003   A3           INC     DPTR
   \   000004   22           RET

   \                                 In  segment BANKED_CODE, align 1, keep-with-next
   \                     ?Subroutine37:
   \   000000   12....       LCALL   ?Subroutine151 & 0xFFFF
   \                     ??CrossCallReturnLabel_266:
   \   000003   A3           INC     DPTR
   \   000004   E0           MOVX    A,@DPTR
   \   000005   22           RET

   \                                 In  segment BANKED_CODE, align 1, keep-with-next
   \                     ?Subroutine32:
   \   000000   F0           MOVX    @DPTR,A
   \   000001   A3           INC     DPTR
   \   000002   E9           MOV     A,R1
   \   000003   F0           MOVX    @DPTR,A
   \   000004   E5..         MOV     A,?V2
   \   000006   2402         ADD     A,#0x2
   \   000008   F5..         MOV     ?V2,A
   \   00000A   22           RET

   \                                 In  segment BANKED_CODE, align 1, keep-with-next
   \                     ?Subroutine31:
   \   000000   F0           MOVX    @DPTR,A
   \   000001   E5..         MOV     A,?V2
   \   000003   2409         ADD     A,#0x9
   \   000005   F5..         MOV     ?V2,A
   \   000007   22           RET

   \                                 In  segment BANKED_CODE, align 1, keep-with-next
   \                     ?Subroutine39:
   \   000000   A3           INC     DPTR
   \   000001   A3           INC     DPTR
   \   000002                REQUIRE ??Subroutine225_0
   \   000002                ; // Fall through to label ??Subroutine225_0

   \                                 In  segment BANKED_CODE, align 1, keep-with-next
   \                     ??Subroutine225_0:
   \   000000   E8           MOV     A,R0
   \   000001                REQUIRE ??Subroutine226_0
   \   000001                ; // Fall through to label ??Subroutine226_0

   \                                 In  segment BANKED_CODE, align 1, keep-with-next
   \                     ??Subroutine226_0:
   \   000000   F0           MOVX    @DPTR,A
   \   000001   A3           INC     DPTR
   \   000002   E9           MOV     A,R1
   \   000003   F0           MOVX    @DPTR,A
   \   000004   EA           MOV     A,R2
   \   000005   22           RET
   2935          #endif
   2936          
   2937          /*********************************************************************
   2938           * @fn          ZDO_ParseBindUnbindReq
   2939           *
   2940           * @brief       This function parses the Bind_req or Unbind_req message.
   2941           *
   2942           * @param       inMsg  - incoming message (request)
   2943           * @param       pReq - place to put parsed information
   2944           *
   2945           * @return      none
   2946           */

   \                                 In  segment BANKED_CODE, align 1, keep-with-next
   2947          void ZDO_ParseBindUnbindReq( zdoIncomingMsg_t *inMsg, ZDO_BindUnbindReq_t *pReq )
   \                     ZDO_ParseBindUnbindReq:
   2948          {
   \   000000                REQUIRE ?V0
   \   000000                REQUIRE ?V1
   \   000000   74F6         MOV     A,#-0xa
   \   000002   12....       LCALL   ?BANKED_ENTER_XDATA
   \   000005                ; Saved register size: 10
   \   000005                ; Auto size: 0
   \   000005   EC           MOV     A,R4
   \   000006   FE           MOV     R6,A
   \   000007   ED           MOV     A,R5
   \   000008   FF           MOV     R7,A
   2949            uint8 *msg;
   2950          
   2951            msg = inMsg->asdu;
   \   000009   12....       LCALL   ?Subroutine106 & 0xFFFF
   \                     ??CrossCallReturnLabel_165:
   \   00000C   12....       LCALL   ?Subroutine93 & 0xFFFF
   2952            osal_cpyExtAddr( pReq->srcAddress, msg );
   \                     ??CrossCallReturnLabel_399:
   \   00000F                ; Setup parameters for call to function sAddrExtCpy
   \   00000F   AC..         MOV     R4,?V0
   \   000011   FD           MOV     R5,A
   \   000012   EE           MOV     A,R6
   \   000013   FA           MOV     R2,A
   \   000014   EF           MOV     A,R7
   \   000015   FB           MOV     R3,A
   \   000016   12....       LCALL   `??sAddrExtCpy::?relay`; Banked call to: sAddrExtCpy
   2953            msg += Z_EXTADDR_LEN;
   2954            pReq->srcEndpoint = *msg++;
   \   000019   85..82       MOV     DPL,?V0
   \   00001C   85..83       MOV     DPH,?V1
   \   00001F   12....       LCALL   ?Subroutine77 & 0xFFFF
   \                     ??CrossCallReturnLabel_108:
   \   000022   F0           MOVX    @DPTR,A
   \   000023   E5..         MOV     A,?V0
   \   000025   2409         ADD     A,#0x9
   \   000027   F5..         MOV     ?V0,A
   \   000029   5002         JNC     ??ZDO_ParseBindUnbindReq_0
   \   00002B   05..         INC     ?V1
   2955            pReq->clusterID = BUILD_UINT16( msg[0], msg[1] );
   \                     ??ZDO_ParseBindUnbindReq_0:
   \   00002D   F582         MOV     DPL,A
   \   00002F   85..83       MOV     DPH,?V1
   \   000032   12....       LCALL   ?Subroutine62 & 0xFFFF
   \                     ??CrossCallReturnLabel_90:
   \   000035   12....       LCALL   ?Subroutine36 & 0xFFFF
   2956            msg += 2;
   2957            pReq->dstAddress.addrMode = *msg++;
   \                     ??CrossCallReturnLabel_49:
   \   000038   12....       LCALL   ?Subroutine107 & 0xFFFF
   \                     ??CrossCallReturnLabel_169:
   \   00003B   E5..         MOV     A,?V0
   \   00003D   2403         ADD     A,#0x3
   \   00003F   F5..         MOV     ?V0,A
   \   000041   5002         JNC     ??ZDO_ParseBindUnbindReq_1
   \   000043   05..         INC     ?V1
   2958            if ( pReq->dstAddress.addrMode == Addr64Bit )
   \                     ??ZDO_ParseBindUnbindReq_1:
   \   000045   12....       LCALL   ?Subroutine129 & 0xFFFF
   \                     ??CrossCallReturnLabel_227:
   \   000048   701F         JNZ     ??ZDO_ParseBindUnbindReq_2
   2959            {
   2960              osal_cpyExtAddr( pReq->dstAddress.addr.extAddr, msg );
   \   00004A                ; Setup parameters for call to function sAddrExtCpy
   \   00004A   AC..         MOV     R4,?V0
   \   00004C   AD..         MOV     R5,?V1
   \   00004E   12....       LCALL   `??sAddrExtCpy::?relay`; Banked call to: sAddrExtCpy
   2961              msg += Z_EXTADDR_LEN;
   2962              pReq->dstEndpoint = *msg;
   \   000051   85..82       MOV     DPL,?V0
   \   000054   85..83       MOV     DPH,?V1
   \   000057   A3           INC     DPTR
   \   000058   A3           INC     DPTR
   \   000059   A3           INC     DPTR
   \   00005A   A3           INC     DPTR
   \   00005B   A3           INC     DPTR
   \   00005C   A3           INC     DPTR
   \   00005D   A3           INC     DPTR
   \   00005E   A3           INC     DPTR
   \   00005F   E0           MOVX    A,@DPTR
   \   000060   C0E0         PUSH    A
   \   000062   12....       LCALL   ?Subroutine135 & 0xFFFF
   2963            }
   \                     ??CrossCallReturnLabel_233:
   \   000065   D0E0         POP     A
   \   000067   800C         SJMP    ??ZDO_ParseBindUnbindReq_3
   2964            else
   2965            {
   2966              // copy group address
   2967              pReq->dstAddress.addr.shortAddr = BUILD_UINT16( msg[0], msg[1] );
   \                     ??ZDO_ParseBindUnbindReq_2:
   \   000069   85..82       MOV     DPL,?V0
   \   00006C   85..83       MOV     DPH,?V1
   \   00006F   12....       LCALL   ?Subroutine83 & 0xFFFF
   2968            }
   \                     ??CrossCallReturnLabel_121:
   \   000072   F0           MOVX    @DPTR,A
   \   000073   A3           INC     DPTR
   \   000074   E9           MOV     A,R1
   \                     ??ZDO_ParseBindUnbindReq_3:
   \   000075   F0           MOVX    @DPTR,A
   2969          }
   \   000076   02....       LJMP    ??Subroutine180_0 & 0xFFFF

   \                                 In  segment BANKED_CODE, align 1, keep-with-next
   \                     ?Subroutine135:
   \   000000   EE           MOV     A,R6
   \   000001   2414         ADD     A,#0x14
   \   000003   F582         MOV     DPL,A
   \   000005   E4           CLR     A
   \   000006   3F           ADDC    A,R7
   \   000007   F583         MOV     DPH,A
   \   000009   22           RET

   \                                 In  segment BANKED_CODE, align 1, keep-with-next
   \                     ?Subroutine129:
   \   000000   EE           MOV     A,R6
   \   000001   240B         ADD     A,#0xb
   \   000003   FA           MOV     R2,A
   \   000004   E4           CLR     A
   \   000005   3F           ADDC    A,R7
   \   000006   FB           MOV     R3,A
   \   000007   7403         MOV     A,#0x3
   \   000009   68           XRL     A,R0
   \   00000A   22           RET

   \                                 In  segment BANKED_CODE, align 1, keep-with-next
   \                     ?Subroutine107:
   \   000000   F8           MOV     R0,A
   \   000001   12....       LCALL   ?Subroutine165 & 0xFFFF
   \                     ??CrossCallReturnLabel_281:
   \   000004   E8           MOV     A,R0
   \   000005   F0           MOVX    @DPTR,A
   \   000006   22           RET

   \                                 In  segment BANKED_CODE, align 1, keep-with-next
   \                     ?Subroutine83:
   \   000000   E0           MOVX    A,@DPTR
   \   000001   FC           MOV     R4,A
   \   000002   A3           INC     DPTR
   \   000003   E0           MOVX    A,@DPTR
   \   000004   F9           MOV     R1,A
   \   000005   EC           MOV     A,R4
   \   000006   8A82         MOV     DPL,R2
   \   000008   8B83         MOV     DPH,R3
   \   00000A   22           RET

   \                                 In  segment BANKED_CODE, align 1, keep-with-next
   \                     ?Subroutine77:
   \   000000   A3           INC     DPTR
   \   000001   A3           INC     DPTR
   \   000002   A3           INC     DPTR
   \   000003   A3           INC     DPTR
   \   000004   A3           INC     DPTR
   \   000005   A3           INC     DPTR
   \   000006   A3           INC     DPTR
   \   000007   A3           INC     DPTR
   \   000008   E0           MOVX    A,@DPTR
   \   000009   8E82         MOV     DPL,R6
   \   00000B   8F83         MOV     DPH,R7
   \   00000D   A3           INC     DPTR
   \   00000E   A3           INC     DPTR
   \   00000F   A3           INC     DPTR
   \   000010   A3           INC     DPTR
   \   000011   A3           INC     DPTR
   \   000012   A3           INC     DPTR
   \   000013   A3           INC     DPTR
   \   000014   A3           INC     DPTR
   \   000015   22           RET

   \                                 In  segment BANKED_CODE, align 1, keep-with-next
   \                     ?Subroutine62:
   \   000000   12....       LCALL   ?Subroutine159 & 0xFFFF
   \                     ??CrossCallReturnLabel_535:
   \   000003   8E82         MOV     DPL,R6
   \   000005   8F83         MOV     DPH,R7
   \   000007   A3           INC     DPTR
   \   000008   A3           INC     DPTR
   \   000009   A3           INC     DPTR
   \   00000A   A3           INC     DPTR
   \   00000B   A3           INC     DPTR
   \   00000C   A3           INC     DPTR
   \   00000D   A3           INC     DPTR
   \   00000E   A3           INC     DPTR
   \   00000F   A3           INC     DPTR
   \   000010   F0           MOVX    @DPTR,A
   \   000011   A3           INC     DPTR
   \   000012   E9           MOV     A,R1
   \   000013   22           RET

   \                                 In  segment BANKED_CODE, align 1, keep-with-next
   \                     ?Subroutine106:
   \   000000   12....       LCALL   ?Subroutine167 & 0xFFFF
   \                     ??CrossCallReturnLabel_287:
   \   000003   22           RET

   \                                 In  segment BANKED_CODE, align 1, keep-with-next
   \                     ?Subroutine167:
   \   000000   12....       LCALL   ?Subroutine176 & 0xFFFF
   \                     ??CrossCallReturnLabel_558:
   \   000003   3B           ADDC    A,R3
   \   000004   22           RET
   2970          
   2971          /*********************************************************************
   2972           * @fn      ZDO_ParseAddrRsp
   2973           *
   2974           * @brief   Turns the inMsg (incoming message) into the out parsed
   2975           *          structure.
   2976           *
   2977           * @param   inMsg - incoming message
   2978           *
   2979           * @return  pointer to parsed structures.  This structure was
   2980           *          allocated using osal_mem_alloc, so it must be freed
   2981           *          by the calling function [osal_mem_free()].
   2982           */

   \                                 In  segment BANKED_CODE, align 1, keep-with-next
   2983          ZDO_NwkIEEEAddrResp_t *ZDO_ParseAddrRsp( zdoIncomingMsg_t *inMsg )
   \                     ZDO_ParseAddrRsp:
   2984          {
   \   000000                REQUIRE ?V0
   \   000000                REQUIRE ?V1
   \   000000                REQUIRE ?V2
   \   000000                REQUIRE ?V3
   \   000000                REQUIRE ?V4
   \   000000                REQUIRE ?V5
   \   000000   74F2         MOV     A,#-0xe
   \   000002   12....       LCALL   ?BANKED_ENTER_XDATA
   \   000005                ; Saved register size: 14
   \   000005                ; Auto size: 0
   2985            ZDO_NwkIEEEAddrResp_t *rsp;
   2986            uint8 *msg;
   2987            byte cnt = 0;
   \   000005   75..00       MOV     ?V2,#0x0
   2988          
   2989            // Calculate the number of items in the list
   2990            if ( inMsg->asduLen > (1 + Z_EXTADDR_LEN + 2) )
   \   000008   EA           MOV     A,R2
   \   000009   2413         ADD     A,#0x13
   \   00000B   F8           MOV     R0,A
   \   00000C   E4           CLR     A
   \   00000D   3B           ADDC    A,R3
   \   00000E   F9           MOV     R1,A
   \   00000F   E8           MOV     A,R0
   \   000010   FE           MOV     R6,A
   \   000011   E9           MOV     A,R1
   \   000012   FF           MOV     R7,A
   \   000013   EA           MOV     A,R2
   \   000014   2410         ADD     A,#0x10
   \   000016   F582         MOV     DPL,A
   \   000018   E4           CLR     A
   \   000019   3B           ADDC    A,R3
   \   00001A   F583         MOV     DPH,A
   \   00001C   E0           MOVX    A,@DPTR
   \   00001D   C3           CLR     C
   \   00001E   940C         SUBB    A,#0xc
   \   000020   4009         JC      ??ZDO_ParseAddrRsp_0
   2991            {
   2992              cnt = inMsg->asdu[1 + Z_EXTADDR_LEN + 2];
   \   000022   8E82         MOV     DPL,R6
   \   000024   8F83         MOV     DPH,R7
   \   000026   12....       LCALL   ?Subroutine70 & 0xFFFF
   2993            }
   \                     ??CrossCallReturnLabel_103:
   \   000029   F5..         MOV     ?V2,A
   2994            else
   2995            {
   2996              cnt = 0;
   2997            }
   2998          
   2999            // Make buffer
   3000            rsp = (ZDO_NwkIEEEAddrResp_t *)osal_mem_alloc( sizeof(ZDO_NwkIEEEAddrResp_t) + (cnt * sizeof ( uint16 )) );
   \                     ??ZDO_ParseAddrRsp_0:
   \   00002B                ; Setup parameters for call to function osal_mem_alloc
   \   00002B   A8..         MOV     R0,?V2
   \   00002D   12....       LCALL   ?Subroutine163 & 0xFFFF
   \                     ??CrossCallReturnLabel_275:
   \   000030   E8           MOV     A,R0
   \   000031   240D         ADD     A,#0xd
   \   000033   FA           MOV     R2,A
   \   000034   E4           CLR     A
   \   000035   39           ADDC    A,R1
   \   000036   FB           MOV     R3,A
   \   000037   12....       LCALL   `??osal_mem_alloc::?relay`; Banked call to: osal_mem_alloc
   \   00003A   8A..         MOV     ?V0,R2
   \   00003C   8B..         MOV     ?V1,R3
   3001          
   3002            if ( rsp )
   \   00003E   EA           MOV     A,R2
   \   00003F   45..         ORL     A,?V1
   \   000041   7003         JNZ     $+5
   \   000043   02....       LJMP    ??ZDO_ParseAddrRsp_1 & 0xFFFF
   3003            {
   3004              msg = inMsg->asdu;
   \   000046   8E82         MOV     DPL,R6
   \   000048   8F83         MOV     DPH,R7
   \   00004A   12....       LCALL   ??Subroutine218_0 & 0xFFFF
   3005          
   3006              rsp->status = *msg++;
   \                     ??CrossCallReturnLabel_542:
   \   00004D   F8           MOV     R0,A
   \   00004E   8A82         MOV     DPL,R2
   \   000050   8B83         MOV     DPH,R3
   \   000052   12....       LCALL   ?Subroutine33 & 0xFFFF
   3007              if ( rsp->status == ZDO_SUCCESS )
   \                     ??CrossCallReturnLabel_41:
   \   000055   6003         JZ      $+5
   \   000057   02....       LJMP    ??ZDO_ParseAddrRsp_1 & 0xFFFF
   3008              {
   3009                osal_cpyExtAddr( rsp->extAddr, msg );
   \   00005A                ; Setup parameters for call to function sAddrExtCpy
   \   00005A   EE           MOV     A,R6
   \   00005B   FC           MOV     R4,A
   \   00005C   EF           MOV     A,R7
   \   00005D   FD           MOV     R5,A
   \   00005E   EA           MOV     A,R2
   \   00005F   2403         ADD     A,#0x3
   \   000061   FA           MOV     R2,A
   \   000062   E4           CLR     A
   \   000063   35..         ADDC    A,?V1
   \   000065   FB           MOV     R3,A
   \   000066   12....       LCALL   `??sAddrExtCpy::?relay`; Banked call to: sAddrExtCpy
   3010                msg += Z_EXTADDR_LEN;
   \   000069   EE           MOV     A,R6
   \   00006A   2408         ADD     A,#0x8
   \   00006C   FE           MOV     R6,A
   \   00006D   5001         JNC     ??ZDO_ParseAddrRsp_2
   \   00006F   0F           INC     R7
   3011                rsp->nwkAddr = BUILD_UINT16( msg[0], msg[1] );
   \                     ??ZDO_ParseAddrRsp_2:
   \   000070   12....       LCALL   ?Subroutine75 & 0xFFFF
   \                     ??CrossCallReturnLabel_532:
   \   000073   85..82       MOV     DPL,?V0
   \   000076   85..83       MOV     DPH,?V1
   \   000079   A3           INC     DPTR
   \   00007A   12....       LCALL   ??Subroutine195_0 & 0xFFFF
   3012          
   3013                msg += 2;
   3014                rsp->numAssocDevs = 0;
   \                     ??CrossCallReturnLabel_383:
   \   00007D   E5..         MOV     A,?V0
   \   00007F   240B         ADD     A,#0xb
   \   000081   F8           MOV     R0,A
   \   000082   E4           CLR     A
   \   000083   35..         ADDC    A,?V1
   \   000085   F9           MOV     R1,A
   \   000086   E8           MOV     A,R0
   \   000087   FA           MOV     R2,A
   \   000088   E9           MOV     A,R1
   \   000089   FB           MOV     R3,A
   \   00008A   8A82         MOV     DPL,R2
   \   00008C   8B83         MOV     DPH,R3
   \   00008E   E4           CLR     A
   \   00008F   F0           MOVX    @DPTR,A
   3015          
   3016                // StartIndex field is only present if NumAssocDev field is non-zero.
   3017                if ( cnt > 0 )
   \   000090   E5..         MOV     A,?V2
   \   000092   604B         JZ      ??ZDO_ParseAddrRsp_1
   3018                {
   3019                  uint16 *pList = &(rsp->devList[0]);
   \   000094   E5..         MOV     A,?V0
   \   000096   240D         ADD     A,#0xd
   \   000098   F8           MOV     R0,A
   \   000099   E4           CLR     A
   \   00009A   35..         ADDC    A,?V1
   \   00009C   F9           MOV     R1,A
   3020                  byte n = cnt;
   3021          
   3022                  rsp->numAssocDevs = *msg++;
   \   00009D   8E82         MOV     DPL,R6
   \   00009F   8F83         MOV     DPH,R7
   \   0000A1   A3           INC     DPTR
   \   0000A2   12....       LCALL   ?Subroutine69 & 0xFFFF
   \                     ??CrossCallReturnLabel_566:
   \   0000A5   12....       LCALL   ?Subroutine15 & 0xFFFF
   3023                  rsp->startIndex = *msg++;
   \                     ??CrossCallReturnLabel_10:
   \   0000A8   C0E0         PUSH    A
   \   0000AA   12....       LCALL   ?Subroutine130 & 0xFFFF
   \                     ??CrossCallReturnLabel_229:
   \   0000AD   D0E0         POP     A
   \   0000AF   F0           MOVX    @DPTR,A
   \   0000B0   EE           MOV     A,R6
   \   0000B1   2404         ADD     A,#0x4
   \   0000B3   FE           MOV     R6,A
   \   0000B4   5001         JNC     ??ZDO_ParseAddrRsp_3
   \   0000B6   0F           INC     R7
   \                     ??ZDO_ParseAddrRsp_3:
   \   0000B7   85....       MOV     ?V3,?V2
   3024          
   3025                  while ( n != 0 )
   3026                  {
   3027                    *pList++ = BUILD_UINT16( msg[0], msg[1] );
   \                     ??ZDO_ParseAddrRsp_4:
   \   0000BA   8E82         MOV     DPL,R6
   \   0000BC   8F83         MOV     DPH,R7
   \   0000BE   E0           MOVX    A,@DPTR
   \   0000BF   FC           MOV     R4,A
   \   0000C0   A3           INC     DPTR
   \   0000C1   E0           MOVX    A,@DPTR
   \   0000C2   FB           MOV     R3,A
   \   0000C3   EC           MOV     A,R4
   \   0000C4   8882         MOV     DPL,R0
   \   0000C6   8983         MOV     DPH,R1
   \   0000C8   12....       LCALL   ??Subroutine185_0 & 0xFFFF
   \                     ??CrossCallReturnLabel_325:
   \   0000CB   E8           MOV     A,R0
   \   0000CC   2402         ADD     A,#0x2
   \   0000CE   F8           MOV     R0,A
   \   0000CF   5001         JNC     ??ZDO_ParseAddrRsp_5
   \   0000D1   09           INC     R1
   3028                    msg += sizeof( uint16 );
   \                     ??ZDO_ParseAddrRsp_5:
   \   0000D2   EE           MOV     A,R6
   \   0000D3   2402         ADD     A,#0x2
   \   0000D5   FE           MOV     R6,A
   \   0000D6   5001         JNC     ??ZDO_ParseAddrRsp_6
   \   0000D8   0F           INC     R7
   3029                    n--;
   3030                  }
   \                     ??ZDO_ParseAddrRsp_6:
   \   0000D9   15..         DEC     ?V3
   \   0000DB   E5..         MOV     A,?V3
   \   0000DD   70DB         JNZ     ??ZDO_ParseAddrRsp_4
   3031                }
   3032              }
   3033            }
   3034          
   3035            return ( rsp );
   \                     ??ZDO_ParseAddrRsp_1:
   \   0000DF   AA..         MOV     R2,?V0
   \   0000E1   AB..         MOV     R3,?V1
   \   0000E3                REQUIRE ?Subroutine5
   \   0000E3                ; // Fall through to label ?Subroutine5
   3036          }

   \                                 In  segment BANKED_CODE, align 1, keep-with-next
   \                     ?Subroutine75:
   \   000000   8E82         MOV     DPL,R6
   \   000002   8F83         MOV     DPH,R7
   \   000004                REQUIRE ??Subroutine216_0
   \   000004                ; // Fall through to label ??Subroutine216_0

   \                                 In  segment BANKED_CODE, align 1, keep-with-next
   \                     ?Subroutine15:
   \   000000   12....       LCALL   ?Subroutine145 & 0xFFFF
   \                     ??CrossCallReturnLabel_254:
   \   000003   E0           MOVX    A,@DPTR
   \   000004   22           RET

   \                                 In  segment BANKED_CODE, align 1, keep-with-next
   \                     ?Subroutine130:
   \   000000   E5..         MOV     A,?V0
   \   000002   240C         ADD     A,#0xc
   \   000004   F582         MOV     DPL,A
   \   000006   E4           CLR     A
   \   000007   35..         ADDC    A,?V1
   \   000009   F583         MOV     DPH,A
   \   00000B   22           RET

   \                                 In  segment BANKED_CODE, align 1, keep-with-next
   \                     ?Subroutine33:
   \   000000   12....       LCALL   ?Subroutine147 & 0xFFFF
   \                     ??CrossCallReturnLabel_549:
   \   000003   A3           INC     DPTR
   \   000004   AE82         MOV     R6,DPL
   \   000006   AF83         MOV     R7,DPH
   \   000008   22           RET
   3037          
   3038          /*********************************************************************
   3039           * @fn          ZDO_ParseNodeDescRsp
   3040           *
   3041           * @brief       This function parses the Node_Desc_rsp message.
   3042           *
   3043           * @param       inMsg - incoming message
   3044           * @param       pNDRsp - place to parse the message into
   3045           *
   3046           * @return      none
   3047           */

   \                                 In  segment BANKED_CODE, align 1, keep-with-next
   3048          void ZDO_ParseNodeDescRsp( zdoIncomingMsg_t *inMsg, ZDO_NodeDescRsp_t *pNDRsp )
   \                     ZDO_ParseNodeDescRsp:
   3049          {
   \   000000                REQUIRE ?V0
   \   000000                REQUIRE ?V1
   \   000000                REQUIRE ?V2
   \   000000                REQUIRE ?V3
   \   000000   74F4         MOV     A,#-0xc
   \   000002   12....       LCALL   ?BANKED_ENTER_XDATA
   \   000005                ; Saved register size: 12
   \   000005                ; Auto size: 0
   3050            uint8 *msg;
   3051          
   3052            msg = inMsg->asdu;
   \   000005   12....       LCALL   ?Subroutine10 & 0xFFFF
   3053          
   3054            pNDRsp->status = *msg++;
   3055            pNDRsp->nwkAddr = BUILD_UINT16( msg[0], msg[1] );
   3056          
   3057            if ( pNDRsp->status == ZDP_SUCCESS )
   \                     ??CrossCallReturnLabel_0:
   \   000008   6003         JZ      $+5
   \   00000A   02....       LJMP    ??ZDO_ParseNodeDescRsp_0 & 0xFFFF
   3058            {
   3059              msg += 2;
   3060              pNDRsp->nodeDesc.LogicalType = *msg & 0x07;
   \   00000D   E8           MOV     A,R0
   \   00000E   12....       LCALL   ??Subroutine188_0 & 0xFFFF
   \                     ??CrossCallReturnLabel_361:
   \   000011   39           ADDC    A,R1
   \   000012   FB           MOV     R3,A
   \   000013   EC           MOV     A,R4
   \   000014   2403         ADD     A,#0x3
   \   000016   FE           MOV     R6,A
   \   000017   E4           CLR     A
   \   000018   3D           ADDC    A,R5
   \   000019   FF           MOV     R7,A
   \   00001A   8A82         MOV     DPL,R2
   \   00001C   8B83         MOV     DPH,R3
   \   00001E   E0           MOVX    A,@DPTR
   \   00001F   5407         ANL     A,#0x7
   \   000021   F5..         MOV     ?V0,A
   \   000023   8E82         MOV     DPL,R6
   \   000025   8F83         MOV     DPH,R7
   \   000027   E0           MOVX    A,@DPTR
   \   000028   54F8         ANL     A,#0xf8
   \   00002A   45..         ORL     A,?V0
   \   00002C   12....       LCALL   ?Subroutine42 & 0xFFFF
   3061          
   3062              pNDRsp->nodeDesc.ComplexDescAvail = ( *msg & 0x08 ) >> 3;
   \                     ??CrossCallReturnLabel_57:
   \   00002F   A2E3         MOV     C,0xE0 /* A   */.3
   \   000031   E4           CLR     A
   \   000032   33           RLC     A
   \   000033   F5..         MOV     ?V0,A
   \   000035   E0           MOVX    A,@DPTR
   \   000036   A2E3         MOV     C,0xE0 /* A   */.3
   \   000038   8F83         MOV     DPH,R7
   \   00003A   8E82         MOV     DPL,R6
   \   00003C   E0           MOVX    A,@DPTR
   \   00003D   92E3         MOV     0xE0 /* A   */.3,C
   \   00003F   12....       LCALL   ?Subroutine42 & 0xFFFF
   3063              pNDRsp->nodeDesc.UserDescAvail = ( *msg & 0x10 ) >> 4;
   \                     ??CrossCallReturnLabel_58:
   \   000042   A2E4         MOV     C,0xE0 /* A   */.4
   \   000044   E4           CLR     A
   \   000045   33           RLC     A
   \   000046   F5..         MOV     ?V1,A
   \   000048   E0           MOVX    A,@DPTR
   \   000049   A2E4         MOV     C,0xE0 /* A   */.4
   \   00004B   8F83         MOV     DPH,R7
   \   00004D   8E82         MOV     DPL,R6
   \   00004F   E0           MOVX    A,@DPTR
   \   000050   92E4         MOV     0xE0 /* A   */.4,C
   \   000052   F0           MOVX    @DPTR,A
   3064          
   3065              msg++;  // Reserved bits.
   3066              pNDRsp->nodeDesc.FrequencyBand = (*msg >> 3) & 0x1f;
   \   000053   E8           MOV     A,R0
   \   000054   2403         ADD     A,#0x3
   \   000056   0A           INC     R2
   \   000057   E4           CLR     A
   \   000058   39           ADDC    A,R1
   \   000059   FB           MOV     R3,A
   \   00005A   EC           MOV     A,R4
   \   00005B   2404         ADD     A,#0x4
   \   00005D   0E           INC     R6
   \   00005E   E4           CLR     A
   \   00005F   3D           ADDC    A,R5
   \   000060   FF           MOV     R7,A
   \   000061   8A82         MOV     DPL,R2
   \   000063   8B83         MOV     DPH,R3
   \   000065   E0           MOVX    A,@DPTR
   \   000066   54F8         ANL     A,#0xf8
   \   000068   F5..         MOV     ?V2,A
   \   00006A   8E82         MOV     DPL,R6
   \   00006C   8F83         MOV     DPH,R7
   \   00006E   E0           MOVX    A,@DPTR
   \   00006F   5407         ANL     A,#0x7
   \   000071   45..         ORL     A,?V2
   \   000073   F5..         MOV     ?V2,A
   \   000075   12....       LCALL   ?Subroutine42 & 0xFFFF
   3067              pNDRsp->nodeDesc.APSFlags = *msg++ & 0x07;
   \                     ??CrossCallReturnLabel_59:
   \   000078   5407         ANL     A,#0x7
   \   00007A   FA           MOV     R2,A
   \   00007B   74F8         MOV     A,#-0x8
   \   00007D   55..         ANL     A,?V2
   \   00007F   4A           ORL     A,R2
   \   000080   8E82         MOV     DPL,R6
   \   000082   8F83         MOV     DPH,R7
   \   000084   12....       LCALL   ?Subroutine34 & 0xFFFF
   3068              pNDRsp->nodeDesc.CapabilityFlags = *msg++;
   \                     ??CrossCallReturnLabel_43:
   \   000087   8C82         MOV     DPL,R4
   \   000089   8D83         MOV     DPH,R5
   \   00008B   A3           INC     DPTR
   \   00008C   A3           INC     DPTR
   \   00008D   A3           INC     DPTR
   \   00008E   A3           INC     DPTR
   \   00008F   A3           INC     DPTR
   \   000090   12....       LCALL   ?Subroutine35 & 0xFFFF
   3069              pNDRsp->nodeDesc.ManufacturerCode[0] = *msg++;
   \                     ??CrossCallReturnLabel_46:
   \   000093   A3           INC     DPTR
   \   000094   12....       LCALL   ?Subroutine99 & 0xFFFF
   \                     ??CrossCallReturnLabel_570:
   \   000097   12....       LCALL   ?Subroutine30 & 0xFFFF
   3070              pNDRsp->nodeDesc.ManufacturerCode[1] = *msg++;
   \                     ??CrossCallReturnLabel_34:
   \   00009A   12....       LCALL   ?Subroutine98 & 0xFFFF
   \                     ??CrossCallReturnLabel_147:
   \   00009D   12....       LCALL   ?Subroutine30 & 0xFFFF
   3071              pNDRsp->nodeDesc.MaxBufferSize = *msg++;
   \                     ??CrossCallReturnLabel_35:
   \   0000A0   12....       LCALL   ?Subroutine99 & 0xFFFF
   \                     ??CrossCallReturnLabel_571:
   \   0000A3   12....       LCALL   ?Subroutine19 & 0xFFFF
   3072              pNDRsp->nodeDesc.MaxInTransferSize[0] = *msg++;
   \                     ??CrossCallReturnLabel_15:
   \   0000A6   12....       LCALL   ?Subroutine98 & 0xFFFF
   \                     ??CrossCallReturnLabel_148:
   \   0000A9   12....       LCALL   ?Subroutine19 & 0xFFFF
   3073              pNDRsp->nodeDesc.MaxInTransferSize[1] = *msg++;
   \                     ??CrossCallReturnLabel_16:
   \   0000AC   A3           INC     DPTR
   \   0000AD   12....       LCALL   ?Subroutine98 & 0xFFFF
   \                     ??CrossCallReturnLabel_149:
   \   0000B0   A3           INC     DPTR
   \   0000B1   A3           INC     DPTR
   \   0000B2   A3           INC     DPTR
   \   0000B3   A3           INC     DPTR
   \   0000B4   A3           INC     DPTR
   \   0000B5   A3           INC     DPTR
   \   0000B6   A3           INC     DPTR
   \   0000B7   A3           INC     DPTR
   \   0000B8   A3           INC     DPTR
   \   0000B9   F0           MOVX    @DPTR,A
   \   0000BA   E8           MOV     A,R0
   \   0000BB   240A         ADD     A,#0xa
   \   0000BD   F8           MOV     R0,A
   \   0000BE   5001         JNC     ??ZDO_ParseNodeDescRsp_1
   \   0000C0   09           INC     R1
   3074              pNDRsp->nodeDesc.ServerMask = BUILD_UINT16( msg[0], msg[1] );
   \                     ??ZDO_ParseNodeDescRsp_1:
   \   0000C1   8882         MOV     DPL,R0
   \   0000C3   8983         MOV     DPH,R1
   \   0000C5   12....       LCALL   ??Subroutine215_0 & 0xFFFF
   \                     ??CrossCallReturnLabel_525:
   \   0000C8   FB           MOV     R3,A
   \   0000C9   EE           MOV     A,R6
   \   0000CA   FA           MOV     R2,A
   \   0000CB   EC           MOV     A,R4
   \   0000CC   240B         ADD     A,#0xb
   \   0000CE   F582         MOV     DPL,A
   \   0000D0   E4           CLR     A
   \   0000D1   3D           ADDC    A,R5
   \   0000D2   F583         MOV     DPH,A
   \   0000D4   12....       LCALL   ??Subroutine184_0 & 0xFFFF
   3075              msg += 2;
   3076              pNDRsp->nodeDesc.MaxOutTransferSize[0] = *msg++;
   \                     ??CrossCallReturnLabel_333:
   \   0000D7   8882         MOV     DPL,R0
   \   0000D9   8983         MOV     DPH,R1
   \   0000DB   A3           INC     DPTR
   \   0000DC   A3           INC     DPTR
   \   0000DD   E0           MOVX    A,@DPTR
   \   0000DE   C0E0         PUSH    A
   \   0000E0   EC           MOV     A,R4
   \   0000E1   240D         ADD     A,#0xd
   \   0000E3   F582         MOV     DPL,A
   \   0000E5   E4           CLR     A
   \   0000E6   3D           ADDC    A,R5
   \   0000E7   F583         MOV     DPH,A
   \   0000E9   D0E0         POP     A
   \   0000EB   12....       LCALL   ?Subroutine35 & 0xFFFF
   3077              pNDRsp->nodeDesc.MaxOutTransferSize[1] = *msg++;
   3078              pNDRsp->nodeDesc.DescriptorCapability = *msg;
   3079            }
   \                     ??CrossCallReturnLabel_47:
   \   0000EE   E0           MOVX    A,@DPTR
   \   0000EF   C0E0         PUSH    A
   \   0000F1   EC           MOV     A,R4
   \   0000F2   12....       LCALL   ?Subroutine114 & 0xFFFF
   \                     ??CrossCallReturnLabel_183:
   \   0000F5   3D           ADDC    A,R5
   \   0000F6   F583         MOV     DPH,A
   \   0000F8   D0E0         POP     A
   \   0000FA   12....       LCALL   ?Subroutine34 & 0xFFFF
   \                     ??CrossCallReturnLabel_44:
   \   0000FD   C0E0         PUSH    A
   \   0000FF   EC           MOV     A,R4
   \   000100   12....       LCALL   ?Subroutine121 & 0xFFFF
   \                     ??CrossCallReturnLabel_200:
   \   000103   3D           ADDC    A,R5
   \   000104   F583         MOV     DPH,A
   \   000106   D0E0         POP     A
   \   000108   F0           MOVX    @DPTR,A
   3080          }
   \                     ??ZDO_ParseNodeDescRsp_0:
   \   000109   02....       LJMP    ?Subroutine1 & 0xFFFF

   \                                 In  segment BANKED_CODE, align 1, keep-with-next
   \                     ?Subroutine98:
   \   000000   E0           MOVX    A,@DPTR
   \   000001   8C82         MOV     DPL,R4
   \   000003   8D83         MOV     DPH,R5
   \   000005   A3           INC     DPTR
   \   000006   22           RET

   \                                 In  segment BANKED_CODE, align 1, keep-with-next
   \                     ?Subroutine42:
   \   000000   12....       LCALL   ?Subroutine170 & 0xFFFF
   \                     ??CrossCallReturnLabel_290:
   \   000003   E0           MOVX    A,@DPTR
   \   000004   22           RET

   \                                 In  segment BANKED_CODE, align 1, keep-with-next
   \                     ?Subroutine34:
   \   000000   12....       LCALL   ?Subroutine150 & 0xFFFF
   \                     ??CrossCallReturnLabel_264:
   \   000003   A3           INC     DPTR
   \   000004   E0           MOVX    A,@DPTR
   \   000005   22           RET

   \                                 In  segment BANKED_CODE, align 1, keep-with-next
   \                     ?Subroutine30:
   \   000000   12....       LCALL   ?Subroutine143 & 0xFFFF
   \                     ??CrossCallReturnLabel_248:
   \   000003   22           RET

   \                                 In  segment BANKED_CODE, align 1, keep-with-next
   \                     ?Subroutine143:
   \   000000   A3           INC     DPTR
   \   000001   A3           INC     DPTR
   \   000002   A3           INC     DPTR
   \   000003   A3           INC     DPTR
   \   000004   A3           INC     DPTR
   \   000005   A3           INC     DPTR
   \   000006   12....       LCALL   ?Subroutine172 & 0xFFFF
   \                     ??CrossCallReturnLabel_297:
   \   000009   A3           INC     DPTR
   \   00000A   A3           INC     DPTR
   \   00000B   A3           INC     DPTR
   \   00000C   22           RET

   \                                 In  segment BANKED_CODE, align 1, keep-with-next
   \                     ?Subroutine19:
   \   000000   A3           INC     DPTR
   \   000001   A3           INC     DPTR
   \   000002   12....       LCALL   ?Subroutine143 & 0xFFFF
   \                     ??CrossCallReturnLabel_249:
   \   000005   A3           INC     DPTR
   \   000006   A3           INC     DPTR
   \   000007   22           RET

   \                                 In  segment BANKED_CODE, align 1, keep-with-next
   \                     ?Subroutine10:
   \   000000   12....       LCALL   ?Subroutine167 & 0xFFFF
   \                     ??CrossCallReturnLabel_285:
   \   000003   12....       LCALL   ?Subroutine155 & 0xFFFF
   \                     ??CrossCallReturnLabel_372:
   \   000006   E0           MOVX    A,@DPTR
   \   000007   8C82         MOV     DPL,R4
   \   000009   8D83         MOV     DPH,R5
   \   00000B   F0           MOVX    @DPTR,A
   \   00000C   8882         MOV     DPL,R0
   \   00000E   8983         MOV     DPH,R1
   \   000010   A3           INC     DPTR
   \   000011   A882         MOV     R0,DPL
   \   000013   A983         MOV     R1,DPH
   \   000015   E0           MOVX    A,@DPTR
   \   000016   FE           MOV     R6,A
   \   000017   A3           INC     DPTR
   \   000018   E0           MOVX    A,@DPTR
   \   000019   FB           MOV     R3,A
   \   00001A   EE           MOV     A,R6
   \   00001B   8C82         MOV     DPL,R4
   \   00001D   8D83         MOV     DPH,R5
   \   00001F   A3           INC     DPTR
   \   000020   F0           MOVX    @DPTR,A
   \   000021   A3           INC     DPTR
   \   000022   EB           MOV     A,R3
   \   000023   F0           MOVX    @DPTR,A
   \   000024   8C82         MOV     DPL,R4
   \   000026   8D83         MOV     DPH,R5
   \   000028   E0           MOVX    A,@DPTR
   \   000029   22           RET

   \                                 In  segment BANKED_CODE, align 1, keep-with-next
   \                     ?Subroutine99:
   \   000000   A3           INC     DPTR
   \   000001                REQUIRE ??Subroutine223_0
   \   000001                ; // Fall through to label ??Subroutine223_0

   \                                 In  segment BANKED_CODE, align 1, keep-with-next
   \                     ??Subroutine223_0:
   \   000000   E0           MOVX    A,@DPTR
   \   000001   8C82         MOV     DPL,R4
   \   000003   8D83         MOV     DPH,R5
   \   000005   22           RET
   3081          
   3082          /*********************************************************************
   3083           * @fn          ZDO_ParsePowerDescRsp
   3084           *
   3085           * @brief       This function parses the Power_Desc_rsp message.
   3086           *
   3087           * @param       inMsg  - incoming message
   3088           * @param       pNPRsp - place to parse the message into
   3089           *
   3090           * @return      none
   3091           */

   \                                 In  segment BANKED_CODE, align 1, keep-with-next
   3092          void ZDO_ParsePowerDescRsp( zdoIncomingMsg_t *inMsg, ZDO_PowerRsp_t *pNPRsp )
   \                     ZDO_ParsePowerDescRsp:
   3093          {
   \   000000                REQUIRE ?V0
   \   000000                REQUIRE ?V1
   \   000000                REQUIRE ?V2
   \   000000                REQUIRE ?V3
   \   000000   74F4         MOV     A,#-0xc
   \   000002   12....       LCALL   ?BANKED_ENTER_XDATA
   \   000005                ; Saved register size: 12
   \   000005                ; Auto size: 0
   3094            uint8 *msg;
   3095          
   3096            msg = inMsg->asdu;
   \   000005   12....       LCALL   ?Subroutine106 & 0xFFFF
   \                     ??CrossCallReturnLabel_166:
   \   000008   12....       LCALL   ?Subroutine84 & 0xFFFF
   3097            pNPRsp->status = *msg++;
   \                     ??CrossCallReturnLabel_123:
   \   00000B   12....       LCALL   ??Subroutine223_0 & 0xFFFF
   \                     ??CrossCallReturnLabel_567:
   \   00000E   12....       LCALL   ?Subroutine146 & 0xFFFF
   \                     ??CrossCallReturnLabel_257:
   \   000011   AA82         MOV     R2,DPL
   \   000013   AB83         MOV     R3,DPH
   3098            pNPRsp->nwkAddr = BUILD_UINT16( msg[0], msg[1] );
   \   000015   12....       LCALL   ??Subroutine215_0 & 0xFFFF
   \                     ??CrossCallReturnLabel_526:
   \   000018   F9           MOV     R1,A
   \   000019   EE           MOV     A,R6
   \   00001A   8C82         MOV     DPL,R4
   \   00001C   8D83         MOV     DPH,R5
   \   00001E   A3           INC     DPTR
   \   00001F   F0           MOVX    @DPTR,A
   \   000020   A3           INC     DPTR
   \   000021   E9           MOV     A,R1
   \   000022   12....       LCALL   ?Subroutine29 & 0xFFFF
   3099          
   3100            if ( pNPRsp->status == ZDP_SUCCESS )
   \                     ??CrossCallReturnLabel_33:
   \   000025   E0           MOVX    A,@DPTR
   \   000026   6003         JZ      $+5
   \   000028   02....       LJMP    ??ZDO_ParsePowerDescRsp_0 & 0xFFFF
   3101            {
   3102              msg += 2;
   3103              pNPRsp->pwrDesc.AvailablePowerSources = *msg >> 4;
   \   00002B   EA           MOV     A,R2
   \   00002C   2402         ADD     A,#0x2
   \   00002E   F8           MOV     R0,A
   \   00002F   E4           CLR     A
   \   000030   3B           ADDC    A,R3
   \   000031   F9           MOV     R1,A
   \   000032   E8           MOV     A,R0
   \   000033   FE           MOV     R6,A
   \   000034   E9           MOV     A,R1
   \   000035   FF           MOV     R7,A
   \   000036   EC           MOV     A,R4
   \   000037   2403         ADD     A,#0x3
   \   000039   E4           CLR     A
   \   00003A   3D           ADDC    A,R5
   \   00003B   0C           INC     R4
   \   00003C   0C           INC     R4
   \   00003D   0C           INC     R4
   \   00003E   FD           MOV     R5,A
   \   00003F   8C82         MOV     DPL,R4
   \   000041   8D83         MOV     DPH,R5
   \   000043   E0           MOVX    A,@DPTR
   \   000044   540F         ANL     A,#0xf
   \   000046   F5..         MOV     ?V2,A
   \   000048   A3           INC     DPTR
   \   000049   E0           MOVX    A,@DPTR
   \   00004A   F5..         MOV     ?V3,A
   \   00004C   8E82         MOV     DPL,R6
   \   00004E   8F83         MOV     DPH,R7
   \   000050   E0           MOVX    A,@DPTR
   \   000051   C4           SWAP    A
   \   000052   540F         ANL     A,#0xf
   \   000054   F5..         MOV     ?V0,A
   \   000056   75..00       MOV     ?V1,#0x0
   \   000059   7404         MOV     A,#0x4
   \   00005B   78..         MOV     R0,#?V0
   \   00005D   12....       LCALL   ?S_SHL
   \   000060   E5..         MOV     A,?V2
   \   000062   45..         ORL     A,?V0
   \   000064   A9..         MOV     R1,?V3
   \   000066   8C82         MOV     DPL,R4
   \   000068   8D83         MOV     DPH,R5
   \   00006A   12....       LCALL   ?Subroutine21 & 0xFFFF
   3104              pNPRsp->pwrDesc.PowerMode = *msg++ & 0x0F;
   3105              pNPRsp->pwrDesc.CurrentPowerSourceLevel = *msg >> 4;
   3106              pNPRsp->pwrDesc.CurrentPowerSource = *msg++ & 0x0F;
   3107            }
   \                     ??CrossCallReturnLabel_17:
   \   00006D   E5..         MOV     A,?V0
   \   00006F   48           ORL     A,R0
   \   000070   F5..         MOV     ?V0,A
   \   000072   8C82         MOV     DPL,R4
   \   000074   8D83         MOV     DPH,R5
   \   000076   12....       LCALL   ??Subroutine226_0 & 0xFFFF
   \                     ??CrossCallReturnLabel_576:
   \   000079   2403         ADD     A,#0x3
   \   00007B   E4           CLR     A
   \   00007C   3B           ADDC    A,R3
   \   00007D   0E           INC     R6
   \   00007E   FF           MOV     R7,A
   \   00007F   E5..         MOV     A,?V0
   \   000081   F5..         MOV     ?V2,A
   \   000083   E9           MOV     A,R1
   \   000084   540F         ANL     A,#0xf
   \   000086   F5..         MOV     ?V3,A
   \   000088   8E82         MOV     DPL,R6
   \   00008A   8F83         MOV     DPH,R7
   \   00008C   E0           MOVX    A,@DPTR
   \   00008D   C4           SWAP    A
   \   00008E   540F         ANL     A,#0xf
   \   000090   F5..         MOV     ?V0,A
   \   000092   740C         MOV     A,#0xc
   \   000094   78..         MOV     R0,#?V0
   \   000096   12....       LCALL   ?S_SHL
   \   000099   E5..         MOV     A,?V3
   \   00009B   45..         ORL     A,?V1
   \   00009D   F9           MOV     R1,A
   \   00009E   8C82         MOV     DPL,R4
   \   0000A0   8D83         MOV     DPH,R5
   \   0000A2   E5..         MOV     A,?V2
   \   0000A4   12....       LCALL   ?Subroutine21 & 0xFFFF
   \                     ??CrossCallReturnLabel_18:
   \   0000A7   EA           MOV     A,R2
   \   0000A8   2404         ADD     A,#0x4
   \   0000AA   8C82         MOV     DPL,R4
   \   0000AC   8D83         MOV     DPH,R5
   \   0000AE   A3           INC     DPTR
   \   0000AF   E0           MOVX    A,@DPTR
   \   0000B0   54F0         ANL     A,#0xf0
   \   0000B2   F0           MOVX    @DPTR,A
   \   0000B3   E8           MOV     A,R0
   \   0000B4   F9           MOV     R1,A
   \   0000B5   8C82         MOV     DPL,R4
   \   0000B7   8D83         MOV     DPH,R5
   \   0000B9   A3           INC     DPTR
   \   0000BA   E0           MOVX    A,@DPTR
   \   0000BB   49           ORL     A,R1
   \   0000BC   F0           MOVX    @DPTR,A
   3108          }
   \                     ??ZDO_ParsePowerDescRsp_0:
   \   0000BD   02....       LJMP    ?Subroutine1 & 0xFFFF

   \                                 In  segment BANKED_CODE, align 1, keep-with-next
   \                     ?Subroutine21:
   \   000000   F0           MOVX    @DPTR,A
   \   000001   A3           INC     DPTR
   \   000002   E9           MOV     A,R1
   \   000003   12....       LCALL   ?Subroutine147 & 0xFFFF
   \                     ??CrossCallReturnLabel_547:
   \   000006   E0           MOVX    A,@DPTR
   \   000007   540F         ANL     A,#0xf
   \   000009   F8           MOV     R0,A
   \   00000A   22           RET
   3109          
   3110          /*********************************************************************
   3111           * @fn          ZDO_ParseSimpleDescRsp
   3112           *
   3113           * @brief       This function parse the Simple_Desc_rsp message.
   3114           *
   3115           *   NOTE: The pAppInClusterList and pAppOutClusterList fields
   3116           *         in the SimpleDescriptionFormat_t structure are allocated
   3117           *         and the calling function needs to free [osal_msg_free()]
   3118           *         these buffers.
   3119           *
   3120           * @param       inMsg  - incoming message
   3121           * @param       pSimpleDescRsp - place to parse the message into
   3122           *
   3123           * @return      none
   3124           */

   \                                 In  segment BANKED_CODE, align 1, keep-with-next
   3125          void ZDO_ParseSimpleDescRsp( zdoIncomingMsg_t *inMsg, ZDO_SimpleDescRsp_t *pSimpleDescRsp )
   \                     ZDO_ParseSimpleDescRsp:
   3126          {
   \   000000   74F7         MOV     A,#-0x9
   \   000002   12....       LCALL   ?BANKED_ENTER_XDATA
   \   000005                ; Saved register size: 9
   \   000005                ; Auto size: 0
   3127            uint8 *msg;
   3128          
   3129            msg = inMsg->asdu;
   \   000005   12....       LCALL   ?Subroutine10 & 0xFFFF
   3130            pSimpleDescRsp->status = *msg++;
   3131            pSimpleDescRsp->nwkAddr = BUILD_UINT16( msg[0], msg[1] );
   3132            msg += sizeof ( uint16 );
   3133            msg++; // Skip past the length field.
   3134          
   3135            if ( pSimpleDescRsp->status == ZDP_SUCCESS )
   \                     ??CrossCallReturnLabel_1:
   \   000008   7011         JNZ     ??ZDO_ParseSimpleDescRsp_0
   3136            {
   3137              ZDO_ParseSimpleDescBuf( msg, &(pSimpleDescRsp->simpleDesc) );
   \   00000A                ; Setup parameters for call to function ZDO_ParseSimpleDescBuf
   \   00000A   EC           MOV     A,R4
   \   00000B   2403         ADD     A,#0x3
   \   00000D   FC           MOV     R4,A
   \   00000E   5001         JNC     ??ZDO_ParseSimpleDescRsp_1
   \   000010   0D           INC     R5
   \                     ??ZDO_ParseSimpleDescRsp_1:
   \   000011   E8           MOV     A,R0
   \   000012   2403         ADD     A,#0x3
   \   000014   FA           MOV     R2,A
   \   000015   E4           CLR     A
   \   000016   39           ADDC    A,R1
   \   000017   FB           MOV     R3,A
   \   000018   12....       LCALL   `??ZDO_ParseSimpleDescBuf::?relay`; Banked call to: ZDO_ParseSimpleDescBuf
   3138            }
   3139          }
   \                     ??ZDO_ParseSimpleDescRsp_0:
   \   00001B   02....       LJMP    ?Subroutine3 & 0xFFFF
   3140          
   3141          /*********************************************************************
   3142           * @fn          ZDO_ParseEPListRsp
   3143           *
   3144           * @brief       This parse the Active_EP_rsp or Match_Desc_rsp message.
   3145           *
   3146           * @param       inMsg  - incoming message
   3147           *
   3148           * @return      none
   3149           */

   \                                 In  segment BANKED_CODE, align 1, keep-with-next
   3150          ZDO_ActiveEndpointRsp_t *ZDO_ParseEPListRsp( zdoIncomingMsg_t *inMsg )
   \                     ZDO_ParseEPListRsp:
   3151          {
   \   000000                REQUIRE ?V0
   \   000000                REQUIRE ?V1
   \   000000                REQUIRE ?V2
   \   000000                REQUIRE ?V3
   \   000000                REQUIRE ?V4
   \   000000                REQUIRE ?V5
   \   000000                REQUIRE ?V6
   \   000000                REQUIRE ?V7
   \   000000   74F0         MOV     A,#-0x10
   \   000002   12....       LCALL   ?BANKED_ENTER_XDATA
   \   000005                ; Saved register size: 16
   \   000005                ; Auto size: 0
   3152            ZDO_ActiveEndpointRsp_t *pRsp;
   3153            uint8 *msg;
   3154            uint8 Status;
   3155            uint8 cnt;
   3156          
   3157            msg = inMsg->asdu;
   \   000005   12....       LCALL   ?Subroutine82 & 0xFFFF
   3158            Status = *msg++;
   \                     ??CrossCallReturnLabel_119:
   \   000008   F5..         MOV     ?V5,A
   \   00000A   A3           INC     DPTR
   \   00000B   8582..       MOV     ?V2,DPL
   \   00000E   8583..       MOV     ?V3,DPH
   3159            cnt = msg[2];
   \   000011   A3           INC     DPTR
   \   000012   A3           INC     DPTR
   \   000013   E0           MOVX    A,@DPTR
   \   000014   F5..         MOV     ?V4,A
   3160          
   3161            pRsp = (ZDO_ActiveEndpointRsp_t *)osal_mem_alloc( sizeof(  ZDO_ActiveEndpointRsp_t ) + cnt );
   \   000016   F5..         MOV     ?V0,A
   \   000018                ; Setup parameters for call to function osal_mem_alloc
   \   000018   12....       LCALL   ??Subroutine220_0 & 0xFFFF
   \                     ??CrossCallReturnLabel_550:
   \   00001B   3400         ADDC    A,#0x0
   \   00001D   FB           MOV     R3,A
   \   00001E   12....       LCALL   `??osal_mem_alloc::?relay`; Banked call to: osal_mem_alloc
   \   000021   8A..         MOV     ?V6,R2
   \   000023   8B..         MOV     ?V7,R3
   \   000025   AE..         MOV     R6,?V6
   \   000027   AF..         MOV     R7,?V7
   3162            if ( pRsp )
   \   000029   EE           MOV     A,R6
   \   00002A   4F           ORL     A,R7
   \   00002B   603F         JZ      ??ZDO_ParseEPListRsp_0
   3163            {
   3164              pRsp->status = Status;
   \   00002D   8E82         MOV     DPL,R6
   \   00002F   8F83         MOV     DPH,R7
   \   000031   E5..         MOV     A,?V5
   \   000033   F0           MOVX    @DPTR,A
   3165              pRsp->nwkAddr = BUILD_UINT16( msg[0], msg[1] );
   \   000034   85..82       MOV     DPL,?V2
   \   000037   85..83       MOV     DPH,?V3
   \   00003A   12....       LCALL   ?Subroutine89 & 0xFFFF
   3166              msg += sizeof( uint16 );
   3167              pRsp->cnt = cnt;
   3168              msg++; // pass cnt
   3169              osal_memcpy( pRsp->epList, msg, cnt );
   3170            }
   \                     ??CrossCallReturnLabel_129:
   \   00003D   8E82         MOV     DPL,R6
   \   00003F   8F83         MOV     DPH,R7
   \   000041   A3           INC     DPTR
   \   000042   12....       LCALL   ?Subroutine26 & 0xFFFF
   \                     ??CrossCallReturnLabel_26:
   \   000045   E5..         MOV     A,?V4
   \   000047   12....       LCALL   ?Subroutine38 & 0xFFFF
   \                     ??CrossCallReturnLabel_52:
   \   00004A   A3           INC     DPTR
   \   00004B   A3           INC     DPTR
   \   00004C   A982         MOV     R1,DPL
   \   00004E   AA83         MOV     R2,DPH
   \   000050   89..         MOV     ?V4,R1
   \   000052   8A..         MOV     ?V5,R2
   \   000054   88..         MOV     ?V6,R0
   \   000056   78..         MOV     R0,#?V4
   \   000058   12....       LCALL   ?PUSH_XSTACK_I_THREE
   \   00005B   AC..         MOV     R4,?V0
   \   00005D   7D00         MOV     R5,#0x0
   \   00005F   12....       LCALL   ?Subroutine168 & 0xFFFF
   \                     ??CrossCallReturnLabel_554:
   \   000062   3F           ADDC    A,R7
   \   000063   FB           MOV     R3,A
   \   000064   12....       LCALL   `??osal_memcpy::?relay`; Banked call to: osal_memcpy
   \   000067   7403         MOV     A,#0x3
   \   000069   12....       LCALL   ?DEALLOC_XSTACK8
   3171          
   3172            return ( pRsp );
   \                     ??ZDO_ParseEPListRsp_0:
   \   00006C   EE           MOV     A,R6
   \   00006D   FA           MOV     R2,A
   \   00006E   EF           MOV     A,R7
   \   00006F   FB           MOV     R3,A
   \   000070   02....       LJMP    ??Subroutine191_0 & 0xFFFF
   3173          }

   \                                 In  segment BANKED_CODE, align 1, keep-with-next
   \                     ?Subroutine168:
   \   000000   EE           MOV     A,R6
   \   000001                REQUIRE ??Subroutine220_0
   \   000001                ; // Fall through to label ??Subroutine220_0

   \                                 In  segment BANKED_CODE, align 1, keep-with-next
   \                     ??Subroutine220_0:
   \   000000   2404         ADD     A,#0x4
   \   000002   FA           MOV     R2,A
   \   000003   E4           CLR     A
   \   000004   22           RET

   \                                 In  segment BANKED_CODE, align 1, keep-with-next
   \                     ?Subroutine82:
   \   000000   12....       LCALL   ?Subroutine166 & 0xFFFF
   \                     ??CrossCallReturnLabel_283:
   \   000003   E0           MOVX    A,@DPTR
   \   000004   F5..         MOV     ?V2,A
   \   000006   A3           INC     DPTR
   \   000007   E0           MOVX    A,@DPTR
   \   000008   85..82       MOV     DPL,?V2
   \   00000B   F583         MOV     DPH,A
   \   00000D   E0           MOVX    A,@DPTR
   \   00000E   22           RET

   \                                 In  segment BANKED_CODE, align 1, keep-with-next
   \                     ?Subroutine89:
   \   000000   E0           MOVX    A,@DPTR
   \   000001   12....       LCALL   ?Subroutine161 & 0xFFFF
   \                     ??CrossCallReturnLabel_595:
   \   000004   22           RET
   3174          
   3175          /*********************************************************************
   3176           * @fn          ZDO_ParseServerDiscRsp
   3177           *
   3178           * @brief       Parse the Server_Discovery_rsp message.
   3179           *
   3180           * @param       inMsg - incoming message.
   3181           * @param       pRsp - place to put the parsed information.
   3182           *
   3183           * @return      none
   3184           */

   \                                 In  segment BANKED_CODE, align 1, keep-with-next
   3185          void ZDO_ParseServerDiscRsp( zdoIncomingMsg_t *inMsg, ZDO_ServerDiscRsp_t *pRsp )
   \                     ZDO_ParseServerDiscRsp:
   3186          {
   \   000000   74F7         MOV     A,#-0x9
   \   000002   12....       LCALL   ?BANKED_ENTER_XDATA
   \   000005                ; Saved register size: 9
   \   000005                ; Auto size: 0
   3187            pRsp->status = inMsg->asdu[0];
   \   000005   EA           MOV     A,R2
   \   000006   2413         ADD     A,#0x13
   \   000008   F8           MOV     R0,A
   \   000009   E4           CLR     A
   \   00000A   3B           ADDC    A,R3
   \   00000B   F9           MOV     R1,A
   \   00000C   8882         MOV     DPL,R0
   \   00000E   8983         MOV     DPH,R1
   \   000010   E0           MOVX    A,@DPTR
   \   000011   FA           MOV     R2,A
   \   000012   A3           INC     DPTR
   \   000013   E0           MOVX    A,@DPTR
   \   000014   F583         MOV     DPH,A
   \   000016   8A82         MOV     DPL,R2
   \   000018   12....       LCALL   ??Subroutine223_0 & 0xFFFF
   \                     ??CrossCallReturnLabel_568:
   \   00001B   12....       LCALL   ?Subroutine44 & 0xFFFF
   3188            pRsp->serverMask = BUILD_UINT16( inMsg->asdu[1], inMsg->asdu[2] );
   \                     ??CrossCallReturnLabel_65:
   \   00001E   12....       LCALL   ??Subroutine193_0 & 0xFFFF
   \                     ??CrossCallReturnLabel_373:
   \   000021   A3           INC     DPTR
   \   000022   E0           MOVX    A,@DPTR
   \   000023   FA           MOV     R2,A
   \   000024   8882         MOV     DPL,R0
   \   000026   8983         MOV     DPH,R1
   \   000028   A3           INC     DPTR
   \   000029   12....       LCALL   ??Subroutine224_0 & 0xFFFF
   \                     ??CrossCallReturnLabel_572:
   \   00002C   12....       LCALL   ??Subroutine195_0 & 0xFFFF
   3189          }
   \                     ??CrossCallReturnLabel_384:
   \   00002F   02....       LJMP    ?Subroutine3 & 0xFFFF

   \                                 In  segment BANKED_CODE, align 1, keep-with-next
   \                     ??Subroutine224_0:
   \   000000   A3           INC     DPTR
   \   000001   E0           MOVX    A,@DPTR
   \   000002   F9           MOV     R1,A
   \   000003   EA           MOV     A,R2
   \   000004   8C82         MOV     DPL,R4
   \   000006   8D83         MOV     DPH,R5
   \   000008   A3           INC     DPTR
   \   000009   22           RET
   3190          
   3191          /*********************************************************************
   3192           * @fn          ZDO_ParseMgmtLqiRsp
   3193           *
   3194           * @brief       This function parses the incoming Management
   3195           *              LQI response
   3196           *
   3197           * @param       inMsg - incoming message
   3198           *
   3199           * @return      a pointer to parsed response structure (NULL if not allocated).
   3200           *          This structure was allocated using osal_mem_alloc, so it must be freed
   3201           *          by the calling function [osal_mem_free()].
   3202           */

   \                                 In  segment BANKED_CODE, align 1, keep-with-next
   \                     ?Subroutine119:
   \   000000   FC           MOV     R4,A
   \   000001   EF           MOV     A,R7
   \   000002   FD           MOV     R5,A
   \   000003   E5..         MOV     A,?V0
   \   000005                REQUIRE ??Subroutine188_0
   \   000005                ; // Fall through to label ??Subroutine188_0

   \                                 In  segment BANKED_CODE, align 1, keep-with-next
   \                     ?Subroutine4:
   \   000000   AA..         MOV     R2,?V2
   \   000002   AB..         MOV     R3,?V3
   \   000004                REQUIRE ??Subroutine191_0
   \   000004                ; // Fall through to label ??Subroutine191_0

   \                                 In  segment BANKED_CODE, align 1, keep-with-next
   3203          ZDO_MgmtLqiRsp_t *ZDO_ParseMgmtLqiRsp( zdoIncomingMsg_t *inMsg )
   \                     ZDO_ParseMgmtLqiRsp:
   3204          {
   \   000000                REQUIRE ?V0
   \   000000                REQUIRE ?V1
   \   000000                REQUIRE ?V2
   \   000000                REQUIRE ?V3
   \   000000                REQUIRE ?V4
   \   000000                REQUIRE ?V5
   \   000000                REQUIRE ?V6
   \   000000                REQUIRE ?V7
   \   000000   74F0         MOV     A,#-0x10
   \   000002   12....       LCALL   ?BANKED_ENTER_XDATA
   \   000005                ; Saved register size: 16
   \   000005                ; Auto size: 0
   3205            ZDO_MgmtLqiRsp_t *pRsp;
   3206            uint8 status;
   3207            uint8 startIndex = 0;
   \   000005   75..00       MOV     ?V5,#0x0
   3208            uint8 neighborLqiCount = 0;
   \   000008   75..00       MOV     ?V4,#0x0
   3209            uint8 neighborLqiEntries = 0;
   \   00000B   75..00       MOV     ?V6,#0x0
   3210            uint8 *msg;
   3211          
   3212            msg = inMsg->asdu;
   \   00000E   12....       LCALL   ?Subroutine53 & 0xFFFF
   3213          
   3214            status = *msg++;
   \                     ??CrossCallReturnLabel_538:
   \   000011   F5..         MOV     ?V7,A
   \   000013   A3           INC     DPTR
   \   000014   AE82         MOV     R6,DPL
   \   000016   AF83         MOV     R7,DPH
   3215            if ( status == ZSuccess )
   \   000018   7015         JNZ     ??ZDO_ParseMgmtLqiRsp_0
   3216            {
   3217              neighborLqiEntries = *msg++;
   \   00001A   12....       LCALL   ?Subroutine90 & 0xFFFF
   3218              startIndex = *msg++;
   \                     ??CrossCallReturnLabel_131:
   \   00001D   F5..         MOV     ?V5,A
   3219              neighborLqiCount = *msg++;
   \   00001F   8E82         MOV     DPL,R6
   \   000021   8F83         MOV     DPH,R7
   \   000023   A3           INC     DPTR
   \   000024   A3           INC     DPTR
   \   000025   E0           MOVX    A,@DPTR
   \   000026   F5..         MOV     ?V4,A
   \   000028   EE           MOV     A,R6
   \   000029   2403         ADD     A,#0x3
   \   00002B   FE           MOV     R6,A
   \   00002C   5001         JNC     ??ZDO_ParseMgmtLqiRsp_0
   \   00002E   0F           INC     R7
   3220            }
   3221          
   3222            // Allocate a buffer big enough to handle the list.
   3223            pRsp = (ZDO_MgmtLqiRsp_t *)osal_mem_alloc(
   3224                      sizeof( ZDO_MgmtLqiRsp_t ) + (neighborLqiCount * sizeof( ZDP_MgmtLqiItem_t )) );
   \                     ??ZDO_ParseMgmtLqiRsp_0:
   \   00002F                ; Setup parameters for call to function osal_mem_alloc
   \   00002F   E5..         MOV     A,?V4
   \   000031   75F01A       MOV     B,#0x1a
   \   000034   12....       LCALL   ?Subroutine122 & 0xFFFF
   \                     ??CrossCallReturnLabel_201:
   \   000037   12....       LCALL   `??osal_mem_alloc::?relay`; Banked call to: osal_mem_alloc
   \   00003A   8A..         MOV     ?V2,R2
   \   00003C   8B..         MOV     ?V3,R3
   3225            if ( pRsp )
   \   00003E   EA           MOV     A,R2
   \   00003F   45..         ORL     A,?V3
   \   000041   7003         JNZ     $+5
   \   000043   02....       LJMP    ??ZDO_ParseMgmtLqiRsp_1 & 0xFFFF
   3226            {
   3227              uint8 x;
   3228              ZDP_MgmtLqiItem_t *pList = pRsp->list;
   \   000046   12....       LCALL   ?Subroutine123 & 0xFFFF
   3229              pRsp->status = status;
   \                     ??CrossCallReturnLabel_204:
   \   000049   12....       LCALL   ?Subroutine11 & 0xFFFF
   3230              pRsp->neighborLqiEntries = neighborLqiEntries;
   3231              pRsp->startIndex = startIndex;
   3232              pRsp->neighborLqiCount = neighborLqiCount;
   3233          
   3234              for ( x = 0; x < neighborLqiCount; x++ )
   \                     ??CrossCallReturnLabel_2:
   \   00004C   02....       LJMP    ??ZDO_ParseMgmtLqiRsp_2 & 0xFFFF
   3235              {
   3236                uint8 tmp;
   3237          
   3238                pList->panID = 0; // This isn't in the record, why is it in the structure?
   \                     ??ZDO_ParseMgmtLqiRsp_3:
   \   00004F   85..82       MOV     DPL,?V0
   \   000052   85..83       MOV     DPH,?V1
   \   000055   E4           CLR     A
   \   000056   F0           MOVX    @DPTR,A
   \   000057   A3           INC     DPTR
   \   000058   F0           MOVX    @DPTR,A
   3239                osal_cpyExtAddr(pList->extPanID, msg);   //Copy extended PAN ID
   \   000059                ; Setup parameters for call to function sAddrExtCpy
   \   000059   EE           MOV     A,R6
   \   00005A   12....       LCALL   ?Subroutine119 & 0xFFFF
   \                     ??CrossCallReturnLabel_362:
   \   00005D   35..         ADDC    A,?V1
   \   00005F   FB           MOV     R3,A
   \   000060   12....       LCALL   `??sAddrExtCpy::?relay`; Banked call to: sAddrExtCpy
   3240                msg += Z_EXTADDR_LEN;
   \   000063   EE           MOV     A,R6
   \   000064   2408         ADD     A,#0x8
   \   000066   FE           MOV     R6,A
   \   000067   5001         JNC     ??ZDO_ParseMgmtLqiRsp_4
   \   000069   0F           INC     R7
   3241          
   3242                osal_cpyExtAddr(pList->extAddr, msg);   //Copy extended address
   \                     ??ZDO_ParseMgmtLqiRsp_4:
   \   00006A                ; Setup parameters for call to function sAddrExtCpy
   \   00006A   FC           MOV     R4,A
   \   00006B   EF           MOV     A,R7
   \   00006C   FD           MOV     R5,A
   \   00006D   E5..         MOV     A,?V0
   \   00006F   12....       LCALL   ??Subroutine229_0 & 0xFFFF
   \                     ??CrossCallReturnLabel_589:
   \   000072   35..         ADDC    A,?V1
   \   000074   FB           MOV     R3,A
   \   000075   12....       LCALL   `??sAddrExtCpy::?relay`; Banked call to: sAddrExtCpy
   3243                msg += Z_EXTADDR_LEN;
   \   000078   EE           MOV     A,R6
   \   000079   2408         ADD     A,#0x8
   \   00007B   FE           MOV     R6,A
   \   00007C   5001         JNC     ??ZDO_ParseMgmtLqiRsp_5
   \   00007E   0F           INC     R7
   3244          
   3245                pList->nwkAddr = BUILD_UINT16( msg[0], msg[1] );
   \                     ??ZDO_ParseMgmtLqiRsp_5:
   \   00007F   12....       LCALL   ?Subroutine75 & 0xFFFF
   \                     ??CrossCallReturnLabel_533:
   \   000082   F8           MOV     R0,A
   \   000083   E5..         MOV     A,?V0
   \   000085   2412         ADD     A,#0x12
   \   000087   12....       LCALL   ?Subroutine133 & 0xFFFF
   \                     ??CrossCallReturnLabel_338:
   \   00008A   E8           MOV     A,R0
   \   00008B   12....       LCALL   ?Subroutine18 & 0xFFFF
   3246                msg += 2;
   3247          
   3248                tmp = *msg++;
   \                     ??CrossCallReturnLabel_543:
   \   00008E   F8           MOV     R0,A
   3249                pList->devType = tmp & 0x03;
   \   00008F   7403         MOV     A,#0x3
   \   000091   58           ANL     A,R0
   \   000092   C0E0         PUSH    A
   \   000094   E5..         MOV     A,?V0
   \   000096   2414         ADD     A,#0x14
   \   000098   12....       LCALL   ?Subroutine133 & 0xFFFF
   \                     ??CrossCallReturnLabel_339:
   \   00009B   D0E0         POP     A
   \   00009D   F0           MOVX    @DPTR,A
   3250                pList->rxOnIdle = (tmp >> 2) & 0x03;
   \   00009E   E8           MOV     A,R0
   \   00009F   13           RRC     A
   \   0000A0   13           RRC     A
   \   0000A1   543F         ANL     A,#0x3f
   \   0000A3   5403         ANL     A,#0x3
   \   0000A5   C0E0         PUSH    A
   \   0000A7   E5..         MOV     A,?V0
   \   0000A9   2415         ADD     A,#0x15
   \   0000AB   12....       LCALL   ?Subroutine133 & 0xFFFF
   \                     ??CrossCallReturnLabel_340:
   \   0000AE   D0E0         POP     A
   \   0000B0   F0           MOVX    @DPTR,A
   3251                pList->relation = (tmp >> 4) & 0x07;
   \   0000B1   E8           MOV     A,R0
   \   0000B2   C4           SWAP    A
   \   0000B3   540F         ANL     A,#0xf
   \   0000B5   5407         ANL     A,#0x7
   \   0000B7   C0E0         PUSH    A
   \   0000B9   E5..         MOV     A,?V0
   \   0000BB   2416         ADD     A,#0x16
   \   0000BD   12....       LCALL   ?Subroutine133 & 0xFFFF
   \                     ??CrossCallReturnLabel_341:
   \   0000C0   D0E0         POP     A
   \   0000C2   12....       LCALL   ?Subroutine15 & 0xFFFF
   3252          
   3253                pList->permit = (*msg++) & 0x03;
   \                     ??CrossCallReturnLabel_11:
   \   0000C5   5403         ANL     A,#0x3
   \   0000C7   C0E0         PUSH    A
   \   0000C9   E5..         MOV     A,?V0
   \   0000CB   2417         ADD     A,#0x17
   \   0000CD   12....       LCALL   ?Subroutine133 & 0xFFFF
   \                     ??CrossCallReturnLabel_342:
   \   0000D0   D0E0         POP     A
   \   0000D2   12....       LCALL   ?Subroutine41 & 0xFFFF
   3254          
   3255                pList->depth = *msg++;
   \                     ??CrossCallReturnLabel_56:
   \   0000D5   E0           MOVX    A,@DPTR
   \   0000D6   C0E0         PUSH    A
   \   0000D8   E5..         MOV     A,?V0
   \   0000DA   2418         ADD     A,#0x18
   \   0000DC   12....       LCALL   ?Subroutine133 & 0xFFFF
   \                     ??CrossCallReturnLabel_343:
   \   0000DF   D0E0         POP     A
   \   0000E1   12....       LCALL   ?Subroutine28 & 0xFFFF
   3256          
   3257                pList->lqi = *msg++;
   \                     ??CrossCallReturnLabel_28:
   \   0000E4   C0E0         PUSH    A
   \   0000E6   E5..         MOV     A,?V0
   \   0000E8   2419         ADD     A,#0x19
   \   0000EA   12....       LCALL   ?Subroutine133 & 0xFFFF
   \                     ??CrossCallReturnLabel_344:
   \   0000ED   D0E0         POP     A
   \   0000EF   F0           MOVX    @DPTR,A
   \   0000F0   EE           MOV     A,R6
   \   0000F1   2406         ADD     A,#0x6
   \   0000F3   FE           MOV     R6,A
   \   0000F4   5001         JNC     ??ZDO_ParseMgmtLqiRsp_6
   \   0000F6   0F           INC     R7
   3258                pList++;
   \                     ??ZDO_ParseMgmtLqiRsp_6:
   \   0000F7   E5..         MOV     A,?V0
   \   0000F9   241A         ADD     A,#0x1a
   \   0000FB   F5..         MOV     ?V0,A
   \   0000FD   5002         JNC     ??ZDO_ParseMgmtLqiRsp_7
   \   0000FF   05..         INC     ?V1
   3259              }
   \                     ??ZDO_ParseMgmtLqiRsp_7:
   \   000101   05..         INC     ?V5
   \                     ??ZDO_ParseMgmtLqiRsp_2:
   \   000103   E5..         MOV     A,?V5
   \   000105   C3           CLR     C
   \   000106   95..         SUBB    A,?V4
   \   000108   5003         JNC     $+5
   \   00010A   02....       LJMP    ??ZDO_ParseMgmtLqiRsp_3 & 0xFFFF
   3260            }
   3261          
   3262            return ( pRsp );
   \                     ??ZDO_ParseMgmtLqiRsp_1:
   \   00010D   02....       LJMP    ?Subroutine4 & 0xFFFF
   3263          }

   \                                 In  segment BANKED_CODE, align 1, keep-with-next
   \                     ?Subroutine53:
   \   000000   12....       LCALL   ?Subroutine167 & 0xFFFF
   \                     ??CrossCallReturnLabel_286:
   \   000003                REQUIRE ??Subroutine217_0
   \   000003                ; // Fall through to label ??Subroutine217_0

   \                                 In  segment BANKED_CODE, align 1, keep-with-next
   \                     ?Subroutine18:
   \   000000   F0           MOVX    @DPTR,A
   \   000001   A3           INC     DPTR
   \   000002   E9           MOV     A,R1
   \   000003                REQUIRE ??Subroutine219_0
   \   000003                ; // Fall through to label ??Subroutine219_0

   \                                 In  segment BANKED_CODE, align 1, keep-with-next
   \                     ??Subroutine219_0:
   \   000000   12....       LCALL   ?Subroutine147 & 0xFFFF
   \                     ??CrossCallReturnLabel_548:
   \   000003   A3           INC     DPTR
   \   000004   A3           INC     DPTR
   \   000005   E0           MOVX    A,@DPTR
   \   000006   22           RET

   \                                 In  segment BANKED_CODE, align 1, keep-with-next
   \                     ?Subroutine123:
   \   000000   EA           MOV     A,R2
   \   000001   2404         ADD     A,#0x4
   \   000003   F5..         MOV     ?V0,A
   \   000005   E4           CLR     A
   \   000006   35..         ADDC    A,?V3
   \   000008   F5..         MOV     ?V1,A
   \   00000A   22           RET

   \                                 In  segment BANKED_CODE, align 1, keep-with-next
   \                     ?Subroutine122:
   \   000000   A4           MUL     AB
   \   000001   A9F0         MOV     R1,B
   \   000003   12....       LCALL   ??Subroutine220_0 & 0xFFFF
   \                     ??CrossCallReturnLabel_553:
   \   000006   39           ADDC    A,R1
   \   000007   FB           MOV     R3,A
   \   000008   22           RET

   \                                 In  segment BANKED_CODE, align 1, keep-with-next
   \                     ?Subroutine141:
   \   000000   12....       LCALL   ?Subroutine170 & 0xFFFF
   \                     ??CrossCallReturnLabel_292:
   \   000003   A3           INC     DPTR
   \   000004   A3           INC     DPTR
   \   000005   A3           INC     DPTR
   \   000006   22           RET

   \                                 In  segment BANKED_CODE, align 1, keep-with-next
   \                     ?Subroutine11:
   \   000000   8A82         MOV     DPL,R2
   \   000002   8B83         MOV     DPH,R3
   \   000004   E5..         MOV     A,?V7
   \   000006   F0           MOVX    @DPTR,A
   \   000007   A3           INC     DPTR
   \   000008   E5..         MOV     A,?V6
   \   00000A   12....       LCALL   ?Subroutine146 & 0xFFFF
   \                     ??CrossCallReturnLabel_256:
   \   00000D   A3           INC     DPTR
   \   00000E   E5..         MOV     A,?V5
   \   000010   12....       LCALL   ?Subroutine141 & 0xFFFF
   \                     ??CrossCallReturnLabel_246:
   \   000013   E5..         MOV     A,?V4
   \   000015   F0           MOVX    @DPTR,A
   \   000016   75..00       MOV     ?V5,#0x0
   \   000019   22           RET
   3264          
   3265          /*********************************************************************
   3266           * @fn          ZDO_ParseMgmNwkDiscRsp
   3267           *
   3268           * @brief       This function parses the incoming Management
   3269           *              Network Discover response.
   3270           *
   3271           * @param       inMsg - incoming message
   3272           *
   3273           * @return      pointer to parsed response.  This structure was
   3274           *          allocated using osal_mem_alloc, so it must be freed
   3275           *          by the calling function [osal_mem_free()].
   3276           */

   \                                 In  segment BANKED_CODE, align 1, keep-with-next
   3277          ZDO_MgmNwkDiscRsp_t *ZDO_ParseMgmNwkDiscRsp( zdoIncomingMsg_t *inMsg )
   \                     ZDO_ParseMgmNwkDiscRsp:
   3278          {
   \   000000                REQUIRE ?V0
   \   000000                REQUIRE ?V1
   \   000000                REQUIRE ?V2
   \   000000                REQUIRE ?V3
   \   000000                REQUIRE ?V4
   \   000000                REQUIRE ?V5
   \   000000                REQUIRE ?V6
   \   000000                REQUIRE ?V7
   \   000000   74F0         MOV     A,#-0x10
   \   000002   12....       LCALL   ?BANKED_ENTER_XDATA
   \   000005                ; Saved register size: 16
   \   000005                ; Auto size: 0
   3279            ZDO_MgmNwkDiscRsp_t *pRsp;
   3280            uint8 status;
   3281            uint8 networkCount = 0;
   \   000005   75..00       MOV     ?V1,#0x0
   3282            uint8 startIndex = 0;
   \   000008   75..00       MOV     ?V0,#0x0
   3283            uint8 networkListCount = 0;
   \   00000B   75..00       MOV     ?V4,#0x0
   3284            uint8 *msg;
   3285          
   3286            msg = inMsg->asdu;
   \   00000E   12....       LCALL   ?Subroutine53 & 0xFFFF
   3287            status = *msg++;
   \                     ??CrossCallReturnLabel_539:
   \   000011   F5..         MOV     ?V5,A
   \   000013   A3           INC     DPTR
   \   000014   AE82         MOV     R6,DPL
   \   000016   AF83         MOV     R7,DPH
   3288          
   3289            if ( status == ZSuccess )
   \   000018   7017         JNZ     ??ZDO_ParseMgmNwkDiscRsp_0
   3290            {
   3291              networkCount = *msg++;
   \   00001A   E0           MOVX    A,@DPTR
   \   00001B   F5..         MOV     ?V1,A
   3292              startIndex = *msg++;
   \   00001D   A3           INC     DPTR
   \   00001E   E0           MOVX    A,@DPTR
   \   00001F   F5..         MOV     ?V0,A
   3293              networkListCount = *msg++;
   \   000021   8E82         MOV     DPL,R6
   \   000023   8F83         MOV     DPH,R7
   \   000025   A3           INC     DPTR
   \   000026   A3           INC     DPTR
   \   000027   E0           MOVX    A,@DPTR
   \   000028   F5..         MOV     ?V4,A
   \   00002A   EE           MOV     A,R6
   \   00002B   2403         ADD     A,#0x3
   \   00002D   FE           MOV     R6,A
   \   00002E   5001         JNC     ??ZDO_ParseMgmNwkDiscRsp_0
   \   000030   0F           INC     R7
   3294            }
   3295          
   3296            // Allocate a buffer big enough to handle the list.
   3297            pRsp = (ZDO_MgmNwkDiscRsp_t *)osal_mem_alloc( sizeof( ZDO_MgmNwkDiscRsp_t )
   3298                                            + (networkListCount * sizeof( mgmtNwkDiscItem_t )) );
   \                     ??ZDO_ParseMgmNwkDiscRsp_0:
   \   000031                ; Setup parameters for call to function osal_mem_alloc
   \   000031   85....       MOV     ?V2,?V4
   \   000034   75..00       MOV     ?V3,#0x0
   \   000037   7404         MOV     A,#0x4
   \   000039   78..         MOV     R0,#?V2
   \   00003B   12....       LCALL   ?S_SHL
   \   00003E   E5..         MOV     A,?V2
   \   000040   12....       LCALL   ??Subroutine220_0 & 0xFFFF
   \                     ??CrossCallReturnLabel_551:
   \   000043   35..         ADDC    A,?V3
   \   000045   FB           MOV     R3,A
   \   000046   12....       LCALL   `??osal_mem_alloc::?relay`; Banked call to: osal_mem_alloc
   \   000049   8A..         MOV     ?V2,R2
   \   00004B   8B..         MOV     ?V3,R3
   3299            if ( pRsp )
   \   00004D   EA           MOV     A,R2
   \   00004E   45..         ORL     A,?V3
   \   000050   7003         JNZ     $+5
   \   000052   02....       LJMP    ??ZDO_ParseMgmNwkDiscRsp_1 & 0xFFFF
   3300            {
   3301              uint8 x;
   3302              mgmtNwkDiscItem_t *pList;
   3303          
   3304              pRsp->status = status;
   \   000055   8A82         MOV     DPL,R2
   \   000057   8B83         MOV     DPH,R3
   \   000059   E5..         MOV     A,?V5
   \   00005B   F0           MOVX    @DPTR,A
   3305              pRsp->networkCount = networkCount;
   \   00005C   A3           INC     DPTR
   \   00005D   E5..         MOV     A,?V1
   \   00005F   12....       LCALL   ?Subroutine48 & 0xFFFF
   3306              pRsp->startIndex = startIndex;
   \                     ??CrossCallReturnLabel_71:
   \   000062   E5..         MOV     A,?V0
   \   000064   12....       LCALL   ?Subroutine47 & 0xFFFF
   3307              pRsp->networkListCount = networkListCount;
   \                     ??CrossCallReturnLabel_68:
   \   000067   E5..         MOV     A,?V4
   \   000069   F0           MOVX    @DPTR,A
   3308              pList = pRsp->list;
   \   00006A   12....       LCALL   ?Subroutine123 & 0xFFFF
   3309          
   3310              for ( x = 0; x < networkListCount; x++ )
   \                     ??CrossCallReturnLabel_205:
   \   00006D   75..00       MOV     ?V5,#0x0
   \   000070   02....       LJMP    ??ZDO_ParseMgmNwkDiscRsp_2 & 0xFFFF
   3311              {
   3312                osal_cpyExtAddr(pList->extendedPANID, msg);   //Copy extended PAN ID
   \                     ??ZDO_ParseMgmNwkDiscRsp_3:
   \   000073                ; Setup parameters for call to function sAddrExtCpy
   \   000073   EE           MOV     A,R6
   \   000074   FC           MOV     R4,A
   \   000075   EF           MOV     A,R7
   \   000076   FD           MOV     R5,A
   \   000077   AA..         MOV     R2,?V0
   \   000079   AB..         MOV     R3,?V1
   \   00007B   12....       LCALL   `??sAddrExtCpy::?relay`; Banked call to: sAddrExtCpy
   3313                pList->PANId = BUILD_UINT16( msg[0], msg[1] );
   \   00007E   12....       LCALL   ?Subroutine64 & 0xFFFF
   \                     ??CrossCallReturnLabel_94:
   \   000081   A3           INC     DPTR
   \   000082   F0           MOVX    @DPTR,A
   \   000083   A3           INC     DPTR
   \   000084   E9           MOV     A,R1
   \   000085   12....       LCALL   ?Subroutine17 & 0xFFFF
   3314                msg += Z_EXTADDR_LEN;
   3315          
   3316                pList->logicalChannel = *msg++;
   \                     ??CrossCallReturnLabel_14:
   \   000088   85..82       MOV     DPL,?V0
   \   00008B   85..83       MOV     DPH,?V1
   \   00008E   A3           INC     DPTR
   \   00008F   A3           INC     DPTR
   \   000090   A3           INC     DPTR
   \   000091   A3           INC     DPTR
   \   000092   A3           INC     DPTR
   \   000093   A3           INC     DPTR
   \   000094   A3           INC     DPTR
   \   000095   A3           INC     DPTR
   \   000096   A3           INC     DPTR
   \   000097   A3           INC     DPTR
   \   000098   F0           MOVX    @DPTR,A
   3317                pList->stackProfile = (*msg) & 0x0F;
   \   000099   EE           MOV     A,R6
   \   00009A   2409         ADD     A,#0x9
   \   00009C   F8           MOV     R0,A
   \   00009D   12....       LCALL   ?Subroutine116 & 0xFFFF
   \                     ??CrossCallReturnLabel_187:
   \   0000A0   C0E0         PUSH    A
   \   0000A2   E5..         MOV     A,?V0
   \   0000A4   240B         ADD     A,#0xb
   \   0000A6   12....       LCALL   ?Subroutine133 & 0xFFFF
   \                     ??CrossCallReturnLabel_345:
   \   0000A9   D0E0         POP     A
   \   0000AB   12....       LCALL   ?Subroutine43 & 0xFFFF
   3318                pList->version = (*msg++ >> 4) & 0x0F;
   \                     ??CrossCallReturnLabel_60:
   \   0000AE   C0E0         PUSH    A
   \   0000B0   12....       LCALL   ?Subroutine130 & 0xFFFF
   \                     ??CrossCallReturnLabel_230:
   \   0000B3   D0E0         POP     A
   \   0000B5   F0           MOVX    @DPTR,A
   3319                pList->beaconOrder = (*msg) & 0x0F;
   \   0000B6   EE           MOV     A,R6
   \   0000B7   240A         ADD     A,#0xa
   \   0000B9   08           INC     R0
   \   0000BA   12....       LCALL   ?Subroutine116 & 0xFFFF
   \                     ??CrossCallReturnLabel_188:
   \   0000BD   C0E0         PUSH    A
   \   0000BF   E5..         MOV     A,?V0
   \   0000C1   240D         ADD     A,#0xd
   \   0000C3   12....       LCALL   ?Subroutine133 & 0xFFFF
   \                     ??CrossCallReturnLabel_346:
   \   0000C6   D0E0         POP     A
   \   0000C8   12....       LCALL   ?Subroutine43 & 0xFFFF
   3320                pList->superFrameOrder = (*msg++ >> 4) & 0x0F;
   \                     ??CrossCallReturnLabel_61:
   \   0000CB   C0E0         PUSH    A
   \   0000CD   E5..         MOV     A,?V0
   \   0000CF   12....       LCALL   ?Subroutine114 & 0xFFFF
   \                     ??CrossCallReturnLabel_184:
   \   0000D2   12....       LCALL   ??Subroutine186_0 & 0xFFFF
   \                     ??CrossCallReturnLabel_336:
   \   0000D5   D0E0         POP     A
   \   0000D7   F0           MOVX    @DPTR,A
   3321                pList->permitJoining = *msg++;
   \   0000D8   EE           MOV     A,R6
   \   0000D9   240B         ADD     A,#0xb
   \   0000DB   12....       LCALL   ??Subroutine194_0 & 0xFFFF
   \                     ??CrossCallReturnLabel_379:
   \   0000DE   C0E0         PUSH    A
   \   0000E0   12....       LCALL   ?Subroutine120 & 0xFFFF
   \                     ??CrossCallReturnLabel_194:
   \   0000E3   D0E0         POP     A
   \   0000E5   F0           MOVX    @DPTR,A
   \   0000E6   EE           MOV     A,R6
   \   0000E7   240C         ADD     A,#0xc
   \   0000E9   FE           MOV     R6,A
   \   0000EA   5001         JNC     ??ZDO_ParseMgmNwkDiscRsp_4
   \   0000EC   0F           INC     R7
   3322                pList++;
   \                     ??ZDO_ParseMgmNwkDiscRsp_4:
   \   0000ED   E5..         MOV     A,?V0
   \   0000EF   2410         ADD     A,#0x10
   \   0000F1   F5..         MOV     ?V0,A
   \   0000F3   5002         JNC     ??ZDO_ParseMgmNwkDiscRsp_5
   \   0000F5   05..         INC     ?V1
   3323              }
   \                     ??ZDO_ParseMgmNwkDiscRsp_5:
   \   0000F7   05..         INC     ?V5
   \                     ??ZDO_ParseMgmNwkDiscRsp_2:
   \   0000F9   E5..         MOV     A,?V5
   \   0000FB   C3           CLR     C
   \   0000FC   95..         SUBB    A,?V4
   \   0000FE   5003         JNC     $+5
   \   000100   02....       LJMP    ??ZDO_ParseMgmNwkDiscRsp_3 & 0xFFFF
   3324            }
   3325          
   3326            return ( pRsp );
   \                     ??ZDO_ParseMgmNwkDiscRsp_1:
   \   000103   02....       LJMP    ?Subroutine4 & 0xFFFF
   3327          }

   \                                 In  segment BANKED_CODE, align 1, keep-with-next
   \                     ?Subroutine116:
   \   000000   E4           CLR     A
   \   000001   3F           ADDC    A,R7
   \   000002   F9           MOV     R1,A
   \   000003   8882         MOV     DPL,R0
   \   000005   8983         MOV     DPH,R1
   \   000007   E0           MOVX    A,@DPTR
   \   000008   540F         ANL     A,#0xf
   \   00000A   22           RET

   \                                 In  segment BANKED_CODE, align 1, keep-with-next
   \                     ?Subroutine43:
   \   000000   12....       LCALL   ?Subroutine148 & 0xFFFF
   \                     ??CrossCallReturnLabel_260:
   \   000003   C4           SWAP    A
   \   000004   540F         ANL     A,#0xf
   \   000006   22           RET

   \                                 In  segment BANKED_CODE, align 1, keep-with-next
   \                     ?Subroutine47:
   \   000000   12....       LCALL   ?Subroutine141 & 0xFFFF
   \                     ??CrossCallReturnLabel_245:
   \   000003   22           RET

   \                                 In  segment BANKED_CODE, align 1, keep-with-next
   \                     ?Subroutine64:
   \   000000   8E82         MOV     DPL,R6
   \   000002   8F83         MOV     DPH,R7
   \   000004   12....       LCALL   ?Subroutine159 & 0xFFFF
   \                     ??CrossCallReturnLabel_536:
   \   000007   85..82       MOV     DPL,?V0
   \   00000A   85..83       MOV     DPH,?V1
   \   00000D   A3           INC     DPTR
   \   00000E   A3           INC     DPTR
   \   00000F   A3           INC     DPTR
   \   000010   A3           INC     DPTR
   \   000011   A3           INC     DPTR
   \   000012   A3           INC     DPTR
   \   000013   A3           INC     DPTR
   \   000014   22           RET
   3328          
   3329          /*********************************************************************
   3330           * @fn          ZDO_ParseMgmtRtgRsp
   3331           *
   3332           * @brief       This function parses the incoming Management
   3333           *              Routing response.
   3334           *
   3335           * @param       inMsg - incoming message
   3336           *
   3337           * @return      a pointer to parsed response structure (NULL if not allocated).
   3338           *          This structure was allocated using osal_mem_alloc, so it must be freed
   3339           *          by the calling function [osal_mem_free()].
   3340           */

   \                                 In  segment BANKED_CODE, align 1, keep-with-next
   3341          ZDO_MgmtRtgRsp_t *ZDO_ParseMgmtRtgRsp( zdoIncomingMsg_t *inMsg )
   \                     ZDO_ParseMgmtRtgRsp:
   3342          {
   \   000000                REQUIRE ?V0
   \   000000                REQUIRE ?V1
   \   000000                REQUIRE ?V2
   \   000000                REQUIRE ?V3
   \   000000                REQUIRE ?V4
   \   000000                REQUIRE ?V5
   \   000000   74F2         MOV     A,#-0xe
   \   000002   12....       LCALL   ?BANKED_ENTER_XDATA
   \   000005                ; Saved register size: 14
   \   000005                ; Auto size: 0
   3343            ZDO_MgmtRtgRsp_t *pRsp;
   3344            uint8 status;
   3345            uint8 rtgCount = 0;
   \   000005   75..00       MOV     ?V2,#0x0
   3346            uint8 startIndex = 0;
   \   000008   75..00       MOV     ?V1,#0x0
   3347            uint8 rtgListCount = 0;
   \   00000B   75..00       MOV     ?V0,#0x0
   3348            uint8 *msg;
   3349          
   3350            msg = inMsg->asdu;
   \   00000E   12....       LCALL   ?Subroutine53 & 0xFFFF
   3351          
   3352            status = *msg++;
   \                     ??CrossCallReturnLabel_540:
   \   000011   F5..         MOV     ?V3,A
   \   000013   A3           INC     DPTR
   \   000014   AE82         MOV     R6,DPL
   \   000016   AF83         MOV     R7,DPH
   3353            if ( status == ZSuccess )
   \   000018   7015         JNZ     ??ZDO_ParseMgmtRtgRsp_0
   3354            {
   3355              rtgCount = *msg++;
   \   00001A   12....       LCALL   ?Subroutine96 & 0xFFFF
   3356              startIndex = *msg++;
   \                     ??CrossCallReturnLabel_141:
   \   00001D   F5..         MOV     ?V1,A
   3357              rtgListCount = *msg++;
   \   00001F   8E82         MOV     DPL,R6
   \   000021   8F83         MOV     DPH,R7
   \   000023   A3           INC     DPTR
   \   000024   A3           INC     DPTR
   \   000025   E0           MOVX    A,@DPTR
   \   000026   F5..         MOV     ?V0,A
   \   000028   EE           MOV     A,R6
   \   000029   2403         ADD     A,#0x3
   \   00002B   FE           MOV     R6,A
   \   00002C   5001         JNC     ??ZDO_ParseMgmtRtgRsp_0
   \   00002E   0F           INC     R7
   3358            }
   3359          
   3360            // Allocate a buffer big enough to handle the list
   3361            pRsp = (ZDO_MgmtRtgRsp_t *)osal_mem_alloc(
   3362                    sizeof( ZDO_MgmtRtgRsp_t ) + (rtgListCount * sizeof( rtgItem_t )) );
   \                     ??ZDO_ParseMgmtRtgRsp_0:
   \   00002F                ; Setup parameters for call to function osal_mem_alloc
   \   00002F   E5..         MOV     A,?V0
   \   000031   75F007       MOV     B,#0x7
   \   000034   12....       LCALL   ?Subroutine122 & 0xFFFF
   \                     ??CrossCallReturnLabel_202:
   \   000037   12....       LCALL   `??osal_mem_alloc::?relay`; Banked call to: osal_mem_alloc
   3363            if ( pRsp )
   \   00003A   EA           MOV     A,R2
   \   00003B   4B           ORL     A,R3
   \   00003C   7003         JNZ     $+5
   \   00003E   02....       LJMP    ??ZDO_ParseMgmtRtgRsp_1 & 0xFFFF
   3364            {
   3365              uint8 x;
   3366              rtgItem_t *pList = pRsp->list;
   \   000041   EA           MOV     A,R2
   \   000042   2404         ADD     A,#0x4
   \   000044   F8           MOV     R0,A
   \   000045   E4           CLR     A
   \   000046   3B           ADDC    A,R3
   \   000047   F9           MOV     R1,A
   3367              pRsp->status = status;
   \   000048   8A82         MOV     DPL,R2
   \   00004A   8B83         MOV     DPH,R3
   \   00004C   E5..         MOV     A,?V3
   \   00004E   F0           MOVX    @DPTR,A
   3368              pRsp->rtgCount = rtgCount;
   \   00004F   A3           INC     DPTR
   \   000050   E5..         MOV     A,?V2
   \   000052   12....       LCALL   ?Subroutine48 & 0xFFFF
   3369              pRsp->startIndex = startIndex;
   \                     ??CrossCallReturnLabel_72:
   \   000055   E5..         MOV     A,?V1
   \   000057   12....       LCALL   ?Subroutine47 & 0xFFFF
   3370              pRsp->rtgListCount = rtgListCount;
   \                     ??CrossCallReturnLabel_69:
   \   00005A   E5..         MOV     A,?V0
   \   00005C   F0           MOVX    @DPTR,A
   3371          
   3372              for ( x = 0; x < rtgListCount; x++ )
   \   00005D   75..00       MOV     ?V1,#0x0
   \   000060   805D         SJMP    ??ZDO_ParseMgmtRtgRsp_2
   3373              {
   3374                uint8 statOpt;
   3375          
   3376                pList->dstAddress = BUILD_UINT16( msg[0], msg[1] );
   \                     ??ZDO_ParseMgmtRtgRsp_3:
   \   000062   8E82         MOV     DPL,R6
   \   000064   8F83         MOV     DPH,R7
   \   000066   12....       LCALL   ?Subroutine96 & 0xFFFF
   \                     ??CrossCallReturnLabel_144:
   \   000069   FD           MOV     R5,A
   \   00006A   E5..         MOV     A,?V2
   \   00006C   8882         MOV     DPL,R0
   \   00006E   8983         MOV     DPH,R1
   \   000070   F0           MOVX    @DPTR,A
   \   000071   A3           INC     DPTR
   \   000072   ED           MOV     A,R5
   \   000073   12....       LCALL   ??Subroutine219_0 & 0xFFFF
   3377                msg += 2;
   3378                statOpt = *msg++;
   \                     ??CrossCallReturnLabel_545:
   \   000076   FC           MOV     R4,A
   \   000077   EE           MOV     A,R6
   \   000078   2403         ADD     A,#0x3
   \   00007A   FE           MOV     R6,A
   \   00007B   5001         JNC     ??ZDO_ParseMgmtRtgRsp_4
   \   00007D   0F           INC     R7
   3379                pList->status = (statOpt & 0x07);
   \                     ??ZDO_ParseMgmtRtgRsp_4:
   \   00007E   7407         MOV     A,#0x7
   \   000080   5C           ANL     A,R4
   \   000081   8882         MOV     DPL,R0
   \   000083   8983         MOV     DPH,R1
   \   000085   A3           INC     DPTR
   \   000086   A3           INC     DPTR
   \   000087   A3           INC     DPTR
   \   000088   A3           INC     DPTR
   \   000089   A3           INC     DPTR
   \   00008A   F0           MOVX    @DPTR,A
   3380                pList->options = ((statOpt >> 3) & 0x07);
   \   00008B   EC           MOV     A,R4
   \   00008C   13           RRC     A
   \   00008D   13           RRC     A
   \   00008E   13           RRC     A
   \   00008F   541F         ANL     A,#0x1f
   \   000091   5407         ANL     A,#0x7
   \   000093   8882         MOV     DPL,R0
   \   000095   8983         MOV     DPH,R1
   \   000097   A3           INC     DPTR
   \   000098   A3           INC     DPTR
   \   000099   A3           INC     DPTR
   \   00009A   A3           INC     DPTR
   \   00009B   A3           INC     DPTR
   \   00009C   A3           INC     DPTR
   \   00009D   12....       LCALL   ??Subroutine199_0 & 0xFFFF
   3381                pList->nextHopAddress = BUILD_UINT16( msg[0], msg[1] );
   \                     ??CrossCallReturnLabel_402:
   \   0000A0   F5..         MOV     ?V2,A
   \   0000A2   A3           INC     DPTR
   \   0000A3   E0           MOVX    A,@DPTR
   \   0000A4   FD           MOV     R5,A
   \   0000A5   E5..         MOV     A,?V2
   \   0000A7   8882         MOV     DPL,R0
   \   0000A9   8983         MOV     DPH,R1
   \   0000AB   A3           INC     DPTR
   \   0000AC   A3           INC     DPTR
   \   0000AD   F0           MOVX    @DPTR,A
   \   0000AE   A3           INC     DPTR
   \   0000AF   ED           MOV     A,R5
   \   0000B0   12....       LCALL   ??Subroutine227_0 & 0xFFFF
   3382                msg += 2;
   \                     ??CrossCallReturnLabel_581:
   \   0000B3   5001         JNC     ??ZDO_ParseMgmtRtgRsp_5
   \   0000B5   0F           INC     R7
   3383                pList++;
   \                     ??ZDO_ParseMgmtRtgRsp_5:
   \   0000B6   E8           MOV     A,R0
   \   0000B7   2407         ADD     A,#0x7
   \   0000B9   F8           MOV     R0,A
   \   0000BA   5001         JNC     ??ZDO_ParseMgmtRtgRsp_6
   \   0000BC   09           INC     R1
   3384              }
   \                     ??ZDO_ParseMgmtRtgRsp_6:
   \   0000BD   05..         INC     ?V1
   \                     ??ZDO_ParseMgmtRtgRsp_2:
   \   0000BF   E5..         MOV     A,?V1
   \   0000C1   C3           CLR     C
   \   0000C2   95..         SUBB    A,?V0
   \   0000C4   409C         JC      ??ZDO_ParseMgmtRtgRsp_3
   3385            }
   3386          
   3387            return ( pRsp );
   \                     ??ZDO_ParseMgmtRtgRsp_1:
   \   0000C6   02....       LJMP    ?Subroutine5 & 0xFFFF
   3388          }

   \                                 In  segment BANKED_CODE, align 1, keep-with-next
   \                     ??Subroutine227_0:
   \   000000   F0           MOVX    @DPTR,A
   \   000001   EE           MOV     A,R6
   \   000002   2402         ADD     A,#0x2
   \   000004   FE           MOV     R6,A
   \   000005   22           RET
   3389          
   3390          /*********************************************************************
   3391           * @fn          ZDO_ParseMgmtBindRsp
   3392           *
   3393           * @brief       This function parses the incoming Management
   3394           *              Binding response.
   3395           *
   3396           * @param       inMsg - pointer to message to parse
   3397           *
   3398           * @return      a pointer to parsed response structure (NULL if not allocated).
   3399           *          This structure was allocated using osal_mem_alloc, so it must be freed
   3400           *          by the calling function [osal_mem_free()].
   3401           */

   \                                 In  segment BANKED_CODE, align 1, keep-with-next
   3402          ZDO_MgmtBindRsp_t *ZDO_ParseMgmtBindRsp( zdoIncomingMsg_t *inMsg )
   \                     ZDO_ParseMgmtBindRsp:
   3403          {
   \   000000                REQUIRE ?V0
   \   000000                REQUIRE ?V1
   \   000000                REQUIRE ?V2
   \   000000                REQUIRE ?V3
   \   000000                REQUIRE ?V4
   \   000000                REQUIRE ?V5
   \   000000                REQUIRE ?V6
   \   000000                REQUIRE ?V7
   \   000000                REQUIRE ?V8
   \   000000                REQUIRE ?V9
   \   000000   74EE         MOV     A,#-0x12
   \   000002   12....       LCALL   ?BANKED_ENTER_XDATA
   \   000005                ; Saved register size: 18
   \   000005                ; Auto size: 0
   3404            ZDO_MgmtBindRsp_t *pRsp;
   3405            uint8 status;
   3406            uint8 bindingCount = 0;
   \   000005   75..00       MOV     ?V6,#0x0
   3407            uint8 startIndex = 0;
   \   000008   75..00       MOV     ?V5,#0x0
   3408            uint8 bindingListCount = 0;
   \   00000B   75..00       MOV     ?V4,#0x0
   3409            uint8 *msg;
   3410          
   3411            msg = inMsg->asdu;
   \   00000E   12....       LCALL   ?Subroutine82 & 0xFFFF
   3412          
   3413            status = *msg++;
   \                     ??CrossCallReturnLabel_120:
   \   000011   F5..         MOV     ?V7,A
   \   000013   A3           INC     DPTR
   \   000014   8582..       MOV     ?V2,DPL
   \   000017   8583..       MOV     ?V3,DPH
   3414            if ( status == ZSuccess )
   \   00001A   701A         JNZ     ??ZDO_ParseMgmtBindRsp_0
   3415            {
   3416              bindingCount = *msg++;
   \   00001C   12....       LCALL   ?Subroutine90 & 0xFFFF
   3417              startIndex = *msg++;
   \                     ??CrossCallReturnLabel_132:
   \   00001F   F5..         MOV     ?V5,A
   3418              bindingListCount = *msg++;
   \   000021   85..82       MOV     DPL,?V2
   \   000024   85..83       MOV     DPH,?V3
   \   000027   A3           INC     DPTR
   \   000028   A3           INC     DPTR
   \   000029   E0           MOVX    A,@DPTR
   \   00002A   F5..         MOV     ?V4,A
   \   00002C   E5..         MOV     A,?V2
   \   00002E   2403         ADD     A,#0x3
   \   000030   F5..         MOV     ?V2,A
   \   000032   5002         JNC     ??ZDO_ParseMgmtBindRsp_0
   \   000034   05..         INC     ?V3
   3419            }
   3420          
   3421            // Allocate a buffer big enough to handle the list
   3422            pRsp = (ZDO_MgmtBindRsp_t *)osal_mem_alloc(
   3423                    (sizeof ( ZDO_MgmtBindRsp_t ) + (bindingListCount * sizeof( apsBindingItem_t ))) );
   \                     ??ZDO_ParseMgmtBindRsp_0:
   \   000036                ; Setup parameters for call to function osal_mem_alloc
   \   000036   E5..         MOV     A,?V4
   \   000038   75F015       MOV     B,#0x15
   \   00003B   12....       LCALL   ?Subroutine122 & 0xFFFF
   \                     ??CrossCallReturnLabel_203:
   \   00003E   12....       LCALL   `??osal_mem_alloc::?relay`; Banked call to: osal_mem_alloc
   \   000041   8A..         MOV     ?V0,R2
   \   000043   8B..         MOV     ?V1,R3
   3424            if ( pRsp )
   \   000045   EA           MOV     A,R2
   \   000046   45..         ORL     A,?V1
   \   000048   7003         JNZ     $+5
   \   00004A   02....       LJMP    ??ZDO_ParseMgmtBindRsp_1 & 0xFFFF
   3425            {
   3426              uint8 x;
   3427              apsBindingItem_t *pList = pRsp->list;
   \   00004D   EA           MOV     A,R2
   \   00004E   2404         ADD     A,#0x4
   \   000050   FE           MOV     R6,A
   \   000051   E4           CLR     A
   \   000052   35..         ADDC    A,?V1
   \   000054   FF           MOV     R7,A
   3428              pRsp->status = status;
   \   000055   12....       LCALL   ?Subroutine11 & 0xFFFF
   3429              pRsp->bindingCount = bindingCount;
   3430              pRsp->startIndex = startIndex;
   3431              pRsp->bindingListCount = bindingListCount;
   3432          
   3433              for ( x = 0; x < bindingListCount; x++ )
   \                     ??CrossCallReturnLabel_3:
   \   000058   8019         SJMP    ??ZDO_ParseMgmtBindRsp_2
   3434              {
   3435                osal_cpyExtAddr( pList->srcAddr, msg );
   3436                msg += Z_EXTADDR_LEN;
   3437                pList->srcEP = *msg++;
   3438          
   3439                // Get the Cluster ID
   3440          
   3441                pList->clusterID = BUILD_UINT16( msg[0], msg[1] );
   3442                msg += 2;
   3443                pList->dstAddr.addrMode = *msg++;
   3444                if ( pList->dstAddr.addrMode == Addr64Bit )
   3445                {
   3446                  osal_cpyExtAddr( pList->dstAddr.addr.extAddr, msg );
   3447                  msg += Z_EXTADDR_LEN;
   3448                  pList->dstEP = *msg++;
   3449                }
   3450                else
   3451                {
   3452                  pList->dstAddr.addr.shortAddr = BUILD_UINT16( msg[0], msg[1] );
   \                     ??ZDO_ParseMgmtBindRsp_3:
   \   00005A   85..82       MOV     DPL,?V2
   \   00005D   85..83       MOV     DPH,?V3
   \   000060   12....       LCALL   ?Subroutine83 & 0xFFFF
   3453                  msg += 2;
   3454                }
   \                     ??CrossCallReturnLabel_122:
   \   000063   12....       LCALL   ?Subroutine32 & 0xFFFF
   \                     ??CrossCallReturnLabel_40:
   \   000066   5002         JNC     ??ZDO_ParseMgmtBindRsp_4
   \   000068   05..         INC     ?V3
   3455          
   3456                pList++;
   \                     ??ZDO_ParseMgmtBindRsp_4:
   \   00006A   EE           MOV     A,R6
   \   00006B   2415         ADD     A,#0x15
   \   00006D   FE           MOV     R6,A
   \   00006E   5001         JNC     ??ZDO_ParseMgmtBindRsp_5
   \   000070   0F           INC     R7
   \                     ??ZDO_ParseMgmtBindRsp_5:
   \   000071   05..         INC     ?V5
   \                     ??ZDO_ParseMgmtBindRsp_2:
   \   000073   E5..         MOV     A,?V5
   \   000075   C3           CLR     C
   \   000076   95..         SUBB    A,?V4
   \   000078   505E         JNC     ??ZDO_ParseMgmtBindRsp_1
   \   00007A                ; Setup parameters for call to function sAddrExtCpy
   \   00007A   AC..         MOV     R4,?V2
   \   00007C   AD..         MOV     R5,?V3
   \   00007E   EE           MOV     A,R6
   \   00007F   FA           MOV     R2,A
   \   000080   EF           MOV     A,R7
   \   000081   FB           MOV     R3,A
   \   000082   12....       LCALL   `??sAddrExtCpy::?relay`; Banked call to: sAddrExtCpy
   \   000085   85..82       MOV     DPL,?V2
   \   000088   85..83       MOV     DPH,?V3
   \   00008B   12....       LCALL   ?Subroutine77 & 0xFFFF
   \                     ??CrossCallReturnLabel_109:
   \   00008E   12....       LCALL   ?Subroutine31 & 0xFFFF
   \                     ??CrossCallReturnLabel_37:
   \   000091   5002         JNC     ??ZDO_ParseMgmtBindRsp_6
   \   000093   05..         INC     ?V3
   \                     ??ZDO_ParseMgmtBindRsp_6:
   \   000095   F582         MOV     DPL,A
   \   000097   85..83       MOV     DPH,?V3
   \   00009A   12....       LCALL   ?Subroutine62 & 0xFFFF
   \                     ??CrossCallReturnLabel_91:
   \   00009D   12....       LCALL   ?Subroutine37 & 0xFFFF
   \                     ??CrossCallReturnLabel_51:
   \   0000A0   12....       LCALL   ?Subroutine107 & 0xFFFF
   \                     ??CrossCallReturnLabel_170:
   \   0000A3   E5..         MOV     A,?V2
   \   0000A5   2403         ADD     A,#0x3
   \   0000A7   F5..         MOV     ?V2,A
   \   0000A9   5002         JNC     ??ZDO_ParseMgmtBindRsp_7
   \   0000AB   05..         INC     ?V3
   \                     ??ZDO_ParseMgmtBindRsp_7:
   \   0000AD   12....       LCALL   ?Subroutine129 & 0xFFFF
   \                     ??CrossCallReturnLabel_228:
   \   0000B0   70A8         JNZ     ??ZDO_ParseMgmtBindRsp_3
   \   0000B2                ; Setup parameters for call to function sAddrExtCpy
   \   0000B2   AC..         MOV     R4,?V2
   \   0000B4   AD..         MOV     R5,?V3
   \   0000B6   12....       LCALL   `??sAddrExtCpy::?relay`; Banked call to: sAddrExtCpy
   \   0000B9   85..82       MOV     DPL,?V2
   \   0000BC   85..83       MOV     DPH,?V3
   \   0000BF   A3           INC     DPTR
   \   0000C0   A3           INC     DPTR
   \   0000C1   A3           INC     DPTR
   \   0000C2   A3           INC     DPTR
   \   0000C3   A3           INC     DPTR
   \   0000C4   A3           INC     DPTR
   \   0000C5   A3           INC     DPTR
   \   0000C6   A3           INC     DPTR
   \   0000C7   E0           MOVX    A,@DPTR
   \   0000C8   C0E0         PUSH    A
   \   0000CA   12....       LCALL   ?Subroutine135 & 0xFFFF
   3457              }
   3458            }
   \                     ??CrossCallReturnLabel_234:
   \   0000CD   D0E0         POP     A
   \   0000CF   12....       LCALL   ?Subroutine31 & 0xFFFF
   \                     ??CrossCallReturnLabel_38:
   \   0000D2   5096         JNC     ??ZDO_ParseMgmtBindRsp_4
   \   0000D4   05..         INC     ?V3
   \                     ??ZDO_ParseMgmtBindRsp_8:
   \   0000D6   8092         SJMP    ??ZDO_ParseMgmtBindRsp_4
   3459          
   3460            return ( pRsp );
   \                     ??ZDO_ParseMgmtBindRsp_1:
   \   0000D8   AA..         MOV     R2,?V0
   \   0000DA   AB..         MOV     R3,?V1
   \   0000DC   02....       LJMP    ??Subroutine213_0 & 0xFFFF
   3461          }
   3462          
   3463          /*********************************************************************
   3464           * @fn          ZDO_ParseUserDescRsp
   3465           *
   3466           * @brief       This function parses the incoming User
   3467           *              Descriptor Response.
   3468           *
   3469           * @param       inMsg - incoming response message
   3470           *
   3471           * @return      a pointer to parsed response structure (NULL if not allocated).
   3472           *          This structure was allocated using osal_mem_alloc, so it must be freed
   3473           *          by the calling function [osal_mem_free()].
   3474           */

   \                                 In  segment BANKED_CODE, align 1, keep-with-next
   3475          ZDO_UserDescRsp_t *ZDO_ParseUserDescRsp( zdoIncomingMsg_t *inMsg )
   \                     ZDO_ParseUserDescRsp:
   3476          {
   \   000000                REQUIRE ?V0
   \   000000                REQUIRE ?V1
   \   000000                REQUIRE ?V2
   \   000000                REQUIRE ?V3
   \   000000                REQUIRE ?V4
   \   000000                REQUIRE ?V5
   \   000000                REQUIRE ?V6
   \   000000                REQUIRE ?V7
   \   000000   74F0         MOV     A,#-0x10
   \   000002   12....       LCALL   ?BANKED_ENTER_XDATA
   \   000005                ; Saved register size: 16
   \   000005                ; Auto size: 0
   3477            ZDO_UserDescRsp_t *pRsp;
   3478            uint8 *msg;
   3479            uint8 descLen = 0;
   \   000005   75..00       MOV     ?V4,#0x0
   3480          
   3481            msg = inMsg->asdu;
   \   000008   12....       LCALL   ?Subroutine105 & 0xFFFF
   \                     ??CrossCallReturnLabel_162:
   \   00000B   12....       LCALL   ??Subroutine212_0 & 0xFFFF
   \                     ??CrossCallReturnLabel_501:
   \   00000E   88..         MOV     ?V2,R0
   \   000010   89..         MOV     ?V3,R1
   3482          
   3483            if ( msg[0] == ZSuccess )
   \   000012   8882         MOV     DPL,R0
   \   000014   F583         MOV     DPH,A
   \   000016   E0           MOVX    A,@DPTR
   \   000017   7006         JNZ     ??ZDO_ParseUserDescRsp_0
   3484            {
   3485              descLen = msg[3];
   \   000019   A3           INC     DPTR
   \   00001A   A3           INC     DPTR
   \   00001B   A3           INC     DPTR
   \   00001C   E0           MOVX    A,@DPTR
   \   00001D   F5..         MOV     ?V4,A
   3486            }
   3487          
   3488            pRsp = (ZDO_UserDescRsp_t *)osal_mem_alloc( sizeof ( ZDO_UserDescRsp_t ) + descLen );
   \                     ??ZDO_ParseUserDescRsp_0:
   \   00001F   AE..         MOV     R6,?V4
   \   000021                ; Setup parameters for call to function osal_mem_alloc
   \   000021   12....       LCALL   ?Subroutine168 & 0xFFFF
   \                     ??CrossCallReturnLabel_555:
   \   000024   3400         ADDC    A,#0x0
   \   000026   FB           MOV     R3,A
   \   000027   12....       LCALL   `??osal_mem_alloc::?relay`; Banked call to: osal_mem_alloc
   \   00002A   8A..         MOV     ?V0,R2
   \   00002C   8B..         MOV     ?V1,R3
   3489            if ( pRsp )
   \   00002E   EA           MOV     A,R2
   \   00002F   45..         ORL     A,?V1
   \   000031   6053         JZ      ??ZDO_ParseUserDescRsp_1
   3490            {
   3491              pRsp->status = msg[0];
   \   000033   85..82       MOV     DPL,?V2
   \   000036   85..83       MOV     DPH,?V3
   \   000039   12....       LCALL   ??Subroutine222_0 & 0xFFFF
   \                     ??CrossCallReturnLabel_563:
   \   00003C   12....       LCALL   ?Subroutine38 & 0xFFFF
   3492              pRsp->nwkAddr = BUILD_UINT16( msg[1], msg[2] );
   \                     ??CrossCallReturnLabel_53:
   \   00003F   E0           MOVX    A,@DPTR
   \   000040   FA           MOV     R2,A
   \   000041   85..82       MOV     DPL,?V2
   \   000044   85..83       MOV     DPH,?V3
   \   000047   A3           INC     DPTR
   \   000048   12....       LCALL   ??Subroutine230_0 & 0xFFFF
   \                     ??CrossCallReturnLabel_594:
   \   00004B   85..82       MOV     DPL,?V0
   \   00004E   8B83         MOV     DPH,R3
   \   000050   A3           INC     DPTR
   \   000051   12....       LCALL   ??Subroutine195_0 & 0xFFFF
   3493              pRsp->length = descLen;
   \                     ??CrossCallReturnLabel_385:
   \   000054   85..82       MOV     DPL,?V0
   \   000057   8B83         MOV     DPH,R3
   \   000059   A3           INC     DPTR
   \   00005A   A3           INC     DPTR
   \   00005B   A3           INC     DPTR
   \   00005C   EE           MOV     A,R6
   \   00005D   F0           MOVX    @DPTR,A
   3494              if ( descLen )
   \   00005E   6026         JZ      ??ZDO_ParseUserDescRsp_1
   3495              {
   3496                osal_memcpy( pRsp->desc, &msg[4], descLen );
   \   000060                ; Setup parameters for call to function osal_memcpy
   \   000060   E5..         MOV     A,?V2
   \   000062   2404         ADD     A,#0x4
   \   000064   F5..         MOV     ?V4,A
   \   000066   E4           CLR     A
   \   000067   35..         ADDC    A,?V3
   \   000069   F5..         MOV     ?V5,A
   \   00006B   88..         MOV     ?V6,R0
   \   00006D   78..         MOV     R0,#?V4
   \   00006F   12....       LCALL   ?PUSH_XSTACK_I_THREE
   \   000072   EE           MOV     A,R6
   \   000073   FC           MOV     R4,A
   \   000074   7D00         MOV     R5,#0x0
   \   000076   E5..         MOV     A,?V0
   \   000078   12....       LCALL   ??Subroutine220_0 & 0xFFFF
   3497              }
   3498            }
   \                     ??CrossCallReturnLabel_552:
   \   00007B   35..         ADDC    A,?V1
   \   00007D   FB           MOV     R3,A
   \   00007E   12....       LCALL   `??osal_memcpy::?relay`; Banked call to: osal_memcpy
   \   000081   7403         MOV     A,#0x3
   \   000083   12....       LCALL   ?DEALLOC_XSTACK8
   3499          
   3500            return ( pRsp );
   \                     ??ZDO_ParseUserDescRsp_1:
   \   000086   AA..         MOV     R2,?V0
   \   000088   AB..         MOV     R3,?V1
   \   00008A   02....       LJMP    ??Subroutine191_0 & 0xFFFF
   3501          }
   3502          
   3503          /*********************************************************************
   3504           * @fn          ZDO_ParseSimpleDescBuf
   3505           *
   3506           * @brief       Parse a byte sequence representation of a Simple Descriptor.
   3507           *
   3508           * @param       buf  - pointer to a byte array representing a Simple Desc.
   3509           * @param       desc - SimpleDescriptionFormat_t *
   3510           *
   3511           *              This routine allocates storage for the cluster IDs because
   3512           *              they are 16-bit and need to be aligned to be properly processed.
   3513           *              This routine returns non-zero if an allocation fails.
   3514           *
   3515           *              NOTE: This means that the caller or user of the input structure
   3516           *                    is responsible for freeing the memory
   3517           *
   3518           * @return      0: success
   3519           *              1: failure due to malloc failure.
   3520           */

   \                                 In  segment BANKED_CODE, align 1, keep-with-next
   3521          uint8 ZDO_ParseSimpleDescBuf( uint8 *buf, SimpleDescriptionFormat_t *desc )
   \                     ZDO_ParseSimpleDescBuf:
   3522          {
   \   000000                REQUIRE ?V0
   \   000000                REQUIRE ?V1
   \   000000                REQUIRE ?V2
   \   000000                REQUIRE ?V3
   \   000000                REQUIRE ?V4
   \   000000                REQUIRE ?V6
   \   000000                REQUIRE ?V7
   \   000000   74F0         MOV     A,#-0x10
   \   000002   12....       LCALL   ?BANKED_ENTER_XDATA
   \   000005                ; Saved register size: 16
   \   000005                ; Auto size: 0
   \   000005   EA           MOV     A,R2
   \   000006   FE           MOV     R6,A
   \   000007   EB           MOV     A,R3
   \   000008   FF           MOV     R7,A
   \   000009   8C..         MOV     ?V0,R4
   \   00000B   8D..         MOV     ?V1,R5
   3523            uint8 num, i;
   3524          
   3525            desc->EndPoint = *buf++;
   \   00000D   8E82         MOV     DPL,R6
   \   00000F   8F83         MOV     DPH,R7
   \   000011   12....       LCALL   ??Subroutine223_0 & 0xFFFF
   \                     ??CrossCallReturnLabel_569:
   \   000014   12....       LCALL   ?Subroutine33 & 0xFFFF
   3526            desc->AppProfId = BUILD_UINT16( buf[0], buf[1] );
   \                     ??CrossCallReturnLabel_42:
   \   000017   12....       LCALL   ?Subroutine72 & 0xFFFF
   \                     ??CrossCallReturnLabel_573:
   \   00001A   12....       LCALL   ?Subroutine27 & 0xFFFF
   3527            buf += 2;
   \                     ??CrossCallReturnLabel_579:
   \   00001D   5001         JNC     ??ZDO_ParseSimpleDescBuf_0
   \   00001F   0F           INC     R7
   3528            desc->AppDeviceId = BUILD_UINT16( buf[0], buf[1] );
   \                     ??ZDO_ParseSimpleDescBuf_0:
   \   000020   8E82         MOV     DPL,R6
   \   000022   8F83         MOV     DPH,R7
   \   000024   12....       LCALL   ?Subroutine72 & 0xFFFF
   \                     ??CrossCallReturnLabel_574:
   \   000027   A3           INC     DPTR
   \   000028   A3           INC     DPTR
   \   000029   12....       LCALL   ?Subroutine18 & 0xFFFF
   3529            buf += 2;
   3530            desc->AppDevVer = *buf >> 4;
   \                     ??CrossCallReturnLabel_544:
   \   00002C   C4           SWAP    A
   \   00002D   540F         ANL     A,#0xf
   3531          
   3532            desc->Reserved = 0;
   \   00002F   8C82         MOV     DPL,R4
   \   000031   8D83         MOV     DPH,R5
   \   000033   A3           INC     DPTR
   \   000034   A3           INC     DPTR
   \   000035   A3           INC     DPTR
   \   000036   A3           INC     DPTR
   \   000037   A3           INC     DPTR
   \   000038   12....       LCALL   ?Subroutine15 & 0xFFFF
   3533            buf++;
   3534          
   3535            // move in input cluster list (if any). allocate aligned memory.
   3536            num = desc->AppNumInClusters = *buf++;
   \                     ??CrossCallReturnLabel_12:
   \   00003B   F5..         MOV     ?V4,A
   \   00003D   EE           MOV     A,R6
   \   00003E   2404         ADD     A,#0x4
   \   000040   FE           MOV     R6,A
   \   000041   5001         JNC     ??ZDO_ParseSimpleDescBuf_1
   \   000043   0F           INC     R7
   \                     ??ZDO_ParseSimpleDescBuf_1:
   \   000044   8C82         MOV     DPL,R4
   \   000046   8D83         MOV     DPH,R5
   \   000048   A3           INC     DPTR
   \   000049   A3           INC     DPTR
   \   00004A   A3           INC     DPTR
   \   00004B   A3           INC     DPTR
   \   00004C   A3           INC     DPTR
   \   00004D   A3           INC     DPTR
   \   00004E   E5..         MOV     A,?V4
   \   000050   F0           MOVX    @DPTR,A
   3537            if ( num )
   \   000051   EC           MOV     A,R4
   \   000052   2407         ADD     A,#0x7
   \   000054   F5..         MOV     ?V2,A
   \   000056   E4           CLR     A
   \   000057   35..         ADDC    A,?V1
   \   000059   F5..         MOV     ?V3,A
   \   00005B   E5..         MOV     A,?V4
   \   00005D   603F         JZ      ??ZDO_ParseSimpleDescBuf_2
   3538            {
   3539              if (!(desc->pAppInClusterList = (uint16 *)osal_mem_alloc(num*sizeof(uint16))))
   \   00005F                ; Setup parameters for call to function osal_mem_alloc
   \   00005F   12....       LCALL   ?Subroutine126 & 0xFFFF
   \                     ??CrossCallReturnLabel_223:
   \   000062   12....       LCALL   `??osal_mem_alloc::?relay`; Banked call to: osal_mem_alloc
   \   000065   EA           MOV     A,R2
   \   000066   F8           MOV     R0,A
   \   000067   EB           MOV     A,R3
   \   000068   F9           MOV     R1,A
   \   000069   85..82       MOV     DPL,?V2
   \   00006C   85..83       MOV     DPH,?V3
   \   00006F   12....       LCALL   ??Subroutine225_0 & 0xFFFF
   \                     ??CrossCallReturnLabel_577:
   \   000072   4B           ORL     A,R3
   \   000073   607D         JZ      ??ZDO_ParseSimpleDescBuf_3
   3540              {
   3541                // malloc failed. we're done.
   3542                return 1;
   3543              }
   3544              for (i=0; i<num; ++i)
   \   000075   7C00         MOV     R4,#0x0
   \   000077   801F         SJMP    ??ZDO_ParseSimpleDescBuf_4
   3545              {
   3546                desc->pAppInClusterList[i] = BUILD_UINT16( buf[0], buf[1] );
   \                     ??ZDO_ParseSimpleDescBuf_5:
   \   000079   8E82         MOV     DPL,R6
   \   00007B   8F83         MOV     DPH,R7
   \   00007D   12....       LCALL   ?Subroutine90 & 0xFFFF
   3547                buf += 2;
   3548              }
   \                     ??CrossCallReturnLabel_134:
   \   000080   F8           MOV     R0,A
   \   000081   E4           CLR     A
   \   000082   C8           XCH     A,R0
   \   000083   F9           MOV     R1,A
   \   000084   E5..         MOV     A,?V6
   \   000086   28           ADD     A,R0
   \   000087   E4           CLR     A
   \   000088   39           ADDC    A,R1
   \   000089   F5..         MOV     ?V7,A
   \   00008B   12....       LCALL   ?Subroutine128 & 0xFFFF
   \                     ??CrossCallReturnLabel_225:
   \   00008E   12....       LCALL   ?Subroutine108 & 0xFFFF
   \                     ??CrossCallReturnLabel_172:
   \   000091   12....       LCALL   ??Subroutine227_0 & 0xFFFF
   \                     ??CrossCallReturnLabel_582:
   \   000094   5001         JNC     ??ZDO_ParseSimpleDescBuf_6
   \   000096   0F           INC     R7
   \                     ??ZDO_ParseSimpleDescBuf_6:
   \   000097   0C           INC     R4
   \                     ??ZDO_ParseSimpleDescBuf_4:
   \   000098   EC           MOV     A,R4
   \   000099   C3           CLR     C
   \   00009A   95..         SUBB    A,?V4
   \   00009C   40DB         JC      ??ZDO_ParseSimpleDescBuf_5
   3549            }
   3550          
   3551            // move in output cluster list (if any). allocate aligned memory.
   3552            num = desc->AppNumOutClusters = *buf++;
   \                     ??ZDO_ParseSimpleDescBuf_2:
   \   00009E   8E82         MOV     DPL,R6
   \   0000A0   8F83         MOV     DPH,R7
   \   0000A2   E0           MOVX    A,@DPTR
   \   0000A3   F5..         MOV     ?V4,A
   \   0000A5   A3           INC     DPTR
   \   0000A6   AE82         MOV     R6,DPL
   \   0000A8   AF83         MOV     R7,DPH
   \   0000AA   85..82       MOV     DPL,?V0
   \   0000AD   85..83       MOV     DPH,?V1
   \   0000B0   A3           INC     DPTR
   \   0000B1   A3           INC     DPTR
   \   0000B2   A3           INC     DPTR
   \   0000B3   A3           INC     DPTR
   \   0000B4   A3           INC     DPTR
   \   0000B5   A3           INC     DPTR
   \   0000B6   A3           INC     DPTR
   \   0000B7   A3           INC     DPTR
   \   0000B8   A3           INC     DPTR
   \   0000B9   F0           MOVX    @DPTR,A
   3553            if (num)
   \   0000BA   606B         JZ      ??ZDO_ParseSimpleDescBuf_7
   3554            {
   3555              if (!(desc->pAppOutClusterList = (uint16 *)osal_mem_alloc(num*sizeof(uint16))))
   \   0000BC                ; Setup parameters for call to function osal_mem_alloc
   \   0000BC   12....       LCALL   ?Subroutine126 & 0xFFFF
   \                     ??CrossCallReturnLabel_224:
   \   0000BF   12....       LCALL   `??osal_mem_alloc::?relay`; Banked call to: osal_mem_alloc
   \   0000C2   EA           MOV     A,R2
   \   0000C3   F8           MOV     R0,A
   \   0000C4   EB           MOV     A,R3
   \   0000C5   F9           MOV     R1,A
   \   0000C6   85..82       MOV     DPL,?V0
   \   0000C9   85..83       MOV     DPH,?V1
   \   0000CC   A3           INC     DPTR
   \   0000CD   A3           INC     DPTR
   \   0000CE   A3           INC     DPTR
   \   0000CF   A3           INC     DPTR
   \   0000D0   A3           INC     DPTR
   \   0000D1   A3           INC     DPTR
   \   0000D2   A3           INC     DPTR
   \   0000D3   A3           INC     DPTR
   \   0000D4   12....       LCALL   ?Subroutine39 & 0xFFFF
   \                     ??CrossCallReturnLabel_578:
   \   0000D7   4B           ORL     A,R3
   \   0000D8   701C         JNZ     ??ZDO_ParseSimpleDescBuf_8
   3556              {
   3557                // malloc failed. free input cluster list memory if there is any
   3558                if ( desc->pAppInClusterList != NULL )
   \   0000DA   85..82       MOV     DPL,?V2
   \   0000DD   85..83       MOV     DPH,?V3
   \   0000E0   12....       LCALL   ??Subroutine183_0 & 0xFFFF
   \                     ??CrossCallReturnLabel_316:
   \   0000E3   600D         JZ      ??ZDO_ParseSimpleDescBuf_3
   3559                {
   3560                  osal_mem_free(desc->pAppInClusterList);
   \   0000E5                ; Setup parameters for call to function osal_mem_free
   \   0000E5   12....       LCALL   `??osal_mem_free::?relay`; Banked call to: osal_mem_free
   3561          
   3562                  desc->pAppInClusterList = NULL;
   \   0000E8   85..82       MOV     DPL,?V2
   \   0000EB   85..83       MOV     DPH,?V3
   \   0000EE   E4           CLR     A
   \   0000EF   F0           MOVX    @DPTR,A
   \   0000F0   A3           INC     DPTR
   \   0000F1   F0           MOVX    @DPTR,A
   3563                }
   3564                return 1;
   \                     ??ZDO_ParseSimpleDescBuf_3:
   \   0000F2   7901         MOV     R1,#0x1
   \   0000F4   8033         SJMP    ??ZDO_ParseSimpleDescBuf_9
   3565              }
   3566              for (i=0; i<num; ++i)
   \                     ??ZDO_ParseSimpleDescBuf_8:
   \   0000F6   7C00         MOV     R4,#0x0
   \   0000F8   8027         SJMP    ??ZDO_ParseSimpleDescBuf_10
   3567              {
   3568                desc->pAppOutClusterList[i] = BUILD_UINT16( buf[0], buf[1] );
   \                     ??ZDO_ParseSimpleDescBuf_11:
   \   0000FA   8E82         MOV     DPL,R6
   \   0000FC   8F83         MOV     DPH,R7
   \   0000FE   E0           MOVX    A,@DPTR
   \   0000FF   F5..         MOV     ?V0,A
   \   000101   A3           INC     DPTR
   \   000102   E0           MOVX    A,@DPTR
   \   000103   F8           MOV     R0,A
   \   000104   E4           CLR     A
   \   000105   C8           XCH     A,R0
   \   000106   F9           MOV     R1,A
   \   000107   E5..         MOV     A,?V0
   \   000109   28           ADD     A,R0
   \   00010A   E4           CLR     A
   \   00010B   39           ADDC    A,R1
   \   00010C   F5..         MOV     ?V1,A
   \   00010E   12....       LCALL   ?Subroutine128 & 0xFFFF
   3569                buf += 2;
   3570              }
   \                     ??CrossCallReturnLabel_226:
   \   000111   39           ADDC    A,R1
   \   000112   F583         MOV     DPH,A
   \   000114   E5..         MOV     A,?V0
   \   000116   F0           MOVX    @DPTR,A
   \   000117   A3           INC     DPTR
   \   000118   E5..         MOV     A,?V1
   \   00011A   12....       LCALL   ??Subroutine227_0 & 0xFFFF
   \                     ??CrossCallReturnLabel_583:
   \   00011D   5001         JNC     ??ZDO_ParseSimpleDescBuf_12
   \   00011F   0F           INC     R7
   \                     ??ZDO_ParseSimpleDescBuf_12:
   \   000120   0C           INC     R4
   \                     ??ZDO_ParseSimpleDescBuf_10:
   \   000121   EC           MOV     A,R4
   \   000122   C3           CLR     C
   \   000123   95..         SUBB    A,?V4
   \   000125   40D3         JC      ??ZDO_ParseSimpleDescBuf_11
   3571            }
   3572            return 0;
   \                     ??ZDO_ParseSimpleDescBuf_7:
   \   000127   7900         MOV     R1,#0x0
   \                     ??ZDO_ParseSimpleDescBuf_9:
   \   000129   02....       LJMP    ??Subroutine191_0 & 0xFFFF
   3573          }

   \                                 In  segment BANKED_CODE, align 1, keep-with-next
   \                     ?Subroutine128:
   \   000000   EC           MOV     A,R4
   \   000001   25E0         ADD     A,0xE0 /* A   */
   \   000003   F8           MOV     R0,A
   \   000004   E4           CLR     A
   \   000005   33           RLC     A
   \   000006   F9           MOV     R1,A
   \   000007   EA           MOV     A,R2
   \   000008   28           ADD     A,R0
   \   000009   F582         MOV     DPL,A
   \   00000B   EB           MOV     A,R3
   \   00000C   22           RET

   \                                 In  segment BANKED_CODE, align 1, keep-with-next
   \                     ?Subroutine72:
   \   000000   E0           MOVX    A,@DPTR
   \   000001   FA           MOV     R2,A
   \   000002                REQUIRE ??Subroutine224_0
   \   000002                ; // Fall through to label ??Subroutine224_0

   \                                 In  segment BANKED_CODE, align 1, keep-with-next
   \                     ?Subroutine27:
   \   000000   F0           MOVX    @DPTR,A
   \   000001   A3           INC     DPTR
   \   000002   E9           MOV     A,R1
   \   000003                REQUIRE ??Subroutine227_0
   \   000003                ; // Fall through to label ??Subroutine227_0
   3574          
   3575          /*********************************************************************
   3576           * @fn          ZDO_ParseDeviceAnnce
   3577           *
   3578           * @brief       Parse a Device Announce message.
   3579           *
   3580           * @param       inMsg - Incoming message
   3581           * @param       pAnnce - place to put the parsed information
   3582           *
   3583           * @return      none
   3584           */

   \                                 In  segment BANKED_CODE, align 1, keep-with-next
   3585          void ZDO_ParseDeviceAnnce( zdoIncomingMsg_t *inMsg, ZDO_DeviceAnnce_t *pAnnce )
   \                     ZDO_ParseDeviceAnnce:
   3586          {
   \   000000                REQUIRE ?V0
   \   000000                REQUIRE ?V1
   \   000000   74F6         MOV     A,#-0xa
   \   000002   12....       LCALL   ?BANKED_ENTER_XDATA
   \   000005                ; Saved register size: 10
   \   000005                ; Auto size: 0
   \   000005   8C..         MOV     ?V0,R4
   \   000007   8D..         MOV     ?V1,R5
   3587            uint8 *msg;
   3588          
   3589            // Parse incoming message
   3590            msg = inMsg->asdu;
   \   000009   12....       LCALL   ?Subroutine105 & 0xFFFF
   \                     ??CrossCallReturnLabel_163:
   \   00000C   12....       LCALL   ?Subroutine86 & 0xFFFF
   3591            pAnnce->nwkAddr = BUILD_UINT16( msg[0], msg[1] );
   \                     ??CrossCallReturnLabel_126:
   \   00000F   12....       LCALL   ?Subroutine75 & 0xFFFF
   \                     ??CrossCallReturnLabel_534:
   \   000012   8C82         MOV     DPL,R4
   \   000014   8D83         MOV     DPH,R5
   \   000016   12....       LCALL   ?Subroutine27 & 0xFFFF
   3592            msg += 2;
   \                     ??CrossCallReturnLabel_580:
   \   000019   5001         JNC     ??ZDO_ParseDeviceAnnce_0
   \   00001B   0F           INC     R7
   3593            osal_cpyExtAddr( pAnnce->extAddr, msg );
   \                     ??ZDO_ParseDeviceAnnce_0:
   \   00001C                ; Setup parameters for call to function sAddrExtCpy
   \   00001C   12....       LCALL   ?Subroutine119 & 0xFFFF
   \                     ??CrossCallReturnLabel_363:
   \   00001F   35..         ADDC    A,?V1
   \   000021   FB           MOV     R3,A
   \   000022   12....       LCALL   `??sAddrExtCpy::?relay`; Banked call to: sAddrExtCpy
   3594            msg += Z_EXTADDR_LEN;
   3595            pAnnce->capabilities = *msg;
   \   000025   8E82         MOV     DPL,R6
   \   000027   8F83         MOV     DPH,R7
   \   000029   A3           INC     DPTR
   \   00002A   A3           INC     DPTR
   \   00002B   A3           INC     DPTR
   \   00002C   12....       LCALL   ?Subroutine78 & 0xFFFF
   \                     ??CrossCallReturnLabel_110:
   \   00002F   A3           INC     DPTR
   \   000030   A3           INC     DPTR
   \   000031   A3           INC     DPTR
   \   000032   A3           INC     DPTR
   \   000033   F0           MOVX    @DPTR,A
   3596          }
   \   000034   02....       LJMP    ??Subroutine180_0 & 0xFFFF

   \                                 In  segment BANKED_CODE, align 1, keep-with-next
   \                     ?Subroutine78:
   \   000000   12....       LCALL   ?Subroutine156 & 0xFFFF
   \                     ??CrossCallReturnLabel_272:
   \   000003   A3           INC     DPTR
   \   000004   22           RET

   \                                 In  segment BANKED_CODE, align 1, keep-with-next
   \                     ?Subroutine156:
   \   000000   A3           INC     DPTR
   \   000001   A3           INC     DPTR
   \   000002   A3           INC     DPTR
   \   000003   A3           INC     DPTR
   \   000004   A3           INC     DPTR
   \   000005   E0           MOVX    A,@DPTR
   \   000006   85..82       MOV     DPL,?V0
   \   000009   85..83       MOV     DPH,?V1
   \   00000C   A3           INC     DPTR
   \   00000D   A3           INC     DPTR
   \   00000E   A3           INC     DPTR
   \   00000F   A3           INC     DPTR
   \   000010   A3           INC     DPTR
   \   000011   22           RET
   3597          
   3598          /*********************************************************************
   3599           * @fn          ZDO_ParseParentAnnce
   3600           *
   3601           * @brief       Parse Parent Announce and Parent Announce Rsp messages,
   3602           *              both messages have the same payload.
   3603           *
   3604           * @param       inMsg - Incoming message
   3605           *
   3606           * @return      a pointer to parsed response structure (NULL if not allocated).
   3607           *          This structure was allocated using osal_mem_alloc, so it must be freed
   3608           *          by the calling function [osal_mem_free()].
   3609           */

   \                                 In  segment BANKED_CODE, align 1, keep-with-next
   3610          ZDO_ParentAnnce_t *ZDO_ParseParentAnnce( zdoIncomingMsg_t *inMsg )
   \                     ZDO_ParseParentAnnce:
   3611          {
   \   000000                REQUIRE ?V0
   \   000000                REQUIRE ?V1
   \   000000                REQUIRE ?V2
   \   000000                REQUIRE ?V3
   \   000000                REQUIRE ?V4
   \   000000                REQUIRE ?V5
   \   000000   74F2         MOV     A,#-0xe
   \   000002   12....       LCALL   ?BANKED_ENTER_XDATA
   \   000005                ; Saved register size: 14
   \   000005                ; Auto size: 0
   3612            ZDO_ParentAnnce_t *pRcvdMsg;
   3613            uint8 *msg;
   3614            uint8 numChildren;
   3615          
   3616            msg = inMsg->asdu;
   \   000005   12....       LCALL   ?Subroutine106 & 0xFFFF
   \                     ??CrossCallReturnLabel_167:
   \   000008   12....       LCALL   ?Subroutine101 & 0xFFFF
   \                     ??CrossCallReturnLabel_529:
   \   00000B   FF           MOV     R7,A
   3617            if ( inMsg->clusterID == Parent_annce_rsp)
   \   00000C   EA           MOV     A,R2
   \   00000D   12....       LCALL   ??Subroutine228_0 & 0xFFFF
   \                     ??CrossCallReturnLabel_585:
   \   000010   3B           ADDC    A,R3
   \   000011   F583         MOV     DPH,A
   \   000013   E0           MOVX    A,@DPTR
   \   000014   641F         XRL     A,#0x1f
   \   000016   7004         JNZ     ??ZDO_ParseParentAnnce_0
   \   000018   A3           INC     DPTR
   \   000019   E0           MOVX    A,@DPTR
   \   00001A   6480         XRL     A,#0x80
   \                     ??ZDO_ParseParentAnnce_0:
   \   00001C   7009         JNZ     ??ZDO_ParseParentAnnce_1
   3618            {
   3619              *msg++;
   \   00001E   8E82         MOV     DPL,R6
   \   000020   8F83         MOV     DPH,R7
   \   000022   A3           INC     DPTR
   \   000023   AE82         MOV     R6,DPL
   \   000025   AF83         MOV     R7,DPH
   3620            }
   3621            numChildren = *msg++;
   \                     ??ZDO_ParseParentAnnce_1:
   \   000027   8E82         MOV     DPL,R6
   \   000029   8F83         MOV     DPH,R7
   \   00002B   E0           MOVX    A,@DPTR
   \   00002C   F5..         MOV     ?V3,A
   \   00002E   A3           INC     DPTR
   \   00002F   AE82         MOV     R6,DPL
   \   000031   AF83         MOV     R7,DPH
   3622          
   3623            // Allocate a buffer big enough to handle the list
   3624            pRcvdMsg = (ZDO_ParentAnnce_t *)osal_mem_alloc(
   3625                       (sizeof(ZDO_ParentAnnce_t) + (numChildren * sizeof(ZDO_ChildInfo_t))));
   \   000033                ; Setup parameters for call to function osal_mem_alloc
   \   000033   75F00C       MOV     B,#0xc
   \   000036   A4           MUL     AB
   \   000037   A9F0         MOV     R1,B
   \   000039   2401         ADD     A,#0x1
   \   00003B   FA           MOV     R2,A
   \   00003C   E4           CLR     A
   \   00003D   39           ADDC    A,R1
   \   00003E   FB           MOV     R3,A
   \   00003F   12....       LCALL   `??osal_mem_alloc::?relay`; Banked call to: osal_mem_alloc
   \   000042   8A..         MOV     ?V4,R2
   \   000044   8B..         MOV     ?V5,R3
   3626          
   3627            if ( pRcvdMsg )
   \   000046   EA           MOV     A,R2
   \   000047   45..         ORL     A,?V5
   \   000049   6064         JZ      ??ZDO_ParseParentAnnce_2
   3628            {
   3629              uint8 x;
   3630              ZDO_ChildInfo_t *pList = pRcvdMsg->childInfo;
   \   00004B   8A82         MOV     DPL,R2
   \   00004D   8B83         MOV     DPH,R3
   \   00004F   A3           INC     DPTR
   \   000050   8582..       MOV     ?V0,DPL
   \   000053   8583..       MOV     ?V1,DPH
   3631          
   3632              pRcvdMsg->numOfChildren = numChildren;
   \   000056   8A82         MOV     DPL,R2
   \   000058   8B83         MOV     DPH,R3
   \   00005A   E5..         MOV     A,?V3
   \   00005C   F0           MOVX    @DPTR,A
   3633          
   3634              for ( x = 0; x < numChildren; x++ )
   \   00005D   75..00       MOV     ?V2,#0x0
   \   000060   8046         SJMP    ??ZDO_ParseParentAnnce_3
   3635              {
   3636                osal_cpyExtAddr( pList->extAddr, msg );
   \                     ??ZDO_ParseParentAnnce_4:
   \   000062                ; Setup parameters for call to function sAddrExtCpy
   \   000062   EE           MOV     A,R6
   \   000063   FC           MOV     R4,A
   \   000064   EF           MOV     A,R7
   \   000065   FD           MOV     R5,A
   \   000066   AA..         MOV     R2,?V0
   \   000068   AB..         MOV     R3,?V1
   \   00006A   12....       LCALL   `??sAddrExtCpy::?relay`; Banked call to: sAddrExtCpy
   3637                msg += Z_EXTADDR_LEN;
   \   00006D   EE           MOV     A,R6
   \   00006E   2408         ADD     A,#0x8
   \   000070   FE           MOV     R6,A
   \   000071   5001         JNC     ??ZDO_ParseParentAnnce_5
   \   000073   0F           INC     R7
   3638          
   3639                pList->age = osal_build_uint32( msg, 4 );
   \                     ??ZDO_ParseParentAnnce_5:
   \   000074                ; Setup parameters for call to function osal_build_uint32
   \   000074   7904         MOV     R1,#0x4
   \   000076   FA           MOV     R2,A
   \   000077   EF           MOV     A,R7
   \   000078   FB           MOV     R3,A
   \   000079   12....       LCALL   `??osal_build_uint32::?relay`; Banked call to: osal_build_uint32
   \   00007C   EA           MOV     A,R2
   \   00007D   F8           MOV     R0,A
   \   00007E   EB           MOV     A,R3
   \   00007F   F9           MOV     R1,A
   \   000080   EC           MOV     A,R4
   \   000081   FA           MOV     R2,A
   \   000082   ED           MOV     A,R5
   \   000083   FB           MOV     R3,A
   \   000084   85..82       MOV     DPL,?V0
   \   000087   85..83       MOV     DPH,?V1
   \   00008A   A3           INC     DPTR
   \   00008B   A3           INC     DPTR
   \   00008C   A3           INC     DPTR
   \   00008D   A3           INC     DPTR
   \   00008E   A3           INC     DPTR
   \   00008F   A3           INC     DPTR
   \   000090   A3           INC     DPTR
   \   000091   A3           INC     DPTR
   \   000092   12....       LCALL   ?XSTORE_R0123
   3640                msg += 4;
   \   000095   EE           MOV     A,R6
   \   000096   2404         ADD     A,#0x4
   \   000098   FE           MOV     R6,A
   \   000099   5001         JNC     ??ZDO_ParseParentAnnce_6
   \   00009B   0F           INC     R7
   3641          
   3642                pList++;
   \                     ??ZDO_ParseParentAnnce_6:
   \   00009C   E5..         MOV     A,?V0
   \   00009E   240C         ADD     A,#0xc
   \   0000A0   F5..         MOV     ?V0,A
   \   0000A2   5002         JNC     ??ZDO_ParseParentAnnce_7
   \   0000A4   05..         INC     ?V1
   3643              }
   \                     ??ZDO_ParseParentAnnce_7:
   \   0000A6   05..         INC     ?V2
   \                     ??ZDO_ParseParentAnnce_3:
   \   0000A8   E5..         MOV     A,?V2
   \   0000AA   C3           CLR     C
   \   0000AB   95..         SUBB    A,?V3
   \   0000AD   40B3         JC      ??ZDO_ParseParentAnnce_4
   3644            }
   3645          
   3646            return ( pRcvdMsg );
   \                     ??ZDO_ParseParentAnnce_2:
   \   0000AF   AA..         MOV     R2,?V4
   \   0000B1   AB..         MOV     R3,?V5
   \   0000B3   02....       LJMP    ?Subroutine5 & 0xFFFF
   3647          }
   3648          
   3649          /*********************************************************************
   3650           * @fn          ZDO_ParseMgmtNwkUpdateNotify
   3651           *
   3652           * @brief       This function handles parsing of the incoming Management
   3653           *              Network Update notify.
   3654           *
   3655           * @param       inMsg - incoming message (request)
   3656           *
   3657           * @return      a pointer to parsed response structure (NULL if not allocated).
   3658           *          This structure was allocated using osal_mem_alloc, so it must be freed
   3659           *          by the calling function [osal_mem_free()].
   3660           */

   \                                 In  segment BANKED_CODE, align 1, keep-with-next
   3661          ZDO_MgmtNwkUpdateNotify_t *ZDO_ParseMgmtNwkUpdateNotify( zdoIncomingMsg_t *inMsg )
   \                     ZDO_ParseMgmtNwkUpdateNotify:
   3662          {
   \   000000                REQUIRE ?V0
   \   000000                REQUIRE ?V1
   \   000000                REQUIRE ?V2
   \   000000                REQUIRE ?V3
   \   000000                REQUIRE ?V4
   \   000000                REQUIRE ?V5
   \   000000                REQUIRE ?V6
   \   000000                REQUIRE ?V7
   \   000000                REQUIRE ?V8
   \   000000                REQUIRE ?V9
   \   000000                REQUIRE ?V10
   \   000000                REQUIRE ?V11
   \   000000                REQUIRE ?V12
   \   000000                REQUIRE ?V13
   \   000000                REQUIRE ?V14
   \   000000                REQUIRE ?V15
   \   000000   74E8         MOV     A,#-0x18
   \   000002   12....       LCALL   ?BANKED_ENTER_XDATA
   \   000005                ; Saved register size: 24
   \   000005                ; Auto size: 0
   3663            uint8 status;
   3664            uint32 scannedChannels = 0;
   \   000005   75..00       MOV     ?V4,#0x0
   \   000008   75..00       MOV     ?V5,#0x0
   \   00000B   75..00       MOV     ?V6,#0x0
   \   00000E   75..00       MOV     ?V7,#0x0
   3665            uint16 totalTransmissions = 0;
   \   000011   75..00       MOV     ?V0,#0x0
   \   000014   75..00       MOV     ?V1,#0x0
   3666            uint16 transmissionFailures = 0;
   \   000017   75..00       MOV     ?V2,#0x0
   \   00001A   75..00       MOV     ?V3,#0x0
   3667            uint8 listCount = 0;
   \   00001D   75..00       MOV     ?V10,#0x0
   3668            uint8 *msg = inMsg->asdu;
   \   000020   12....       LCALL   ?Subroutine105 & 0xFFFF
   \                     ??CrossCallReturnLabel_164:
   \   000023   E0           MOVX    A,@DPTR
   \   000024   F5..         MOV     ?V8,A
   \   000026   A3           INC     DPTR
   \   000027   E0           MOVX    A,@DPTR
   3669            ZDO_MgmtNwkUpdateNotify_t *pRsp;
   3670          
   3671            status = *msg++;
   \   000028   85..82       MOV     DPL,?V8
   \   00002B   F583         MOV     DPH,A
   \   00002D   E0           MOVX    A,@DPTR
   \   00002E   F5..         MOV     ?V11,A
   \   000030   A3           INC     DPTR
   \   000031   8582..       MOV     ?V8,DPL
   \   000034   8583..       MOV     ?V9,DPH
   3672            if ( status == ZSuccess )
   \   000037   7051         JNZ     ??ZDO_ParseMgmtNwkUpdateNotify_0
   3673            {
   3674              scannedChannels = osal_build_uint32( msg, 4 );
   \   000039                ; Setup parameters for call to function osal_build_uint32
   \   000039   7904         MOV     R1,#0x4
   \   00003B   AA..         MOV     R2,?V8
   \   00003D   AB..         MOV     R3,?V9
   \   00003F   12....       LCALL   `??osal_build_uint32::?relay`; Banked call to: osal_build_uint32
   \   000042   8A..         MOV     ?V4,R2
   \   000044   8B..         MOV     ?V5,R3
   \   000046   8C..         MOV     ?V6,R4
   \   000048   8D..         MOV     ?V7,R5
   3675              msg += 4;
   \   00004A   E5..         MOV     A,?V8
   \   00004C   2404         ADD     A,#0x4
   \   00004E   F5..         MOV     ?V8,A
   \   000050   5002         JNC     ??ZDO_ParseMgmtNwkUpdateNotify_1
   \   000052   05..         INC     ?V9
   3676              totalTransmissions = BUILD_UINT16( msg[0], msg[1] );
   \                     ??ZDO_ParseMgmtNwkUpdateNotify_1:
   \   000054   F582         MOV     DPL,A
   \   000056   85..83       MOV     DPH,?V9
   \   000059   12....       LCALL   ?Subroutine89 & 0xFFFF
   \                     ??CrossCallReturnLabel_130:
   \   00005C   28           ADD     A,R0
   \   00005D   F5..         MOV     ?V0,A
   \   00005F   E4           CLR     A
   \   000060   39           ADDC    A,R1
   \   000061   F5..         MOV     ?V1,A
   3677              msg += 2;
   \   000063   E5..         MOV     A,?V8
   \   000065   2402         ADD     A,#0x2
   \   000067   F5..         MOV     ?V8,A
   \   000069   5002         JNC     ??ZDO_ParseMgmtNwkUpdateNotify_2
   \   00006B   05..         INC     ?V9
   3678              transmissionFailures = BUILD_UINT16( msg[0], msg[1] );
   \                     ??ZDO_ParseMgmtNwkUpdateNotify_2:
   \   00006D   F582         MOV     DPL,A
   \   00006F   85..83       MOV     DPH,?V9
   \   000072   12....       LCALL   ?Subroutine61 & 0xFFFF
   3679              msg += 2;
   3680              listCount = *msg++;
   \                     ??CrossCallReturnLabel_313:
   \   000075   85..82       MOV     DPL,?V8
   \   000078   85..83       MOV     DPH,?V9
   \   00007B   A3           INC     DPTR
   \   00007C   A3           INC     DPTR
   \   00007D   E0           MOVX    A,@DPTR
   \   00007E   F5..         MOV     ?V10,A
   \   000080   E5..         MOV     A,?V8
   \   000082   2403         ADD     A,#0x3
   \   000084   F5..         MOV     ?V8,A
   \   000086   5002         JNC     ??ZDO_ParseMgmtNwkUpdateNotify_0
   \   000088   05..         INC     ?V9
   3681            }
   3682          
   3683            pRsp = (ZDO_MgmtNwkUpdateNotify_t *)osal_mem_alloc( sizeof ( ZDO_MgmtNwkUpdateNotify_t ) + listCount );
   \                     ??ZDO_ParseMgmtNwkUpdateNotify_0:
   \   00008A   AE..         MOV     R6,?V10
   \   00008C                ; Setup parameters for call to function osal_mem_alloc
   \   00008C   12....       LCALL   ?Subroutine132 & 0xFFFF
   \                     ??CrossCallReturnLabel_593:
   \   00008F   3400         ADDC    A,#0x0
   \   000091   FB           MOV     R3,A
   \   000092   12....       LCALL   `??osal_mem_alloc::?relay`; Banked call to: osal_mem_alloc
   \   000095   8A..         MOV     ?V14,R2
   \   000097   8B..         MOV     ?V15,R3
   3684          
   3685            if ( pRsp )
   \   000099   EA           MOV     A,R2
   \   00009A   45..         ORL     A,?V15
   \   00009C   6049         JZ      ??ZDO_ParseMgmtNwkUpdateNotify_3
   3686            {
   3687              pRsp->status = status;
   \   00009E   8A82         MOV     DPL,R2
   \   0000A0   8B83         MOV     DPH,R3
   \   0000A2   E5..         MOV     A,?V11
   \   0000A4   F0           MOVX    @DPTR,A
   3688              pRsp->scannedChannels = scannedChannels;
   \   0000A5   A3           INC     DPTR
   \   0000A6   78..         MOV     R0,#?V4
   \   0000A8   12....       LCALL   ?L_MOV_TO_X
   3689              pRsp->totalTransmissions = totalTransmissions;
   \   0000AB   8A82         MOV     DPL,R2
   \   0000AD   8B83         MOV     DPH,R3
   \   0000AF   A3           INC     DPTR
   \   0000B0   A3           INC     DPTR
   \   0000B1   A3           INC     DPTR
   \   0000B2   A3           INC     DPTR
   \   0000B3   A3           INC     DPTR
   \   0000B4   E5..         MOV     A,?V0
   \   0000B6   F0           MOVX    @DPTR,A
   \   0000B7   A3           INC     DPTR
   \   0000B8   E5..         MOV     A,?V1
   \   0000BA   12....       LCALL   ?Subroutine24 & 0xFFFF
   3690              pRsp->transmissionFailures = transmissionFailures;
   \                     ??CrossCallReturnLabel_21:
   \   0000BD   E5..         MOV     A,?V2
   \   0000BF   F0           MOVX    @DPTR,A
   \   0000C0   A3           INC     DPTR
   \   0000C1   E5..         MOV     A,?V3
   \   0000C3   12....       LCALL   ?Subroutine24 & 0xFFFF
   3691              pRsp->listCount = listCount;
   \                     ??CrossCallReturnLabel_22:
   \   0000C6   A3           INC     DPTR
   \   0000C7   A3           INC     DPTR
   \   0000C8   EE           MOV     A,R6
   \   0000C9   F0           MOVX    @DPTR,A
   3692          
   3693              // Allocate a buffer big enough to handle the list.
   3694              if ( listCount > 0 )
   \   0000CA   601B         JZ      ??ZDO_ParseMgmtNwkUpdateNotify_3
   3695              {
   3696                osal_memcpy( pRsp->energyValues, msg, listCount );
   \   0000CC                ; Setup parameters for call to function osal_memcpy
   \   0000CC   75..00       MOV     ?V10,#0x0
   \   0000CF   78..         MOV     R0,#?V8
   \   0000D1   12....       LCALL   ?PUSH_XSTACK_I_THREE
   \   0000D4   EE           MOV     A,R6
   \   0000D5   FC           MOV     R4,A
   \   0000D6   7D00         MOV     R5,#0x0
   \   0000D8   EA           MOV     A,R2
   \   0000D9   12....       LCALL   ??Subroutine229_0 & 0xFFFF
   3697              }
   3698            }
   \                     ??CrossCallReturnLabel_590:
   \   0000DC   35..         ADDC    A,?V15
   \   0000DE   FB           MOV     R3,A
   \   0000DF   12....       LCALL   `??osal_memcpy::?relay`; Banked call to: osal_memcpy
   \   0000E2   7403         MOV     A,#0x3
   \   0000E4   12....       LCALL   ?DEALLOC_XSTACK8
   3699          
   3700            return ( pRsp );
   \                     ??ZDO_ParseMgmtNwkUpdateNotify_3:
   \   0000E7   AA..         MOV     R2,?V14
   \   0000E9   AB..         MOV     R3,?V15
   \   0000EB   02....       LJMP    ??Subroutine196_0 & 0xFFFF
   3701          }

   \                                 In  segment BANKED_CODE, align 1, keep-with-next
   \                     ?Subroutine24:
   \   000000   12....       LCALL   ?Subroutine141 & 0xFFFF
   \                     ??CrossCallReturnLabel_247:
   \   000003   A3           INC     DPTR
   \   000004   A3           INC     DPTR
   \   000005   A3           INC     DPTR
   \   000006   A3           INC     DPTR
   \   000007   22           RET
   3702          
   3703          /*********************************************************************
   3704           * @fn          ZDO_ParseMgmtNwkUpdateReq
   3705           *
   3706           * @brief       This function handles parsing the incoming Management
   3707           *              Network Update request and starts the request (if needed).
   3708           *
   3709           * @param       inMsg - incoming message (request)
   3710           * @param       pReq - pointer to place to parse message to
   3711           *
   3712           * @return      none
   3713           */

   \                                 In  segment BANKED_CODE, align 1, keep-with-next
   3714          void ZDO_ParseMgmtNwkUpdateReq( zdoIncomingMsg_t *inMsg, ZDO_MgmtNwkUpdateReq_t *pReq )
   \                     ZDO_ParseMgmtNwkUpdateReq:
   3715          {
   \   000000                REQUIRE ?V0
   \   000000                REQUIRE ?V1
   \   000000   74F6         MOV     A,#-0xa
   \   000002   12....       LCALL   ?BANKED_ENTER_XDATA
   \   000005                ; Saved register size: 10
   \   000005                ; Auto size: 0
   \   000005   8C..         MOV     ?V0,R4
   \   000007   8D..         MOV     ?V1,R5
   3716            uint8 *msg = inMsg->asdu;
   \   000009   12....       LCALL   ?Subroutine106 & 0xFFFF
   \                     ??CrossCallReturnLabel_168:
   \   00000C   12....       LCALL   ?Subroutine79 & 0xFFFF
   3717          
   3718            pReq->channelMask = osal_build_uint32( msg, 4 );
   \                     ??CrossCallReturnLabel_113:
   \   00000F   12....       LCALL   `??osal_build_uint32::?relay`; Banked call to: osal_build_uint32
   \   000012   EA           MOV     A,R2
   \   000013   F8           MOV     R0,A
   \   000014   EB           MOV     A,R3
   \   000015   F9           MOV     R1,A
   \   000016   EC           MOV     A,R4
   \   000017   FA           MOV     R2,A
   \   000018   ED           MOV     A,R5
   \   000019   FB           MOV     R3,A
   \   00001A   85..82       MOV     DPL,?V0
   \   00001D   85..83       MOV     DPH,?V1
   \   000020   12....       LCALL   ?XSTORE_R0123
   3719            msg += 4;
   3720            pReq->scanDuration = *msg++;
   \   000023   8E82         MOV     DPL,R6
   \   000025   8F83         MOV     DPH,R7
   \   000027   A3           INC     DPTR
   \   000028   A3           INC     DPTR
   \   000029   A3           INC     DPTR
   \   00002A   A3           INC     DPTR
   \   00002B   E0           MOVX    A,@DPTR
   \   00002C   FA           MOV     R2,A
   \   00002D   E5..         MOV     A,?V0
   \   00002F   2404         ADD     A,#0x4
   \   000031   F8           MOV     R0,A
   \   000032   E4           CLR     A
   \   000033   35..         ADDC    A,?V1
   \   000035   F9           MOV     R1,A
   \   000036   EA           MOV     A,R2
   \   000037   8882         MOV     DPL,R0
   \   000039   8983         MOV     DPH,R1
   \   00003B   F0           MOVX    @DPTR,A
   3721          
   3722            if ( pReq->scanDuration <= 0x05 )
   \   00003C   C3           CLR     C
   \   00003D   9406         SUBB    A,#0x6
   \   00003F   5009         JNC     ??ZDO_ParseMgmtNwkUpdateReq_0
   3723            {
   3724              // Request is to scan over channelMask
   3725              pReq->scanCount = *msg;
   \   000041   8E82         MOV     DPL,R6
   \   000043   8F83         MOV     DPH,R7
   \   000045   12....       LCALL   ?Subroutine156 & 0xFFFF
   3726            }
   \                     ??CrossCallReturnLabel_271:
   \   000048   8027         SJMP    ??ZDO_ParseMgmtNwkUpdateReq_1
   3727            else if ( ( pReq->scanDuration == 0xFE ) || ( pReq->scanDuration == 0xFF ) )
   \                     ??ZDO_ParseMgmtNwkUpdateReq_0:
   \   00004A   74FE         MOV     A,#-0x2
   \   00004C   6A           XRL     A,R2
   \   00004D   6005         JZ      ??ZDO_ParseMgmtNwkUpdateReq_2
   \   00004F   74FF         MOV     A,#-0x1
   \   000051   6A           XRL     A,R2
   \   000052   701E         JNZ     ??ZDO_ParseMgmtNwkUpdateReq_3
   3728            {
   3729              // Request is to change Channel (0xFE) or apsChannelMask and NwkManagerAddr (0xFF)
   3730              pReq->nwkUpdateId = *msg++;
   \                     ??ZDO_ParseMgmtNwkUpdateReq_2:
   \   000054   8E82         MOV     DPL,R6
   \   000056   8F83         MOV     DPH,R7
   \   000058   12....       LCALL   ?Subroutine78 & 0xFFFF
   \                     ??CrossCallReturnLabel_111:
   \   00005B   F0           MOVX    @DPTR,A
   \   00005C   EE           MOV     A,R6
   \   00005D   2406         ADD     A,#0x6
   \   00005F   FE           MOV     R6,A
   \   000060   5001         JNC     ??ZDO_ParseMgmtNwkUpdateReq_4
   \   000062   0F           INC     R7
   3731          
   3732              if ( pReq->scanDuration == 0xFF )
   \                     ??ZDO_ParseMgmtNwkUpdateReq_4:
   \   000063   8882         MOV     DPL,R0
   \   000065   8983         MOV     DPH,R1
   \   000067   E0           MOVX    A,@DPTR
   \   000068   F4           CPL     A
   \   000069   7007         JNZ     ??ZDO_ParseMgmtNwkUpdateReq_3
   3733              {
   3734                pReq->nwkManagerAddr = BUILD_UINT16( msg[0], msg[1] );
   \   00006B   12....       LCALL   ?Subroutine64 & 0xFFFF
   3735              }
   3736            }
   \                     ??CrossCallReturnLabel_95:
   \   00006E   F0           MOVX    @DPTR,A
   \   00006F   A3           INC     DPTR
   \   000070   E9           MOV     A,R1
   \                     ??ZDO_ParseMgmtNwkUpdateReq_1:
   \   000071   F0           MOVX    @DPTR,A
   3737          }
   \                     ??ZDO_ParseMgmtNwkUpdateReq_3:
   \   000072   02....       LJMP    ??Subroutine180_0 & 0xFFFF

   \                                 In  segment XDATA_ID, align 1, keep-with-next
   \                     `?<Initializer for zdpExternalStateTaskID>`:
   \   000000   FFFF         DW -1

   \                                 In  segment BANK_RELAYS, align 1
   \                     `??ZDO_Init::?relay`:
   \   000000   12....       LCALL   ?BDISPATCH
   \   000003   ......       DC24    ZDO_Init

   \                                 In  segment BANK_RELAYS, align 1
   \                     `??ZDO_StartDevice::?relay`:
   \   000000   12....       LCALL   ?BDISPATCH
   \   000003   ......       DC24    ZDO_StartDevice

   \                                 In  segment BANK_RELAYS, align 1
   \                     `??zdoSendStateChangeMsg::?relay`:
   \   000000   12....       LCALL   ?BDISPATCH
   \   000003   ......       DC24    zdoSendStateChangeMsg

   \                                 In  segment BANK_RELAYS, align 1
   \                     `??ZDO_UpdateNwkStatus::?relay`:
   \   000000   12....       LCALL   ?BDISPATCH
   \   000003   ......       DC24    ZDO_UpdateNwkStatus

   \                                 In  segment BANK_RELAYS, align 1
   \                     `??ZDO_CompareClusterLists::?relay`:
   \   000000   12....       LCALL   ?BDISPATCH
   \   000003   ......       DC24    ZDO_CompareClusterLists

   \                                 In  segment BANK_RELAYS, align 1
   \                     `??ZDO_AnyClusterMatches::?relay`:
   \   000000   12....       LCALL   ?BDISPATCH
   \   000003   ......       DC24    ZDO_AnyClusterMatches

   \                                 In  segment BANK_RELAYS, align 1
   \                     `??ZDO_ProcessNodeDescRsp::?relay`:
   \   000000   12....       LCALL   ?BDISPATCH
   \   000003   ......       DC24    ZDO_ProcessNodeDescRsp

   \                                 In  segment BANK_RELAYS, align 1
   \                     `??ZDO_ProcessNodeDescReq::?relay`:
   \   000000   12....       LCALL   ?BDISPATCH
   \   000003   ......       DC24    ZDO_ProcessNodeDescReq

   \                                 In  segment BANK_RELAYS, align 1
   \                     `??ZDO_ProcessPowerDescReq::?relay`:
   \   000000   12....       LCALL   ?BDISPATCH
   \   000003   ......       DC24    ZDO_ProcessPowerDescReq

   \                                 In  segment BANK_RELAYS, align 1
   \                     `??ZDO_ProcessSimpleDescReq::?relay`:
   \   000000   12....       LCALL   ?BDISPATCH
   \   000003   ......       DC24    ZDO_ProcessSimpleDescReq

   \                                 In  segment BANK_RELAYS, align 1
   \                     `??ZDO_ProcessSimpleDescRsp::?relay`:
   \   000000   12....       LCALL   ?BDISPATCH
   \   000003   ......       DC24    ZDO_ProcessSimpleDescRsp

   \                                 In  segment BANK_RELAYS, align 1
   \                     `??ZDO_ProcessActiveEPReq::?relay`:
   \   000000   12....       LCALL   ?BDISPATCH
   \   000003   ......       DC24    ZDO_ProcessActiveEPReq

   \                                 In  segment BANK_RELAYS, align 1
   \                     `??ZDO_ConvertOTAClusters::?relay`:
   \   000000   12....       LCALL   ?BDISPATCH
   \   000003   ......       DC24    ZDO_ConvertOTAClusters

   \                                 In  segment BANK_RELAYS, align 1
   \                     `??ZDO_ProcessMatchDescReq::?relay`:
   \   000000   12....       LCALL   ?BDISPATCH
   \   000003   ......       DC24    ZDO_ProcessMatchDescReq

   \                                 In  segment BANK_RELAYS, align 1
   \                     `??ZDO_ProcessBindUnbindReq::?relay`:
   \   000000   12....       LCALL   ?BDISPATCH
   \   000003   ......       DC24    ZDO_ProcessBindUnbindReq

   \                                 In  segment BANK_RELAYS, align 1
   \                     `??ZDO_UpdateAddrManager::?relay`:
   \   000000   12....       LCALL   ?BDISPATCH
   \   000003   ......       DC24    ZDO_UpdateAddrManager

   \                                 In  segment BANK_RELAYS, align 1
   \                     `??ZDO_ProcessServerDiscReq::?relay`:
   \   000000   12....       LCALL   ?BDISPATCH
   \   000003   ......       DC24    ZDO_ProcessServerDiscReq

   \                                 In  segment BANK_RELAYS, align 1
   \                     `??ZDO_EndDeviceTimeoutCB::?relay`:
   \   000000   12....       LCALL   ?BDISPATCH
   \   000003   ......       DC24    ZDO_EndDeviceTimeoutCB

   \                                 In  segment BANK_RELAYS, align 1
   \                     `??ZDO_ProcessMgmtLqiReq::?relay`:
   \   000000   12....       LCALL   ?BDISPATCH
   \   000003   ......       DC24    ZDO_ProcessMgmtLqiReq

   \                                 In  segment BANK_RELAYS, align 1
   \                     `??ZDO_ProcessMgmtNwkDiscReq::?relay`:
   \   000000   12....       LCALL   ?BDISPATCH
   \   000003   ......       DC24    ZDO_ProcessMgmtNwkDiscReq

   \                                 In  segment BANK_RELAYS, align 1
   \                     `??ZDO_ProcessMgmtRtgReq::?relay`:
   \   000000   12....       LCALL   ?BDISPATCH
   \   000003   ......       DC24    ZDO_ProcessMgmtRtgReq

   \                                 In  segment BANK_RELAYS, align 1
   \                     `??ZDO_ProcessMgmtBindReq::?relay`:
   \   000000   12....       LCALL   ?BDISPATCH
   \   000003   ......       DC24    ZDO_ProcessMgmtBindReq

   \                                 In  segment BANK_RELAYS, align 1
   \                     `??ZDO_ProcessMgmtDirectJoinReq::?relay`:
   \   000000   12....       LCALL   ?BDISPATCH
   \   000003   ......       DC24    ZDO_ProcessMgmtDirectJoinReq

   \                                 In  segment BANK_RELAYS, align 1
   \                     `??ZDO_ProcessMgmtLeaveReq::?relay`:
   \   000000   12....       LCALL   ?BDISPATCH
   \   000003   ......       DC24    ZDO_ProcessMgmtLeaveReq

   \                                 In  segment BANK_RELAYS, align 1
   \                     `??ZDO_ProcessMgmtPermitJoinReq::?relay`:
   \   000000   12....       LCALL   ?BDISPATCH
   \   000003   ......       DC24    ZDO_ProcessMgmtPermitJoinReq

   \                                 In  segment BANK_RELAYS, align 1
   \                     `??NLME_PermitJoiningTimeout::?relay`:
   \   000000   12....       LCALL   ?BDISPATCH
   \   000003   ......       DC24    NLME_PermitJoiningTimeout

   \                                 In  segment BANK_RELAYS, align 1
   \                     `??ZDO_ProcessUserDescReq::?relay`:
   \   000000   12....       LCALL   ?BDISPATCH
   \   000003   ......       DC24    ZDO_ProcessUserDescReq

   \                                 In  segment BANK_RELAYS, align 1
   \                     `??ZDO_ProcessUserDescSet::?relay`:
   \   000000   12....       LCALL   ?BDISPATCH
   \   000003   ......       DC24    ZDO_ProcessUserDescSet

   \                                 In  segment BANK_RELAYS, align 1
   \                     `??ZDO_ProcessDeviceAnnce::?relay`:
   \   000000   12....       LCALL   ?BDISPATCH
   \   000003   ......       DC24    ZDO_ProcessDeviceAnnce

   \                                 In  segment BANK_RELAYS, align 1
   \                     `??ZDO_ProcessParentAnnce::?relay`:
   \   000000   12....       LCALL   ?BDISPATCH
   \   000003   ......       DC24    ZDO_ProcessParentAnnce

   \                                 In  segment BANK_RELAYS, align 1
   \                     `??ZDO_ProcessParentAnnceRsp::?relay`:
   \   000000   12....       LCALL   ?BDISPATCH
   \   000003   ......       DC24    ZDO_ProcessParentAnnceRsp

   \                                 In  segment BANK_RELAYS, align 1
   \                     `??ZDO_BuildSimpleDescBuf::?relay`:
   \   000000   12....       LCALL   ?BDISPATCH
   \   000003   ......       DC24    ZDO_BuildSimpleDescBuf

   \                                 In  segment BANK_RELAYS, align 1
   \                     `??ZDO_MatchEndDeviceBind::?relay`:
   \   000000   12....       LCALL   ?BDISPATCH
   \   000003   ......       DC24    ZDO_MatchEndDeviceBind

   \                                 In  segment BANK_RELAYS, align 1
   \                     `??ZDO_RemoveMatchMemory::?relay`:
   \   000000   12....       LCALL   ?BDISPATCH
   \   000003   ......       DC24    ZDO_RemoveMatchMemory

   \                                 In  segment BANK_RELAYS, align 1
   \                     `??ZDO_CopyMatchInfo::?relay`:
   \   000000   12....       LCALL   ?BDISPATCH
   \   000003   ......       DC24    ZDO_CopyMatchInfo

   \                                 In  segment BANK_RELAYS, align 1
   \                     `??ZDMatchSendState::?relay`:
   \   000000   12....       LCALL   ?BDISPATCH
   \   000003   ......       DC24    ZDMatchSendState

   \                                 In  segment BANK_RELAYS, align 1
   \                     `??ZDO_EndDeviceBindMatchTimeoutCB::?relay`:
   \   000000   12....       LCALL   ?BDISPATCH
   \   000003   ......       DC24    ZDO_EndDeviceBindMatchTimeoutCB

   \                                 In  segment BANK_RELAYS, align 1
   \                     `??ZDO_ParseEndDeviceBindReq::?relay`:
   \   000000   12....       LCALL   ?BDISPATCH
   \   000003   ......       DC24    ZDO_ParseEndDeviceBindReq

   \                                 In  segment BANK_RELAYS, align 1
   \                     `??ZDO_ParseBindUnbindReq::?relay`:
   \   000000   12....       LCALL   ?BDISPATCH
   \   000003   ......       DC24    ZDO_ParseBindUnbindReq

   \                                 In  segment BANK_RELAYS, align 1
   \                     `??ZDO_ParseAddrRsp::?relay`:
   \   000000   12....       LCALL   ?BDISPATCH
   \   000003   ......       DC24    ZDO_ParseAddrRsp

   \                                 In  segment BANK_RELAYS, align 1
   \                     `??ZDO_ParseNodeDescRsp::?relay`:
   \   000000   12....       LCALL   ?BDISPATCH
   \   000003   ......       DC24    ZDO_ParseNodeDescRsp

   \                                 In  segment BANK_RELAYS, align 1
   \                     `??ZDO_ParsePowerDescRsp::?relay`:
   \   000000   12....       LCALL   ?BDISPATCH
   \   000003   ......       DC24    ZDO_ParsePowerDescRsp

   \                                 In  segment BANK_RELAYS, align 1
   \                     `??ZDO_ParseSimpleDescRsp::?relay`:
   \   000000   12....       LCALL   ?BDISPATCH
   \   000003   ......       DC24    ZDO_ParseSimpleDescRsp

   \                                 In  segment BANK_RELAYS, align 1
   \                     `??ZDO_ParseEPListRsp::?relay`:
   \   000000   12....       LCALL   ?BDISPATCH
   \   000003   ......       DC24    ZDO_ParseEPListRsp

   \                                 In  segment BANK_RELAYS, align 1
   \                     `??ZDO_ParseServerDiscRsp::?relay`:
   \   000000   12....       LCALL   ?BDISPATCH
   \   000003   ......       DC24    ZDO_ParseServerDiscRsp

   \                                 In  segment BANK_RELAYS, align 1
   \                     `??ZDO_ParseMgmtLqiRsp::?relay`:
   \   000000   12....       LCALL   ?BDISPATCH
   \   000003   ......       DC24    ZDO_ParseMgmtLqiRsp

   \                                 In  segment BANK_RELAYS, align 1
   \                     `??ZDO_ParseMgmNwkDiscRsp::?relay`:
   \   000000   12....       LCALL   ?BDISPATCH
   \   000003   ......       DC24    ZDO_ParseMgmNwkDiscRsp

   \                                 In  segment BANK_RELAYS, align 1
   \                     `??ZDO_ParseMgmtRtgRsp::?relay`:
   \   000000   12....       LCALL   ?BDISPATCH
   \   000003   ......       DC24    ZDO_ParseMgmtRtgRsp

   \                                 In  segment BANK_RELAYS, align 1
   \                     `??ZDO_ParseMgmtBindRsp::?relay`:
   \   000000   12....       LCALL   ?BDISPATCH
   \   000003   ......       DC24    ZDO_ParseMgmtBindRsp

   \                                 In  segment BANK_RELAYS, align 1
   \                     `??ZDO_ParseUserDescRsp::?relay`:
   \   000000   12....       LCALL   ?BDISPATCH
   \   000003   ......       DC24    ZDO_ParseUserDescRsp

   \                                 In  segment BANK_RELAYS, align 1
   \                     `??ZDO_ParseSimpleDescBuf::?relay`:
   \   000000   12....       LCALL   ?BDISPATCH
   \   000003   ......       DC24    ZDO_ParseSimpleDescBuf

   \                                 In  segment BANK_RELAYS, align 1
   \                     `??ZDO_ParseDeviceAnnce::?relay`:
   \   000000   12....       LCALL   ?BDISPATCH
   \   000003   ......       DC24    ZDO_ParseDeviceAnnce

   \                                 In  segment BANK_RELAYS, align 1
   \                     `??ZDO_ParseParentAnnce::?relay`:
   \   000000   12....       LCALL   ?BDISPATCH
   \   000003   ......       DC24    ZDO_ParseParentAnnce

   \                                 In  segment BANK_RELAYS, align 1
   \                     `??ZDO_ParseMgmtNwkUpdateNotify::?relay`:
   \   000000   12....       LCALL   ?BDISPATCH
   \   000003   ......       DC24    ZDO_ParseMgmtNwkUpdateNotify

   \                                 In  segment BANK_RELAYS, align 1
   \                     `??ZDO_ParseMgmtNwkUpdateReq::?relay`:
   \   000000   12....       LCALL   ?BDISPATCH
   \   000003   ......       DC24    ZDO_ParseMgmtNwkUpdateReq

   \                                 In  segment XDATA_ROM_C, align 1
   \                     `?<Constant "StartDevice ERR">`:
   \   000000   53746172     DB "StartDevice ERR"
   \            74446576
   \            69636520
   \            45525200

   \                                 In  segment XDATA_ROM_C, align 1
   \                     `?<Constant "MODE unknown">`:
   \   000000   4D4F4445     DB "MODE unknown"
   \            20756E6B
   \            6E6F776E
   \            00      

   \                                 In  segment XDATA_ROM_C, align 1
   \                     `?<Constant "End Device Bind">`:
   \   000000   456E6420     DB "End Device Bind"
   \            44657669
   \            63652042
   \            696E6400

   \                                 In  segment XDATA_ROM_C, align 1
   \                     `?<Constant "Success Sent">`:
   \   000000   53756363     DB "Success Sent"
   \            65737320
   \            53656E74
   \            00      

   \                                 In  segment XDATA_ROM_C, align 1
   \                     `?<Constant "Timeout">`:
   \   000000   54696D65     DB "Timeout"
   \            6F757400

   \                                 In  segment XDATA_ROM_C, align 1
   \                     `?<Constant "Match Desc Req">`:
   \   000000   4D617463     DB "Match Desc Req"
   \            68204465
   \            73632052
   \            657100  

   \                                 In  segment XDATA_ROM_C, align 1
   \                     `?<Constant "Rsp Sent">`:
   \   000000   52737020     DB "Rsp Sent"
   \            53656E74
   \            00      

   \                                 In  segment XDATA_ROM_C, align 1
   \                     `?<Constant "Rsp Non Matched">`:
   \   000000   52737020     DB "Rsp Non Matched"
   \            4E6F6E20
   \            4D617463
   \            68656400

   \                                 In  segment XDATA_ROM_C, align 1
   \                     `?<Constant "Non Matched">`:
   \   000000   4E6F6E20     DB "Non Matched"
   \            4D617463
   \            68656400

   \                                 In  segment XDATA_ROM_C, align 1
   \                     `?<Constant {255, 0, 0, 0, 0, 0, 0, 0}>`:
   \   000000   FF           DB 255
   \   000001   00           DB 0
   \   000002   00           DB 0
   \   000003   00           DB 0
   \   000004   00           DB 0
   \   000005   00           DB 0
   \   000006   00           DB 0
   \   000007   00           DB 0

   \                                 In  segment XDATA_ROM_C, align 1
   \                     __Constant_3e8:
   \   000000   E8030000     DD 1000
   3738          
   3739          /*********************************************************************
   3740          *********************************************************************/

   Maximum stack usage in bytes:

   ISTACK XSTACK Function
   ------ ------ --------
      2      0   NLME_PermitJoiningTimeout
        2      0   -> ZDSecMgrPermitJoiningTimeout
      1     71   ZDMatchSendState
        0     37   -> APS_SetEndDeviceBindTimeout
        0     37   -> ZDO_RemoveMatchMemory
        0     45   -> ZDP_BindUnbindReq
        0     42   -> ZDP_SendData
        0     37   -> sAddrExtCpy
      0     48   ZDO_AnyClusterMatches
      1     14   ZDO_BuildSimpleDescBuf
      0     46   ZDO_CompareClusterLists
      0     44   ZDO_ConvertOTAClusters
      0     47   ZDO_CopyMatchInfo
        0     18   -> osal_mem_alloc
        0     18   -> osal_mem_free
        0     21   -> osal_memcpy
      2      0   ZDO_EndDeviceBindMatchTimeoutCB
        2      0   -> ZDMatchSendState
      1     17   ZDO_EndDeviceTimeoutCB
        0     12   -> HalLcdWriteString
        0     17   -> ZDP_SendData
        0     12   -> osal_mem_free
      2      0   ZDO_Init
        2      0   -> APS_ReflectorInit
        2      0   -> NLME_CoordinatorInit
        2      0   -> sAddrExtCpy
      1     31   ZDO_MatchEndDeviceBind
        0     26   -> APS_SetEndDeviceBindTimeout
        0     26   -> ZDMatchSendState
        0     30   -> ZDO_CompareClusterLists
        0     26   -> ZDO_CopyMatchInfo
        0     26   -> ZDO_RemoveMatchMemory
        0     31   -> ZDP_SendData
        0     26   -> osal_mem_alloc
        0     29   -> osal_memcpy
        0     26   -> osal_memset
      1     14   ZDO_ParseAddrRsp
        0     14   -> osal_mem_alloc
        0     14   -> sAddrExtCpy
      1     10   ZDO_ParseBindUnbindReq
        0     10   -> sAddrExtCpy
      1     61   ZDO_ParseDeviceAnnce
        0     10   -> sAddrExtCpy
      1     19   ZDO_ParseEPListRsp
        0     16   -> osal_mem_alloc
        0     19   -> osal_memcpy
      1     18   ZDO_ParseEndDeviceBindReq
        0     18   -> ZDO_ConvertOTAClusters
        0     18   -> osal_mem_alloc
        0     18   -> sAddrExtCpy
      1     16   ZDO_ParseMgmNwkDiscRsp
        0     16   -> osal_mem_alloc
        0     16   -> sAddrExtCpy
      1     18   ZDO_ParseMgmtBindRsp
        0     18   -> osal_mem_alloc
        0     18   -> sAddrExtCpy
      1     16   ZDO_ParseMgmtLqiRsp
        0     16   -> osal_mem_alloc
        0     16   -> sAddrExtCpy
      1     27   ZDO_ParseMgmtNwkUpdateNotify
        0     24   -> osal_build_uint32
        0     24   -> osal_mem_alloc
        0     27   -> osal_memcpy
      1     10   ZDO_ParseMgmtNwkUpdateReq
        0     10   -> osal_build_uint32
      1     14   ZDO_ParseMgmtRtgRsp
        0     14   -> osal_mem_alloc
      2     12   ZDO_ParseNodeDescRsp
      1     49   ZDO_ParseParentAnnce
        0     14   -> osal_build_uint32
        0     14   -> osal_mem_alloc
        0     14   -> sAddrExtCpy
      1     12   ZDO_ParsePowerDescRsp
      1      9   ZDO_ParseServerDiscRsp
      1     25   ZDO_ParseSimpleDescBuf
        0     16   -> osal_mem_alloc
        0     16   -> osal_mem_free
      1      9   ZDO_ParseSimpleDescRsp
        0      9   -> ZDO_ParseSimpleDescBuf
      1     19   ZDO_ParseUserDescRsp
        0     16   -> osal_mem_alloc
        0     19   -> osal_memcpy
      0     21   ZDO_ProcessActiveEPReq
        0     14   -> NLME_GetShortAddr
        0     21   -> ZDP_EPRsp
        0     14   -> afEndPoints
        0     14   -> afNumEndPoints
      0     34   ZDO_ProcessBindUnbindReq
        0     30   -> APSME_BindRequest
        0     29   -> APSME_LookupNwkAddr
        0     30   -> APSME_UnBindRequest
        0     29   -> NLME_GetExtAddr
        0     29   -> ZDApp_NVUpdate
        0     29   -> ZDP_NwkAddrReq
        0     34   -> ZDP_SendData
        0     29   -> sAddrExtCmp
        0     29   -> sAddrExtCpy
      0     54   ZDO_ProcessDeviceAnnce
        0     51   -> AddrMgrEntryLookupExt
        0     51   -> AddrMgrEntryLookupNwk
        0     51   -> AddrMgrEntryUpdate
        0     51   -> AddrMgrExtAddrSet
        0     51   -> AssocGetWithExt
        0     51   -> AssocRemove
        0     51   -> NLME_CheckNewAddrSet
        0     51   -> NLME_GetCoordExtAddr
        0     51   -> NLME_GetCoordShortAddr
        0     51   -> NLME_GetShortAddr
        0     51   -> RTG_RemoveRtgEntry
        0     51   -> ZDO_ParseDeviceAnnce
        0     51   -> ZMacSetReq
        0     51   -> nwkNeighborRemove
        0     51   -> nwkNeighborRemoveAllStranded
        0     51   -> osal_get_timeoutEx
        0     54   -> osal_memcmp
        0     51   -> osal_memset
        0     51   -> osal_stop_timerEx
        0     51   -> sAddrExtCmp
      1     41   ZDO_ProcessMatchDescReq
        0     34   -> HalLcdWriteScreen
        0     34   -> NLME_IsAddressBroadcast
        0     36   -> ZDO_AnyClusterMatches
        0     34   -> ZDO_ConvertOTAClusters
        0     41   -> ZDP_EPRsp
        0     34   -> osal_mem_alloc
        0     34   -> osal_mem_free
        0     37   -> osal_memcpy
        0     34   -> osal_msg_allocate
        0     34   -> osal_msg_send
      0     25   ZDO_ProcessMgmtBindReq
        0     20   -> APSME_GetRequest
        0     25   -> ZDP_MgmtBindRsp
        0     20   -> osal_mem_alloc
        0     20   -> osal_mem_free
      1     16   ZDO_ProcessMgmtDirectJoinReq
        0     11   -> NLME_DirectJoinRequest
        0     16   -> ZDP_SendData
      0     23   ZDO_ProcessMgmtLeaveReq
        0     18   -> AddrMgrExtAddrValid
        0     18   -> NLME_GetExtAddr
        0     18   -> NLME_LeaveReq
        0     23   -> ZDP_SendData
        0     18   -> bdb_setFN
        0     18   -> sAddrExtCmp
      1     66   ZDO_ProcessMgmtLqiReq
        0     61   -> AddrMgrEntryLookupNwk
        0     61   -> AssocCount
        0     61   -> AssocFindDevice
        0     61   -> NLME_GetRequest
        0     66   -> ZDP_MgmtLqiRsp
        0     61   -> osal_mem_alloc
        0     61   -> osal_mem_free
        0     61   -> osal_memset
        0     61   -> sAddrExtCpy
      1     17   ZDO_ProcessMgmtNwkDiscReq
        0     17   -> NLME_NwkDiscReq2
        0     17   -> NLME_NwkDiscTerm
        0     17   -> osal_build_uint32
      1     16   ZDO_ProcessMgmtPermitJoinReq
        0     11   -> APSME_IsDistributedSecurity
        0     11   -> NLME_PermitJoiningRequest
        0     16   -> ZDP_SendData
        0     11   -> ZDSecMgrPermitJoining
      0     22   ZDO_ProcessMgmtRtgReq
        0     17   -> NLME_GetRequest
        0     22   -> ZDP_MgmtRtgRsp
        0     17   -> osal_mem_alloc
        0     17   -> osal_mem_free
      0     14   ZDO_ProcessNodeDescReq
        0     14   -> ZDP_GenericRsp
        0     12   -> ZDP_NodeDescMsg
      0      0   ZDO_ProcessNodeDescRsp
      0     40   ZDO_ProcessParentAnnce
        0     35   -> AssocGetWithExt
        0     35   -> AssocRemove
        0     35   -> ZDO_ParseParentAnnce
        0     40   -> ZDP_ParentAnnce
        0     35   -> osal_mem_alloc
        0     35   -> osal_mem_free
        0     35   -> sAddrExtCpy
      0     20   ZDO_ProcessParentAnnceRsp
        0     20   -> AssocGetWithExt
        0     20   -> AssocRemove
        0     20   -> ZDO_ParseParentAnnce
        0     20   -> osal_mem_free
      0     14   ZDO_ProcessPowerDescReq
        0     14   -> ZDP_GenericRsp
        0     12   -> ZDP_PowerDescMsg
      0     14   ZDO_ProcessServerDiscReq
        0     14   -> ZDP_ServerDiscRsp
      0     12   ZDO_ProcessSimpleDescReq
        0     12   -> ZDP_SimpleDescMsg
        0     12   -> afFindSimpleDesc
        0     12   -> osal_mem_free
      0     12   ZDO_ProcessSimpleDescRsp
        0     12   -> bdb_SendMsg
        0     10   -> bdb_setEpDescListToActiveEndpoint
      0     37   ZDO_ProcessUserDescReq
        0     37   -> ZDP_GenericRsp
        0     36   -> ZDP_UserDescRsp
        0     37   -> osal_nv_read
      1     41   ZDO_ProcessUserDescSet
        0     41   -> ZDP_SendData
        0     39   -> osal_memcpy
        0     40   -> osal_nv_write
      2     37   ZDO_RemoveMatchMemory
        2      0   -> osal_mem_free
      0     22   ZDO_StartDevice
        0     12   -> HalLcdWriteScreen
        0     22   -> NLME_NetworkFormationRequest
        0     12   -> NLME_StartRouterRequest
        0     12   -> ZDApp_ChangeState
        0     16   -> osal_start_timerEx
      2     13   ZDO_UpdateAddrManager
        2     13   -> AddrMgrEntryUpdate
        2     13   -> AddrMgrExtAddrSet
      0      9   ZDO_UpdateNwkStatus
        0      9   -> NLME_GetExtAddr
        0      9   -> NLME_GetShortAddr
        0      9   -> zdoSendStateChangeMsg
      1     19   zdoSendStateChangeMsg
        0     10   -> osal_msg_allocate
        0     10   -> osal_msg_find
        0     10   -> osal_msg_send
        0     10   -> osal_set_event


   Segment part sizes:

   Bytes  Function/Label
   -----  --------------
      16  ?<Constant "End Device Bind">
      13  ?<Constant "MODE unknown">
      15  ?<Constant "Match Desc Req">
      12  ?<Constant "Non Matched">
      16  ?<Constant "Rsp Non Matched">
       9  ?<Constant "Rsp Sent">
      16  ?<Constant "StartDevice ERR">
      13  ?<Constant "Success Sent">
       8  ?<Constant "Timeout">
       8  ?<Constant {255, 0, 0, 0, 0, 0, 0, 0}>
       2  ?<Initializer for zdpExternalStateTaskID>
       4  ??Subroutine178_0
       3  ??Subroutine179_0
       5  ??Subroutine180_0
       6  ??Subroutine181_0
      11  ??Subroutine182_0
       6  ??Subroutine183_0
       1  ??Subroutine184_0
       5  ??Subroutine185_0
       5  ??Subroutine186_0
       4  ??Subroutine187_0
       5  ??Subroutine188_0
       1  ??Subroutine189_0
       4  ??Subroutine190_0
       5  ??Subroutine191_0
       1  ??Subroutine192_0
       9  ??Subroutine193_0
       8  ??Subroutine194_0
       5  ??Subroutine195_0
       5  ??Subroutine196_0
       8  ??Subroutine197_0
       4  ??Subroutine198_0
       5  ??Subroutine199_0
       4  ??Subroutine200_0
       2  ??Subroutine201_0
       7  ??Subroutine202_0
       9  ??Subroutine203_0
       5  ??Subroutine204_0
       8  ??Subroutine205_0
       5  ??Subroutine206_0
       8  ??Subroutine207_0
       7  ??Subroutine208_0
       3  ??Subroutine209_0
       4  ??Subroutine210_0
       6  ??Subroutine211_0
       5  ??Subroutine212_0
       5  ??Subroutine213_0
       5  ??Subroutine214_0
       5  ??Subroutine215_0
       4  ??Subroutine216_0
       2  ??Subroutine217_0
      11  ??Subroutine218_0
       7  ??Subroutine219_0
       5  ??Subroutine220_0
       6  ??Subroutine221_0
       6  ??Subroutine222_0
       6  ??Subroutine223_0
      10  ??Subroutine224_0
       1  ??Subroutine225_0
       6  ??Subroutine226_0
       6  ??Subroutine227_0
       6  ??Subroutine228_0
       5  ??Subroutine229_0
       8  ??Subroutine230_0
       7  ?Subroutine0
       5  ?Subroutine1
      42  ?Subroutine10
      16  ?Subroutine100
       2  ?Subroutine101
      12  ?Subroutine102
      12  ?Subroutine103
      10  ?Subroutine104
       4  ?Subroutine105
       4  ?Subroutine106
       7  ?Subroutine107
      10  ?Subroutine108
       4  ?Subroutine109
      26  ?Subroutine11
       6  ?Subroutine110
       4  ?Subroutine111
       3  ?Subroutine112
      13  ?Subroutine113
       6  ?Subroutine114
      10  ?Subroutine115
      11  ?Subroutine116
      12  ?Subroutine117
      21  ?Subroutine118
       5  ?Subroutine119
      17  ?Subroutine12
      12  ?Subroutine120
       6  ?Subroutine121
       9  ?Subroutine122
      11  ?Subroutine123
       8  ?Subroutine124
       4  ?Subroutine125
       7  ?Subroutine126
       7  ?Subroutine127
      13  ?Subroutine128
      11  ?Subroutine129
      17  ?Subroutine13
      12  ?Subroutine130
       2  ?Subroutine131
       1  ?Subroutine132
       3  ?Subroutine133
      15  ?Subroutine134
      10  ?Subroutine135
      10  ?Subroutine136
      10  ?Subroutine137
      13  ?Subroutine138
       9  ?Subroutine139
      25  ?Subroutine14
       9  ?Subroutine140
       7  ?Subroutine141
       1  ?Subroutine142
      13  ?Subroutine143
       6  ?Subroutine144
       4  ?Subroutine145
       5  ?Subroutine146
       6  ?Subroutine147
       7  ?Subroutine148
       5  ?Subroutine149
       5  ?Subroutine15
       4  ?Subroutine150
       9  ?Subroutine151
       9  ?Subroutine152
      20  ?Subroutine153
       8  ?Subroutine154
       2  ?Subroutine155
      18  ?Subroutine156
       3  ?Subroutine157
       2  ?Subroutine158
       7  ?Subroutine159
       6  ?Subroutine16
       6  ?Subroutine160
       1  ?Subroutine161
       2  ?Subroutine162
       7  ?Subroutine163
      11  ?Subroutine164
       4  ?Subroutine165
       7  ?Subroutine166
       5  ?Subroutine167
       1  ?Subroutine168
       8  ?Subroutine169
       8  ?Subroutine17
       6  ?Subroutine170
       8  ?Subroutine171
       9  ?Subroutine172
       9  ?Subroutine173
       5  ?Subroutine174
      10  ?Subroutine175
       1  ?Subroutine176
       9  ?Subroutine177
       3  ?Subroutine18
       8  ?Subroutine19
       2  ?Subroutine2
       6  ?Subroutine20
      11  ?Subroutine21
       8  ?Subroutine22
       1  ?Subroutine23
       8  ?Subroutine24
      11  ?Subroutine25
       7  ?Subroutine26
       3  ?Subroutine27
       5  ?Subroutine28
       6  ?Subroutine29
       5  ?Subroutine3
       4  ?Subroutine30
       8  ?Subroutine31
      11  ?Subroutine32
       9  ?Subroutine33
       6  ?Subroutine34
       4  ?Subroutine35
      11  ?Subroutine36
       6  ?Subroutine37
       4  ?Subroutine38
       2  ?Subroutine39
       4  ?Subroutine4
       1  ?Subroutine40
       5  ?Subroutine41
       5  ?Subroutine42
       7  ?Subroutine43
       4  ?Subroutine44
      10  ?Subroutine45
       8  ?Subroutine46
       4  ?Subroutine47
       5  ?Subroutine48
       6  ?Subroutine49
       5  ?Subroutine5
       4  ?Subroutine50
       6  ?Subroutine51
       6  ?Subroutine52
       3  ?Subroutine53
      19  ?Subroutine54
      35  ?Subroutine55
       9  ?Subroutine56
       9  ?Subroutine57
       3  ?Subroutine58
       8  ?Subroutine59
       3  ?Subroutine6
       2  ?Subroutine60
       1  ?Subroutine61
      20  ?Subroutine62
      32  ?Subroutine63
      21  ?Subroutine64
       4  ?Subroutine65
      11  ?Subroutine66
      10  ?Subroutine67
       6  ?Subroutine68
       1  ?Subroutine69
       3  ?Subroutine7
       9  ?Subroutine70
       7  ?Subroutine71
       2  ?Subroutine72
       8  ?Subroutine73
       4  ?Subroutine74
       4  ?Subroutine75
       2  ?Subroutine76
      22  ?Subroutine77
       5  ?Subroutine78
      14  ?Subroutine79
       6  ?Subroutine8
       8  ?Subroutine80
      11  ?Subroutine81
      15  ?Subroutine82
      11  ?Subroutine83
       8  ?Subroutine84
       6  ?Subroutine85
       7  ?Subroutine86
       7  ?Subroutine87
       6  ?Subroutine88
       5  ?Subroutine89
       5  ?Subroutine9
       6  ?Subroutine90
       6  ?Subroutine91
      10  ?Subroutine92
       2  ?Subroutine93
      17  ?Subroutine94
      12  ?Subroutine95
       6  ?Subroutine96
      13  ?Subroutine97
       7  ?Subroutine98
       1  ?Subroutine99
       7  NLME_PermitJoiningTimeout
       6  NLME_PermitJoiningTimeout::?relay
     622  ZDMatchSendState
       6  ZDMatchSendState::?relay
      52  ZDOBuildBuf
      77  ZDO_AnyClusterMatches
       6  ZDO_AnyClusterMatches::?relay
     237  ZDO_BuildSimpleDescBuf
       6  ZDO_BuildSimpleDescBuf::?relay
     105  ZDO_CompareClusterLists
       6  ZDO_CompareClusterLists::?relay
      57  ZDO_ConvertOTAClusters
       6  ZDO_ConvertOTAClusters::?relay
     204  ZDO_CopyMatchInfo
       6  ZDO_CopyMatchInfo::?relay
       2  ZDO_EDBind
      16  ZDO_EndDeviceBindMatchTimeoutCB
       6  ZDO_EndDeviceBindMatchTimeoutCB::?relay
     202  ZDO_EndDeviceTimeoutCB
       6  ZDO_EndDeviceTimeoutCB::?relay
      31  ZDO_Init
       6  ZDO_Init::?relay
     578  ZDO_MatchEndDeviceBind
       6  ZDO_MatchEndDeviceBind::?relay
     227  ZDO_ParseAddrRsp
       6  ZDO_ParseAddrRsp::?relay
     121  ZDO_ParseBindUnbindReq
       6  ZDO_ParseBindUnbindReq::?relay
      55  ZDO_ParseDeviceAnnce
       6  ZDO_ParseDeviceAnnce::?relay
     115  ZDO_ParseEPListRsp
       6  ZDO_ParseEPListRsp::?relay
     351  ZDO_ParseEndDeviceBindReq
       6  ZDO_ParseEndDeviceBindReq::?relay
     262  ZDO_ParseMgmNwkDiscRsp
       6  ZDO_ParseMgmNwkDiscRsp::?relay
     223  ZDO_ParseMgmtBindRsp
       6  ZDO_ParseMgmtBindRsp::?relay
     272  ZDO_ParseMgmtLqiRsp
       6  ZDO_ParseMgmtLqiRsp::?relay
     238  ZDO_ParseMgmtNwkUpdateNotify
       6  ZDO_ParseMgmtNwkUpdateNotify::?relay
     117  ZDO_ParseMgmtNwkUpdateReq
       6  ZDO_ParseMgmtNwkUpdateReq::?relay
     201  ZDO_ParseMgmtRtgRsp
       6  ZDO_ParseMgmtRtgRsp::?relay
     268  ZDO_ParseNodeDescRsp
       6  ZDO_ParseNodeDescRsp::?relay
     182  ZDO_ParseParentAnnce
       6  ZDO_ParseParentAnnce::?relay
     192  ZDO_ParsePowerDescRsp
       6  ZDO_ParsePowerDescRsp::?relay
      50  ZDO_ParseServerDiscRsp
       6  ZDO_ParseServerDiscRsp::?relay
     300  ZDO_ParseSimpleDescBuf
       6  ZDO_ParseSimpleDescBuf::?relay
      30  ZDO_ParseSimpleDescRsp
       6  ZDO_ParseSimpleDescRsp::?relay
     141  ZDO_ParseUserDescRsp
       6  ZDO_ParseUserDescRsp::?relay
     120  ZDO_ProcessActiveEPReq
       6  ZDO_ProcessActiveEPReq::?relay
     413  ZDO_ProcessBindUnbindReq
       6  ZDO_ProcessBindUnbindReq::?relay
     616  ZDO_ProcessDeviceAnnce
       6  ZDO_ProcessDeviceAnnce::?relay
    1099  ZDO_ProcessMatchDescReq
       6  ZDO_ProcessMatchDescReq::?relay
     273  ZDO_ProcessMgmtBindReq
       6  ZDO_ProcessMgmtBindReq::?relay
      85  ZDO_ProcessMgmtDirectJoinReq
       6  ZDO_ProcessMgmtDirectJoinReq::?relay
     176  ZDO_ProcessMgmtLeaveReq
       6  ZDO_ProcessMgmtLeaveReq::?relay
     749  ZDO_ProcessMgmtLqiReq
       6  ZDO_ProcessMgmtLqiReq::?relay
     128  ZDO_ProcessMgmtNwkDiscReq
       6  ZDO_ProcessMgmtNwkDiscReq::?relay
     121  ZDO_ProcessMgmtPermitJoinReq
       6  ZDO_ProcessMgmtPermitJoinReq::?relay
     245  ZDO_ProcessMgmtRtgReq
       6  ZDO_ProcessMgmtRtgReq::?relay
      72  ZDO_ProcessNodeDescReq
       6  ZDO_ProcessNodeDescReq::?relay
       3  ZDO_ProcessNodeDescRsp
       6  ZDO_ProcessNodeDescRsp::?relay
     495  ZDO_ProcessParentAnnce
       6  ZDO_ProcessParentAnnce::?relay
     179  ZDO_ProcessParentAnnceRsp
       6  ZDO_ProcessParentAnnceRsp::?relay
      71  ZDO_ProcessPowerDescReq
       6  ZDO_ProcessPowerDescReq::?relay
      70  ZDO_ProcessServerDiscReq
       6  ZDO_ProcessServerDiscReq::?relay
     125  ZDO_ProcessSimpleDescReq
       6  ZDO_ProcessSimpleDescReq::?relay
      80  ZDO_ProcessSimpleDescRsp
       6  ZDO_ProcessSimpleDescRsp::?relay
     195  ZDO_ProcessUserDescReq
       6  ZDO_ProcessUserDescReq::?relay
     298  ZDO_ProcessUserDescSet
       6  ZDO_ProcessUserDescSet::?relay
     108  ZDO_RemoveMatchMemory
       6  ZDO_RemoveMatchMemory::?relay
     156  ZDO_StartDevice
       6  ZDO_StartDevice::?relay
      51  ZDO_UpdateAddrManager
       6  ZDO_UpdateAddrManager::?relay
      85  ZDO_UpdateNwkStatus
       6  ZDO_UpdateNwkStatus::?relay
       4  __Constant_3e8
       4  apsChannelMask
       2  matchED
      73  zdoSendStateChangeMsg
       6  zdoSendStateChangeMsg::?relay
       2  zdpExternalStateTaskID

 
 13 292 bytes in segment BANKED_CODE
    330 bytes in segment BANK_RELAYS
      2 bytes in segment XDATA_I
      2 bytes in segment XDATA_ID
    130 bytes in segment XDATA_ROM_C
     60 bytes in segment XDATA_Z
 
 13 624 bytes of CODE  memory
    126 bytes of CONST memory (+ 4 bytes shared)
     62 bytes of XDATA memory

Errors: none
Warnings: none
